 Osyssrv

 Timestamp is 595e0a1a (Thu Jul 06 11:59:54 2017)

 Preferred load address is 0000000140000000

 Start         Length     Name                   Class
 0001:00000000 0015447dH .text                   CODE
 0001:00154480 0000c89cH .text$x                 CODE
 0001:00160d20 0000001cH .text$yc                CODE
 0001:00160d40 0000004aH .text$yd                CODE
 0002:00000000 000006e8H .idata$5                DATA
 0002:000006e8 00000008H .CRT$XCA                DATA
 0002:000006f0 00000010H .CRT$XCU                DATA
 0002:00000700 00000008H .CRT$XCZ                DATA
 0002:00000708 00000008H .CRT$XIA                DATA
 0002:00000710 00000020H .CRT$XIC                DATA
 0002:00000730 00000008H .CRT$XIY                DATA
 0002:00000738 00000008H .CRT$XIZ                DATA
 0002:00000740 00000008H .CRT$XPA                DATA
 0002:00000748 00000008H .CRT$XPX                DATA
 0002:00000750 00000008H .CRT$XPXA               DATA
 0002:00000758 00000008H .CRT$XPZ                DATA
 0002:00000760 00000008H .CRT$XTA                DATA
 0002:00000768 00000008H .CRT$XTZ                DATA
 0002:00000770 00019a80H .rdata                  DATA
 0002:0001a1f0 00000066H .rdata$debug            DATA
 0002:0001a258 0000552cH .rdata$r                DATA
 0002:0001f788 00000008H .rtc$IAA                DATA
 0002:0001f790 00000008H .rtc$IZZ                DATA
 0002:0001f798 00000008H .rtc$TAA                DATA
 0002:0001f7a0 00000008H .rtc$TZZ                DATA
 0002:0001f7a8 0002a468H .xdata                  DATA
 0002:00049c10 000002e4H .xdata$x                DATA
 0002:00049ef8 00000000H ATL$__a                 DATA
 0002:00049ef8 00000000H ATL$__z                 DATA
 0002:00049ef8 00000078H .idata$2                DATA
 0002:00049f70 00000014H .idata$3                DATA
 0002:00049f88 000006e8H .idata$4                DATA
 0002:0004a670 00000d88H .idata$6                DATA
 0002:0004b3f8 00000000H .edata                  DATA
 0003:00000000 00009fa0H .data                   DATA
 0003:00009fa0 00006288H .bss                    DATA
 0004:00000000 0000b850H .pdata                  DATA

  Address         Publics by Value              Rva+Base               Lib:Object

 0000:00000000       ___safe_se_handler_count   0000000000000000     <absolute>
 0000:00000000       ___safe_se_handler_table   0000000000000000     <absolute>
 0000:00000000       __ImageBase                0000000140000000     <linker-defined>
 0001:00000000       ??0CElement@@QEAA@HH@Z     0000000140001000 f i Fenetre.obj
 0001:00000170       ??1CElement@@UEAA@XZ       0000000140001170 f i Fenetre.obj
 0001:000001e0       ?EcritArchive@CElement@@UEAAXAEAVCOutputArchive@@PEADH@Z 00000001400011e0 f i Fenetre.obj
 0001:00000250       ?LitArchive@CElement@@UEAAHAEAVCInputArchive@@H@Z 0000000140001250 f i Fenetre.obj
 0001:00000480       ?LitNomElement@CElement@@UEAAXAEAVCString@@PEAD@Z 0000000140001480 f i Fenetre.obj
 0001:00000490       ?EcritNomElement@CElement@@UEAAXAEAVCString@@PEAD@Z 0000000140001490 f i Fenetre.obj
 0001:000004a0       ?UtiliseAction@CBaseAction@@UEAAHHH@Z 00000001400014a0 f i baseaction.obj
 0001:000004a0       ?ExecuteActionFin@CBaseAction@@UEAAHPEAPEAX@Z 00000001400014a0 f i baseaction.obj
 0001:000004a0       ?TestAction@CBaseAction@@UEAAHPEAPEAX@Z 00000001400014a0 f i baseaction.obj
 0001:000004a0       ?UtiliseId@CElement@@UEAAHHAEAVCOutputArchive@@PEAD@Z 00000001400014a0 f i Fenetre.obj
 0001:000004a0       ?StockageEnFichier@CRamMemoire@@UEAAHXZ 00000001400014a0 f i Contenu.obj
 0001:000004a0       ?LitMaxIndexMemoire@CFichierMemoire@@UEAAHXZ 00000001400014a0 f i FichierMemoire.obj
 0001:000004a0       ?UtiliseId@CBaseAction@@UEAAHH@Z 00000001400014a0 f i baseaction.obj
 0001:000004a0       ?FermeArchive@CInputOutputStringArchive@@UEAAHXZ 00000001400014a0 f i InputOutputStringArchive.obj
 0001:000004a0       ?StockageEnFichier@CTypeArchiveMemoire@@UEAAHXZ 00000001400014a0 f i Contenu.obj
 0001:000004b0       ??_ECElement@@UEAAPEAXI@Z  00000001400014b0 f i  CIL library: CIL module
 0001:000004b0       ??_GCElement@@UEAAPEAXI@Z  00000001400014b0 f i Fenetre.obj
 0001:000004e0       ?RepertoireExiste@CRepertoire@@SAHVCString@@@Z 00000001400014e0 f i Fenetre.obj
 0001:00000580       ?FichierExiste@CRepertoire@@SAHVCString@@@Z 0000000140001580 f i Fenetre.obj
 0001:00000620       ?EffaceFichier@CRepertoire@@SAHVCString@@@Z 0000000140001620 f i Fenetre.obj
 0001:00000690       ??_ECFenetre@@UEAAPEAXI@Z  0000000140001690 f i  CIL library: CIL module
 0001:00000690       ??_GCFenetre@@UEAAPEAXI@Z  0000000140001690 f i Fenetre.obj
 0001:000006d0       ?EcritArchive@CFenetre@@UEAAXAEAVCOutputArchive@@PEADH@Z 00000001400016d0 f   Fenetre.obj
 0001:000006e0       ?LitArchive@CFenetre@@UEAAHAEAVCInputArchive@@H@Z 00000001400016e0 f   Fenetre.obj
 0001:00001ec0       ?LitFicFenetre@CFenetre@@QEAAHAEAVCOutputArchive@@@Z 0000000140002ec0 f   Fenetre.obj
 0001:00002700       ?EcritFicFenetre@CFenetre@@QEAAHAEAVCInputArchive@@AEAVCOutputArchive@@@Z 0000000140003700 f   Fenetre.obj
 0001:00002e10       ?RecupereNomFic@CFenetre@@AEAAXAEAVCString@@@Z 0000000140003e10 f   Fenetre.obj
 0001:00003050       ?UtiliseId@CFenetre@@UEAAHHAEAVCOutputArchive@@PEAD@Z 0000000140004050 f   Fenetre.obj
 0001:000033c0       ?EcritArchiveWeb@CFenetre@@QEAAXAEAVCOutputArchive@@PEAD1HHH@Z 00000001400043c0 f   Fenetre.obj
 0001:000036c0       ?EcritArchiveWin@CFenetre@@QEAAXAEAVCOutputArchive@@PEADHH@Z 00000001400046c0 f   Fenetre.obj
 0001:00003a20       ?IsConsoleWebExisteGestConsoleWeb@CFenetre@@QEAAHPEAD00@Z 0000000140004a20 f   Fenetre.obj
 0001:00003b30       ?GetContenuConsoleWeb@CFenetre@@QEAAHAEAVCOutputArchive@@PEAD111@Z 0000000140004b30 f   Fenetre.obj
 0001:000043a0       ?GetContenuConsoleWeb@CFenetre@@QEAAHAEAVCOutputArchive@@PEAD1@Z 00000001400053a0 f   Fenetre.obj
 0001:00004ba0       ?GetDirConsoleWeb@CFenetre@@QEAAXAEAVCString@@PEAD1@Z 0000000140005ba0 f   Fenetre.obj
 0001:00004da0       ?GetUrlConsoleWeb@CFenetre@@QEAAXAEAVCString@@PEAD111H@Z 0000000140005da0 f   Fenetre.obj
 0001:000056a0       ?AddParamUrl@CFenetre@@QEAAXAEAVCString@@PEAD11H@Z 00000001400066a0 f   Fenetre.obj
 0001:00005cb0       ?LitXmlDefConsoleWeb@CFenetre@@QEAAXAEAVCFicXML@@PEAD1H@Z 0000000140006cb0 f   Fenetre.obj
 0001:000062a0       ?LitProprieteFenetre@CFenetre@@QEAAXAEAVCProprieteFenetre@@@Z 00000001400072a0 f   Fenetre.obj
 0001:00006460       ?ValideTypeUrlWeb@CFenetre@@QEAAHPEAD00HH0AEAVCString@@@Z 0000000140007460 f   Fenetre.obj
 0001:00006940       ??_GCGroupeFenetre@@UEAAPEAXI@Z 0000000140007940 f i GroupeFenetre.obj
 0001:00006940       ??_ECGroupeFenetre@@UEAAPEAXI@Z 0000000140007940 f i  CIL library: CIL module
 0001:00006980       ?NewElement@CGroupeFenetre@@UEAAPEAVCElement@@HH@Z 0000000140007980 f   GroupeFenetre.obj
 0001:000069f0       ?LitDefExecElement@CGroupeFenetre@@UEAAXAEAVCOutputArchive@@HHPEADH@Z 00000001400079f0 f   GroupeFenetre.obj
 0001:00006b20       ?LitDefConsoleWeb@CGroupeFenetre@@QEAAXAEAVCFicXML@@HPEADH@Z 0000000140007b20 f   GroupeFenetre.obj
 0001:00006c00       ??_ECListeGroupeFenetre@@UEAAPEAXI@Z 0000000140007c00 f i  CIL library: CIL module
 0001:00006c00       ??_GCListeGroupeFenetre@@UEAAPEAXI@Z 0000000140007c00 f i ListeGroupeFenetre.obj
 0001:00006c40       ?NewGroupe@CListeGroupeFenetre@@UEAAPEAVCGroupe@@PEAVCListeGroupe@@HH@Z 0000000140007c40 f   ListeGroupeFenetre.obj
 0001:00006cc0       ?SupprimeElement@CListeGroupeFenetre@@UEAAHAEAVCOutputArchive@@HHH@Z 0000000140007cc0 f   ListeGroupeFenetre.obj
 0001:00007120       ?LitDefConsoleWeb@CListeGroupeFenetre@@QEAAXAEAVCFicXML@@HH@Z 0000000140008120 f   ListeGroupeFenetre.obj
 0001:00007210       ?FindDefConsoleWeb@CListeGroupeFenetre@@QEAAXAEAVCFicXML@@PEADH@Z 0000000140008210 f   ListeGroupeFenetre.obj
 0001:00007320       ??0CProprieteFenetre@@QEAA@XZ 0000000140008320 f   ProprieteFenetre.obj
 0001:00007460       ??_GCProprieteFenetre@@UEAAPEAXI@Z 0000000140008460 f i ProprieteFenetre.obj
 0001:00007460       ??_ECProprieteFenetre@@UEAAPEAXI@Z 0000000140008460 f i  CIL library: CIL module
 0001:00007490       ??1CProprieteFenetre@@UEAA@XZ 0000000140008490 f   ProprieteFenetre.obj
 0001:000075a0       ?LitArchive@CProprieteFenetre@@QEAAXAEAVCInputArchive@@@Z 00000001400085a0 f   ProprieteFenetre.obj
 0001:000081b0       ??_GCResultatFenetre@@UEAAPEAXI@Z 00000001400091b0 f i ResultatFenetre.obj
 0001:000081b0       ??_ECResultatFenetre@@UEAAPEAXI@Z 00000001400091b0 f i  CIL library: CIL module
 0001:00008210       ?LitArchive@CResultatFenetre@@QEAAHAEAVCInputArchive@@@Z 0000000140009210 f   ResultatFenetre.obj
 0001:00008730       ?EcritArchive@CResultatFenetre@@QEAAHAEAVCOutputArchive@@@Z 0000000140009730 f   ResultatFenetre.obj
 0001:00008870       ??0CActionAffichage@@QEAA@H@Z 0000000140009870 f   ActionAffichage.obj
 0001:000089d0       ??_GCActionAffichage@@UEAAPEAXI@Z 00000001400099d0 f i ActionAffichage.obj
 0001:000089d0       ??_ECActionAffichage@@UEAAPEAXI@Z 00000001400099d0 f i  CIL library: CIL module
 0001:00008a00       ??1CActionAffichage@@UEAA@XZ 0000000140009a00 f   ActionAffichage.obj
 0001:00008aa0       ?ExecuteAction@CActionAffichage@@UEAAHPEAPEAX@Z 0000000140009aa0 f   ActionAffichage.obj
 0001:00008ea0       ?TestAction@CActionAffichage@@UEAAHPEAPEAX@Z 0000000140009ea0 f   ActionAffichage.obj
 0001:00008f90       ?GenereXmlAfficheReq@CActionAffichage@@QEAAXAEAVCMemXml@@AEAVCDefEnregXml@@PEAVCResultatRequete@@@Z 0000000140009f90 f   ActionAffichage.obj
 0001:00009300       ?ConstruitMessage@CActionAffichage@@QEAAXPEAUt_infoContexte@@AEAVCString@@@Z 000000014000a300 f   ActionAffichage.obj
 0001:000098c0       ?PositionneZoneSaisie@CActionAffichage@@QEAAXPEADHPEAUt_infoContexte@@@Z 000000014000a8c0 f   ActionAffichage.obj
 0001:00009c40       ?RenseigneZoneAffichage@CActionAffichage@@QEAAXPEADHPEAUt_infoContexte@@@Z 000000014000ac40 f   ActionAffichage.obj
 0001:0000a730       ?GenereActionXml@CActionAffichage@@QEAAHPEAUt_infoContexte@@@Z 000000014000b730 f   ActionAffichage.obj
 0001:0000b040       ??_GCMemXml@@QEAAPEAXI@Z   000000014000c040 f i ActionAffichage.obj
 0001:0000b090       ?UtiliseId@CActionAffichage@@UEAAHH@Z 000000014000c090 f   ActionAffichage.obj
 0001:0000b150       ?LitArchiveEx@CActionAffichage@@UEAAXPEADAEAVCInputArchive@@@Z 000000014000c150 f   ActionAffichage.obj
 0001:0000b4f0       ?EcritArchiveEx@CActionAffichage@@UEAAXAEAVCOutputArchive@@@Z 000000014000c4f0 f   ActionAffichage.obj
 0001:0000ba90       ?LitListeMemArchive@CActionAffichage@@QEAAXAEAVCInputArchive@@@Z 000000014000ca90 f   ActionAffichage.obj
 0001:0000bce0       ??_GCActionFaireTantQue@@UEAAPEAXI@Z 000000014000cce0 f i ActionFaireTantQue.obj
 0001:0000bce0       ??_ECActionFaireTantQue@@UEAAPEAXI@Z 000000014000cce0 f i  CIL library: CIL module
 0001:0000bd10       ??1CActionFaireTantQue@@UEAA@XZ 000000014000cd10 f   ActionFaireTantQue.obj
 0001:0000bd90       ?TestAction@CActionFaireTantQue@@UEAAHPEAPEAX@Z 000000014000cd90 f   ActionFaireTantQue.obj
 0001:0000c170       ?UtiliseId@CActionTantQue@@UEAAHH@Z 000000014000d170 f   ActionTantQue.obj
 0001:0000c170       ?UtiliseId@CActionTestMem@@UEAAHH@Z 000000014000d170 f   ActionTestMem.obj
 0001:0000c170       ?UtiliseId@CActionFaireTantQue@@UEAAHH@Z 000000014000d170 f   ActionFaireTantQue.obj
 0001:0000c1a0       ?EcritArchiveEx@CActionTestMem@@UEAAXAEAVCOutputArchive@@@Z 000000014000d1a0 f   ActionTestMem.obj
 0001:0000c1a0       ?EcritArchiveEx@CActionTantQue@@UEAAXAEAVCOutputArchive@@@Z 000000014000d1a0 f   ActionTantQue.obj
 0001:0000c1a0       ?EcritArchiveEx@CActionFaireTantQue@@UEAAXAEAVCOutputArchive@@@Z 000000014000d1a0 f   ActionFaireTantQue.obj
 0001:0000c320       ??_GCActionFiltrage@@UEAAPEAXI@Z 000000014000d320 f i ActionFiltrage.obj
 0001:0000c320       ??_ECActionFiltrage@@UEAAPEAXI@Z 000000014000d320 f i  CIL library: CIL module
 0001:0000c350       ??1CActionFiltrage@@UEAA@XZ 000000014000d350 f   ActionFiltrage.obj
 0001:0000c3d0       ?ExecuteAction@CActionFiltrage@@UEAAHPEAPEAX@Z 000000014000d3d0 f   ActionFiltrage.obj
 0001:0000c870       ?Extrait@CActionFiltrage@@QEAAXPEADAEAVCString@@@Z 000000014000d870 f   ActionFiltrage.obj
 0001:0000ca40       ?UtiliseId@CActionFiltrage@@UEAAHH@Z 000000014000da40 f   ActionFiltrage.obj
 0001:0000ca70       ?LitArchiveEx@CActionFiltrage@@UEAAXPEADAEAVCInputArchive@@@Z 000000014000da70 f   ActionFiltrage.obj
 0001:0000cc10       ?EcritArchiveEx@CActionFiltrage@@UEAAXAEAVCOutputArchive@@@Z 000000014000dc10 f   ActionFiltrage.obj
 0001:0000ce30       ?ExecuteAction@CActionFinBoucle@@UEAAHPEAPEAX@Z 000000014000de30 f   ActionFinBoucle.obj
 0001:0000ce70       ??_ECActionLibrairie@@UEAAPEAXI@Z 000000014000de70 f i  CIL library: CIL module
 0001:0000ce70       ??_ECBaseAction@@UEAAPEAXI@Z 000000014000de70 f i  CIL library: CIL module
 0001:0000ce70       ??_GCActionGroupe@@UEAAPEAXI@Z 000000014000de70 f i ActionGroupe.obj
 0001:0000ce70       ??_ECActionFinBoucle@@UEAAPEAXI@Z 000000014000de70 f i  CIL library: CIL module
 0001:0000ce70       ??_GCActionTempo@@UEAAPEAXI@Z 000000014000de70 f i ActionTempo.obj
 0001:0000ce70       ??_GCActionSaisie@@UEAAPEAXI@Z 000000014000de70 f i ActionSaisie.obj
 0001:0000ce70       ??_ECActionFinScenario@@UEAAPEAXI@Z 000000014000de70 f i  CIL library: CIL module
 0001:0000ce70       ??_ECActionTempo@@UEAAPEAXI@Z 000000014000de70 f i  CIL library: CIL module
 0001:0000ce70       ??_GCActionLibrairie@@UEAAPEAXI@Z 000000014000de70 f i ActionLibrairie.obj
 0001:0000ce70       ??_ECActionSaisie@@UEAAPEAXI@Z 000000014000de70 f i  CIL library: CIL module
 0001:0000ce70       ??_ECActionGroupe@@UEAAPEAXI@Z 000000014000de70 f i  CIL library: CIL module
 0001:0000ce70       ??_GCActionFinScenario@@UEAAPEAXI@Z 000000014000de70 f i ActionFinScenario.obj
 0001:0000ce70       ??_GCActionFinBoucle@@UEAAPEAXI@Z 000000014000de70 f i ActionFinBoucle.obj
 0001:0000ce70       ??_GCBaseAction@@UEAAPEAXI@Z 000000014000de70 f i baseaction.obj
 0001:0000ced0       ?ExecuteAction@CActionFinScenario@@UEAAHPEAPEAX@Z 000000014000ded0 f   ActionFinScenario.obj
 0001:0000cf10       ??0CActionImprimeEtat@@QEAA@H@Z 000000014000df10 f   ActionImprimeEtat.obj
 0001:0000cf90       ??_GCActionImprimeEtat@@UEAAPEAXI@Z 000000014000df90 f i ActionImprimeEtat.obj
 0001:0000cf90       ??_ECActionImprimeEtat@@UEAAPEAXI@Z 000000014000df90 f i  CIL library: CIL module
 0001:0000cfc0       ??1CActionImprimeEtat@@UEAA@XZ 000000014000dfc0 f   ActionImprimeEtat.obj
 0001:0000d070       ?ExecuteAction@CActionImprimeEtat@@UEAAHPEAPEAX@Z 000000014000e070 f   ActionImprimeEtat.obj
 0001:0000d170       ?UtiliseId@CActionImprimeEtat@@UEAAHH@Z 000000014000e170 f   ActionImprimeEtat.obj
 0001:0000d1a0       ?LitArchiveEx@CActionImprimeEtat@@UEAAXPEADAEAVCInputArchive@@@Z 000000014000e1a0 f   ActionImprimeEtat.obj
 0001:0000d320       ?EcritArchiveEx@CActionImprimeEtat@@UEAAXAEAVCOutputArchive@@@Z 000000014000e320 f   ActionImprimeEtat.obj
 0001:0000d4e0       ?UtiliseAction@CActionLibrairie@@UEAAHHH@Z 000000014000e4e0 f   ActionLibrairie.obj
 0001:0000d500       ?UtiliseId@CActionSousScenario@@UEAAHH@Z 000000014000e500 f   ActionSousScenario.obj
 0001:0000d500       ?UtiliseId@CActionLibrairie@@UEAAHH@Z 000000014000e500 f   ActionLibrairie.obj
 0001:0000d520       ?LitArchiveEx@CActionLibrairie@@UEAAXPEADAEAVCInputArchive@@@Z 000000014000e520 f   ActionLibrairie.obj
 0001:0000d620       ?EcritArchiveEx@CActionLibrairie@@UEAAXAEAVCOutputArchive@@@Z 000000014000e620 f   ActionLibrairie.obj
 0001:0000d700       ??1COpMem@@UEAA@XZ         000000014000e700 f i ActionOpMem.obj
 0001:0000d780       ??_ECOpMem@@UEAAPEAXI@Z    000000014000e780 f i  CIL library: CIL module
 0001:0000d780       ??_GCOpMem@@UEAAPEAXI@Z    000000014000e780 f i ActionOpMem.obj
 0001:0000d7b0       ??_ECActionOpMem@@UEAAPEAXI@Z 000000014000e7b0 f i  CIL library: CIL module
 0001:0000d7b0       ??_GCActionOpMem@@UEAAPEAXI@Z 000000014000e7b0 f i ActionOpMem.obj
 0001:0000d7e0       ??1CActionOpMem@@UEAA@XZ   000000014000e7e0 f   ActionOpMem.obj
 0001:0000d890       ?RazListe@CActionOpMem@@QEAAXXZ 000000014000e890 f   ActionOpMem.obj
 0001:0000d980       ?ExecuteAction@CActionOpMem@@UEAAHPEAPEAX@Z 000000014000e980 f   ActionOpMem.obj
 0001:0000e2b0       ?RechercheValeur@CActionOpMem@@QEAAXPEAUt_infoContexte@@PEADAEAVCString@@@Z 000000014000f2b0 f   ActionOpMem.obj
 0001:0000e4f0       ?FiltreChaine@CActionOpMem@@QEAAHPEADAEAVCString@@@Z 000000014000f4f0 f   ActionOpMem.obj
 0001:0000ea30       ?MessReponseCalcul@CActionOpMem@@QEAAXPEAPEAXHPEAVCOpMem@@PEAD22@Z 000000014000fa30 f   ActionOpMem.obj
 0001:0000f1c0       ?UtiliseId@CActionOpMem@@UEAAHH@Z 00000001400101c0 f   ActionOpMem.obj
 0001:0000f210       ?LitArchiveEx@CActionOpMem@@UEAAXPEADAEAVCInputArchive@@@Z 0000000140010210 f   ActionOpMem.obj
 0001:0000f6c0       ?EcritArchiveEx@CActionOpMem@@UEAAXAEAVCOutputArchive@@@Z 00000001400106c0 f   ActionOpMem.obj
 0001:0000f930       ??_ECActionRequete@@UEAAPEAXI@Z 0000000140010930 f i  CIL library: CIL module
 0001:0000f930       ??_GCActionRequete@@UEAAPEAXI@Z 0000000140010930 f i ActionRequete.obj
 0001:0000f960       ??1CActionRequete@@UEAA@XZ 0000000140010960 f   ActionRequete.obj
 0001:0000f9d0       ?ExecuteAction@CActionRequete@@UEAAHPEAPEAX@Z 00000001400109d0 f   ActionRequete.obj
 0001:0000fbe0       ?ExecuteActionFin@CActionRequete@@UEAAHPEAPEAX@Z 0000000140010be0 f   ActionRequete.obj
 0001:00010130       ?InsereValDansMem@CActionRequete@@QEAAXPEAUt_infoContexte@@HHH@Z 0000000140011130 f   ActionRequete.obj
 0001:00010610       ?UtiliseId@CActionRequete@@UEAAHH@Z 0000000140011610 f   ActionRequete.obj
 0001:00010680       ?LitArchiveEx@CActionRequete@@UEAAXPEADAEAVCInputArchive@@@Z 0000000140011680 f   ActionRequete.obj
 0001:00010a50       ?EcritArchiveEx@CActionRequete@@UEAAXAEAVCOutputArchive@@@Z 0000000140011a50 f   ActionRequete.obj
 0001:00010c90       ?ExecuteAction@CActionSaisie@@UEAAHPEAPEAX@Z 0000000140011c90 f   ActionSaisie.obj
 0001:00010d50       ?ExecuteActionFin@CActionSaisie@@UEAAHPEAPEAX@Z 0000000140011d50 f   ActionSaisie.obj
 0001:00010f70       ?UtiliseId@CActionSaisie@@UEAAHH@Z 0000000140011f70 f   ActionSaisie.obj
 0001:00010f90       ?LitArchiveEx@CActionSaisie@@UEAAXPEADAEAVCInputArchive@@@Z 0000000140011f90 f   ActionSaisie.obj
 0001:00011090       ?EcritArchiveEx@CActionSaisie@@UEAAXAEAVCOutputArchive@@@Z 0000000140012090 f   ActionSaisie.obj
 0001:00011170       ??_GCActionSousScenario@@UEAAPEAXI@Z 0000000140012170 f i ActionSousScenario.obj
 0001:00011170       ??_ECActionSousScenario@@UEAAPEAXI@Z 0000000140012170 f i  CIL library: CIL module
 0001:000111a0       ??1CActionSousScenario@@UEAA@XZ 00000001400121a0 f   ActionSousScenario.obj
 0001:00011220       ?ExecuteAction@CActionSousScenario@@UEAAHPEAPEAX@Z 0000000140012220 f   ActionSousScenario.obj
 0001:000113d0       ?LitArchiveEx@CActionSousScenario@@UEAAXPEADAEAVCInputArchive@@@Z 00000001400123d0 f   ActionSousScenario.obj
 0001:000114d0       ?EcritArchiveEx@CActionSousScenario@@UEAAXAEAVCOutputArchive@@@Z 00000001400124d0 f   ActionSousScenario.obj
 0001:000115a0       ??_ECActionTantQue@@UEAAPEAXI@Z 00000001400125a0 f i  CIL library: CIL module
 0001:000115a0       ??_GCActionTantQue@@UEAAPEAXI@Z 00000001400125a0 f i ActionTantQue.obj
 0001:000115d0       ??1CActionTantQue@@UEAA@XZ 00000001400125d0 f   ActionTantQue.obj
 0001:00011650       ?TestAction@CActionTantQue@@UEAAHPEAPEAX@Z 0000000140012650 f   ActionTantQue.obj
 0001:00011a00       ?LitArchiveEx@CActionFaireTantQue@@UEAAXPEADAEAVCInputArchive@@@Z 0000000140012a00 f   ActionFaireTantQue.obj
 0001:00011a00       ?LitArchiveEx@CActionTestMem@@UEAAXPEADAEAVCInputArchive@@@Z 0000000140012a00 f   ActionTestMem.obj
 0001:00011a00       ?LitArchiveEx@CActionTantQue@@UEAAXPEADAEAVCInputArchive@@@Z 0000000140012a00 f   ActionTantQue.obj
 0001:00011b50       ?ExecuteAction@CActionTempo@@UEAAHPEAPEAX@Z 0000000140012b50 f   ActionTempo.obj
 0001:00011d00       ?LitArchiveEx@CActionTempo@@UEAAXPEADAEAVCInputArchive@@@Z 0000000140012d00 f   ActionTempo.obj
 0001:00011de0       ?EcritArchiveEx@CActionTempo@@UEAAXAEAVCOutputArchive@@@Z 0000000140012de0 f   ActionTempo.obj
 0001:00011e60       ??0CActionTerminal@@QEAA@H@Z 0000000140012e60 f   ActionTerminal.obj
 0001:00011ef0       ??_ECActionTerminal@@UEAAPEAXI@Z 0000000140012ef0 f i  CIL library: CIL module
 0001:00011ef0       ??_GCActionTerminal@@UEAAPEAXI@Z 0000000140012ef0 f i ActionTerminal.obj
 0001:00011f60       ?ExecuteAction@CActionTerminal@@UEAAHPEAPEAX@Z 0000000140012f60 f   ActionTerminal.obj
 0001:00012370       ?LitLangueTerminal@CActionTerminal@@QEAAHPEAUt_infoContexte@@AEAVCString@@@Z 0000000140013370 f   ActionTerminal.obj
 0001:00012670       ?CreateListContMem@CActionTerminal@@QEAAXPEAUt_infoContexte@@PEAVCTabPtr@@1@Z 0000000140013670 f   ActionTerminal.obj
 0001:00012850       ?DeleteListContMem@CActionTerminal@@QEAAXPEAVCTabPtr@@0@Z 0000000140013850 f   ActionTerminal.obj
 0001:00012920       ?UtiliseId@CActionTerminal@@UEAAHH@Z 0000000140013920 f   ActionTerminal.obj
 0001:00012980       ?LitArchiveEx@CActionTerminal@@UEAAXPEADAEAVCInputArchive@@@Z 0000000140013980 f   ActionTerminal.obj
 0001:00012b40       ?EcritArchiveEx@CActionTerminal@@UEAAXAEAVCOutputArchive@@@Z 0000000140013b40 f   ActionTerminal.obj
 0001:00012d30       ?LitListeMemArchive@CActionTerminal@@QEAAXAEAVCInputArchive@@@Z 0000000140013d30 f   ActionTerminal.obj
 0001:00012f80       ??_ECActionTestMem@@UEAAPEAXI@Z 0000000140013f80 f i  CIL library: CIL module
 0001:00012f80       ??_GCActionTestMem@@UEAAPEAXI@Z 0000000140013f80 f i ActionTestMem.obj
 0001:00012fb0       ??1CActionTestMem@@UEAA@XZ 0000000140013fb0 f   ActionTestMem.obj
 0001:00013030       ?TestAction@CActionTestMem@@UEAAHPEAPEAX@Z 0000000140014030 f   ActionTestMem.obj
 0001:000133e0       ?NouvelleAction@CAction@@SAPEAVCBaseAction@@HH@Z 00000001400143e0 f i baseaction.obj
 0001:00013920       ??0CBaseAction@@QEAA@H@Z   0000000140014920 f   baseaction.obj
 0001:000139b0       ??1CBaseAction@@UEAA@XZ    00000001400149b0 f   baseaction.obj
 0001:000139f0       ?LitArchive@CBaseAction@@UEAAXAEAVCInputArchive@@PEAVCListAction@@@Z 00000001400149f0 f   baseaction.obj
 0001:00013e90       ?ExecuteAction@CBaseAction@@UEAAHPEAPEAX@Z 0000000140014e90 f   baseaction.obj
 0001:000141a0       ?Base64Code@CBase64@@SAHPEADH0H@Z 00000001400151a0 f   Base64.obj
 0001:000142f0       ?Base64Decode@CBase64@@SAHPEADH0H@Z 00000001400152f0 f   Base64.obj
 0001:00014440       ??0CBaseSocket@@QEAA@XZ    0000000140015440 f   BaseSocket.obj
 0001:000144b0       ?Code@CChaineTransfert@@SAXPEADAEAVCString@@@Z 00000001400154b0 f   ChaineTransfert.obj
 0001:00014640       ?Decode@CChaineTransfert@@SAXPEAD@Z 0000000140015640 f   ChaineTransfert.obj
 0001:00014720       ??1CMapIntToPtr@@QEAA@XZ   0000000140015720 f   CMapIntToPtr.obj
 0001:00014780       ?NewAssoc@CMapIntToPtr@@IEAAPEAUCAssoc@1@XZ 0000000140015780 f   CMapIntToPtr.obj
 0001:00014810       ??ACMapIntToPtr@@QEAAAEAPEAXH@Z 0000000140015810 f   CMapIntToPtr.obj
 0001:000148e0       ?RemoveKey@CMapIntToPtr@@QEAAHH@Z 00000001400158e0 f   CMapIntToPtr.obj
 0001:000149a0       ?RemoveAll@CMapStringToPtr@@QEAAXXZ 00000001400159a0 f   CMapStringToPtr.obj
 0001:00014a70       ??1CMapStringToPtr@@QEAA@XZ 0000000140015a70 f   CMapStringToPtr.obj
 0001:00014a80       ?NewAssoc@CMapStringToPtr@@IEAAPEAUCAssoc@1@XZ 0000000140015a80 f   CMapStringToPtr.obj
 0001:00014b10       ?Lookup@CMapStringToPtr@@QEBAHPEADAEAPEAX@Z 0000000140015b10 f   CMapStringToPtr.obj
 0001:00014bb0       ??ACMapStringToPtr@@QEAAAEAPEAXPEAD@Z 0000000140015bb0 f   CMapStringToPtr.obj
 0001:00014ce0       ?RemoveKey@CMapStringToPtr@@QEAAHPEAD@Z 0000000140015ce0 f   CMapStringToPtr.obj
 0001:00014dd0       ?GetNextAssoc@CMapStringToPtr@@QEBAXAEAHAEAVCString@@AEAPEAX@Z 0000000140015dd0 f   CMapStringToPtr.obj
 0001:00014f10       ?EstUnNombre@CComparaison@@SAHPEBDPEAN@Z 0000000140015f10 f   Comparaison.obj
 0001:00015020       ?Test@CComparaison@@SAHPEADH0@Z 0000000140016020 f   Comparaison.obj
 0001:00015620       ?handle_program_memory_depletion@@YAH_K@Z 0000000140016620 f   CString.obj
 0001:00015650       ??0CString@@QEAA@XZ        0000000140016650 f   CString.obj
 0001:00015650       ??0t_listeResuTemp@?1??Calcul@COperationMemoire@@QEAAHHAEAVCInputArchive@@AEAVCString@@@Z@QEAA@XZ 0000000140016650 f   OperationMemoire.obj
 0001:00015680       ??0CString@@QEAA@AEBV0@@Z  0000000140016680 f   CString.obj
 0001:000156c0       ?AllocBuffer@CString@@IEAAXH@Z 00000001400166c0 f   CString.obj
 0001:00015720       ?Empty@CString@@QEAAXXZ    0000000140016720 f   CString.obj
 0001:00015780       ?CopyBeforeWrite@CString@@IEAAXXZ 0000000140016780 f   CString.obj
 0001:00015830       ?AllocBeforeWrite@CString@@IEAAXH@Z 0000000140016830 f   CString.obj
 0001:000158d0       ?AllocCopy@CString@@IEBAXAEAV1@HHH@Z 00000001400168d0 f   CString.obj
 0001:00015950       ??0CString@@QEAA@PEBD@Z    0000000140016950 f   CString.obj
 0001:000159e0       ??4CString@@QEAAAEBV0@AEBV0@@Z 00000001400169e0 f   CString.obj
 0001:00015ab0       ??4CString@@QEAAAEBV0@PEBD@Z 0000000140016ab0 f   CString.obj
 0001:00015b30       ?ConcatCopy@CString@@IEAAXHPEBDH0@Z 0000000140016b30 f   CString.obj
 0001:00015bd0       ??H@YA?AVCString@@AEBV0@0@Z 0000000140016bd0 f   CString.obj
 0001:00015c50       ??H@YA?AVCString@@AEBV0@PEBD@Z 0000000140016c50 f   CString.obj
 0001:00015ce0       ??H@YA?AVCString@@PEBDAEBV0@@Z 0000000140016ce0 f   CString.obj
 0001:00015d70       ?ConcatInPlace@CString@@IEAAXHPEBD@Z 0000000140016d70 f   CString.obj
 0001:00015e20       ??YCString@@QEAAAEBV0@PEBD@Z 0000000140016e20 f   CString.obj
 0001:00015e70       ??YCString@@QEAAAEBV0@D@Z  0000000140016e70 f   CString.obj
 0001:00015f20       ?GetBuffer@CString@@QEAAPEADH@Z 0000000140016f20 f   CString.obj
 0001:00015fe0       ?ReleaseBuffer@CString@@QEAAXH@Z 0000000140016fe0 f   CString.obj
 0001:00016030       ??H@YA?AVCString@@AEBV0@D@Z 0000000140017030 f   CString.obj
 0001:000160f0       ??H@YA?AVCString@@DAEBV0@@Z 00000001400170f0 f   CString.obj
 0001:000161b0       ?Mid@CString@@QEBA?AV1@H@Z 00000001400171b0 f   CString.obj
 0001:000161e0       ?Mid@CString@@QEBA?AV1@HH@Z 00000001400171e0 f   CString.obj
 0001:00016270       ?Right@CString@@QEBA?AV1@H@Z 0000000140017270 f   CString.obj
 0001:00016300       ?Left@CString@@QEBA?AV1@H@Z 0000000140017300 f   CString.obj
 0001:00016380       ?SpanExcluding@CString@@QEBA?AV1@PEBD@Z 0000000140017380 f   CString.obj
 0001:000163d0       ?Delete@CString@@QEAAHHH@Z 00000001400173d0 f   CString.obj
 0001:00016450       ?Insert@CString@@QEAAHHPEBD@Z 0000000140017450 f   CString.obj
 0001:00016560       ?Replace@CString@@QEAAHPEAD0@Z 0000000140017560 f   CString.obj
 0001:000167d0       ??1CStringLangue@@QEAA@XZ  00000001400177d0 f   CStringLangue.obj
 0001:00016850       ?LitMessage@CStringLangue@@QEAAXAEAVCString@@PEAD1@Z 0000000140017850 f   CStringLangue.obj
 0001:00016a50       ?EcritMessage@CStringLangue@@QEAAXAEAVCString@@PEAD@Z 0000000140017a50 f   CStringLangue.obj
 0001:00016b50       ?Recherche@CStringLangue@@QEAAPEAVCString@@PEAD@Z 0000000140017b50 f   CStringLangue.obj
 0001:00016ce0       ?SupprimeTous@CStringLangue@@QEAAXXZ 0000000140017ce0 f   CStringLangue.obj
 0001:00016d80       ?LitArchive@CStringLangue@@QEAAHAEAVCInputArchive@@@Z 0000000140017d80 f   CStringLangue.obj
 0001:000171e0       ?EcritArchive@CStringLangue@@QEAAHAEAVCOutputArchive@@PEAD@Z 00000001400181e0 f   CStringLangue.obj
 0001:000173c0       ?LitPremier@CStringLangue@@QEAAHAEAVCString@@0@Z 00000001400183c0 f   CStringLangue.obj
 0001:00017540       ?LitSuivant@CStringLangue@@QEAAHAEAVCString@@0@Z 0000000140018540 f   CStringLangue.obj
 0001:000176b0       ??YCStringLangue@@QEAAAEAV0@AEAV0@@Z 00000001400186b0 f   CStringLangue.obj
 0001:00017850       ?NewDataRequete@CDataArchive@@QEAAXXZ 0000000140018850 f   DataArchive.obj
 0001:000178a0       ?NewCString@CDataArchive@@QEAAXXZ 00000001400188a0 f   DataArchive.obj
 0001:00017900       ?NewStructureBD@CDataArchive@@QEAAXXZ 0000000140018900 f   DataArchive.obj
 0001:00017990       ?NewFenetre@CDataArchive@@QEAAXXZ 0000000140018990 f   DataArchive.obj
 0001:00017a00       ?DeleteData@CDataArchive@@QEAAXXZ 0000000140018a00 f   DataArchive.obj
 0001:00017ab0       ??_GCListCStructureTable@@QEAAPEAXI@Z 0000000140018ab0 f i DataArchive.obj
 0001:00017b10       ?UtiliseId@CDataArchive@@QEAAHH@Z 0000000140018b10 f   DataArchive.obj
 0001:00017cb0       ?EcritArchive@CDataArchive@@QEAAHAEAVCOutputArchive@@@Z 0000000140018cb0 f   DataArchive.obj
 0001:00017f60       ?LitArchive@CDataArchive@@QEAAHAEAVCInputArchive@@@Z 0000000140018f60 f   DataArchive.obj
 0001:00018710       ??4CDataArchive@@QEAAAEAV0@AEBV0@@Z 0000000140019710 f   DataArchive.obj
 0001:00018830       ??1CDefEnregXml@@QEAA@XZ   0000000140019830 f   DefEnregXml.obj
 0001:000188f0       ??_GCPtrList@@QEAAPEAXI@Z  00000001400198f0 f i DefEnregXml.obj
 0001:00018950       ??_GCDefChampXml@@QEAAPEAXI@Z 0000000140019950 f i DefEnregXml.obj
 0001:000189d0       ?AjouteChamp@CDefEnregXml@@QEAAXPEADH0@Z 00000001400199d0 f   DefEnregXml.obj
 0001:00018af0       ?EcritArchive@CDefEnregXml@@QEAAHAEAVCOutputArchive@@@Z 0000000140019af0 f   DefEnregXml.obj
 0001:00018d20       ??1CDefXml@@QEAA@XZ        0000000140019d20 f   DefXml.obj
 0001:00018d90       ?SupprimeTout@CDefXml@@QEAAXXZ 0000000140019d90 f   DefXml.obj
 0001:00018e40       ?AjouteEnreg@CDefXml@@QEAAXHPEADHH0@Z 0000000140019e40 f   DefXml.obj
 0001:00018f30       ?LitArchive@CDefXml@@QEAAHAEAVCInputArchive@@@Z 0000000140019f30 f   DefXml.obj
 0001:00019bc0       ?EcritArchive@CDefXml@@QEAAHAEAVCOutputArchive@@@Z 000000014001abc0 f   DefXml.obj
 0001:00019ef0       ??0CDroit@@QEAA@XZ         000000014001aef0 f   Droit.obj
 0001:00019f70       ??1CDroit@@QEAA@XZ         000000014001af70 f   Droit.obj
 0001:00019fa0       ?EcritDroitModification@CDroit@@UEAAHHH@Z 000000014001afa0 f   Droit.obj
 0001:0001a010       ?EcritDroit@CDroit@@QEAAHHH@Z 000000014001b010 f   Droit.obj
 0001:0001a160       ?LitDroitLecture@CDroit@@QEAAHHH@Z 000000014001b160 f   Droit.obj
 0001:0001a250       ?LitDroitAjout@CDroit@@QEAAHHH@Z 000000014001b250 f   Droit.obj
 0001:0001a340       ?LitDroitModification@CDroit@@UEAAHHH@Z 000000014001b340 f   Droit.obj
 0001:0001a430       ?LitDroitSuppression@CDroit@@QEAAHHH@Z 000000014001b430 f   Droit.obj
 0001:0001a520       ?LitDroitExecution@CDroit@@QEAAHHH@Z 000000014001b520 f   Droit.obj
 0001:0001a610       ?LitDroitAdministration@CDroit@@QEAAHHH@Z 000000014001b610 f   Droit.obj
 0001:0001a700       ?LitDroit@CDroit@@QEAAHHH@Z 000000014001b700 f   Droit.obj
 0001:0001a7a0       ?EcritArchive@CDroit@@QEAAXAEAVCOutputArchive@@@Z 000000014001b7a0 f   Droit.obj
 0001:0001a8d0       ?LitArchive@CDroit@@QEAAXAEAVCInputArchive@@@Z 000000014001b8d0 f   Droit.obj
 0001:0001ab50       ?LitArchive@CDroit@@QEAAXPEAD@Z 000000014001bb50 f   Droit.obj
 0001:0001ac60       ??_GCDroitIntegrale@@UEAAPEAXI@Z 000000014001bc60 f i DroitIntegrale.obj
 0001:0001ac60       ??_ECDroitIntegrale@@UEAAPEAXI@Z 000000014001bc60 f i  CIL library: CIL module
 0001:0001acb0       ?EcritDroitModification@CDroitIntegrale@@UEAAHHH@Z 000000014001bcb0 f   DroitIntegrale.obj
 0001:0001ad30       ?LitDroitModification@CDroitIntegrale@@UEAAHHH@Z 000000014001bd30 f   DroitIntegrale.obj
 0001:0001adf0       ?InitDroitModif@CDroitIntegrale@@QEAAHXZ 000000014001bdf0 f   DroitIntegrale.obj
 0001:0001ae80       ??_ECFichier@@UEAAPEAXI@Z  000000014001be80 f i  CIL library: CIL module
 0001:0001ae80       ??_GCFichier@@UEAAPEAXI@Z  000000014001be80 f i Fichier.obj
 0001:0001aef0       ??1CFichier@@UEAA@XZ       000000014001bef0 f   Fichier.obj
 0001:0001af40       ?WriteLigne@CFichier@@QEAAHPEAD@Z 000000014001bf40 f   Fichier.obj
 0001:0001b170       ?Mkdir@CRepertoire@@SAHVCString@@@Z 000000014001c170 f i FichierTemp.obj
 0001:0001b1e0       ?LitNomFicTemp@CFichierTemp@@QEAAXPEADAEAVCString@@@Z 000000014001c1e0 f   FichierTemp.obj
 0001:0001b360       ?LitNomRepTemp@CFichierTemp@@IEAAXAEAVCString@@@Z 000000014001c360 f   FichierTemp.obj
 0001:0001b480       ?LitCheminRepTemp@CFichierTemp@@MEAAXAEAVCString@@@Z 000000014001c480 f   FichierTemp.obj
 0001:0001b600       ?ConstruitNomFicTemp@CFichierTemp@@IEAAXPEADAEAVCString@@@Z 000000014001c600 f   FichierTemp.obj
 0001:0001b780       ?ConstruitNomFicTempCGI@CFichierTemp@@IEAAXPEADAEAVCString@@@Z 000000014001c780 f   FichierTemp.obj
 0001:0001b8f0       ?LitNomFicTempCGI@CFichierTemp@@QEAAXPEADAEAVCString@@@Z 000000014001c8f0 f   FichierTemp.obj
 0001:0001ba70       ?SupprimeTousFichiersRepTemp@CFichierTemp@@QEAAXPEAD@Z 000000014001ca70 f   FichierTemp.obj
 0001:0001be80       ??_ECFichierTemp@@UEAAPEAXI@Z 000000014001ce80 f i  CIL library: CIL module
 0001:0001be80       ??_ECFichierTempSrv@@UEAAPEAXI@Z 000000014001ce80 f i  CIL library: CIL module
 0001:0001be80       ??_GCFichierTempSrv@@UEAAPEAXI@Z 000000014001ce80 f i FichierTempSrv.obj
 0001:0001be80       ??_GCFichierTemp@@UEAAPEAXI@Z 000000014001ce80 f i FichierTemp.obj
 0001:0001beb0       ??1CFichierTemp@@UEAA@XZ   000000014001ceb0 f   FichierTemp.obj
 0001:0001beb0       ??1CFichierTempSrv@@UEAA@XZ 000000014001ceb0 f   FichierTempSrv.obj
 0001:0001bec0       ?LitCheminRepTemp@CFichierTempSrv@@MEAAXAEAVCString@@@Z 000000014001cec0 f   FichierTempSrv.obj
 0001:0001bf10       ?VideRepTemp@CFichierTempSrv@@QEAAXXZ 000000014001cf10 f   FichierTempSrv.obj
 0001:0001c0c0       ??_ECProcessDriverEtat@@UEAAPEAXI@Z 000000014001d0c0 f i  CIL library: CIL module
 0001:0001c0c0       ??_GCProcessDriverEtat@@UEAAPEAXI@Z 000000014001d0c0 f i ProcessDriverEtat.obj
 0001:0001c0c0       ??_GCGestProcess@@UEAAPEAXI@Z 000000014001d0c0 f i GestProcess.obj
 0001:0001c0c0       ??_ECGestProcess@@UEAAPEAXI@Z 000000014001d0c0 f i  CIL library: CIL module
 0001:0001c120       ?InitError@CGestProcess@@IEAAXXZ 000000014001d120 f   GestProcess.obj
 0001:0001c190       ?KillProcces@CGestProcess@@IEAAHHPEAD@Z 000000014001d190 f   GestProcess.obj
 0001:0001c420       ??0CGroupe@@QEAA@PEAVCListeGroupe@@HH@Z 000000014001d420 f   Groupe.obj
 0001:0001c550       ??_GCGroupe@@UEAAPEAXI@Z   000000014001d550 f i Groupe.obj
 0001:0001c550       ??_ECGroupe@@UEAAPEAXI@Z   000000014001d550 f i  CIL library: CIL module
 0001:0001c580       ??1CGroupe@@UEAA@XZ        000000014001d580 f   Groupe.obj
 0001:0001c600       ?SupprimeTout@CGroupe@@QEAAXXZ 000000014001d600 f   Groupe.obj
 0001:0001c690       ?LitNomGroupe@CGroupe@@UEAAXAEAVCString@@PEAD@Z 000000014001d690 f   Groupe.obj
 0001:0001c6a0       ?EcritNomGroupe@CGroupe@@UEAAXAEAVCString@@PEAD@Z 000000014001d6a0 f   Groupe.obj
 0001:0001c6b0       ?AjouteElement@CGroupe@@UEAAHAEAVCInputArchive@@PEAD1HH1@Z 000000014001d6b0 f   Groupe.obj
 0001:0001c740       ?DroitAjoutNouveauElement@CGroupe@@UEAAHHH@Z 000000014001d740 f   Groupe.obj
 0001:0001c8c0       ?AjouteNouveauElement@CGroupe@@UEAAHAEAVCInputArchive@@PEAD1HH1@Z 000000014001d8c0 f   Groupe.obj
 0001:0001ce40       ?SupprimeElement@CGroupe@@UEAAHAEAVCOutputArchive@@HHH@Z 000000014001de40 f   Groupe.obj
 0001:0001d1a0       ?EcritElement@CGroupe@@UEAAHAEAVCInputArchive@@HHHH@Z 000000014001e1a0 f   Groupe.obj
 0001:0001d280       ?LitElement@CGroupe@@QEAAXAEAVCOutputArchive@@HHHPEAD@Z 000000014001e280 f   Groupe.obj
 0001:0001d410       ?LitListeElement@CGroupe@@UEAAXAEAVCOutputArchive@@HHPEAD@Z 000000014001e410 f   Groupe.obj
 0001:0001d740       ?LitModifElement@CGroupe@@QEAAXAEAVCOutputArchive@@HHH@Z 000000014001e740 f   Groupe.obj
 0001:0001d8a0       ?NewElement@CGroupe@@UEAAPEAVCElement@@HH@Z 000000014001e8a0 f   Groupe.obj
 0001:0001d8f0       ?RechercheNomElement@CGroupe@@QEAAHPEAD0@Z 000000014001e8f0 f   Groupe.obj
 0001:0001dc90       ?RechercheNomElement@CGroupe@@QEAAHHVCString@@PEAD@Z 000000014001ec90 f   Groupe.obj
 0001:0001ddb0       ?MiseAJourArchive@CGroupe@@UEAAXXZ 000000014001edb0 f   Groupe.obj
 0001:0001dde0       ?EcritNomGrpArchive@CGroupe@@UEAAHAEAVCOutputArchive@@@Z 000000014001ede0 f   Groupe.obj
 0001:0001ddf0       ?EcritArchive@CGroupe@@QEAAXAEAVCOutputArchive@@@Z 000000014001edf0 f   Groupe.obj
 0001:0001e460       ?EcritArchive@CGroupe@@QEAAXXZ 000000014001f460 f   Groupe.obj
 0001:0001edb0       ?LitArchive@CGroupe@@QEAAXXZ 000000014001fdb0 f   Groupe.obj
 0001:0001fc90       ?LitArchive@CGroupe@@UEAAXAEAVCInputArchive@@@Z 0000000140020c90 f   Groupe.obj
 0001:000205f0       ?EcritNomModule@CGroupe@@IEAAXAEAVCString@@H@Z 00000001400215f0 f   Groupe.obj
 0001:000206d0       ?RechercheElement@CGroupe@@QEAAPEAVCElement@@H@Z 00000001400216d0 f   Groupe.obj
 0001:00020a40       ?LitNomElement@CGroupe@@UEAAHHPEADAEAVCString@@HH@Z 0000000140021a40 f   Groupe.obj
 0001:00020b00       ?MessErreurDroitInsuff@CGroupe@@IEAAXHHH@Z 0000000140021b00 f   Groupe.obj
 0001:00020d40       ?MessErreurElementInconnu@CGroupe@@IEAAXHH@Z 0000000140021d40 f   Groupe.obj
 0001:00020f40       ?MessErreurWriteProp@CGroupe@@IEAAXPEAD@Z 0000000140021f40 f   Groupe.obj
 0001:00021180       ?MessErreurWriteValProp@CGroupe@@IEAAXPEAD0@Z 0000000140022180 f   Groupe.obj
 0001:000213c0       ?MessErreurReadProp@CGroupe@@IEAAXPEAD@Z 00000001400223c0 f   Groupe.obj
 0001:00021600       ?LitNomGroupe@CGroupe@@QEAAXAEAVCString@@H@Z 0000000140022600 f   Groupe.obj
 0001:000216e0       ?LitNomElement@CGroupe@@QEAAXHAEAVCString@@H@Z 00000001400226e0 f   Groupe.obj
 0001:000217d0       ?LitDefExecElement@CGroupe@@UEAAXAEAVCOutputArchive@@HHHPEAD@Z 00000001400227d0 f   Groupe.obj
 0001:00021b70       ?LitDefExecElement@CGroupe@@UEAAXAEAVCOutputArchive@@HHPEADH@Z 0000000140022b70 f   Groupe.obj
 0001:00021c30       ?DroitUserDefaut@CGroupe@@QEAAXH@Z 0000000140022c30 f   Groupe.obj
 0001:00021ca0       ?LitBaliseDebutGrp@CGroupe@@QEAAXAEAVCFicXML@@@Z 0000000140022ca0 f   Groupe.obj
 0001:00021db0       ?LitListeBaliseGrp@CGroupe@@QEAAXAEAVCFicXML@@@Z 0000000140022db0 f   Groupe.obj
 0001:00021e60       ?AjoutModifSuppConsoleWeb@CGroupe@@QEAAXHPEAD0H@Z 0000000140022e60 f   Groupe.obj
 0001:00022100       ?RechercheElement@CGroupe@@QEAAPEAVCElement@@PEAD00@Z 0000000140023100 f   Groupe.obj
 0001:000224e0       ?GetChildData@CMemXml@@QEAA?AVCString@@XZ 00000001400234e0 f i HtmlXml.obj
 0001:00022510       ??0CHtmlXml@@QEAA@PEADPEAVCMemXml@@@Z 0000000140023510 f   HtmlXml.obj
 0001:000225f0       ??_ECHtmlXml@@UEAAPEAXI@Z  00000001400235f0 f i  CIL library: CIL module
 0001:000225f0       ??_GCHtmlXml@@UEAAPEAXI@Z  00000001400235f0 f i HtmlXml.obj
 0001:00022620       ??1CHtmlXml@@UEAA@XZ       0000000140023620 f   HtmlXml.obj
 0001:000226f0       ?LitLigneFicHtml@CHtmlXml@@QEAAHAEAVCString@@@Z 00000001400236f0 f   HtmlXml.obj
 0001:00022e00       ?LigneDebutScript@CHtmlXml@@QEAAHVCString@@AEAH@Z 0000000140023e00 f   HtmlXml.obj
 0001:00023030       ?LigneFinScript@CHtmlXml@@QEAAHVCString@@HAEAH@Z 0000000140024030 f   HtmlXml.obj
 0001:00023240       ?EstSpecifiqueHtml@CHtmlXml@@QEAAHVCString@@HHH@Z 0000000140024240 f   HtmlXml.obj
 0001:00023320       ?AnalyseFicHtml@CHtmlXml@@QEAAHPEAUt_infoContexte@@@Z 0000000140024320 f   HtmlXml.obj
 0001:00023410       ?TraitementFicHtml@CHtmlXml@@QEAAHPEAUt_infoContexte@@@Z 0000000140024410 f   HtmlXml.obj
 0001:00025420       ?RechercheChaineSpecifiqueLigne@CHtmlXml@@QEAAHAEAVCString@@PEAUt_infoContexte@@@Z 0000000140026420 f   HtmlXml.obj
 0001:000267e0       ?RechercheParametreChaine@CHtmlXml@@QEAAHAEAVCString@@0H@Z 00000001400277e0 f   HtmlXml.obj
 0001:00026ac0       ?TraiteBlocARepeter@CHtmlXml@@QEAAHVCString@@@Z 0000000140027ac0 f   HtmlXml.obj
 0001:00026ee0       ?RenseigneBlocValeur@CHtmlXml@@QEAA?AVCString@@V2@@Z 0000000140027ee0 f   HtmlXml.obj
 0001:00027330       ?ParamBloc@CHtmlXml@@QEAAHAEAVCString@@0AEAH@Z 0000000140028330 f   HtmlXml.obj
 0001:00027600       ?ExtraitLigneDefListeTraite@CHtmlXml@@QEAAXXZ 0000000140028600 f   HtmlXml.obj
 0001:00027aa0       ?TraiteDefinitionListe@CHtmlXml@@QEAAXXZ 0000000140028aa0 f   HtmlXml.obj
 0001:000283d0       ?RemplaceMotDictionnaireMemoire@CHtmlXml@@QEAAHAEAVCString@@PEAUt_infoContexte@@@Z 00000001400293d0 f   HtmlXml.obj
 0001:00028f70       ?EstSpecifiqueBalise@CHtmlXml@@QEAAHVCString@@HH@Z 0000000140029f70 f   HtmlXml.obj
 0001:00029050       ?TraiteEnteteTableau@CHtmlXml@@QEAAHHPEAUt_infoContexte@@@Z 000000014002a050 f   HtmlXml.obj
 0001:00029960       ?TraitePiedTableau@CHtmlXml@@QEAAHHPEAUt_infoContexte@@@Z 000000014002a960 f   HtmlXml.obj
 0001:0002a270       ??1CInputArchive@@QEAA@XZ  000000014002b270 f   InputArchive.obj
 0001:0002a2a0       ?FinLigne@CInputArchive@@QEAAHXZ 000000014002b2a0 f   InputArchive.obj
 0001:0002a310       ?ReadParamBase@CInputArchive@@IEAAHPEAVCString@@@Z 000000014002b310 f   InputArchive.obj
 0001:0002a4e0       ?ReadNomPropriete@CInputArchive@@QEAAHPEAVCString@@@Z 000000014002b4e0 f   InputArchive.obj
 0001:0002a560       ?ReadString@CInputArchive@@QEAAHPEAVCString@@@Z 000000014002b560 f   InputArchive.obj
 0001:0002a620       ?ReadValeur@CInputArchive@@QEAAHPEAH@Z 000000014002b620 f   InputArchive.obj
 0001:0002a8c0       ?ReadId@CInputArchive@@QEAAHPEAH@Z 000000014002b8c0 f   InputArchive.obj
 0001:0002a9f0       ?ReadValeur@CInputArchive@@QEAAHPEAJ@Z 000000014002b9f0 f   InputArchive.obj
 0001:0002ac90       ?ReadValeur@CInputArchive@@QEAAHPEAVCString@@@Z 000000014002bc90 f   InputArchive.obj
 0001:0002ad10       ?ReadValeur@CInputArchive@@QEAAHPEA_J@Z 000000014002bd10 f   InputArchive.obj
 0001:0002ade0       ?ReadValeur@CInputArchive@@QEAAHPEAVCListPeriph@@@Z 000000014002bde0 f   InputArchive.obj
 0001:0002af40       ?LitCarSuivant@CInputArchive@@IEAAHPEAH@Z 000000014002bf40 f   InputArchive.obj
 0001:0002b010       ?LitPremierCarValide@CInputArchive@@IEAAHPEAH@Z 000000014002c010 f   InputArchive.obj
 0001:0002b0d0       ?ReadDescPropriete@CInputArchive@@QEAAXAEAVCString@@@Z 000000014002c0d0 f   InputArchive.obj
 0001:0002b280       ?AttenteFin@CInputArchive@@QEAAXXZ 000000014002c280 f   InputArchive.obj
 0001:0002b430       ?ReadFichier@CInputArchive@@QEAAHAEAVCString@@@Z 000000014002c430 f   InputArchive.obj
 0001:0002b960       ?FermeArchive@CInputOutputArchive@@UEAAHXZ 000000014002c960 f i InputOutputArchive.obj
 0001:0002b970       ?LitCar@CInputOutputArchive@@UEAAHXZ 000000014002c970 f i InputOutputArchive.obj
 0001:0002b9b0       ?EcritCar@CInputOutputArchive@@UEAAHH@Z 000000014002c9b0 f i InputOutputArchive.obj
 0001:0002b9f0       ?EcritChaine@CInputOutputArchive@@UEAAHPEAD@Z 000000014002c9f0 f i InputOutputArchive.obj
 0001:0002ba50       ?EcritTrameBrut@CInputOutputArchive@@UEAAHPEADH@Z 000000014002ca50 f i InputOutputArchive.obj
 0001:0002ba70       ?LitUneTrame@CInputOutputArchive@@UEAAHPEADH@Z 000000014002ca70 f i InputOutputArchive.obj
 0001:0002ba90       ?EcritFormater@CInputOutputArchive@@UEAAHPEBDZZ 000000014002ca90 f i InputOutputArchive.obj
 0001:0002bb20       ?EcritHistorique@CInputOutputArchive@@QEAAXDD@Z 000000014002cb20 f i InputOutputArchive.obj
 0001:0002bba0       ??0CInputOutputArchive@@QEAA@H@Z 000000014002cba0 f   InputOutputArchive.obj
 0001:0002bca0       ??0CInputOutputArchive@@QEAA@PEADHHH@Z 000000014002cca0 f   InputOutputArchive.obj
 0001:0002bf10       ??1CInputOutputArchive@@QEAA@XZ 000000014002cf10 f   InputOutputArchive.obj
 0001:0002bf80       ??0CInputOutputStringArchive@@QEAA@PEADH@Z 000000014002cf80 f   InputOutputStringArchive.obj
 0001:0002c060       ??0CInputOutputStringArchive@@QEAA@AEAVCString@@H@Z 000000014002d060 f   InputOutputStringArchive.obj
 0001:0002c160       ??1CInputOutputStringArchive@@QEAA@XZ 000000014002d160 f   InputOutputStringArchive.obj
 0001:0002c190       ?LitCar@CInputOutputStringArchive@@UEAAHXZ 000000014002d190 f   InputOutputStringArchive.obj
 0001:0002c1e0       ?EcritCar@CInputOutputStringArchive@@UEAAHH@Z 000000014002d1e0 f   InputOutputStringArchive.obj
 0001:0002c260       ?EcritChaine@CInputOutputStringArchive@@UEAAHPEAD@Z 000000014002d260 f   InputOutputStringArchive.obj
 0001:0002c2b0       ?EcritTrameBrut@CInputOutputStringArchive@@UEAAHPEADH@Z 000000014002d2b0 f   InputOutputStringArchive.obj
 0001:0002c310       ?LitUneTrame@CInputOutputStringArchive@@UEAAHPEADH@Z 000000014002d310 f   InputOutputStringArchive.obj
 0001:0002c350       ?EcritFormater@CInputOutputStringArchive@@UEAAHPEBDZZ 000000014002d350 f   InputOutputStringArchive.obj
 0001:0002c3f0       ?LitParametre@CLigneCommande@@QEAAHHAEAVCString@@@Z 000000014002d3f0 f   LigCom.obj
 0001:0002c580       ??0CListeGroupe@@QEAA@HPEAD0@Z 000000014002d580 f   ListeGroupe.obj
 0001:0002c6a0       ??_ECListeGroupe@@UEAAPEAXI@Z 000000014002d6a0 f i  CIL library: CIL module
 0001:0002c6a0       ??_GCListeGroupe@@UEAAPEAXI@Z 000000014002d6a0 f i ListeGroupe.obj
 0001:0002c6d0       ??1CListeGroupe@@UEAA@XZ   000000014002d6d0 f   ListeGroupe.obj
 0001:0002c790       ?Init@CListeGroupe@@QEAAXXZ 000000014002d790 f   ListeGroupe.obj
 0001:0002cf40       ?SupprimeTout@CListeGroupe@@QEAAXXZ 000000014002df40 f   ListeGroupe.obj
 0001:0002d020       ?DemandeSauvegarde@CListeGroupe@@QEAAXXZ 000000014002e020 f   ListeGroupe.obj
 0001:0002d060       ?DemandeSauvegarde@CListeGroupe@@QEAAXH@Z 000000014002e060 f   ListeGroupe.obj
 0001:0002d0d0       ?LitListeDroit@CListeGroupe@@QEAAHAEAVCOutputArchive@@HHH@Z 000000014002e0d0 f   ListeGroupe.obj
 0001:0002d190       ?AjouteGroupe@CListeGroupe@@UEAAHPEADHH0H@Z 000000014002e190 f   ListeGroupe.obj
 0001:0002d7e0       ?EcritGroupe@CListeGroupe@@UEAAHPEADHHH0@Z 000000014002e7e0 f   ListeGroupe.obj
 0001:0002dc70       ?SupprimeGroupe@CListeGroupe@@UEAAHHHH@Z 000000014002ec70 f   ListeGroupe.obj
 0001:0002e890       ?LitNomGroupe@CListeGroupe@@QEAAHHPEADAEAVCString@@HH@Z 000000014002f890 f   ListeGroupe.obj
 0001:0002e960       ?LitListeGroupe@CListeGroupe@@UEAAXAEAVCOutputArchive@@HHPEAD@Z 000000014002f960 f   ListeGroupe.obj
 0001:0002eb30       ?LitModif@CListeGroupe@@QEAAXAEAVCOutputArchive@@HHH@Z 000000014002fb30 f   ListeGroupe.obj
 0001:0002ec20       ?LitDateCreationGrp@CListeGroupe@@QEAAHHHH@Z 000000014002fc20 f   ListeGroupe.obj
 0001:0002ecf0       ?AjouteElement@CListeGroupe@@UEAAHAEAVCInputArchive@@PEADH1HH1@Z 000000014002fcf0 f   ListeGroupe.obj
 0001:0002f100       ?SupprimeElement@CListeGroupe@@UEAAHAEAVCOutputArchive@@HHH@Z 0000000140030100 f   ListeGroupe.obj
 0001:0002f1f0       ?LitElement@CListeGroupe@@UEAAXAEAVCOutputArchive@@HHHPEAD1@Z 00000001400301f0 f   ListeGroupe.obj
 0001:0002f2d0       ?LitNomElement@CListeGroupe@@QEAAHHPEADAEAVCString@@HH@Z 00000001400302d0 f   ListeGroupe.obj
 0001:0002f3d0       ?LitListeElement@CListeGroupe@@QEAAXAEAVCOutputArchive@@HHHPEAD@Z 00000001400303d0 f   ListeGroupe.obj
 0001:0002f4a0       ?ClientArchive@CListeGroupe@@QEAAXAEAVCInputArchive@@AEAVCOutputArchive@@HPEAD@Z 00000001400304a0 f   ListeGroupe.obj
 0001:00032650       ?EcritElement@CListeGroupe@@UEAAHAEAVCInputArchive@@HHHH@Z 0000000140033650 f   ListeGroupe.obj
 0001:00032750       ?RechercheNomElement@CListeGroupe@@QEAAHPEAD0@Z 0000000140033750 f   ListeGroupe.obj
 0001:000327f0       ?RechercheNomElement@CListeGroupe@@QEAAHPEADH@Z 00000001400337f0 f   ListeGroupe.obj
 0001:000328d0       ?RechercheNomGroupe@CListeGroupe@@QEAAHPEAD0@Z 00000001400338d0 f   ListeGroupe.obj
 0001:00032cd0       ?NewGroupe@CListeGroupe@@UEAAPEAVCGroupe@@PEAV1@HH@Z 0000000140033cd0 f   ListeGroupe.obj
 0001:00032d30       ?MiseAJourArchive@CListeGroupe@@QEAAXXZ 0000000140033d30 f   ListeGroupe.obj
 0001:00032dd0       ?EcritArchive@CListeGroupe@@QEAAXXZ 0000000140033dd0 f   ListeGroupe.obj
 0001:000336f0       ?EcritArchive@CListeGroupe@@QEAAXAEAVCOutputArchive@@@Z 00000001400346f0 f   ListeGroupe.obj
 0001:000339a0       ?LitArchive@CListeGroupe@@QEAAXXZ 00000001400349a0 f   ListeGroupe.obj
 0001:000347c0       ?LitArchive@CListeGroupe@@QEAAXAEAVCInputArchive@@@Z 00000001400357c0 f   ListeGroupe.obj
 0001:00034c90       ?EcritNomModule@CListeGroupe@@IEAAXAEAVCString@@H@Z 0000000140035c90 f   ListeGroupe.obj
 0001:00034d70       ?RechercheElement@CListeGroupe@@QEAAPEAVCElement@@H@Z 0000000140035d70 f   ListeGroupe.obj
 0001:00034e00       ?LitDroitExecution@CListeGroupe@@QEAAHHHH@Z 0000000140035e00 f   ListeGroupe.obj
 0001:00034e40       ?UtiliseId@CListeGroupe@@UEAAHHAEAVCOutputArchive@@PEADH@Z 0000000140035e40 f   ListeGroupe.obj
 0001:00035570       ?MessageErreurFatal@CListeGroupe@@IEAAXPEAD0H@Z 0000000140036570 f   ListeGroupe.obj
 0001:00035730       ?MessageErreurLectureArchive@CListeGroupe@@IEAAXH@Z 0000000140036730 f   ListeGroupe.obj
 0001:000358e0       ?MessErreurDroitInsuff@CListeGroupe@@IEAAXHHH@Z 00000001400368e0 f   ListeGroupe.obj
 0001:00035b20       ?MessErreurGrpInconnu@CListeGroupe@@IEAAXHH@Z 0000000140036b20 f   ListeGroupe.obj
 0001:00035d20       ?MessErreurWriteProp@CListeGroupe@@IEAAXPEAD@Z 0000000140036d20 f   ListeGroupe.obj
 0001:00035f60       ?MessErreurReadProp@CListeGroupe@@IEAAXPEAD@Z 0000000140036f60 f   ListeGroupe.obj
 0001:000361a0       ?RechercheIDCreation@CListeGroupe@@QEAAHH_J@Z 00000001400371a0 f   ListeGroupe.obj
 0001:00036270       ?LitDroitLectureID@CListeGroupe@@QEAAHHHH@Z 0000000140037270 f   ListeGroupe.obj
 0001:00036310       ?LitDroitAjoutID@CListeGroupe@@QEAAHHHH@Z 0000000140037310 f   ListeGroupe.obj
 0001:000363b0       ?LitDroitModificationID@CListeGroupe@@QEAAHHHH@Z 00000001400373b0 f   ListeGroupe.obj
 0001:00036450       ?LitDroitSuppressionID@CListeGroupe@@QEAAHHHH@Z 0000000140037450 f   ListeGroupe.obj
 0001:000364f0       ?LitDroitExecutionID@CListeGroupe@@QEAAHHHH@Z 00000001400374f0 f   ListeGroupe.obj
 0001:000365a0       ?LitDroitAdministrationID@CListeGroupe@@QEAAHHHH@Z 00000001400375a0 f   ListeGroupe.obj
 0001:00036650       ?LitNomGroupe@CListeGroupe@@QEAAXHAEAVCString@@HH@Z 0000000140037650 f   ListeGroupe.obj
 0001:00036760       ?LitNomElement@CListeGroupe@@QEAAXHAEAVCString@@HH@Z 0000000140037760 f   ListeGroupe.obj
 0001:00036870       ?LitNomUtilisateur@CListeGroupe@@QEAAXHAEAVCString@@@Z 0000000140037870 f   ListeGroupe.obj
 0001:00036910       ?LitDefExecElement@CListeGroupe@@UEAAXAEAVCOutputArchive@@HHHPEAD1@Z 0000000140037910 f   ListeGroupe.obj
 0001:000369c0       ?ModifDroitsTousGrp@CListeGroupe@@IEAAXPEAD@Z 00000001400379c0 f   ListeGroupe.obj
 0001:00036b70       ?LitListeBaliseGrp@CListeGroupe@@UEAAXAEAVCFicXML@@PEAD1@Z 0000000140037b70 f   ListeGroupe.obj
 0001:00036c90       ?LitListeBaliseGrp@CListeGroupe@@UEAAXAEAVCFicXML@@PEAD11@Z 0000000140037c90 f   ListeGroupe.obj
 0001:00037150       ?AjoutModifGrpConsoleWeb@CListeGroupe@@QEAAXH@Z 0000000140038150 f   ListeGroupe.obj
 0001:000371b0       ?SuppGroupeConsoleWeb@CListeGroupe@@QEAAXHPEAD0@Z 00000001400381b0 f   ListeGroupe.obj
 0001:00037370       ?RechercheElementGrp@CListeGroupe@@QEAAPEAVCElement@@PEAD0H@Z 0000000140038370 f   ListeGroupe.obj
 0001:00037a20       ?RechercheNomGrp@CListeGroupe@@QEAAHHVCString@@PEAD@Z 0000000140038a20 f   ListeGroupe.obj
 0001:00037b40       ?GetLangueUser@CListeGroupe@@QEAAXHAEAVCString@@@Z 0000000140038b40 f   ListeGroupe.obj
 0001:00037c00       ?GetData@CMemXml@@QEAA?AVCString@@XZ 0000000140038c00 f i MemXml.obj
 0001:00037c30       ?GetDoc@CMemXml@@QEAA?AVCString@@XZ 0000000140038c30 f i MemXml.obj
 0001:00037c80       ??0CMemXml@@QEAA@XZ        0000000140038c80 f   MemXml.obj
 0001:00037d10       ?SetDoc@CMemXml@@QEAAHPEBD@Z 0000000140038d10 f   MemXml.obj
 0001:00037da0       ?FindElem@CMemXml@@QEAAHPEBD@Z 0000000140038da0 f   MemXml.obj
 0001:00037eb0       ?FindChildElem@CMemXml@@QEAAHPEBD@Z 0000000140038eb0 f   MemXml.obj
 0001:00037ff0       ?x_ParseElem@CMemXml@@AEAAHH@Z 0000000140038ff0 f   MemXml.obj
 0001:000386f0       ?x_FindChar@CMemXml@@AEAAHAEAHD@Z 00000001400396f0 f   MemXml.obj
 0001:00038740       ?x_FindToken@CMemXml@@AEAAHAEAUTokenPos@1@@Z 0000000140039740 f   MemXml.obj
 0001:00038990       ?x_GetToken@CMemXml@@AEAA?AVCString@@AEBUTokenPos@1@@Z 0000000140039990 f   MemXml.obj
 0001:000389f0       ?x_GetTagName@CMemXml@@AEAA?AVCString@@H@Z 00000001400399f0 f   MemXml.obj
 0001:00038a90       ?x_GetAttrib@CMemXml@@AEAA?AVCString@@HPEBD@Z 0000000140039a90 f   MemXml.obj
 0001:00038c50       ?x_Get@CMemXml@@AEAA?AVCString@@H@Z 0000000140039c50 f   MemXml.obj
 0001:00038cd0       ?x_TextToDoc@CMemXml@@AEAA?AVCString@@PEBDH@Z 0000000140039cd0 f   MemXml.obj
 0001:00038f20       ?x_TextFromDoc@CMemXml@@AEAA?AVCString@@HH@Z 0000000140039f20 f   MemXml.obj
 0001:00039070       ?x_DocChange@CMemXml@@AEAAXHHAEAVCString@@@Z 000000014003a070 f   MemXml.obj
 0001:00039170       ?x_Adjust@CMemXml@@AEAAXHH@Z 000000014003a170 f   MemXml.obj
 0001:00039240       ?x_Add@CMemXml@@AEAAHHHPEBD0@Z 000000014003a240 f   MemXml.obj
 0001:00039720       ?x_AddAttrib@CMemXml@@AEAAHHPEBD0@Z 000000014003a720 f   MemXml.obj
 0001:00039940       ?x_Remove@CMemXml@@AEAAHH@Z 000000014003a940 f   MemXml.obj
 0001:00039a50       ?LitArchive@CModification@@QEAAXAEAVCInputArchive@@@Z 000000014003aa50 f   Modification.obj
 0001:00039cc0       ?Modification@CModification@@QEAAXHH_J@Z 000000014003acc0 f   Modification.obj
 0001:00039e30       ?EcritArchive@CModification@@QEAAXAEAVCOutputArchive@@@Z 000000014003ae30 f   Modification.obj
 0001:00039e30       ?LitModification@CModification@@QEAAXAEAVCOutputArchive@@@Z 000000014003ae30 f   Modification.obj
 0001:00039f30       ?Double2Chaine@COperationMem@@SAXNAEAVCString@@@Z 000000014003af30 f   OperationMem.obj
 0001:0003a150       ?Calcul@COperationMem@@SAHAEAVCString@@PEADH1@Z 000000014003b150 f   OperationMem.obj
 0001:0003a4c0       ?WriteEspace@COutputArchive@@QEAAHXZ 000000014003b4c0 f   OutputArchive.obj
 0001:0003a550       ?WriteFinDeLigne@COutputArchive@@QEAAHXZ 000000014003b550 f   OutputArchive.obj
 0001:0003a5a0       ?WriteFinPropriete@COutputArchive@@QEAAHXZ 000000014003b5a0 f   OutputArchive.obj
 0001:0003a670       ?WriteDebutPropriete@COutputArchive@@QEAAHXZ 000000014003b670 f   OutputArchive.obj
 0001:0003a730       ?WriteNomPropriete@COutputArchive@@QEAAHPEAD@Z 000000014003b730 f   OutputArchive.obj
 0001:0003a8f0       ?WriteValeur@COutputArchive@@QEAAHH@Z 000000014003b8f0 f   OutputArchive.obj
 0001:0003a950       ?WriteValeur@COutputArchive@@QEAAH_J@Z 000000014003b950 f   OutputArchive.obj
 0001:0003a9b0       ?WriteValeur@COutputArchive@@QEAAHPEAD@Z 000000014003b9b0 f   OutputArchive.obj
 0001:0003aaa0       ?WriteValeur@COutputArchive@@QEAAHVCString@@@Z 000000014003baa0 f   OutputArchive.obj
 0001:0003abe0       ?WriteValeur@COutputArchive@@QEAAHVCListPeriph@@@Z 000000014003bbe0 f   OutputArchive.obj
 0001:0003ac90       ?WriteString@COutputArchive@@QEAAHPEAD@Z 000000014003bc90 f   OutputArchive.obj
 0001:0003ad80       ?WriteString@COutputArchive@@QEAAHVCString@@@Z 000000014003bd80 f   OutputArchive.obj
 0001:0003aea0       ?WriteLigneBrut@COutputArchive@@QEAAHVCString@@@Z 000000014003bea0 f   OutputArchive.obj
 0001:0003afb0       ?WriteId@COutputArchive@@QEAAHH@Z 000000014003bfb0 f   OutputArchive.obj
 0001:0003b010       ?WriteBrut@COutputArchive@@QEAAHVCString@@@Z 000000014003c010 f   OutputArchive.obj
 0001:0003b100       ?WriteFichier@COutputArchive@@QEAAHPEAD@Z 000000014003c100 f   OutputArchive.obj
 0001:0003b430       ?ExecuteEtAttend@CProcess@@QEAAHAEAVCString@@PEAD@Z 000000014003c430 f   Process.obj
 0001:0003b630       ??0CProcessCmd@@QEAA@XZ    000000014003c630 f   ProcessCmd.obj
 0001:0003b6a0       ??1CProcessCmd@@QEAA@XZ    000000014003c6a0 f   ProcessCmd.obj
 0001:0003b740       ?ExecuteCmdAvecRedirection@CProcessCmd@@QEAAHPEADH@Z 000000014003c740 f   ProcessCmd.obj
 0001:0003b9f0       ?LitErrorSortieStandard@CProcessCmd@@IEAAXPEAXAEAVCString@@@Z 000000014003c9f0 f   ProcessCmd.obj
 0001:0003bc30       ?GetMessageErreur@CProcessCmd@@IEAAXH@Z 000000014003cc30 f   ProcessCmd.obj
 0001:0003bcc0       ?EcritMessageErreurTrace@CProcessCmd@@QEAAXPEAD0H@Z 000000014003ccc0 f   ProcessCmd.obj
 0001:0003be10       ?NewNode@CPtrList@@IEAAPEAUCNode@1@PEAU21@0@Z 000000014003ce10 f   PtrList.obj
 0001:0003beb0       ?AddTail@CPtrList@@QEAAHPEAX@Z 000000014003ceb0 f   PtrList.obj
 0001:0003bf00       ?RemoveHead@CPtrList@@QEAAPEAXXZ 000000014003cf00 f   PtrList.obj
 0001:0003bf90       ?RemoveTail@CPtrList@@QEAAPEAXXZ 000000014003cf90 f   PtrList.obj
 0001:0003c020       ?InsertBefore@CPtrList@@QEAAHHPEAX@Z 000000014003d020 f   PtrList.obj
 0001:0003c0b0       ?RemoveAt@CPtrList@@QEAAXH@Z 000000014003d0b0 f   PtrList.obj
 0001:0003c140       ?Find@CPtrList@@QEBAHPEAXH@Z 000000014003d140 f   PtrList.obj
 0001:0003c160       ??_GCRepertoire@@UEAAPEAXI@Z 000000014003d160 f i Repertoire.obj
 0001:0003c160       ??_ECRepertoire@@UEAAPEAXI@Z 000000014003d160 f i  CIL library: CIL module
 0001:0003c1b0       ??1CRepertoire@@UEAA@XZ    000000014003d1b0 f   Repertoire.obj
 0001:0003c1e0       ?RepertoireExiste@CRepertoire@@SAHPEAD@Z 000000014003d1e0 f   Repertoire.obj
 0001:0003c240       ?FichierExiste@CRepertoire@@SAHPEAD@Z 000000014003d240 f   Repertoire.obj
 0001:0003c2a0       ?Mkdir@CRepertoire@@SAHPEAD@Z 000000014003d2a0 f   Repertoire.obj
 0001:0003c310       ?EffaceFichier@CRepertoire@@SAHPEAD@Z 000000014003d310 f   Repertoire.obj
 0001:0003c380       ?Construire@CRepertoire@@SAHPEAVCString@@PEAD1@Z 000000014003d380 f   Repertoire.obj
 0001:0003c530       ?Construire@CRepertoire@@SAHPEAVCString@@V2@PEAD@Z 000000014003d530 f   Repertoire.obj
 0001:0003c690       ?Construire@CRepertoire@@SAHPEAVCString@@V2@1@Z 000000014003d690 f   Repertoire.obj
 0001:0003c850       ?CherchePremier@CRepertoire@@QEAAHPEAVCString@@PEAD1H@Z 000000014003d850 f   Repertoire.obj
 0001:0003c9f0       ?ChercheSuivant@CRepertoire@@QEAAHPEAVCString@@@Z 000000014003d9f0 f   Repertoire.obj
 0001:0003cac0       ?ChangeExtension@CRepertoire@@SAHPEAVCString@@V2@PEAD@Z 000000014003dac0 f   Repertoire.obj
 0001:0003cc20       ?RenomeFichier@CRepertoire@@SAHVCString@@0@Z 000000014003dc20 f   Repertoire.obj
 0001:0003ccd0       ?LitDateFic@CRepertoire@@SA_JPEAD@Z 000000014003dcd0 f   Repertoire.obj
 0001:0003cd10       ?RepRelatif@CRepertoire@@SAHPEAD@Z 000000014003dd10 f   Repertoire.obj
 0001:0003cee0       ?TestCreeRep@CRepertoire@@SAHPEAD@Z 000000014003dee0 f   Repertoire.obj
 0001:0003d6f0       ?RechercherPremierFichier@CRepertoire@@QEAAHPEAVCString@@PEAD1H@Z 000000014003e6f0 f   Repertoire.obj
 0001:0003d870       ?RechercherFichierSuivant@CRepertoire@@QEAAHPEAVCString@@@Z 000000014003e870 f   Repertoire.obj
 0001:0003d9b0       ?FonctionDeLancementDUnThreadCServeurArchive@@YAHPEAX@Z 000000014003e9b0 f   ServeurArchive.obj
 0001:0003d9d0       ??0CServeurArchive@@QEAA@XZ 000000014003e9d0 f   ServeurArchive.obj
 0001:0003da90       ??1CServeurArchive@@QEAA@XZ 000000014003ea90 f   ServeurArchive.obj
 0001:0003db30       ?Create@CServeurArchive@@QEAAHHPEAD@Z 000000014003eb30 f   ServeurArchive.obj
 0001:0003dc20       ?Close@CServeurArchive@@QEAAHXZ 000000014003ec20 f   ServeurArchive.obj
 0001:0003dd10       ?BoucleDAttente@CServeurArchive@@QEAAHXZ 000000014003ed10 f   ServeurArchive.obj
 0001:0003e040       ?NewClient@CServeurArchive@@UEAAPEAVCSocketServeurArchive@@XZ 000000014003f040 f   ServeurArchive.obj
 0001:0003e080       ?AnnonceMortSocketEchange@CServeurArchive@@QEAAHPEAVCSocketServeurArchive@@@Z 000000014003f080 f   ServeurArchive.obj
 0001:0003e1a0       ?SendAll@CServeurArchive@@UEAAHPEAD@Z 000000014003f1a0 f   ServeurArchive.obj
 0001:0003e1a0       ?SendAllBrut@CServeurArchive@@UEAAHPEAD@Z 000000014003f1a0 f   ServeurArchive.obj
 0001:0003e1d0       ?SendAllBrut@CServeurArchive@@UEAAHPEADH@Z 000000014003f1d0 f   ServeurArchive.obj
 0001:0003e200       ?FonctionDeLancementDUnThreadCServeurTCP@@YAHPEAX@Z 000000014003f200 f   ServeurTCP.obj
 0001:0003e210       ??0CServeurTCP@@QEAA@XZ    000000014003f210 f   ServeurTCP.obj
 0001:0003e2d0       ??_GCServeurTCP@@UEAAPEAXI@Z 000000014003f2d0 f i ServeurTCP.obj
 0001:0003e2d0       ??_ECServeurTrace@@UEAAPEAXI@Z 000000014003f2d0 f i  CIL library: CIL module
 0001:0003e2d0       ??_ECServeurTCP@@UEAAPEAXI@Z 000000014003f2d0 f i  CIL library: CIL module
 0001:0003e2d0       ??_GCServeurTrace@@UEAAPEAXI@Z 000000014003f2d0 f i OsysTrace.obj
 0001:0003e300       ??1CServeurTCP@@UEAA@XZ    000000014003f300 f   ServeurTCP.obj
 0001:0003e3a0       ?Create@CServeurTCP@@QEAAHHPEAD@Z 000000014003f3a0 f   ServeurTCP.obj
 0001:0003e4c0       ?Close@CServeurTCP@@QEAAHXZ 000000014003f4c0 f   ServeurTCP.obj
 0001:0003e5c0       ?SendAll@CServeurTCP@@UEAAHPEAD@Z 000000014003f5c0 f   ServeurTCP.obj
 0001:0003e640       ?SendAllBrut@CServeurTCP@@UEAAHPEAD@Z 000000014003f640 f   ServeurTCP.obj
 0001:0003e6c0       ?SendAllBrut@CServeurTCP@@UEAAHPEADH@Z 000000014003f6c0 f   ServeurTCP.obj
 0001:0003e750       ?BoucleDAttente@CServeurTCP@@QEAAHXZ 000000014003f750 f   ServeurTCP.obj
 0001:0003ea50       ?NewClient@CServeurTCP@@UEAAPEAVCSocketTCP@@XZ 000000014003fa50 f   ServeurTCP.obj
 0001:0003ea90       ?AnnonceMortSocketEchange@CServeurTCP@@QEAAHPEAVCSocketTCP@@@Z 000000014003fa90 f   ServeurTCP.obj
 0001:0003ebb0       ??0CSocketMiniTCP@@QEAA@XZ 000000014003fbb0 f   SocketMiniTCP.obj
 0001:0003ecc0       ??1CSocketMiniTCP@@QEAA@XZ 000000014003fcc0 f   SocketMiniTCP.obj
 0001:0003ed70       ?Create@CSocketMiniTCP@@UEAAHPEADH0@Z 000000014003fd70 f   SocketMiniTCP.obj
 0001:0003efb0       ?Create@CSocketMiniTCP@@UEAAHH@Z 000000014003ffb0 f   SocketMiniTCP.obj
 0001:0003f000       ?Close@CSocketMiniTCP@@UEAAHXZ 0000000140040000 f   SocketMiniTCP.obj
 0001:0003f0a0       ?EnvoiBuffer@CSocketMiniTCP@@QEAAHXZ 00000001400400a0 f   SocketMiniTCP.obj
 0001:0003f1a0       ?SendBrut@CSocketMiniTCP@@UEAAHPEADH@Z 00000001400401a0 f   SocketMiniTCP.obj
 0001:0003f360       ?SendTrameBrut@CSocketMiniTCP@@UEAAHPEADH@Z 0000000140040360 f   SocketMiniTCP.obj
 0001:0003f440       ?LitCar@CSocketMiniTCP@@QEAAHXZ 0000000140040440 f   SocketMiniTCP.obj
 0001:0003f520       ?LitUneTrame@CSocketMiniTCP@@UEAAHPEADH@Z 0000000140040520 f   SocketMiniTCP.obj
 0001:0003f600       ?InitAdresseServeur@CSocketMiniTCP@@QEAAHPEADPEAUin_addr@@@Z 0000000140040600 f   SocketMiniTCP.obj
 0001:0003f6e0       ?GestMessageErreur@CSocketTCP@@UEAAXHPEBDZZ 00000001400406e0 f   SocketTCP.obj
 0001:0003f6e0       ?GestMessageErreur@CSocketMiniTCP@@UEAAXHPEBDZZ 00000001400406e0 f   SocketMiniTCP.obj
 0001:0003f6e0       ?GestMessageErreur@CServeurArchive@@UEAAXHPEBDZZ 00000001400406e0 f   ServeurArchive.obj
 0001:0003f6e0       ?GestMessageErreur@CServeurTCP@@UEAAXHPEBDZZ 00000001400406e0 f   ServeurTCP.obj
 0001:0003f710       ?FonctionDeLancementDUnThreadCSocketServeurArchive@@YAHPEAX@Z 0000000140040710 f   SocketServeurArchive.obj
 0001:0003f780       ??0CSocketServeurArchive@@QEAA@XZ 0000000140040780 f   SocketServeurArchive.obj
 0001:0003f810       ??_GCSocketServeurArchive@@UEAAPEAXI@Z 0000000140040810 f i SocketServeurArchive.obj
 0001:0003f810       ??_ECSocketServeurArchive@@UEAAPEAXI@Z 0000000140040810 f i  CIL library: CIL module
 0001:0003f840       ??1CSocketServeurArchive@@UEAA@XZ 0000000140040840 f   SocketServeurArchive.obj
 0001:0003f930       ?Create@CSocketServeurArchive@@QEAAHHPEAVCServeurArchive@@@Z 0000000140040930 f   SocketServeurArchive.obj
 0001:0003fa40       ?Close@CSocketServeurArchive@@UEAAXXZ 0000000140040a40 f   SocketServeurArchive.obj
 0001:0003fa70       ?LitCar@CSocketServeurArchive@@UEAAHXZ 0000000140040a70 f   SocketServeurArchive.obj
 0001:0003fa80       ?EcritCar@CSocketServeurArchive@@UEAAHH@Z 0000000140040a80 f   SocketServeurArchive.obj
 0001:0003fac0       ?EcritChaine@CSocketServeurArchive@@UEAAHPEAD@Z 0000000140040ac0 f   SocketServeurArchive.obj
 0001:0003fb20       ?EcritTrameBrut@CSocketServeurArchive@@UEAAHPEADH@Z 0000000140040b20 f   SocketServeurArchive.obj
 0001:0003fb50       ?LitUneTrame@CSocketServeurArchive@@UEAAHPEADH@Z 0000000140040b50 f   SocketServeurArchive.obj
 0001:0003fb80       ?EcritFormater@CSocketServeurArchive@@UEAAHPEBDZZ 0000000140040b80 f   SocketServeurArchive.obj
 0001:0003fc50       ?Send@CSocketTCP@@UEAAHPEAVCString@@@Z 0000000140040c50 f i SocketTCP.obj
 0001:0003fc90       ?SendBrut@CSocketTCP@@UEAAHVCString@@@Z 0000000140040c90 f i SocketTCP.obj
 0001:0003fd10       ?Receive@CSocketTCP@@UEAAHPEAVCString@@@Z 0000000140040d10 f i SocketTCP.obj
 0001:0003fd60       ??0CSocketTCP@@QEAA@XZ     0000000140040d60 f   SocketTCP.obj
 0001:0003fe60       ??1CSocketTCP@@UEAA@XZ     0000000140040e60 f   SocketTCP.obj
 0001:0003fef0       ?Create@CSocketTCP@@UEAAHPEADH0@Z 0000000140040ef0 f   SocketTCP.obj
 0001:00040070       ?Create@CSocketTCP@@UEAAH_KPEAVCServeurTCP@@@Z 0000000140041070 f   SocketTCP.obj
 0001:00040110       ?Create@CSocketTCP@@UEAAHH@Z 0000000140041110 f   SocketTCP.obj
 0001:00040120       ?Close@CSocketTCP@@UEAAHXZ 0000000140041120 f   SocketTCP.obj
 0001:000401b0       ?Reception@CSocketTCP@@QEAAHXZ 00000001400411b0 f   SocketTCP.obj
 0001:00040400       ?Send@CSocketTCP@@UEAAHPEAD@Z 0000000140041400 f   SocketTCP.obj
 0001:000408c0       ?SendBrut@CSocketTCP@@UEAAHPEAD@Z 00000001400418c0 f   SocketTCP.obj
 0001:00040c30       ?SendBrut@CSocketTCP@@UEAAHPEADH@Z 0000000140041c30 f   SocketTCP.obj
 0001:00040d80       ?InitAdresseServeur@CSocketTCP@@QEAAHPEADPEAUin_addr@@@Z 0000000140041d80 f   SocketTCP.obj
 0001:00040e60       ?MajErreurSendInfoSocketTcp@CSocketTCP@@UEAAXXZ 0000000140041e60 f   SocketTCP.obj
 0001:00040e60       ?BoucleDAttente@CSocketServeurArchive@@UEAAXXZ 0000000140041e60 f   SocketServeurArchive.obj
 0001:00040e60       ?ServeurDeconnecte@CSocketTCP@@UEAAXXZ 0000000140041e60 f   SocketTCP.obj
 0001:00040e70       ?Receive@CSocketTCP@@UEAAHPEAD@Z 0000000140041e70 f   SocketTCP.obj
 0001:00040e80       ?NouvDimTab@CTabPtr@@QEAAXH@Z 0000000140041e80 f   TabPtr.obj
 0001:00040f20       ?SetAt@CTabPtr@@QEAAXHH@Z  0000000140041f20 f   TabPtr.obj
 0001:00040f90       ?GetAt@CTabPtr@@QEAAHH@Z   0000000140041f90 f   TabPtr.obj
 0001:00040fb0       ?OteBlanc@CTexte@@QEAAXXZ  0000000140041fb0 f   Texte.obj
 0001:00041030       ??4CTexte@@QEAAAEAV0@AEBVCString@@@Z 0000000140042030 f   Texte.obj
 0001:000411a0       ?PFormatMessage@CTexte@@QEAAXPEBDPEAPEAD@Z 00000001400421a0 f   Texte.obj
 0001:000414f0       ?Filtre@CTexte@@QEAAXAEAVCString@@@Z 00000001400424f0 f   Texte.obj
 0001:000415f0       ?MFormatMessage@CTexte@@SAXPEADPEAVCTabPtr@@AEAVCString@@@Z 00000001400425f0 f   Texte.obj
 0001:00041710       ?FonctionLancementDUnThreadOsys@@YAHPEAX@Z 0000000140042710 f   ThreadOsys.obj
 0001:00041740       ??_GCThreadOsys@@UEAAPEAXI@Z 0000000140042740 f i ThreadOsys.obj
 0001:00041740       ??_ECThreadOsys@@UEAAPEAXI@Z 0000000140042740 f i  CIL library: CIL module
 0001:00041780       ??1CThreadOsys@@UEAA@XZ    0000000140042780 f   ThreadOsys.obj
 0001:00041790       ?Creer@CThreadOsys@@UEAAHXZ 0000000140042790 f   ThreadOsys.obj
 0001:00041800       ?Arret@CThreadOsys@@UEAAXXZ 0000000140042800 f   ThreadOsys.obj
 0001:00041880       ?Boucle@CThreadOsys@@UEAAHXZ 0000000140042880 f   ThreadOsys.obj
 0001:000418c0       ??_ECVersionIntegrale@@UEAAPEAXI@Z 00000001400428c0 f i  CIL library: CIL module
 0001:000418c0       ??_GCVersionIntegrale@@UEAAPEAXI@Z 00000001400428c0 f i VersionIntegrale.obj
 0001:00041900       ?getKeyIntegrale@CVersionIntegrale@@IEAAHXZ 0000000140042900 f   VersionIntegrale.obj
 0001:000419c0       ?getRegistryValue@CVersionIntegrale@@IEAAHPEAUHKEY__@@PEAD@Z 00000001400429c0 f   VersionIntegrale.obj
 0001:00041a70       ??0CConnexion@@QEAA@XZ     0000000140042a70 f i ConfOsysBd.obj
 0001:00041bb0       ??1CConnexion@@QEAA@XZ     0000000140042bb0 f i ConfOsysBd.obj
 0001:00041c70       ??0CConfOsysBd@@QEAA@XZ    0000000140042c70 f   ConfOsysBd.obj
 0001:00041d00       ??1CConfOsysBd@@QEAA@XZ    0000000140042d00 f   ConfOsysBd.obj
 0001:00041da0       ?LitArchive@CConfOsysBd@@QEAAHAEAVCInputArchive@@@Z 0000000140042da0 f   ConfOsysBd.obj
 0001:00043300       ?LitArchiveAncienneAppli@CConfOsysBd@@QEAAHAEAVCInputArchive@@H@Z 0000000140044300 f   ConfOsysBd.obj
 0001:000443e0       ?EcritArchive@CConfOsysBd@@QEAAHAEAVCOutputArchive@@@Z 00000001400453e0 f   ConfOsysBd.obj
 0001:00044610       ?SupprimeTout@CConfOsysBd@@QEAAXXZ 0000000140045610 f   ConfOsysBd.obj
 0001:000446e0       ?Ajout@CConfOsysBd@@QEAAXPEAVCConnexion@@@Z 00000001400456e0 f   ConfOsysBd.obj
 0001:00044750       ??0_bstr_t@@QEAA@PEBD@Z    0000000140045750 f i ConnexionBDAdo.obj
 0001:000447d0       ??1_bstr_t@@QEAA@XZ        00000001400457d0 f i ConnexionBDAdo.obj
 0001:000447d0       ?_Free@_bstr_t@@AEAAXXZ    00000001400457d0 f i ConnexionBDAdo.obj
 0001:00044830       ??4_bstr_t@@QEAAAEAV0@PEB_W@Z 0000000140045830 f i ConnexionBDAdo.obj
 0001:00044920       ??1_variant_t@@QEAA@XZ     0000000140045920 f i ConnexionBDAdo.obj
 0001:00044930       ??0_com_error@@QEAA@AEBV0@@Z 0000000140045930 f i ConnexionBDAdo.obj
 0001:00044970       ??1_com_error@@UEAA@XZ     0000000140045970 f i ConnexionBDAdo.obj
 0001:000449b0       ?Description@_com_error@@QEBA?AV_bstr_t@@XZ 00000001400459b0 f i ConnexionBDAdo.obj
 0001:00044a40       ?Source@_com_error@@QEBA?AV_bstr_t@@XZ 0000000140045a40 f i ConnexionBDAdo.obj
 0001:00044ad0       ??_E_com_error@@UEAAPEAXI@Z 0000000140045ad0 f i  CIL library: CIL module
 0001:00044ad0       ??_G_com_error@@UEAAPEAXI@Z 0000000140045ad0 f i ConnexionBDAdo.obj
 0001:00044b30       ?GetSource@Error@ADOCG@@QEAA?AV_bstr_t@@XZ 0000000140045b30 f i ConnexionBDAdo.obj
 0001:00044bd0       ?GetDescription@Error@ADOCG@@QEAA?AV_bstr_t@@XZ 0000000140045bd0 f i ConnexionBDAdo.obj
 0001:00044c70       ?GetSQLState@Error@ADOCG@@QEAA?AV_bstr_t@@XZ 0000000140045c70 f i ConnexionBDAdo.obj
 0001:00044d10       ?GetItem@Errors@ADOCG@@QEAA?AV?$_com_ptr_t@V?$_com_IIID@UError@ADOCG@@$1?_GUID_00000500_0000_0010_8000_00aa006d2ea4@@3U__s_GUID@@B@@@@AEBV_variant_t@@@Z 0000000140045d10 f i ConnexionBDAdo.obj
 0001:00044da0       ?GetName@Field20@ADOCG@@QEAA?AV_bstr_t@@XZ 0000000140045da0 f i ConnexionBDAdo.obj
 0001:00044e40       ?GetValue@Field20@ADOCG@@QEAA?AV_variant_t@@XZ 0000000140045e40 f i ConnexionBDAdo.obj
 0001:00044eb0       ?GetItem@Fields15@ADOCG@@QEAA?AV?$_com_ptr_t@V?$_com_IIID@UField@ADOCG@@$1?_GUID_00000569_0000_0010_8000_00aa006d2ea4@@3U__s_GUID@@B@@@@AEBV_variant_t@@@Z 0000000140045eb0 f i ConnexionBDAdo.obj
 0001:00044f40       ?PutCommandText@Command15@ADOCG@@QEAAXV_bstr_t@@@Z 0000000140045f40 f i ConnexionBDAdo.obj
 0001:00044fe0       ?Execute@Command15@ADOCG@@QEAA?AV?$_com_ptr_t@V?$_com_IIID@U_Recordset@ADOCG@@$1?_GUID_00000556_0000_0010_8000_00aa006d2ea4@@3U__s_GUID@@B@@@@PEAUtagVARIANT@@0J@Z 0000000140045fe0 f i ConnexionBDAdo.obj
 0001:00045070       ?Open@Connection15@ADOCG@@QEAAJV_bstr_t@@00J@Z 0000000140046070 f i ConnexionBDAdo.obj
 0001:000451e0       ?GetErrors@Connection15@ADOCG@@QEAA?AV?$_com_ptr_t@V?$_com_IIID@UErrors@ADOCG@@$1?_GUID_00000501_0000_0010_8000_00aa006d2ea4@@3U__s_GUID@@B@@@@XZ 00000001400461e0 f i ConnexionBDAdo.obj
 0001:00045250       ?GetState@Connection15@ADOCG@@QEAAJXZ 0000000140046250 f i ConnexionBDAdo.obj
 0001:00045290       ?OpenSchema@Connection15@ADOCG@@QEAA?AV?$_com_ptr_t@V?$_com_IIID@U_Recordset@ADOCG@@$1?_GUID_00000556_0000_0010_8000_00aa006d2ea4@@3U__s_GUID@@B@@@@W4SchemaEnum@2@AEBV_variant_t@@1@Z 0000000140046290 f i ConnexionBDAdo.obj
 0001:00045350       ?GetEndOfFile@Recordset15@ADOCG@@QEAAFXZ 0000000140046350 f i ConnexionBDAdo.obj
 0001:00045390       ?GetFields@Recordset15@ADOCG@@QEAA?AV?$_com_ptr_t@V?$_com_IIID@UFields@ADOCG@@$1?_GUID_00000564_0000_0010_8000_00aa006d2ea4@@3U__s_GUID@@B@@@@XZ 0000000140046390 f i ConnexionBDAdo.obj
 0001:00045400       ??0CConnexionBD@@QEAA@HHPEAVCListeConnexionBD@@@Z 0000000140046400 f   ConnexionBDAdo.obj
 0001:00045520       ??_GCConnexionBD@@UEAAPEAXI@Z 0000000140046520 f i ConnexionBDAdo.obj
 0001:00045520       ??_ECConnexionBD@@UEAAPEAXI@Z 0000000140046520 f i  CIL library: CIL module
 0001:00045550       ??1CConnexionBD@@UEAA@XZ   0000000140046550 f   ConnexionBDAdo.obj
 0001:00045670       ?close@CConnexionBD@@QEAAXXZ 0000000140046670 f   ConnexionBDAdo.obj
 0001:00045910       ?Execute@CConnexionBD@@QEAAHPEAVCDataArchive@@@Z 0000000140046910 f   ConnexionBDAdo.obj
 0001:000470f0       ?Boucle@CConnexionBD@@QEAAXXZ 00000001400480f0 f   ConnexionBDAdo.obj
 0001:000478b0       ?LitProvider@CConnexionBD@@IEAAHAEAVCString@@@Z 00000001400488b0 f   ConnexionBDAdo.obj
 0001:00047b70       ?LitStructureBD@CConnexionBD@@QEAAHPEAVCListCStructureTable@@PEAVCDataArchive@@@Z 0000000140048b70 f   ConnexionBDAdo.obj
 0001:00048d00       ?LitListeColonneTable@CConnexionBD@@IEAAHPEAVCListCStructureChamp@@@Z 0000000140049d00 f   ConnexionBDAdo.obj
 0001:000494b0       ?AnalyseTypeChamp@CConnexionBD@@IEAAXW4DataTypeEnum@ADOCG@@AEAHAEAVCString@@@Z 000000014004a4b0 f   ConnexionBDAdo.obj
 0001:000498c0       ?open@CConnexionBD@@QEAAHPEAD00@Z 000000014004a8c0 f   ConnexionBDAdo.obj
 0001:00049f20       ?InfoErreurConnexion@CConnexionBD@@IEAAXAEAV_com_error@@@Z 000000014004af20 f   ConnexionBDAdo.obj
 0001:0004a4f0       ?Erreur@CConnexionBD@@IEAAXAEAV_com_error@@PEAVCResultatRequete@@PEADPEAVCDataArchive@@@Z 000000014004b4f0 f   ConnexionBDAdo.obj
 0001:0004a7f0       ?LitNumCanal@CConnexionBD@@QEAAHXZ 000000014004b7f0 f   ConnexionBDAdo.obj
 0001:0004a830       ?LitTypeBase@CConnexionBD@@QEAAXPEADPEAVCListCStructureTable@@@Z 000000014004b830 f   ConnexionBDAdo.obj
 0001:0004aa50       ?TraceErreurBD@CConnexionBD@@IEAAXAEAV_com_error@@PEAD1@Z 000000014004ba50 f   ConnexionBDAdo.obj
 0001:0004b440       ?TraceErreurReqSql@CConnexionBD@@IEAAXPEADH@Z 000000014004c440 f   ConnexionBDAdo.obj
 0001:0004b970       ?EnvoieErreurConnexion@CConnexionBD@@IEAAXAEAV_com_error@@PEAVCDataArchive@@@Z 000000014004c970 f   ConnexionBDAdo.obj
 0001:0004ba40       ?ErreurOracle@CConnexionBD@@IEAAHAEAV_com_error@@@Z 000000014004ca40 f   ConnexionBDAdo.obj
 0001:0004bb70       ?ExecuteInitOra@CConnexionBD@@IEAAHXZ 000000014004cb70 f   ConnexionBDAdo.obj
 0001:0004be30       ?DmdArretConnexionBD@CConnexionBD@@QEAAXXZ 000000014004ce30 f   ConnexionBDAdo.obj
 0001:0004c460       ?TraceErreurReInitBD@CConnexionBD@@QEAAXPEAD00@Z 000000014004d460 f   ConnexionBDAdo.obj
 0001:0004caf0       ?GetLangueUserRequeteExe@CConnexionBD@@IEAAXAEAVCString@@@Z 000000014004daf0 f   ConnexionBDAdo.obj
 0001:0004cbd0       ?IsDeadlockError@CConnexionBD@@IEAAHAEAV_com_error@@@Z 000000014004dbd0 f   ConnexionBDAdo.obj
 0001:0004ccb0       ?IsDeadlockError@CConnexionBD@@IEAAHVCString@@@Z 000000014004dcb0 f   ConnexionBDAdo.obj
 0001:0004cd10       ?LitSqlState@CConnexionBD@@IEAAXAEAV_com_error@@AEAVCString@@@Z 000000014004dd10 f   ConnexionBDAdo.obj
 0001:0004d420       ?TraceDeadlockErrorExecQuery@CConnexionBD@@IEAAXH@Z 000000014004e420 f   ConnexionBDAdo.obj
 0001:0004d900       ?CreateInstance@?$_com_ptr_t@V?$_com_IIID@U_Connection@ADOCG@@$1?_GUID_00000550_0000_0010_8000_00aa006d2ea4@@3U__s_GUID@@B@@@@QEAAJAEBU_GUID@@PEAUIUnknown@@K@Z 000000014004e900 f i ConnexionBDAdo.obj
 0001:0004d990       ??1?$_com_ptr_t@V?$_com_IIID@U_Recordset@ADOCG@@$1?_GUID_00000556_0000_0010_8000_00aa006d2ea4@@3U__s_GUID@@B@@@@QEAA@XZ 000000014004e990 f i ConnexionBDAdo.obj
 0001:0004d990       ??1?$_com_ptr_t@V?$_com_IIID@UField@ADOCG@@$1?_GUID_00000569_0000_0010_8000_00aa006d2ea4@@3U__s_GUID@@B@@@@QEAA@XZ 000000014004e990 f i ConnexionBDAdo.obj
 0001:0004d990       ??1?$_com_ptr_t@V?$_com_IIID@UFields@ADOCG@@$1?_GUID_00000564_0000_0010_8000_00aa006d2ea4@@3U__s_GUID@@B@@@@QEAA@XZ 000000014004e990 f i ConnexionBDAdo.obj
 0001:0004d990       ??1?$_com_ptr_t@V?$_com_IIID@UErrors@ADOCG@@$1?_GUID_00000501_0000_0010_8000_00aa006d2ea4@@3U__s_GUID@@B@@@@QEAA@XZ 000000014004e990 f i ConnexionBDAdo.obj
 0001:0004d990       ??1?$_com_ptr_t@V?$_com_IIID@U_Connection@ADOCG@@$1?_GUID_00000550_0000_0010_8000_00aa006d2ea4@@3U__s_GUID@@B@@@@QEAA@XZ 000000014004e990 f i ConnexionBDAdo.obj
 0001:0004d990       ??1?$_com_ptr_t@V?$_com_IIID@UError@ADOCG@@$1?_GUID_00000500_0000_0010_8000_00aa006d2ea4@@3U__s_GUID@@B@@@@QEAA@XZ 000000014004e990 f i ConnexionBDAdo.obj
 0001:0004d990       ??1?$_com_ptr_t@V?$_com_IIID@U_Command@ADOCG@@$1?_GUID_b08400bd_f9d1_4d02_b856_71d5dba123e9@@3U__s_GUID@@B@@@@QEAA@XZ 000000014004e990 f i ConnexionBDAdo.obj
 0001:0004d9b0       ?CreateInstance@?$_com_ptr_t@V?$_com_IIID@U_Command@ADOCG@@$1?_GUID_b08400bd_f9d1_4d02_b856_71d5dba123e9@@3U__s_GUID@@B@@@@QEAAJAEBU_GUID@@PEAUIUnknown@@K@Z 000000014004e9b0 f i ConnexionBDAdo.obj
 0001:0004da40       ?EstMemoireUneDate@CConversion@@SAHVCString@@@Z 000000014004ea40 f   ConversionAdo.obj
 0001:0004db70       ??_GCGestErreurBD@@UEAAPEAXI@Z 000000014004eb70 f i GestErreurBD.obj
 0001:0004db70       ??_ECGestErreurBD@@UEAAPEAXI@Z 000000014004eb70 f i  CIL library: CIL module
 0001:0004dba0       ??_ECGroupeRequete@@UEAAPEAXI@Z 000000014004eba0 f i  CIL library: CIL module
 0001:0004dba0       ??_GCGroupeRequete@@UEAAPEAXI@Z 000000014004eba0 f i GroupeRequete.obj
 0001:0004dbe0       ?NewElement@CGroupeRequete@@UEAAPEAVCElement@@HH@Z 000000014004ebe0 f   GroupeRequete.obj
 0001:0004dc30       ?SupprimeTout@CLigneRequete@@QEAAXXZ 000000014004ec30 f   LigneRequete.obj
 0001:0004dce0       ?FonctionDeLancementDUnThreadCConnexionBD@@YAHPEAX@Z 000000014004ece0 f   ListeConnexionBD.obj
 0001:0004dd10       ??0CListeConnexionBD@@QEAA@XZ 000000014004ed10 f   ListeConnexionBD.obj
 0001:0004de20       ??1CListeConnexionBD@@QEAA@XZ 000000014004ee20 f   ListeConnexionBD.obj
 0001:0004dfa0       ?SupprimeTout@CListeConnexionBD@@IEAAXH@Z 000000014004efa0 f   ListeConnexionBD.obj
 0001:0004e190       ?DemandeArretConnexion@CListeConnexionBD@@IEAAXXZ 000000014004f190 f   ListeConnexionBD.obj
 0001:0004e360       ?DemandeArretSGBD@CListeConnexionBD@@IEAAXXZ 000000014004f360 f   ListeConnexionBD.obj
 0001:0004e450       ?ReveilleCanaux@CListeConnexionBD@@QEAAXXZ 000000014004f450 f   ListeConnexionBD.obj
 0001:0004e720       ?AjouteRequeteExe@CListeConnexionBD@@QEAAXPEAVCRequeteExe@@@Z 000000014004f720 f   ListeConnexionBD.obj
 0001:0004e7a0       ?PerteConnexionSGBD@CListeConnexionBD@@QEAAXXZ 000000014004f7a0 f   ListeConnexionBD.obj
 0001:0004ea10       ?CreerLstConnexionBD@CListeConnexionBD@@IEAAHXZ 000000014004fa10 f   ListeConnexionBD.obj
 0001:0004eee0       ?CreerConnexionBD@CListeConnexionBD@@IEAAHH@Z 000000014004fee0 f   ListeConnexionBD.obj
 0001:0004f1d0       ?ReconnectCanalErreur@CListeConnexionBD@@IEAAHXZ 00000001400501d0 f   ListeConnexionBD.obj
 0001:0004f250       ?InitConnexionBD@CListeConnexionBD@@IEAAHXZ 0000000140050250 f   ListeConnexionBD.obj
 0001:0004f310       ?LitTypeBase@CListeConnexionBD@@IEAAXXZ 0000000140050310 f   ListeConnexionBD.obj
 0001:0004f570       ?LitProvider@CListeConnexionBD@@IEAAHAEAVCString@@@Z 0000000140050570 f   ListeConnexionBD.obj
 0001:0004f830       ??0CListeGroupeRequete@@QEAA@HPEAD0@Z 0000000140050830 f   ListeGroupeRequete.obj
 0001:0004f8b0       ??_ECListeGroupeRequete@@UEAAPEAXI@Z 00000001400508b0 f i  CIL library: CIL module
 0001:0004f8b0       ??_GCListeGroupeRequete@@UEAAPEAXI@Z 00000001400508b0 f i ListeGroupeRequete.obj
 0001:0004f930       ??_GCListeSGBD@@QEAAPEAXI@Z 0000000140050930 f i ListeGroupeRequete.obj
 0001:0004f9a0       ?InitLstSGBD@CListeGroupeRequete@@QEAAXXZ 00000001400509a0 f   ListeGroupeRequete.obj
 0001:0004fa50       ?NewGroupe@CListeGroupeRequete@@UEAAPEAVCGroupe@@PEAVCListeGroupe@@HH@Z 0000000140050a50 f   ListeGroupeRequete.obj
 0001:0004fad0       ?LitArchiveEx@CListeGroupeRequete@@UEAAXPEADAEAVCInputArchive@@@Z 0000000140050ad0 f   ListeGroupeRequete.obj
 0001:0004fc60       ?EcritArchiveEx@CListeGroupeRequete@@UEAAXAEAVCOutputArchive@@@Z 0000000140050c60 f   ListeGroupeRequete.obj
 0001:0004fcc0       ?ExecuteRequete@CListeGroupeRequete@@QEAAHHPEADHHHHH0H0@Z 0000000140050cc0 f   ListeGroupeRequete.obj
 0001:00050250       ?ClientArchiveEx@CListeGroupeRequete@@UEAAXPEADAEAVCInputArchive@@AEAVCOutputArchive@@H0@Z 0000000140051250 f   ListeGroupeRequete.obj
 0001:000512e0       ?MessErreurDroitInsuff@CListeGroupeRequete@@QEAAXHHH@Z 00000001400522e0 f   ListeGroupeRequete.obj
 0001:000515e0       ?LitStructureBD@CListeGroupeRequete@@QEAAHHPEAD@Z 00000001400525e0 f   ListeGroupeRequete.obj
 0001:00051620       ?DmdeSauvegardeTous@CListeGroupeRequete@@QEAAXXZ 0000000140052620 f   ListeGroupeRequete.obj
 0001:000516a0       ??1CListeParametre@@QEAA@XZ 00000001400526a0 f   ListeParametre.obj
 0001:00051710       ?Ajoute@CListeParametre@@QEAAHHHVCString@@@Z 0000000140052710 f   ListeParametre.obj
 0001:00051850       ?SupprimeTout@CListeParametre@@QEAAHXZ 0000000140052850 f   ListeParametre.obj
 0001:00051900       ?EcritArchive@CListeParametre@@QEAAHAEAVCOutputArchive@@@Z 0000000140052900 f   ListeParametre.obj
 0001:00051a40       ?LitArchive@CListeParametre@@QEAAHAEAVCInputArchive@@@Z 0000000140052a40 f   ListeParametre.obj
 0001:00051d00       ??1CListeRequeteExe@@QEAA@XZ 0000000140052d00 f   ListeRequeteExe.obj
 0001:00051d80       ?SupprimeTout@CListeRequeteExe@@QEAAXXZ 0000000140052d80 f   ListeRequeteExe.obj
 0001:00051e60       ?Init@CListeSGBD@@QEAAXXZ  0000000140052e60 f   ListeSGBD.obj
 0001:000528e0       ?SupprimeTout@CListeSGBD@@QEAAXXZ 00000001400538e0 f   ListeSGBD.obj
 0001:00052b10       ?AjouteRequeteExe@CListeSGBD@@QEAAHPEAVCRequeteExe@@PEAD@Z 0000000140053b10 f   ListeSGBD.obj
 0001:00052f70       ?EtatConnexion@CListeSGBD@@QEAAHPEAD@Z 0000000140053f70 f   ListeSGBD.obj
 0001:00053100       ?ArretSrv@CListeSGBD@@QEAAXXZ 0000000140054100 f   ListeSGBD.obj
 0001:000532f0       ?ReinitialiseConnexionBD@CListeSGBD@@QEAAHPEAD@Z 00000001400542f0 f   ListeSGBD.obj
 0001:00053470       ?FonctionLancementThreadPerteConn@@YAHPEAX@Z 0000000140054470 f   PerteConnBD.obj
 0001:000534b0       ??_ECPerteConnBD@@UEAAPEAXI@Z 00000001400544b0 f i  CIL library: CIL module
 0001:000534b0       ??_GCPerteConnBD@@UEAAPEAXI@Z 00000001400544b0 f i PerteConnBD.obj
 0001:00053510       ?Creer@CPerteConnBD@@UEAAHXZ 0000000140054510 f   PerteConnBD.obj
 0001:00053580       ?Boucle@CPerteConnBD@@UEAAHXZ 0000000140054580 f   PerteConnBD.obj
 0001:00053970       ?TracePerteConnexion@CPerteConnBD@@IEAAXHPEAD@Z 0000000140054970 f   PerteConnBD.obj
 0001:00053ad0       ??0CRequete@@QEAA@HH@Z     0000000140054ad0 f   Requete.obj
 0001:00053b70       ??_ECRequete@@UEAAPEAXI@Z  0000000140054b70 f i  CIL library: CIL module
 0001:00053b70       ??_GCRequete@@UEAAPEAXI@Z  0000000140054b70 f i Requete.obj
 0001:00053ba0       ??1CRequete@@UEAA@XZ       0000000140054ba0 f   Requete.obj
 0001:00053c40       ?EcritArchive@CRequete@@UEAAXAEAVCOutputArchive@@PEADH@Z 0000000140054c40 f   Requete.obj
 0001:00054250       ?LitArchive@CRequete@@UEAAHAEAVCInputArchive@@H@Z 0000000140055250 f   Requete.obj
 0001:00054f10       ?UtiliseId@CRequete@@UEAAHHAEAVCOutputArchive@@PEAD@Z 0000000140055f10 f   Requete.obj
 0001:00055090       ??0CRequeteExe@@QEAA@XZ    0000000140056090 f   RequeteExe.obj
 0001:00055180       ??1CRequeteExe@@QEAA@XZ    0000000140056180 f   RequeteExe.obj
 0001:00055220       ?CalculeRequete@CRequeteExe@@QEAAHXZ 0000000140056220 f   RequeteExe.obj
 0001:00056680       ?RendNomTypeDonnee@CResultatRequete@@UEAAPEADXZ 0000000140057680 f i ResultatRequete.obj
 0001:00056690       ??0CResultatRequete@@QEAA@XZ 0000000140057690 f   ResultatRequete.obj
 0001:000567e0       ??_ECResultatRequete@@UEAAPEAXI@Z 00000001400577e0 f i  CIL library: CIL module
 0001:000567e0       ??_GCResultatRequete@@UEAAPEAXI@Z 00000001400577e0 f i ResultatRequete.obj
 0001:00056810       ??1CResultatRequete@@UEAA@XZ 0000000140057810 f   ResultatRequete.obj
 0001:00056940       ?DestructionFicTemp@CResultatRequete@@AEAAXXZ 0000000140057940 f   ResultatRequete.obj
 0001:000569c0       ?AjouteElement@CResultatRequete@@QEAAXHPEAD@Z 00000001400579c0 f   ResultatRequete.obj
 0001:00056d80       ?SupprimeTout@CResultatRequete@@QEAAXXZ 0000000140057d80 f   ResultatRequete.obj
 0001:00056ec0       ?LitElement@CResultatRequete@@QEAAHHHAEAVCString@@@Z 0000000140057ec0 f   ResultatRequete.obj
 0001:00057170       ?LitElement@CResultatRequete@@QEAAHHHPEADH@Z 0000000140058170 f   ResultatRequete.obj
 0001:000574b0       ?LitArchive@CResultatRequete@@QEAAHAEAVCInputArchive@@@Z 00000001400584b0 f   ResultatRequete.obj
 0001:00058330       ?EcritArchive@CResultatRequete@@QEAAHAEAVCOutputArchive@@@Z 0000000140059330 f   ResultatRequete.obj
 0001:00058880       ?AjoutDansIndexFic@CResultatRequete@@AEAAXHPEAU_iobuf@@@Z 0000000140059880 f   ResultatRequete.obj
 0001:00058920       ?TransfertDonnees@CResultatRequete@@AEAAXPEAU_iobuf@@@Z 0000000140059920 f   ResultatRequete.obj
 0001:00058b00       ?LitElementEnMemoire@CResultatRequete@@AEAAHHHAEAVCString@@@Z 0000000140059b00 f   ResultatRequete.obj
 0001:00058bf0       ?LitSupprimeElementPourTransfert@CResultatRequete@@AEAAHHHAEAVCString@@@Z 0000000140059bf0 f   ResultatRequete.obj
 0001:00058d30       ?LitFic@CResultatRequete@@QEAAHAEAVCOutputArchive@@@Z 0000000140059d30 f   ResultatRequete.obj
 0001:00058fc0       ?EcritFic@CResultatRequete@@QEAAHAEAVCInputArchive@@@Z 0000000140059fc0 f   ResultatRequete.obj
 0001:00059950       ??4CResultatRequete@@QEAAAEAV0@AEAV0@@Z 000000014005a950 f   ResultatRequete.obj
 0001:00059c00       ?CopyTabDyn@CResultatRequete@@AEAAXAEAV1@@Z 000000014005ac00 f   ResultatRequete.obj
 0001:00059cf0       ?LitLigneElement@CResultatRequete@@QEAAHHAEAVCString@@@Z 000000014005acf0 f   ResultatRequete.obj
 0001:0005a030       ?EcritListeEnregArchive@CResultatRequete@@QEAAHAEAVCOutputArchive@@@Z 000000014005b030 f   ResultatRequete.obj
 0001:0005a200       ??0CStructureDefChamp@@QEAA@XZ 000000014005b200 f   StructureDB.obj
 0001:0005a320       ??_GCStructureDefChamp@@UEAAPEAXI@Z 000000014005b320 f i StructureDB.obj
 0001:0005a320       ??_ECStructureDefChamp@@UEAAPEAXI@Z 000000014005b320 f i  CIL library: CIL module
 0001:0005a350       ??1CStructureDefChamp@@UEAA@XZ 000000014005b350 f   StructureDB.obj
 0001:0005a3f0       ?LitArchive@CStructureDefChamp@@QEAAHAEAVCInputArchive@@@Z 000000014005b3f0 f   StructureDB.obj
 0001:0005aaf0       ?EcritArchive@CStructureDefChamp@@QEAAHAEAVCOutputArchive@@@Z 000000014005baf0 f   StructureDB.obj
 0001:0005ac20       ??0CListCStructureChamp@@QEAA@XZ 000000014005bc20 f   StructureDB.obj
 0001:0005acb0       ?SupprimeTous@CListCStructureChamp@@QEAAXXZ 000000014005bcb0 f   StructureDB.obj
 0001:0005af20       ?LitPremier@CListCStructureChamp@@QEAAPEAVCStructureDefChamp@@XZ 000000014005bf20 f   StructureDB.obj
 0001:0005afb0       ?LitArchive@CListCStructureChamp@@QEAAHAEAVCInputArchive@@@Z 000000014005bfb0 f   StructureDB.obj
 0001:0005b3d0       ?EcritArchive@CListCStructureChamp@@QEAAHAEAVCOutputArchive@@@Z 000000014005c3d0 f   StructureDB.obj
 0001:0005b4d0       ?SupprimeTous@CListCStructureTable@@QEAAXXZ 000000014005c4d0 f   StructureDB.obj
 0001:0005b680       ?LitPremier@CListCStructureTable@@QEAAPEAVCListCStructureChamp@@XZ 000000014005c680 f   StructureDB.obj
 0001:0005b710       ?LitSuivant@CListCStructureTable@@QEAAPEAVCListCStructureChamp@@XZ 000000014005c710 f   StructureDB.obj
 0001:0005b7a0       ?LitArchive@CListCStructureTable@@QEAAHAEAVCInputArchive@@@Z 000000014005c7a0 f   StructureDB.obj
 0001:0005bc80       ?EcritArchive@CListCStructureTable@@QEAAHAEAVCOutputArchive@@@Z 000000014005cc80 f   StructureDB.obj
 0001:0005be50       ??4CListCStructureTable@@QEAAAEAV0@AEAV0@@Z 000000014005ce50 f   StructureDB.obj
 0001:0005c080       ?LitAdresseIp@CSocketServeurArchive@@QEAA?AVCString@@XZ 000000014005d080 f i ServeurSrv.obj
 0001:0005c080       ?GetAdresse@CSocketServeurArchive@@QEAA?AVCString@@XZ 000000014005d080 f i ClientGestConsoleWeb.obj
 0001:0005c0d0       ??_GCClientGestConsoleWeb@@UEAAPEAXI@Z 000000014005d0d0 f i ClientGestConsoleWeb.obj
 0001:0005c0d0       ??_ECClientGestConsoleWeb@@UEAAPEAXI@Z 000000014005d0d0 f i  CIL library: CIL module
 0001:0005c110       ?BoucleDAttente@CClientGestConsoleWeb@@UEAAXXZ 000000014005d110 f   ClientGestConsoleWeb.obj
 0001:0005cce0       ?Envoi@CClientGestConsoleWeb@@QEAAXAEAVCString@@@Z 000000014005dce0 f   ClientGestConsoleWeb.obj
 0001:0005cd80       ?LitLstElement@CClientGestConsoleWeb@@AEAAXPEAVCOutputArchive@@H@Z 000000014005dd80 f   ClientGestConsoleWeb.obj
 0001:0005cf00       ?LitLstElementGrp@CClientGestConsoleWeb@@AEAAXPEAVCOutputArchive@@HPEAD@Z 000000014005df00 f   ClientGestConsoleWeb.obj
 0001:0005d060       ?ReceptionDeclarationUtilisateur@CClientGestConsoleWeb@@AEAAXXZ 000000014005e060 f   ClientGestConsoleWeb.obj
 0001:0005d460       ?LitProprieteConsole@CClientGestConsoleWeb@@AEAAXPEAVCOutputArchive@@@Z 000000014005e460 f   ClientGestConsoleWeb.obj
 0001:0005d5a0       ?FindProprieteConsole@CClientGestConsoleWeb@@AEAAXPEAVCOutputArchive@@@Z 000000014005e5a0 f   ClientGestConsoleWeb.obj
 0001:0005d7c0       ?LitProprieteMem@CClientGestConsoleWeb@@AEAAXPEAVCOutputArchive@@@Z 000000014005e7c0 f   ClientGestConsoleWeb.obj
 0001:0005da90       ?LitLstConsoleConnecte@CClientGestConsoleWeb@@AEAAXPEAVCOutputArchive@@@Z 000000014005ea90 f   ClientGestConsoleWeb.obj
 0001:0005dc40       ?LitLstUserConnecte@CClientGestConsoleWeb@@AEAAXPEAVCOutputArchive@@@Z 000000014005ec40 f   ClientGestConsoleWeb.obj
 0001:0005df10       ??1CFicXmlPageHtml@@UEAA@XZ 000000014005ef10 f   FicXmlPageHtml.obj
 0001:0005df10       ??1CFicXML@@UEAA@XZ        000000014005ef10 f   FicXML.obj
 0001:0005df50       ?CreateFicXML@CFicXML@@QEAAHXZ 000000014005ef50 f   FicXML.obj
 0001:0005e0f0       ?CloseFicXML@CFicXML@@QEAAXXZ 000000014005f0f0 f   FicXML.obj
 0001:0005e1a0       ?EcritBalise@CFicXML@@QEAAXPEAD@Z 000000014005f1a0 f   FicXML.obj
 0001:0005e210       ?LitFichier@CFicXML@@QEAAHAEAVCString@@@Z 000000014005f210 f   FicXML.obj
 0001:0005e320       ?EcritBaliseDebutGrp@CFicXML@@QEAAXHPEAD@Z 000000014005f320 f   FicXML.obj
 0001:0005e490       ?EcritBaliseIdGrp@CFicXML@@QEAAXH@Z 000000014005f490 f   FicXML.obj
 0001:0005e5e0       ?EcritBaliseConsoleVide@CFicXMLFenetre@@QEAAXXZ 000000014005f5e0 f   FicXMLFenetre.obj
 0001:0005e810       ?EcritBaliseMemoire@CFicXMLMem@@QEAAXHPEADH0HHH@Z 000000014005f810 f   FicXMLMem.obj
 0001:0005e9c0       ?EcritBaliseSuppMem@CFicXMLMem@@QEAAXH@Z 000000014005f9c0 f   FicXMLMem.obj
 0001:0005eb10       ?EcritBaliseMemoireVide@CFicXMLMem@@QEAAXXZ 000000014005fb10 f   FicXMLMem.obj
 0001:0005ec90       ??_GCFicXmlPageHtml@@UEAAPEAXI@Z 000000014005fc90 f i FicXmlPageHtml.obj
 0001:0005ec90       ??_GCFicXML@@UEAAPEAXI@Z   000000014005fc90 f i FicXML.obj
 0001:0005ec90       ??_ECFicXmlPageHtml@@UEAAPEAXI@Z 000000014005fc90 f i  CIL library: CIL module
 0001:0005ec90       ??_ECFicXML@@UEAAPEAXI@Z   000000014005fc90 f i  CIL library: CIL module
 0001:0005ecf0       ?EcritBalisePageHtml@CFicXmlPageHtml@@QEAAXPEAD0@Z 000000014005fcf0 f   FicXmlPageHtml.obj
 0001:0005ee70       ?EcritBaliseSuppPageHtml@CFicXmlPageHtml@@QEAAXPEAD@Z 000000014005fe70 f   FicXmlPageHtml.obj
 0001:0005efd0       ?EcritBaliseScenario@CFicXMLScenario@@QEAAXHPEAD@Z 000000014005ffd0 f   FicXMLScenario.obj
 0001:0005f140       ?EcritBaliseSuppLpx@CFicXMLScenario@@QEAAXH@Z 0000000140060140 f   FicXMLScenario.obj
 0001:0005f290       ?EcritBaliseSuppUser@CFicXMLUser@@QEAAXH@Z 0000000140060290 f   FicXMLUser.obj
 0001:0005f3e0       ?NewClient@CSrvGestConsoleWeb@@UEAAPEAVCSocketServeurArchive@@XZ 00000001400603e0 f   SrvGestConsoleWeb.obj
 0001:0005f440       ??_GCSrvGestConsoleWeb@@UEAAPEAXI@Z 0000000140060440 f i SrvGestConsoleWeb.obj
 0001:0005f440       ??_ECSrvGestConsoleWeb@@UEAAPEAXI@Z 0000000140060440 f i  CIL library: CIL module
 0001:0005f480       ?SendAll@CSrvGestConsoleWeb@@QEAAXVCString@@@Z 0000000140060480 f   SrvGestConsoleWeb.obj
 0001:0005f530       ??0CDecl@@QEAA@HH@Z        0000000140060530 f   Decl.obj
 0001:0005f6b0       ??_ECDecl@@UEAAPEAXI@Z     00000001400606b0 f i  CIL library: CIL module
 0001:0005f6b0       ??_GCDecl@@UEAAPEAXI@Z     00000001400606b0 f i Decl.obj
 0001:0005f6e0       ??1CDecl@@UEAA@XZ          00000001400606e0 f   Decl.obj
 0001:0005f7b0       ?EcritArchive@CDecl@@UEAAXAEAVCOutputArchive@@PEADH@Z 00000001400607b0 f   Decl.obj
 0001:0005fcd0       ?LitArchive@CDecl@@UEAAHAEAVCInputArchive@@H@Z 0000000140060cd0 f   Decl.obj
 0001:00060b10       ?UtiliseId@CDecl@@UEAAHHAEAVCOutputArchive@@PEAD@Z 0000000140061b10 f   Decl.obj
 0001:00060c50       ??_GCGroupeDecl@@UEAAPEAXI@Z 0000000140061c50 f i GroupeDecl.obj
 0001:00060c50       ??_ECGroupeDecl@@UEAAPEAXI@Z 0000000140061c50 f i  CIL library: CIL module
 0001:00060c90       ?NewElement@CGroupeDecl@@UEAAPEAVCElement@@HH@Z 0000000140061c90 f   GroupeDecl.obj
 0001:00060ce0       ??_GCListeGroupeDecl@@UEAAPEAXI@Z 0000000140061ce0 f i ListeGroupeDecl.obj
 0001:00060ce0       ??_ECListeGroupeDecl@@UEAAPEAXI@Z 0000000140061ce0 f i  CIL library: CIL module
 0001:00060d30       ?NewGroupe@CListeGroupeDecl@@UEAAPEAVCGroupe@@PEAVCListeGroupe@@HH@Z 0000000140061d30 f   ListeGroupeDecl.obj
 0001:00060db0       ?InitTout@CListeGroupeDecl@@QEAAXXZ 0000000140061db0 f   ListeGroupeDecl.obj
 0001:00060e30       ?AjoutIndexDecl@CListeGroupeDecl@@QEAAXPEAVCDecl@@@Z 0000000140061e30 f   ListeGroupeDecl.obj
 0001:00060f40       ?SupprimeIndexDecl@CListeGroupeDecl@@QEAAXPEAVCDecl@@@Z 0000000140061f40 f   ListeGroupeDecl.obj
 0001:00061050       ?SupprimeTout@CListeGroupeDecl@@QEAAXXZ 0000000140062050 f   ListeGroupeDecl.obj
 0001:00061130       ?RechercheDecl@CListeGroupeDecl@@QEAAHDPEADHAEAVCString@@PEAH1AEAVCListPeriph@@@Z 0000000140062130 f   ListeGroupeDecl.obj
 0001:00061d70       ?NbCarCommun@CListeGroupeDecl@@QEAAHPEAD0@Z 0000000140062d70 f   ListeGroupeDecl.obj
 0001:00061f60       ??_GCListUser@@UEAAPEAXI@Z 0000000140062f60 f i ListUser.obj
 0001:00061f60       ??_ECListUser@@UEAAPEAXI@Z 0000000140062f60 f i  CIL library: CIL module
 0001:00061fd0       ??1CListUser@@UEAA@XZ      0000000140062fd0 f   ListUser.obj
 0001:00062010       ?SupprimeTout@CListUser@@QEAAXXZ 0000000140063010 f   ListUser.obj
 0001:000620d0       ?LitArchive@CListUser@@QEAAHAEAVCInputArchive@@@Z 00000001400630d0 f   ListUser.obj
 0001:000623d0       ?EcritArchive@CListUser@@QEAAHAEAVCOutputArchive@@@Z 00000001400633d0 f   ListUser.obj
 0001:00062530       ?Test@CListUser@@QEAAHH@Z  0000000140063530 f   ListUser.obj
 0001:000625a0       ??_GCColRequeteEtat@@UEAAPEAXI@Z 00000001400635a0 f i ColRequeteEtat.obj
 0001:000625a0       ??_ECColRequeteEtat@@UEAAPEAXI@Z 00000001400635a0 f i  CIL library: CIL module
 0001:000625d0       ?LitArchive@CMemoireEtat@@QEAAHAEAVCInputArchive@@@Z 00000001400635d0 f   MemoireEtat.obj
 0001:000625d0       ?LitArchive@CColRequeteEtat@@QEAAHAEAVCInputArchive@@@Z 00000001400635d0 f   ColRequeteEtat.obj
 0001:00062860       ??0CEtat@@QEAA@HH@Z        0000000140063860 f   Etat.obj
 0001:000629d0       ??_ECEtat@@UEAAPEAXI@Z     00000001400639d0 f i  CIL library: CIL module
 0001:000629d0       ??_GCEtat@@UEAAPEAXI@Z     00000001400639d0 f i Etat.obj
 0001:00062a50       ?LitNomFicEtat@CEtat@@QEAAXAEAVCString@@@Z 0000000140063a50 f   Etat.obj
 0001:00062b30       ?LitExtensionFic@CEtat@@IEAAXAEAVCString@@@Z 0000000140063b30 f   Etat.obj
 0001:00062c00       ?EcritArchive@CEtat@@UEAAXAEAVCOutputArchive@@PEADH@Z 0000000140063c00 f   Etat.obj
 0001:00063070       ?LitArchive@CEtat@@UEAAHAEAVCInputArchive@@H@Z 0000000140064070 f   Etat.obj
 0001:00063ef0       ?UtiliseId@CEtat@@UEAAHHAEAVCOutputArchive@@PEAD@Z 0000000140064ef0 f   Etat.obj
 0001:00064060       ??_ECGroupeEtat@@UEAAPEAXI@Z 0000000140065060 f i  CIL library: CIL module
 0001:00064060       ??_GCGroupeEtat@@UEAAPEAXI@Z 0000000140065060 f i GroupeEtat.obj
 0001:000640a0       ?NewElement@CGroupeEtat@@UEAAPEAVCElement@@HH@Z 00000001400650a0 f   GroupeEtat.obj
 0001:000640f0       ?LitNomFichierEtat@CGroupeEtat@@QEAAHAEAVCOutputArchive@@HHH@Z 00000001400650f0 f   GroupeEtat.obj
 0001:00064620       ??0CImpEtat@@QEAA@XZ       0000000140065620 f   ImpEtat.obj
 0001:000646b0       ??_GCImpEtat@@UEAAPEAXI@Z  00000001400656b0 f i ImpEtat.obj
 0001:000646b0       ??_ECImpEtat@@UEAAPEAXI@Z  00000001400656b0 f i  CIL library: CIL module
 0001:00064720       ?Creer@CImpEtat@@UEAAHXZ   0000000140065720 f   ImpEtat.obj
 0001:00064790       ?Boucle@CImpEtat@@UEAAHXZ  0000000140065790 f   ImpEtat.obj
 0001:000659c0       ?EnvoieImpEtat@CImpEtat@@QEAAHHHPEAD@Z 00000001400669c0 f   ImpEtat.obj
 0001:00065ab0       ?SupprimeCmd@CImpEtat@@QEAAXH@Z 0000000140066ab0 f   ImpEtat.obj
 0001:00065b40       ??_ECListCmdImpEtat@@UEAAPEAXI@Z 0000000140066b40 f i  CIL library: CIL module
 0001:00065b40       ??_GCListCmdImpEtat@@UEAAPEAXI@Z 0000000140066b40 f i ListCmdImpEtat.obj
 0001:00065b70       ??1CListCmdImpEtat@@UEAA@XZ 0000000140066b70 f   ListCmdImpEtat.obj
 0001:00065bf0       ?Ajoute@CListCmdImpEtat@@QEAAXHHPEADH@Z 0000000140066bf0 f   ListCmdImpEtat.obj
 0001:00065cc0       ?SupprimeTout@CListCmdImpEtat@@QEAAXXZ 0000000140066cc0 f   ListCmdImpEtat.obj
 0001:00065d60       ?SupprimeCmdImpEtat@CListCmdImpEtat@@QEAAXH@Z 0000000140066d60 f   ListCmdImpEtat.obj
 0001:00065e30       ?SupprimePremiereCmd@CListCmdImpEtat@@QEAAXXZ 0000000140066e30 f   ListCmdImpEtat.obj
 0001:00065ec0       ??_GCListeGroupeEtat@@UEAAPEAXI@Z 0000000140066ec0 f i ListeGroupeEtat.obj
 0001:00065ec0       ??_ECListeGroupeEtat@@UEAAPEAXI@Z 0000000140066ec0 f i  CIL library: CIL module
 0001:00065f00       ?NewGroupe@CListeGroupeEtat@@UEAAPEAVCGroupe@@PEAVCListeGroupe@@HH@Z 0000000140066f00 f   ListeGroupeEtat.obj
 0001:00065f80       ?LitNomFichierEtat@CListeGroupeEtat@@QEAAHAEAVCOutputArchive@@HHH@Z 0000000140066f80 f   ListeGroupeEtat.obj
 0001:000662a0       ?SupprimeElement@CListeGroupeEtat@@UEAAHAEAVCOutputArchive@@HHH@Z 00000001400672a0 f   ListeGroupeEtat.obj
 0001:000663a0       ?ClientArchiveEx@CListeGroupeEtat@@UEAAXPEADAEAVCInputArchive@@AEAVCOutputArchive@@H0@Z 00000001400673a0 f   ListeGroupeEtat.obj
 0001:00066620       ??_ECListeMemoireEtat@@UEAAPEAXI@Z 0000000140067620 f i  CIL library: CIL module
 0001:00066620       ??_GCListeMemoireEtat@@UEAAPEAXI@Z 0000000140067620 f i ListeMemoireEtat.obj
 0001:00066650       ??1CListeMemoireEtat@@UEAA@XZ 0000000140067650 f   ListeMemoireEtat.obj
 0001:000666d0       ?LitArchive@CListeMemoireEtat@@QEAAHAEAVCInputArchive@@@Z 00000001400676d0 f   ListeMemoireEtat.obj
 0001:00066b30       ?EcritArchive@CListeMemoireEtat@@QEAAHAEAVCOutputArchive@@@Z 0000000140067b30 f   ListeMemoireEtat.obj
 0001:00066c40       ??_ECListeRequeteEtat@@UEAAPEAXI@Z 0000000140067c40 f i  CIL library: CIL module
 0001:00066c40       ??_GCListeRequeteEtat@@UEAAPEAXI@Z 0000000140067c40 f i ListeRequeteEtat.obj
 0001:00066c70       ??1CListeRequeteEtat@@UEAA@XZ 0000000140067c70 f   ListeRequeteEtat.obj
 0001:00066cf0       ?SupprimeTout@CListeMemoireEtat@@QEAAXXZ 0000000140067cf0 f   ListeMemoireEtat.obj
 0001:00066cf0       ?SupprimeTout@CListeRequeteEtat@@QEAAXXZ 0000000140067cf0 f   ListeRequeteEtat.obj
 0001:00066dc0       ?UtiliseId@CListeMemoireEtat@@QEAAHH@Z 0000000140067dc0 f   ListeMemoireEtat.obj
 0001:00066dc0       ?UtiliseId@CListeRequeteEtat@@QEAAHH@Z 0000000140067dc0 f   ListeRequeteEtat.obj
 0001:00066e30       ?LitArchive@CListeRequeteEtat@@QEAAHAEAVCInputArchive@@@Z 0000000140067e30 f   ListeRequeteEtat.obj
 0001:00067270       ?EcritArchive@CListeRequeteEtat@@QEAAHAEAVCOutputArchive@@@Z 0000000140068270 f   ListeRequeteEtat.obj
 0001:00067380       ??_ECMemoireEtat@@UEAAPEAXI@Z 0000000140068380 f i  CIL library: CIL module
 0001:00067380       ??_GCMemoireEtat@@UEAAPEAXI@Z 0000000140068380 f i MemoireEtat.obj
 0001:000673b0       ?EcritArchive@CMemoireEtat@@QEAAHAEAVCOutputArchive@@@Z 00000001400683b0 f   MemoireEtat.obj
 0001:000673b0       ?EcritArchive@CColRequeteEtat@@QEAAHAEAVCOutputArchive@@@Z 00000001400683b0 f   ColRequeteEtat.obj
 0001:00067490       ??0CRequeteEtat@@QEAA@H@Z  0000000140068490 f   RequeteEtat.obj
 0001:00067540       ??_ECRequeteEtat@@UEAAPEAXI@Z 0000000140068540 f i  CIL library: CIL module
 0001:00067540       ??_GCRequeteEtat@@UEAAPEAXI@Z 0000000140068540 f i RequeteEtat.obj
 0001:00067570       ??1CRequeteEtat@@UEAA@XZ   0000000140068570 f   RequeteEtat.obj
 0001:000675f0       ?SupprimeTout@CRequeteEtat@@QEAAXXZ 00000001400685f0 f   RequeteEtat.obj
 0001:00067670       ?LitArchive@CRequeteEtat@@QEAAHAEAVCInputArchive@@@Z 0000000140068670 f   RequeteEtat.obj
 0001:00067940       ?EcritArchive@CRequeteEtat@@QEAAHAEAVCOutputArchive@@@Z 0000000140068940 f   RequeteEtat.obj
 0001:00067a60       ??0CEvtPeriodique@@QEAA@HH@Z 0000000140068a60 f   EvtPeriodique.obj
 0001:00067b00       ??_GCEvtPeriodique@@UEAAPEAXI@Z 0000000140068b00 f i EvtPeriodique.obj
 0001:00067b00       ??_ECEvtPeriodique@@UEAAPEAXI@Z 0000000140068b00 f i  CIL library: CIL module
 0001:00067b80       ?EcritArchive@CEvtPeriodique@@UEAAXAEAVCOutputArchive@@PEADH@Z 0000000140068b80 f   EvtPeriodique.obj
 0001:00067ef0       ?LitArchive@CEvtPeriodique@@UEAAHAEAVCInputArchive@@H@Z 0000000140068ef0 f   EvtPeriodique.obj
 0001:00068d70       ?UtiliseId@CEvtPeriodique@@UEAAHHAEAVCOutputArchive@@PEAD@Z 0000000140069d70 f   EvtPeriodique.obj
 0001:00068ea0       ??_ECGroupeEvtPeriodique@@UEAAPEAXI@Z 0000000140069ea0 f i  CIL library: CIL module
 0001:00068ea0       ??_GCGroupeEvtPeriodique@@UEAAPEAXI@Z 0000000140069ea0 f i GroupeEvtPeriodique.obj
 0001:00068ee0       ?NewElement@CGroupeEvtPeriodique@@UEAAPEAVCElement@@HH@Z 0000000140069ee0 f   GroupeEvtPeriodique.obj
 0001:00068f30       ??1CListeExecPeriodique@@QEAA@XZ 0000000140069f30 f   ListeExecPeriodique.obj
 0001:00068ff0       ?SupprimeTout@CListeExecPeriodique@@QEAAXXZ 0000000140069ff0 f   ListeExecPeriodique.obj
 0001:000690d0       ?Supprime@CListeExecPeriodique@@QEAAHH@Z 000000014006a0d0 f   ListeExecPeriodique.obj
 0001:000691c0       ?SupprimeId@CListeExecPeriodique@@QEAAHH@Z 000000014006a1c0 f   ListeExecPeriodique.obj
 0001:00069300       ?SupprimeExec@CListeExecPeriodique@@QEAAHH@Z 000000014006a300 f   ListeExecPeriodique.obj
 0001:00069440       ?Ajoute@CListeExecPeriodique@@QEAAHH_JPEAVCDataArchive@@HHH@Z 000000014006a440 f   ListeExecPeriodique.obj
 0001:00069920       ?InsererElement@CListeExecPeriodique@@AEAAXPEAVCExecPeriodique@@@Z 000000014006a920 f   ListeExecPeriodique.obj
 0001:00069ae0       ?RecherchePositionPriorite@CListeExecPeriodique@@AEAAHHPEAVCExecPeriodique@@@Z 000000014006aae0 f   ListeExecPeriodique.obj
 0001:00069bc0       ?CalculProchaineExecution@CListeExecPeriodique@@QEAA_J_J0UStructPeriode@@@Z 000000014006abc0 f   ListeExecPeriodique.obj
 0001:00069cf0       ?AjoutPeriode@CListeExecPeriodique@@AEAA_J_JUStructPeriode@@@Z 000000014006acf0 f   ListeExecPeriodique.obj
 0001:00069eb0       ?Boucle@CListeExecPeriodique@@QEAAXXZ 000000014006aeb0 f   ListeExecPeriodique.obj
 0001:0006a5a0       ?TestScenExist@CListeExecPeriodique@@QEAAHPEAVCDataArchive@@@Z 000000014006b5a0 f   ListeExecPeriodique.obj
 0001:0006af10       ?FonctionDeLancementDUnThreadCListeExecPeriodique@@YAHPEAX@Z 000000014006bf10 f   ListeGroupeEvtPeriodique.obj
 0001:0006af40       ??0CListeGroupeEvtPeriodique@@QEAA@HPEAD0@Z 000000014006bf40 f   ListeGroupeEvtPeriodique.obj
 0001:0006b000       ??_GCListeGroupeEvtPeriodique@@UEAAPEAXI@Z 000000014006c000 f i ListeGroupeEvtPeriodique.obj
 0001:0006b000       ??_ECListeGroupeEvtPeriodique@@UEAAPEAXI@Z 000000014006c000 f i  CIL library: CIL module
 0001:0006b080       ?InitTabDyn@CListeGroupeEvtPeriodique@@QEAAXXZ 000000014006c080 f   ListeGroupeEvtPeriodique.obj
 0001:0006b180       ?NewGroupe@CListeGroupeEvtPeriodique@@UEAAPEAVCGroupe@@PEAVCListeGroupe@@HH@Z 000000014006c180 f   ListeGroupeEvtPeriodique.obj
 0001:0006b200       ?Create@CListeGroupeEvtPeriodique@@QEAAXXZ 000000014006c200 f   ListeGroupeEvtPeriodique.obj
 0001:0006b280       ?EcritElement@CListeGroupeEvtPeriodique@@UEAAHAEAVCInputArchive@@HHHH@Z 000000014006c280 f   ListeGroupeEvtPeriodique.obj
 0001:0006b490       ?AjouteElement@CListeGroupeEvtPeriodique@@UEAAHAEAVCInputArchive@@PEADH1HH1@Z 000000014006c490 f   ListeGroupeEvtPeriodique.obj
 0001:0006b6b0       ?SupprimeElement@CListeGroupeEvtPeriodique@@UEAAHAEAVCOutputArchive@@HHH@Z 000000014006c6b0 f   ListeGroupeEvtPeriodique.obj
 0001:0006b700       ?MajDateProchaineExec@CListeGroupeEvtPeriodique@@QEAAHH_J@Z 000000014006c700 f   ListeGroupeEvtPeriodique.obj
 0001:0006b7a0       ??0CFichierLocal@@QEAA@XZ  000000014006c7a0 f   FichierLocal.obj
 0001:0006b820       ??_GCFichierLocal@@UEAAPEAXI@Z 000000014006c820 f i FichierLocal.obj
 0001:0006b820       ??_ECFichierLocal@@UEAAPEAXI@Z 000000014006c820 f i  CIL library: CIL module
 0001:0006b850       ??1CFichierLocal@@UEAA@XZ  000000014006c850 f   FichierLocal.obj
 0001:0006b980       ?EcritArchive@CFichierLocal@@QEAAHAEAVCOutputArchive@@@Z 000000014006c980 f   FichierLocal.obj
 0001:0006bb80       ??_ECGestionFichier@@UEAAPEAXI@Z 000000014006cb80 f i  CIL library: CIL module
 0001:0006bb80       ??_GCGestionFichier@@UEAAPEAXI@Z 000000014006cb80 f i GestionFichier.obj
 0001:0006bbc0       ?DroitUser@CGestionFichier@@QEAAHHHPEADHH0@Z 000000014006cbc0 f   GestionFichier.obj
 0001:0006bc70       ?DroitUserAdm@CGestionFichier@@IEAAHHPEADHH@Z 000000014006cc70 f   GestionFichier.obj
 0001:0006bd90       ?DroitElementEtat@CGestionFichier@@IEAAHHHPEADHH@Z 000000014006cd90 f   GestionFichier.obj
 0001:0006bea0       ?LitInfoFichier@CGestionFichier@@QEAAHAEAVCOutputArchive@@PEAD1HHH@Z 000000014006cea0 f   GestionFichier.obj
 0001:0006c0c0       ?LitContenuFichier@CGestionFichier@@QEAAHAEAVCOutputArchive@@PEAD1HHH@Z 000000014006d0c0 f   GestionFichier.obj
 0001:0006c2b0       ?TestFichierDroitEcriture@CGestionFichier@@QEAAHAEAVCOutputArchive@@PEAD1HHH@Z 000000014006d2b0 f   GestionFichier.obj
 0001:0006c510       ?EcritFichier@CGestionFichier@@QEAAHAEAVCInputArchive@@PEAD1HHH@Z 000000014006d510 f   GestionFichier.obj
 0001:0006c710       ?AjoutRep@CGestionFichier@@QEAAHPEAD0HHH@Z 000000014006d710 f   GestionFichier.obj
 0001:0006c9b0       ?SupprimeFic@CGestionFichier@@QEAAHPEAD0HHH@Z 000000014006d9b0 f   GestionFichier.obj
 0001:0006cb70       ?SupprimeRep@CGestionFichier@@QEAAHPEAD0HHH@Z 000000014006db70 f   GestionFichier.obj
 0001:0006cd70       ?LitListeFicRep@CGestionFichier@@QEAAHAEAVCOutputArchive@@PEADH1HH@Z 000000014006dd70 f   GestionFichier.obj
 0001:0006d040       ?EcritListNomFicRepArchive@CGestionFichier@@IEAAXAEAVCOutputArchive@@PEAD1H@Z 000000014006e040 f   GestionFichier.obj
 0001:0006d5f0       ?RenommeFic@CGestionFichier@@QEAAHPEAD00HHH@Z 000000014006e5f0 f   GestionFichier.obj
 0001:0006d8c0       ?RenommeRep@CGestionFichier@@QEAAHPEAD00HHH@Z 000000014006e8c0 f   GestionFichier.obj
 0001:0006db90       ?ClientArchive@CGestionFichier@@QEAAXAEAVCInputArchive@@AEAVCOutputArchive@@H@Z 000000014006eb90 f   GestionFichier.obj
 0001:0006e7f0       ?EcritCodeErreur@CListeGroupe@@IEAAXAEAVCOutputArchive@@H@Z 000000014006f7f0 f   ListeGroupe.obj
 0001:0006e7f0       ?EcritCodeErreur@CGestionFichier@@IEAAXAEAVCOutputArchive@@H@Z 000000014006f7f0 f   GestionFichier.obj
 0001:0006e7f0       ?EcritCodeErreur@CServeurHTTP@@QEAAXAEAVCOutputArchive@@H@Z 000000014006f7f0 f   ServeurHTTP.obj
 0001:0006e8a0       ?RechercheNomRep@CGestionFichier@@IEAAHHAEAVCString@@@Z 000000014006f8a0 f   GestionFichier.obj
 0001:0006ea30       ?ConstruitNomFicRep@CGestionFichier@@IEAAHPEAD0HAEAVCString@@@Z 000000014006fa30 f   GestionFichier.obj
 0001:0006eb50       ?ConstruitNomRepBase@CGestionFichier@@IEAAHPEADHAEAVCString@@@Z 000000014006fb50 f   GestionFichier.obj
 0001:0006ec50       ?MessErreurDroitInsuff@CGestionFichier@@IEAAXHHH@Z 000000014006fc50 f   GestionFichier.obj
 0001:0006ee20       ??0CGestLicenceAtel@@QEAA@XZ 000000014006fe20 f   GestLicenceAtel.obj
 0001:0006eed0       ??_ECGestLicenceAtel@@UEAAPEAXI@Z 000000014006fed0 f i  CIL library: CIL module
 0001:0006eed0       ??_GCGestLicenceAtel@@UEAAPEAXI@Z 000000014006fed0 f i GestLicenceAtel.obj
 0001:0006ef00       ??1CGestLicenceAtel@@UEAA@XZ 000000014006ff00 f   GestLicenceAtel.obj
 0001:0006efb0       ?DmdAutorisationConnectTerm@CGestLicenceAtel@@QEAAHHPEADH@Z 000000014006ffb0 f   GestLicenceAtel.obj
 0001:0006f680       ?EnvoiMessError@CGestLicenceAtel@@AEAAXHPEAD@Z 0000000140070680 f   GestLicenceAtel.obj
 0001:0006fb20       ?EnvoiMessErrorTerm@CGestLicenceAtel@@AEAAXHPEAD0@Z 0000000140070b20 f   GestLicenceAtel.obj
 0001:0006fdf0       ?DmdAutorisationConnectConsole@CGestLicenceAtel@@QEAAHPEAD@Z 0000000140070df0 f   GestLicenceAtel.obj
 0001:00070430       ?DeconnexionTerm@CGestLicenceAtel@@QEAAXHPEADH@Z 0000000140071430 f   GestLicenceAtel.obj
 0001:00070960       ?DeconnexionDriverScrut@CGestLicenceAtel@@QEAAXH@Z 0000000140071960 f   GestLicenceAtel.obj
 0001:00070ed0       ?DeconnexionConsole@CGestLicenceAtel@@QEAAXPEAD@Z 0000000140071ed0 f   GestLicenceAtel.obj
 0001:00071390       ?EcritArchive@CGestLicenceAtel@@QEAAHAEAVCOutputArchive@@@Z 0000000140072390 f   GestLicenceAtel.obj
 0001:00071480       ?EnvoieMessAvantDateEcheance@CGestLicenceAtel@@AEAAHXZ 0000000140072480 f   GestLicenceAtel.obj
 0001:00071650       ?EnvoieMessApresDateEcheance@CGestLicenceAtel@@AEAAXXZ 0000000140072650 f   GestLicenceAtel.obj
 0001:00071840       ?TestDateLicenceAtel@CGestLicenceAtel@@QEAAHXZ 0000000140072840 f   GestLicenceAtel.obj
 0001:000718e0       ??0CLicenceAtelLog@@QEAA@XZ 00000001400728e0 f   LicenceAtelLog.obj
 0001:000719b0       ??_ECTraceLog@@UEAAPEAXI@Z 00000001400729b0 f i  CIL library: CIL module
 0001:000719b0       ??_GCTraceLog@@UEAAPEAXI@Z 00000001400729b0 f i TraceLog.obj
 0001:000719b0       ??_ECFileLpxLog@@UEAAPEAXI@Z 00000001400729b0 f i  CIL library: CIL module
 0001:000719b0       ??_GCLogCmdShell@@UEAAPEAXI@Z 00000001400729b0 f i LogCmdShell.obj
 0001:000719b0       ??_ECLicenceAtelLog@@UEAAPEAXI@Z 00000001400729b0 f i  CIL library: CIL module
 0001:000719b0       ??_GCFileLpxLog@@UEAAPEAXI@Z 00000001400729b0 f i FileLpxLog.obj
 0001:000719b0       ??_ECLogCmdShell@@UEAAPEAXI@Z 00000001400729b0 f i  CIL library: CIL module
 0001:000719b0       ??_GCLicenceAtelLog@@UEAAPEAXI@Z 00000001400729b0 f i LicenceAtelLog.obj
 0001:00071a10       ?TraceConnexionConsoleDebut@CLicenceAtelLog@@QEAAXPEADHH@Z 0000000140072a10 f   LicenceAtelLog.obj
 0001:00071bb0       ?TraceConnexionConsoleFin@CLicenceAtelLog@@QEAAXPEADHH@Z 0000000140072bb0 f   LicenceAtelLog.obj
 0001:00071d50       ?TraceConnexionConsoleDepasse@CLicenceAtelLog@@QEAAXPEADHH@Z 0000000140072d50 f   LicenceAtelLog.obj
 0001:00071ef0       ?TraceConnexionConsoleTermConnect@CLicenceAtelLog@@QEAAXPEADHHH@Z 0000000140072ef0 f   LicenceAtelLog.obj
 0001:00072090       ?TraceConnexionConsolePasTermConnect@CLicenceAtelLog@@QEAAXPEADHHH@Z 0000000140073090 f   LicenceAtelLog.obj
 0001:00072230       ?TraceDeconnexionConsoleDebut@CLicenceAtelLog@@QEAAXPEADHH@Z 0000000140073230 f   LicenceAtelLog.obj
 0001:000723d0       ?TraceDeconnexionConsoleFin@CLicenceAtelLog@@QEAAXPEADHH@Z 00000001400733d0 f   LicenceAtelLog.obj
 0001:00072570       ?TraceConnexionConsolePasLicence@CLicenceAtelLog@@QEAAXPEADH@Z 0000000140073570 f   LicenceAtelLog.obj
 0001:00072700       ?TraceDeconnexionConsoleTermConnect@CLicenceAtelLog@@QEAAXPEADHHH@Z 0000000140073700 f   LicenceAtelLog.obj
 0001:000728a0       ?TraceDeconnexionConsolePasTermConnect@CLicenceAtelLog@@QEAAXPEADHHH@Z 00000001400738a0 f   LicenceAtelLog.obj
 0001:00072a40       ?TraceConnexionTermDebut@CLicenceAtelLog@@QEAAXHPEAD0HH@Z 0000000140073a40 f   LicenceAtelLog.obj
 0001:00072c00       ?TraceConnexionTermFin@CLicenceAtelLog@@QEAAXHPEAD0HH@Z 0000000140073c00 f   LicenceAtelLog.obj
 0001:00072dc0       ?TraceConnexionTermDepasse@CLicenceAtelLog@@QEAAXHHH@Z 0000000140073dc0 f   LicenceAtelLog.obj
 0001:00072f40       ?TraceConnexionTermConsoleConnect@CLicenceAtelLog@@QEAAXHPEADHH@Z 0000000140073f40 f   LicenceAtelLog.obj
 0001:000730e0       ?TraceConnexionTermPasConsoleConnect@CLicenceAtelLog@@QEAAXHHH@Z 00000001400740e0 f   LicenceAtelLog.obj
 0001:00073260       ?TraceConnexionTermPasLicence@CLicenceAtelLog@@QEAAXHPEAD0H@Z 0000000140074260 f   LicenceAtelLog.obj
 0001:00073400       ?TraceDeconnexionTermDebut@CLicenceAtelLog@@QEAAXHPEAD0HH@Z 0000000140074400 f   LicenceAtelLog.obj
 0001:000735c0       ?TraceDeconnexionTermFin@CLicenceAtelLog@@QEAAXHPEAD0HH@Z 00000001400745c0 f   LicenceAtelLog.obj
 0001:00073780       ?TraceDeconnexionTermConsoleConnect@CLicenceAtelLog@@QEAAXHPEADHH@Z 0000000140074780 f   LicenceAtelLog.obj
 0001:00073920       ?TraceDeconnexionTermPasConsoleConnect@CLicenceAtelLog@@QEAAXHHH@Z 0000000140074920 f   LicenceAtelLog.obj
 0001:00073aa0       ?TraceDeconnexionTermSocketRestant@CLicenceAtelLog@@QEAAXHPEADHHH@Z 0000000140074aa0 f   LicenceAtelLog.obj
 0001:00073c50       ?TraceErreurSuppTerm@CLicenceAtelLog@@QEAAXHPEADHH@Z 0000000140074c50 f   LicenceAtelLog.obj
 0001:00073df0       ?TraceErreurSuppTermSocket@CLicenceAtelLog@@QEAAXHPEADHH@Z 0000000140074df0 f   LicenceAtelLog.obj
 0001:00073f90       ?TraceDeconnexionDriverScrutDebut@CLicenceAtelLog@@QEAAXPEADHH@Z 0000000140074f90 f   LicenceAtelLog.obj
 0001:00074110       ?TraceDeconnexionDriverScrutFin@CLicenceAtelLog@@QEAAXPEADHH@Z 0000000140075110 f   LicenceAtelLog.obj
 0001:00074290       ?TraceTermReconnect@CLicenceAtelLog@@QEAAXHPEAD0@Z 0000000140075290 f   LicenceAtelLog.obj
 0001:00074440       ?FonctionLancementLicenceAtel@@YAHPEAX@Z 0000000140075440 f   LicenceAtelThread.obj
 0001:00074460       ??0CLicenceAtelThread@@QEAA@XZ 0000000140075460 f   LicenceAtelThread.obj
 0001:00074550       ??_GCLicenceAtelThread@@UEAAPEAXI@Z 0000000140075550 f i LicenceAtelThread.obj
 0001:00074550       ??_ECLicenceAtelThread@@UEAAPEAXI@Z 0000000140075550 f i  CIL library: CIL module
 0001:00074580       ??1CLicenceAtelThread@@UEAA@XZ 0000000140075580 f   LicenceAtelThread.obj
 0001:000746c0       ?Creer@CLicenceAtelThread@@UEAAHXZ 00000001400756c0 f   LicenceAtelThread.obj
 0001:00074730       ?CreateNameFileHtml@CLicenceAtelThread@@AEAAXXZ 0000000140075730 f   LicenceAtelThread.obj
 0001:00074970       ?CreateUrl@CLicenceAtelThread@@AEAAXXZ 0000000140075970 f   LicenceAtelThread.obj
 0001:00074ee0       ?AnalyseFileHtml@CLicenceAtelThread@@AEAAHXZ 0000000140075ee0 f   LicenceAtelThread.obj
 0001:00075e70       ?LitDateFin@CLicenceAtelThread@@AEAAXPEAD@Z 0000000140076e70 f   LicenceAtelThread.obj
 0001:00075f00       ?Boucle@CLicenceAtelThread@@UEAAHXZ 0000000140076f00 f   LicenceAtelThread.obj
 0001:00076850       ?ReadUrlSocket@CLicenceAtelThread@@AEAAHXZ 0000000140077850 f   LicenceAtelThread.obj
 0001:00076bf0       ?OteSlashDebutUrl@CLicenceAtelThread@@AEAAXAEAVCString@@@Z 0000000140077bf0 f   LicenceAtelThread.obj
 0001:00076cf0       ?ConnectToServer@CLicenceAtelThread@@AEAA_KPEADH@Z 0000000140077cf0 f   LicenceAtelThread.obj
 0001:00076dd0       ??_ECListConsoleAtelConnect@@UEAAPEAXI@Z 0000000140077dd0 f i  CIL library: CIL module
 0001:00076dd0       ??_GCListConsoleAtelConnect@@UEAAPEAXI@Z 0000000140077dd0 f i ListConsoleAtelConnect.obj
 0001:00076e00       ??1CListConsoleAtelConnect@@UEAA@XZ 0000000140077e00 f   ListConsoleAtelConnect.obj
 0001:00076e80       ?Ajoute@CListConsoleAtelConnect@@QEAAXPEAD@Z 0000000140077e80 f   ListConsoleAtelConnect.obj
 0001:00076f00       ?SupprimeTout@CListConsoleAtelConnect@@QEAAXXZ 0000000140077f00 f   ListConsoleAtelConnect.obj
 0001:00076f90       ?SupprimeConsole@CListConsoleAtelConnect@@QEAAHPEAD@Z 0000000140077f90 f   ListConsoleAtelConnect.obj
 0001:00077080       ?IsConsoleAtelConnect@CListConsoleAtelConnect@@QEAAHHAEAVCString@@@Z 0000000140078080 f   ListConsoleAtelConnect.obj
 0001:000772e0       ??_ECListDriverScrut@@UEAAPEAXI@Z 00000001400782e0 f i  CIL library: CIL module
 0001:000772e0       ??_GCListDriverScrut@@UEAAPEAXI@Z 00000001400782e0 f i ListDriverScrut.obj
 0001:00077310       ??1CListDriverScrut@@UEAA@XZ 0000000140078310 f   ListDriverScrut.obj
 0001:00077390       ?AjouteNumTermConn@CListDriverScrut@@QEAAXHPEADH@Z 0000000140078390 f   ListDriverScrut.obj
 0001:00077470       ?SupprimeMapTerm@CListDriverScrut@@QEAAXXZ 0000000140078470 f   ListDriverScrut.obj
 0001:000775d0       ?IsNumTermConnect@CListDriverScrut@@QEAAHH@Z 00000001400785d0 f   ListDriverScrut.obj
 0001:00077690       ??_GCListTermConnect@@UEAAPEAXI@Z 0000000140078690 f i ListTermConnect.obj
 0001:00077690       ??_ECListTermConnect@@UEAAPEAXI@Z 0000000140078690 f i  CIL library: CIL module
 0001:000776c0       ??1CListTermConnect@@UEAA@XZ 00000001400786c0 f   ListTermConnect.obj
 0001:00077740       ?Ajoute@CListTermConnect@@QEAAXHPEAD@Z 0000000140078740 f   ListTermConnect.obj
 0001:00077800       ?AjouteTerm@CListTermConnect@@QEAAXHPEAD@Z 0000000140078800 f   ListTermConnect.obj
 0001:000778b0       ?SupprimeTout@CListTermConnect@@QEAAXXZ 00000001400788b0 f   ListTermConnect.obj
 0001:000778b0       ?SupprimeTout@CListeDataFile@@QEAAXXZ 00000001400788b0 f   ListeDataFile.obj
 0001:000778b0       ?SupprimeTout@CListeCmdShell@@QEAAXXZ 00000001400788b0 f   ListeCmdShell.obj
 0001:00077990       ?SupprimeTerm@CListTermConnect@@QEAAHHPEADAEAH@Z 0000000140078990 f   ListTermConnect.obj
 0001:00077a90       ?IsNumTermConnect@CListTermConnect@@QEAAHH@Z 0000000140078a90 f   ListTermConnect.obj
 0001:00077b20       ??_ECTermConnect@@UEAAPEAXI@Z 0000000140078b20 f i  CIL library: CIL module
 0001:00077b20       ??_GCTermConnect@@UEAAPEAXI@Z 0000000140078b20 f i TermConnect.obj
 0001:00077b50       ??1CTermConnect@@UEAA@XZ   0000000140078b50 f   TermConnect.obj
 0001:00077bd0       ?AjouteSocket@CTermConnect@@QEAAXPEAD@Z 0000000140078bd0 f   TermConnect.obj
 0001:00077cb0       ?SupprimeTout@CTermConnect@@QEAAXXZ 0000000140078cb0 f   TermConnect.obj
 0001:00077d40       ?SupprimeSocket@CTermConnect@@QEAAHPEAD@Z 0000000140078d40 f   TermConnect.obj
 0001:00077e30       ?Open@CRegKey@ATL@@QEAAJPEAUHKEY__@@PEBDK@Z 0000000140078e30 f i LicenceBase.obj
 0001:00077f30       ??_ECAnalyseLPX@@UEAAPEAXI@Z 0000000140078f30 f i  CIL library: CIL module
 0001:00077f30       ??_GCAnalyseLPX@@UEAAPEAXI@Z 0000000140078f30 f i AnalyseLPX.obj
 0001:00077f60       ??1CAnalyseLPX@@UEAA@XZ    0000000140078f60 f   AnalyseLPX.obj
 0001:00077f70       ?LitUnMot@CAnalyseLPX@@QEAAHAEAVCString@@PEAU_iobuf@@@Z 0000000140078f70 f   AnalyseLPX.obj
 0001:000782a0       ?Analyse@CAnalyseLPX@@QEAAHPEAU_iobuf@@PEAVCFicLPX@@@Z 00000001400792a0 f   AnalyseLPX.obj
 0001:000792c0       ?AnalyseNom@CAnalyseLPX@@QEAAHPEADPEAVCFicLPX@@@Z 000000014007a2c0 f   AnalyseLPX.obj
 0001:00079780       ??1CConfScenAttente@@QEAA@XZ 000000014007a780 f   ConfScenAttente.obj
 0001:00079790       ?LitSuppAttenteReq@CConfScenAttente@@QEAAHXZ 000000014007a790 f   ConfScenAttente.obj
 0001:000797d0       ?LitDureeAttenteReq@CConfScenAttente@@QEAAHXZ 000000014007a7d0 f   ConfScenAttente.obj
 0001:00079810       ?LitSuppAttenteSaisie@CConfScenAttente@@QEAAHXZ 000000014007a810 f   ConfScenAttente.obj
 0001:00079850       ?LitDureeAttenteSaisie@CConfScenAttente@@QEAAHXZ 000000014007a850 f   ConfScenAttente.obj
 0001:00079890       ?LitSuppAttenteShell@CConfScenAttente@@QEAAHXZ 000000014007a890 f   ConfScenAttente.obj
 0001:000798d0       ?LitDureeAttenteShell@CConfScenAttente@@QEAAHXZ 000000014007a8d0 f   ConfScenAttente.obj
 0001:00079910       ?LitSuppAttenteScen@CConfScenAttente@@QEAAHXZ 000000014007a910 f   ConfScenAttente.obj
 0001:00079950       ?LitDureeAttenteScen@CConfScenAttente@@QEAAHXZ 000000014007a950 f   ConfScenAttente.obj
 0001:00079990       ?LitSuppAttenteEtat@CConfScenAttente@@QEAAHXZ 000000014007a990 f   ConfScenAttente.obj
 0001:000799d0       ?LitDureeAttenteEtat@CConfScenAttente@@QEAAHXZ 000000014007a9d0 f   ConfScenAttente.obj
 0001:00079a10       ?LitArchive@CConfScenAttente@@QEAAHAEAVCInputArchive@@@Z 000000014007aa10 f   ConfScenAttente.obj
 0001:00079ef0       ?EcritArchive@CConfScenAttente@@QEAAHAEAVCOutputArchive@@@Z 000000014007aef0 f   ConfScenAttente.obj
 0001:0007a450       ??0CFicLPX@@QEAA@HH@Z      000000014007b450 f   FicLPX.obj
 0001:0007a550       ??_ECFicLPX@@UEAAPEAXI@Z   000000014007b550 f i  CIL library: CIL module
 0001:0007a550       ??_GCFicLPX@@UEAAPEAXI@Z   000000014007b550 f i FicLPX.obj
 0001:0007a580       ??1CFicLPX@@UEAA@XZ        000000014007b580 f   FicLPX.obj
 0001:0007a630       ?SupprimeTout@CFicLPX@@AEAAXXZ 000000014007b630 f   FicLPX.obj
 0001:0007a730       ?InitFichier@CFicLPX@@QEAAXXZ 000000014007b730 f   FicLPX.obj
 0001:0007a910       ?LitStatut@CFicLPX@@QEAAHXZ 000000014007b910 f   FicLPX.obj
 0001:0007a990       ?EcritStatut@CFicLPX@@QEAAXH@Z 000000014007b990 f   FicLPX.obj
 0001:0007aa30       ?NomFicLpxLocal@CFicLPX@@QEAAXAEAVCString@@@Z 000000014007ba30 f   FicLPX.obj
 0001:0007ab70       ?LitFicLPX@CFicLPX@@QEAAXAEAVCOutputArchive@@H@Z 000000014007bb70 f   FicLPX.obj
 0001:0007afc0       ?EcritArchive@CFicLPX@@UEAAXAEAVCOutputArchive@@PEADH@Z 000000014007bfc0 f   FicLPX.obj
 0001:0007b330       ?LitArchive@CFicLPX@@UEAAHAEAVCInputArchive@@H@Z 000000014007c330 f   FicLPX.obj
 0001:0007c0a0       ?EcritFicLPX@CFicLPX@@QEAAHPEAD0@Z 000000014007d0a0 f   FicLPX.obj
 0001:0007c240       ?ConstruitNomFic@CFicLPX@@QEAAXPEADAEAVCString@@@Z 000000014007d240 f   FicLPX.obj
 0001:0007c6b0       ?ConstruitCheminFic@CFicLPX@@AEAAXPEADAEAVCString@@@Z 000000014007d6b0 f   FicLPX.obj
 0001:0007c9c0       ?RenommeFic@CFicLPX@@QEAAXPEAD0@Z 000000014007d9c0 f   FicLPX.obj
 0001:0007cd70       ?CalculStatut@CFicLPX@@QEAAXXZ 000000014007dd70 f   FicLPX.obj
 0001:0007dd70       ?Compile@CFicLPX@@QEAAXPEAVCListIdLPX@@@Z 000000014007ed70 f   FicLPX.obj
 0001:0007eca0       ?UtiliseModule@CFicLPX@@AEAAHPEAD@Z 000000014007fca0 f   FicLPX.obj
 0001:0007edf0       ?UtiliseId@CFicLPX@@UEAAHHAEAVCOutputArchive@@PEAD@Z 000000014007fdf0 f   FicLPX.obj
 0001:0007f090       ?AjoutListeModule@CFicLPX@@QEAAXPEAD@Z 0000000140080090 f   FicLPX.obj
 0001:0007f190       ?SupprimeFic@CFicLPX@@QEAAHPEAD@Z 0000000140080190 f   FicLPX.obj
 0001:0007f240       ?LitListeActionsScenGraph@CFicLPX@@QEAAHXZ 0000000140080240 f   FicLPX.obj
 0001:0007f480       ?LitNomFic@CFicLPX@@QEAAXAEAVCString@@@Z 0000000140080480 f   FicLPX.obj
 0001:0007f530       ?ModifLstActionScenGraph@CFicLPX@@QEAAXXZ 0000000140080530 f   FicLPX.obj
 0001:0007f580       ?LitBaliseElement@CFicLPX@@UEAAXAEAVCFicXML@@@Z 0000000140080580 f   FicLPX.obj
 0001:0007f6a0       ?InitListeFicLPX@CFicLPXLocal@@QEAAXHHH@Z 00000001400806a0 f   FicLPXLocal.obj
 0001:0007f7a0       ?SupprimeTout@CFicLPXLocal@@AEAAXXZ 00000001400807a0 f   FicLPXLocal.obj
 0001:0007f850       ?AjouteLPXLocal@CFicLPXLocal@@QEAAHAEAVCInputArchive@@@Z 0000000140080850 f   FicLPXLocal.obj
 0001:0007fa50       ?SupprimeFicLPX@CFicLPXLocal@@QEAAHH@Z 0000000140080a50 f   FicLPXLocal.obj
 0001:0007fb30       ?SupprimeFic@CFicLPXLocal@@AEAAHPEAVCFicLPX@@PEAD@Z 0000000140080b30 f   FicLPXLocal.obj
 0001:0007fbe0       ?LitListeSousElement@CFicLPXLocal@@QEAAXAEAVCOutputArchive@@PEAD@Z 0000000140080be0 f   FicLPXLocal.obj
 0001:0007fe10       ?RecompileTout@CFicLPXLocal@@QEAAXXZ 0000000140080e10 f   FicLPXLocal.obj
 0001:0007ff00       ?RechercheNomElement@CFicLPXLocal@@QEAAHPEADH@Z 0000000140080f00 f   FicLPXLocal.obj
 0001:000801e0       ?UtiliseId@CFicLPXLocal@@QEAAHHAEAVCOutputArchive@@PEADH@Z 00000001400811e0 f   FicLPXLocal.obj
 0001:00080480       ?LitFicLPXLocalErreur@CFicLPXLocal@@QEAAHAEAVCOutputArchive@@H@Z 0000000140081480 f   FicLPXLocal.obj
 0001:00080570       ??0CDataFile@@QEAA@XZ      0000000140081570 f   DataFile.obj
 0001:00080680       ??_GCDataFile@@UEAAPEAXI@Z 0000000140081680 f i DataFile.obj
 0001:00080680       ??_ECDataFile@@UEAAPEAXI@Z 0000000140081680 f i  CIL library: CIL module
 0001:000806b0       ??1CDataFile@@UEAA@XZ      00000001400816b0 f   DataFile.obj
 0001:00080790       ??4CDataFile@@QEAAAEAV0@AEAV0@@Z 0000000140081790 f   DataFile.obj
 0001:00080880       ??0CFileLpxLog@@QEAA@XZ    0000000140081880 f   FileLpxLog.obj
 0001:00080950       ?TraceDebutTraitement@CFileLpxLog@@QEAAXPEAVCDataFile@@@Z 0000000140081950 f   FileLpxLog.obj
 0001:00080f40       ?TraceFinTraitement@CFileLpxLog@@QEAAXHPEAVCDataFile@@@Z 0000000140081f40 f   FileLpxLog.obj
 0001:000815a0       ?LitResDmd@CFileLpxLog@@QEAAXHAEAVCString@@@Z 00000001400825a0 f   FileLpxLog.obj
 0001:000816a0       ?TraceEnvoieChaine@CFileLpxLog@@QEAAXHPEAVCDataFile@@@Z 00000001400826a0 f   FileLpxLog.obj
 0001:00081950       ?TraceErrorDmd@CFileLpxLog@@QEAAXHPEAVCDataFile@@@Z 0000000140082950 f   FileLpxLog.obj
 0001:00081f20       ?LitMessErrorFile@CFileLpxLog@@IEAAXHAEAVCString@@@Z 0000000140082f20 f   FileLpxLog.obj
 0001:00082010       ?TraceDebutAppelWindow@CFileLpxLog@@QEAAXPEAVCDataFile@@@Z 0000000140083010 f   FileLpxLog.obj
 0001:00082720       ?TraceFinAppelWindow@CFileLpxLog@@QEAAXPEAVCDataFile@@@Z 0000000140083720 f   FileLpxLog.obj
 0001:00082e30       ??0CGestFileLPX@@QEAA@XZ   0000000140083e30 f   GestFileLPX.obj
 0001:00082f10       ??_ECGestFileLPX@@UEAAPEAXI@Z 0000000140083f10 f i  CIL library: CIL module
 0001:00082f10       ??_GCGestFileLPX@@UEAAPEAXI@Z 0000000140083f10 f i GestFileLPX.obj
 0001:00082f40       ??1CGestFileLPX@@UEAA@XZ   0000000140083f40 f   GestFileLPX.obj
 0001:00083060       ?FonctionDeLancementDUnThreadFile@@YAHPEAX@Z 0000000140084060 f   GestFileLPX.obj
 0001:00083070       ?CreateThrdTraitement@CGestFileLPX@@IEAAXXZ 0000000140084070 f   GestFileLPX.obj
 0001:000830e0       ?ArretThdTraitement@CGestFileLPX@@IEAAXXZ 00000001400840e0 f   GestFileLPX.obj
 0001:00083160       ?Init@CGestFileLPX@@QEAAXXZ 0000000140084160 f   GestFileLPX.obj
 0001:00083210       ?Boucle@CGestFileLPX@@QEAAXXZ 0000000140084210 f   GestFileLPX.obj
 0001:00083560       ?AjoutDataFile@CGestFileLPX@@QEAAXPEAVCDataFile@@@Z 0000000140084560 f   GestFileLPX.obj
 0001:000835e0       ?EnvoieChaine@CGestFileLPX@@QEAAHPEAVCDataFile@@@Z 00000001400845e0 f   GestFileLPX.obj
 0001:00083850       ?RecoieTimeout@CGestFileLPX@@QEAAXH@Z 0000000140084850 f   GestFileLPX.obj
 0001:00083a30       ?FileProgressRoutine@@YAKT_LARGE_INTEGER@@000KKPEAX11@Z 0000000140084a30 f   GestFileLPX.obj
 0001:00083a70       ?CopyFileLPX@CGestFileLPX@@IEAAHPEAVCDataFile@@@Z 0000000140084a70 f   GestFileLPX.obj
 0001:00083d60       ?MoveFileLPX@CGestFileLPX@@IEAAHPEAVCDataFile@@@Z 0000000140084d60 f   GestFileLPX.obj
 0001:00084050       ?DeleteFileLPX@CGestFileLPX@@IEAAHPEAVCDataFile@@@Z 0000000140085050 f   GestFileLPX.obj
 0001:000844b0       ?ListeFileLPX@CGestFileLPX@@IEAAHPEAVCDataFile@@@Z 00000001400854b0 f   GestFileLPX.obj
 0001:00085040       ?MessErrorFileLpx@CGestFileLPX@@IEAAXHHPEAVCDataFile@@@Z 0000000140086040 f   GestFileLPX.obj
 0001:000852f0       ?MessErrorCopyMoveProgress@CGestFileLPX@@IEAAXHHPEAVCDataFile@@@Z 00000001400862f0 f   GestFileLPX.obj
 0001:00085570       ?MessErrorFileNotFound@CGestFileLPX@@IEAAXHPEAVCDataFile@@@Z 0000000140086570 f   GestFileLPX.obj
 0001:00085570       ?MessErrorDeleteListe@CGestFileLPX@@IEAAXHHPEAVCDataFile@@@Z 0000000140086570 f   GestFileLPX.obj
 0001:000857b0       ?MessDescError@CGestFileLPX@@IEAAXHHPEAVCDataFile@@@Z 00000001400867b0 f   GestFileLPX.obj
 0001:00085b20       ?SupprimeFileLpx@CGestFileLPX@@QEAAXH@Z 0000000140086b20 f   GestFileLPX.obj
 0001:00085bc0       ??_ECListeDataFile@@UEAAPEAXI@Z 0000000140086bc0 f i  CIL library: CIL module
 0001:00085bc0       ??_GCListeDataFile@@UEAAPEAXI@Z 0000000140086bc0 f i ListeDataFile.obj
 0001:00085bf0       ??1CListeDataFile@@UEAA@XZ 0000000140086bf0 f   ListeDataFile.obj
 0001:00085c70       ?SupprimeDataFile@CListeDataFile@@QEAAHH@Z 0000000140086c70 f   ListeDataFile.obj
 0001:00085d20       ?RendNomTypeDonnee@CResultatFile@@UEAAPEADXZ 0000000140086d20 f i ResultatFile.obj
 0001:00085d30       ??0CResultatFile@@QEAA@XZ  0000000140086d30 f   ResultatFile.obj
 0001:00085d80       ??_GCResultatFile@@UEAAPEAXI@Z 0000000140086d80 f i ResultatFile.obj
 0001:00085d80       ??_ECResultatFile@@UEAAPEAXI@Z 0000000140086d80 f i  CIL library: CIL module
 0001:00085e00       ??_ECThreadTimer@@UEAAPEAXI@Z 0000000140086e00 f i  CIL library: CIL module
 0001:00085e00       ??_GCThreadTimer@@UEAAPEAXI@Z 0000000140086e00 f i ThreadTimer.obj
 0001:00085e70       ??1CThreadTimer@@UEAA@XZ   0000000140086e70 f   ThreadTimer.obj
 0001:00085ec0       ?Creer@CThreadTimer@@UEAAHXZ 0000000140086ec0 f   ThreadTimer.obj
 0001:00085f30       ?Boucle@CThreadTimer@@UEAAHXZ 0000000140086f30 f   ThreadTimer.obj
 0001:00086040       ??_GCGroupeFicLPX@@UEAAPEAXI@Z 0000000140087040 f i GroupeFicLPX.obj
 0001:00086040       ??_ECGroupeFicLPX@@UEAAPEAXI@Z 0000000140087040 f i  CIL library: CIL module
 0001:00086080       ?NewElement@CGroupeFicLPX@@UEAAPEAVCElement@@HH@Z 0000000140087080 f   GroupeFicLPX.obj
 0001:000860d0       ?InitFichier@CGroupeFicLPX@@QEAAXXZ 00000001400870d0 f   GroupeFicLPX.obj
 0001:00086310       ?InitStatut@CGroupeFicLPX@@QEAAXXZ 0000000140087310 f   GroupeFicLPX.obj
 0001:000863f0       ?CompileTout@CGroupeFicLPX@@QEAAXXZ 00000001400873f0 f   GroupeFicLPX.obj
 0001:000864a0       ?RecompileTout@CGroupeFicLPX@@QEAAXXZ 00000001400874a0 f   GroupeFicLPX.obj
 0001:00086590       ?Compile@CGroupeFicLPX@@QEAAXHHPEAVCListIdLPX@@@Z 0000000140087590 f   GroupeFicLPX.obj
 0001:000867a0       ?LitFicLpxErreur@CGroupeFicLPX@@QEAAXAEAVCOutputArchive@@HHH@Z 00000001400877a0 f   GroupeFicLPX.obj
 0001:000868c0       ?UtiliseAction@CGroupeFicLPX@@QEAAHHHAEAVCOutputArchive@@PEAD@Z 00000001400878c0 f   GroupeFicLPX.obj
 0001:00086a30       ?LitNomGroupe@CGroupeFicLPX@@UEAAXAEAVCString@@PEAD@Z 0000000140087a30 f   GroupeFicLPX.obj
 0001:00086b90       ?AjoutModifGrpElementConsoleWeb@CGroupeFicLPX@@UEAAXH@Z 0000000140087b90 f   GroupeFicLPX.obj
 0001:00086bd0       ?EcritElement@CGroupeFicLPX@@UEAAHAEAVCInputArchive@@HHHH@Z 0000000140087bd0 f   GroupeFicLPX.obj
 0001:00086e70       ?SupprimeElement@CGroupeFicLPX@@UEAAHAEAVCOutputArchive@@HHH@Z 0000000140087e70 f   GroupeFicLPX.obj
 0001:00086ef0       ?SuppElementConsoleWeb@CGroupeFicLPX@@UEAAXH@Z 0000000140087ef0 f   GroupeFicLPX.obj
 0001:00086f30       ?LitBaliseSuppElement@CGroupeFicLPX@@UEAAXAEAVCFicXML@@H@Z 0000000140087f30 f   GroupeFicLPX.obj
 0001:00086f40       ?FonctionDeLancementGestInstLix@@YAHPEAX@Z 0000000140087f40 f   GestInstLix.obj
 0001:00086f40       ?FonctionLancementThreadFileTimer@@YAHPEAX@Z 0000000140087f40 f   ThreadTimer.obj
 0001:00086f70       ??_GCGestInstLix@@UEAAPEAXI@Z 0000000140087f70 f i GestInstLix.obj
 0001:00086f70       ??_ECGestInstLix@@UEAAPEAXI@Z 0000000140087f70 f i  CIL library: CIL module
 0001:00086fd0       ??1CGestInstLix@@UEAA@XZ   0000000140087fd0 f   GestInstLix.obj
 0001:00087010       ?Creer@CGestInstLix@@UEAAHXZ 0000000140088010 f   GestInstLix.obj
 0001:00087080       ?Boucle@CGestInstLix@@UEAAHXZ 0000000140088080 f   GestInstLix.obj
 0001:000871b0       ?ActiveTraceLastInstLix@CGestInstLix@@QEAAHH@Z 00000001400881b0 f   GestInstLix.obj
 0001:00087250       ??_ECTraceLastInstLix@@UEAAPEAXI@Z 0000000140088250 f i  CIL library: CIL module
 0001:00087250       ??_GCTraceLastInstLix@@UEAAPEAXI@Z 0000000140088250 f i TraceLastInstLix.obj
 0001:00087280       ?EcritLastInstFile@CTraceLastInstLix@@QEAAXHPEAD@Z 0000000140088280 f   TraceLastInstLix.obj
 0001:000873b0       ?GetPathNameFile@CTraceLastInstLix@@IEAAHAEAVCString@@@Z 00000001400883b0 f   TraceLastInstLix.obj
 0001:00087620       ?GetNameFile@CTraceLastInstLix@@IEAAXAEAVCString@@@Z 0000000140088620 f   TraceLastInstLix.obj
 0001:000876e0       ?GetTraceInstLix@CTraceLastInstLix@@IEAAXAEAVCString@@HPEAD@Z 00000001400886e0 f   TraceLastInstLix.obj
 0001:00087ac0       ?LitArchive@CListAction@@QEAAXAEAVCInputArchive@@@Z 0000000140088ac0 f   ListAction.obj
 0001:00087e10       ?SupprimeTout@CListAction@@QEAAXXZ 0000000140088e10 f   ListAction.obj
 0001:00087ea0       ?UtiliseAction@CListAction@@QEAAHHH@Z 0000000140088ea0 f   ListAction.obj
 0001:00087f50       ?UtiliseId@CListAction@@QEAAHH@Z 0000000140088f50 f   ListAction.obj
 0001:00088000       ??1CListeFicLPXLocal@@QEAA@XZ 0000000140089000 f   ListeFicLPXLocal.obj
 0001:00088050       ?InitListeFicLPXLocal@CListeFicLPXLocal@@QEAAXXZ 0000000140089050 f   ListeFicLPXLocal.obj
 0001:00088230       ?InitListeFicLocal@CListeFicLPXLocal@@AEAAXPEAD0@Z 0000000140089230 f   ListeFicLPXLocal.obj
 0001:00088b20       ?SupprimeTout@CListeFicLPXLocal@@AEAAXXZ 0000000140089b20 f   ListeFicLPXLocal.obj
 0001:00088c10       ??_GCFicLPXLocal@@QEAAPEAXI@Z 0000000140089c10 f i ListeFicLPXLocal.obj
 0001:00088c60       ?AjouteLPXLocal@CListeFicLPXLocal@@QEAAHAEAVCInputArchive@@H@Z 0000000140089c60 f   ListeFicLPXLocal.obj
 0001:00088df0       ?RecherchePosLibre@CListeFicLPXLocal@@AEAAHXZ 0000000140089df0 f   ListeFicLPXLocal.obj
 0001:00088e40       ?SupprimeFicLPX@CListeFicLPXLocal@@QEAAHHH@Z 0000000140089e40 f   ListeFicLPXLocal.obj
 0001:00088f00       ?ModifierLPXLocal@CListeFicLPXLocal@@QEAAHAEAVCInputArchive@@HH@Z 0000000140089f00 f   ListeFicLPXLocal.obj
 0001:00089000       ?LitLPXLocal@CListeFicLPXLocal@@QEAAHAEAVCOutputArchive@@HHPEAD@Z 000000014008a000 f   ListeFicLPXLocal.obj
 0001:00089130       ?LitListeSousElement@CListeFicLPXLocal@@QEAAHAEAVCOutputArchive@@HPEAD@Z 000000014008a130 f   ListeFicLPXLocal.obj
 0001:00089230       ?CompileTout@CListeFicLPXLocal@@QEAAXXZ 000000014008a230 f   ListeFicLPXLocal.obj
 0001:00089300       ?InitStatut@CListeFicLPXLocal@@QEAAXXZ 000000014008a300 f   ListeFicLPXLocal.obj
 0001:000893d0       ?InitFlagCompil@CListeFicLPXLocal@@QEAAXXZ 000000014008a3d0 f   ListeFicLPXLocal.obj
 0001:00089490       ?CalculStatut@CListeFicLPXLocal@@QEAAXXZ 000000014008a490 f   ListeFicLPXLocal.obj
 0001:00089560       ?Compile@CListeFicLPXLocal@@QEAAXHH@Z 000000014008a560 f   ListeFicLPXLocal.obj
 0001:00089650       ?RechercheNomElement@CListeFicLPXLocal@@QEAAHPEADHH@Z 000000014008a650 f   ListeFicLPXLocal.obj
 0001:00089730       ?UtiliseId@CListeFicLPXLocal@@QEAAHHAEAVCOutputArchive@@PEADH@Z 000000014008a730 f   ListeFicLPXLocal.obj
 0001:00089800       ?LitFicLPXLocalErreur@CListeFicLPXLocal@@QEAAHAEAVCOutputArchive@@HH@Z 000000014008a800 f   ListeFicLPXLocal.obj
 0001:00089960       ??0CListeGroupeFicLPX@@QEAA@HPEAD0@Z 000000014008a960 f   ListeGroupeFicLPX.obj
 0001:00089b50       ??_GCListeGroupeFicLPX@@UEAAPEAXI@Z 000000014008ab50 f i ListeGroupeFicLPX.obj
 0001:00089b50       ??_ECListeGroupeFicLPX@@UEAAPEAXI@Z 000000014008ab50 f i  CIL library: CIL module
 0001:00089b80       ??1CListeGroupeFicLPX@@UEAA@XZ 000000014008ab80 f   ListeGroupeFicLPX.obj
 0001:00089d20       ??_GCExecLix@@QEAAPEAXI@Z  000000014008ad20 f i ListeGroupeFicLPX.obj
 0001:00089da0       ?NewGroupe@CListeGroupeFicLPX@@UEAAPEAVCGroupe@@PEAVCListeGroupe@@HH@Z 000000014008ada0 f   ListeGroupeFicLPX.obj
 0001:00089e20       ?InitDroitIntegrale@CListeGroupeFicLPX@@AEAAXXZ 000000014008ae20 f   ListeGroupeFicLPX.obj
 0001:00089f00       ?CreerGroupe@CListeGroupeFicLPX@@AEAAXXZ 000000014008af00 f   ListeGroupeFicLPX.obj
 0001:0008a040       ?InitListeModuleSXAO@CListeGroupeFicLPX@@AEAAXXZ 000000014008b040 f   ListeGroupeFicLPX.obj
 0001:0008a0f0       ?InitFichier@CListeGroupeFicLPX@@QEAAXXZ 000000014008b0f0 f   ListeGroupeFicLPX.obj
 0001:0008a210       ?InitMoteurLPX@CListeGroupeFicLPX@@QEAAXXZ 000000014008b210 f   ListeGroupeFicLPX.obj
 0001:0008a2f0       ?InitFlagCompil@CListeGroupeFicLPX@@QEAAXXZ 000000014008b2f0 f   ListeGroupeFicLPX.obj
 0001:0008a500       ?InitStatut@CListeGroupeFicLPX@@QEAAXXZ 000000014008b500 f   ListeGroupeFicLPX.obj
 0001:0008a580       ?RechercheStatutFicGlobal@CListeGroupeFicLPX@@QEAAHH@Z 000000014008b580 f   ListeGroupeFicLPX.obj
 0001:0008a620       ?EcritGroupe@CListeGroupeFicLPX@@UEAAHPEADHHH0@Z 000000014008b620 f   ListeGroupeFicLPX.obj
 0001:0008a6d0       ?SupprimeGroupe@CListeGroupeFicLPX@@UEAAHHHH@Z 000000014008b6d0 f   ListeGroupeFicLPX.obj
 0001:0008a7e0       ?SupprimeElement@CListeGroupeFicLPX@@UEAAHAEAVCOutputArchive@@HHH@Z 000000014008b7e0 f   ListeGroupeFicLPX.obj
 0001:0008a960       ?SupprimeFicGlobal@CListeGroupeFicLPX@@AEAAHPEADH@Z 000000014008b960 f   ListeGroupeFicLPX.obj
 0001:0008ab50       ?EffaceFichier@CListeGroupeFicLPX@@AEAAHPEAD00H@Z 000000014008bb50 f   ListeGroupeFicLPX.obj
 0001:0008ada0       ?AjouteElement@CListeGroupeFicLPX@@UEAAHAEAVCInputArchive@@PEADH1HH1@Z 000000014008bda0 f   ListeGroupeFicLPX.obj
 0001:0008b1d0       ?EcritElement@CListeGroupeFicLPX@@UEAAHAEAVCInputArchive@@HHHH@Z 000000014008c1d0 f   ListeGroupeFicLPX.obj
 0001:0008b290       ?ConstruitCheminFicGlobal@CListeGroupeFicLPX@@AEAAXAEAVCString@@@Z 000000014008c290 f   ListeGroupeFicLPX.obj
 0001:0008b410       ?CalculStatut@CListeGroupeFicLPX@@QEAAXXZ 000000014008c410 f   ListeGroupeFicLPX.obj
 0001:0008b4d0       ?CompileTout@CListeGroupeFicLPX@@QEAAXXZ 000000014008c4d0 f   ListeGroupeFicLPX.obj
 0001:0008b5c0       ?RecompileTout@CListeGroupeFicLPX@@QEAAXXZ 000000014008c5c0 f   ListeGroupeFicLPX.obj
 0001:0008b690       ?Compile@CListeGroupeFicLPX@@QEAAXHHPEAVCListIdLPX@@@Z 000000014008c690 f   ListeGroupeFicLPX.obj
 0001:0008b7f0       ?UtiliseId@CListeGroupeFicLPX@@UEAAHHAEAVCOutputArchive@@PEADH@Z 000000014008c7f0 f   ListeGroupeFicLPX.obj
 0001:0008b890       ?ExecuterLpx@CListeGroupeFicLPX@@QEAAHHPEAD0VCListPeriph@@PEAVCConnHTTP@@HH000HH_J0@Z 000000014008c890 f   ListeGroupeFicLPX.obj
 0001:0008bdf0       ?ClientArchiveEx@CListeGroupeFicLPX@@UEAAXPEADAEAVCInputArchive@@AEAVCOutputArchive@@H0@Z 000000014008cdf0 f   ListeGroupeFicLPX.obj
 0001:0008cf00       ?EventDataRequete@CListeGroupeFicLPX@@AEAAXPEAVCDataArchive@@@Z 000000014008df00 f   ListeGroupeFicLPX.obj
 0001:0008cff0       ?EventDataString@CListeGroupeFicLPX@@AEAAXPEAVCDataArchive@@@Z 000000014008dff0 f   ListeGroupeFicLPX.obj
 0001:0008d670       ?LitFicLpxErreur@CListeGroupeFicLPX@@QEAAXAEAVCOutputArchive@@HHH@Z 000000014008e670 f   ListeGroupeFicLPX.obj
 0001:0008d730       ?UtiliseAction@CListeGroupeFicLPX@@QEAAHHHAEAVCOutputArchive@@PEAD@Z 000000014008e730 f   ListeGroupeFicLPX.obj
 0001:0008d800       ?LitModeScen@CListeGroupeFicLPX@@QEAAHH@Z 000000014008e800 f   ListeGroupeFicLPX.obj
 0001:0008d890       ?RechListActionActive@CListeGroupeFicLPX@@QEAAPEAVCListAction@@H@Z 000000014008e890 f   ListeGroupeFicLPX.obj
 0001:0008d930       ?InitListActionScenGraph@CListeGroupeFicLPX@@QEAAXXZ 000000014008e930 f   ListeGroupeFicLPX.obj
 0001:0008d9f0       ?AjouteGroupe@CListeGroupeFicLPX@@UEAAHPEADHH0H@Z 000000014008e9f0 f   ListeGroupeFicLPX.obj
 0001:0008db80       ?ReprendProgApresErrImpEtat@CListeGroupeFicLPX@@QEAAXHH@Z 000000014008eb80 f   ListeGroupeFicLPX.obj
 0001:0008dcb0       ?LitArchiveEx@CListeGroupeFicLPX@@UEAAXPEADAEAVCInputArchive@@@Z 000000014008ecb0 f   ListeGroupeFicLPX.obj
 0001:0008de60       ?EcritArchiveEx@CListeGroupeFicLPX@@UEAAXAEAVCOutputArchive@@@Z 000000014008ee60 f   ListeGroupeFicLPX.obj
 0001:0008df00       ?AjouteCmdShell@CListeGroupeFicLPX@@QEAAXPEAVCCmdShell@@@Z 000000014008ef00 f   ListeGroupeFicLPX.obj
 0001:0008dfa0       ?InitLPX@CListeGroupeFicLPX@@QEAAXH@Z 000000014008efa0 f   ListeGroupeFicLPX.obj
 0001:0008e040       ?DmdArretModuleLpx@CListeGroupeFicLPX@@QEAAXXZ 000000014008f040 f   ListeGroupeFicLPX.obj
 0001:0008e0c0       ?ActiveTraceLastInstrLpx@CListeGroupeFicLPX@@QEAAXH@Z 000000014008f0c0 f   ListeGroupeFicLPX.obj
 0001:0008e150       ??_ECListeModuleSXAO@@UEAAPEAXI@Z 000000014008f150 f i  CIL library: CIL module
 0001:0008e150       ??_GCListeModuleSXAO@@UEAAPEAXI@Z 000000014008f150 f i ListeModuleSXAO.obj
 0001:0008e1c0       ??1CListeModuleSXAO@@UEAA@XZ 000000014008f1c0 f   ListeModuleSXAO.obj
 0001:0008e210       ?SupprimeTout@CListeModuleSXAO@@AEAAXXZ 000000014008f210 f   ListeModuleSXAO.obj
 0001:0008e320       ?InitListe@CListeModuleSXAO@@QEAAXPEAD@Z 000000014008f320 f   ListeModuleSXAO.obj
 0001:0008e8d0       ?EstModuleSXAO@CListeModuleSXAO@@QEAAHPEAD@Z 000000014008f8d0 f   ListeModuleSXAO.obj
 0001:0008eac0       ??_GCListIdLPX@@UEAAPEAXI@Z 000000014008fac0 f i ListIdLPX.obj
 0001:0008eac0       ??_ECListIdLPX@@UEAAPEAXI@Z 000000014008fac0 f i  CIL library: CIL module
 0001:0008eaf0       ??1CListIdLPX@@UEAA@XZ     000000014008faf0 f   ListIdLPX.obj
 0001:0008eb70       ?Ajoute@CListIdLPX@@QEAAHH@Z 000000014008fb70 f   ListIdLPX.obj
 0001:0008ec20       ?SupprimeTout@CListIdLPX@@QEAAXXZ 000000014008fc20 f   ListIdLPX.obj
 0001:0008eca0       ?EcritArchive@CListIdLPX@@QEAAHAEAVCOutputArchive@@@Z 000000014008fca0 f   ListIdLPX.obj
 0001:0008f1e0       ??_ECListScenGraphique@@UEAAPEAXI@Z 00000001400901e0 f i  CIL library: CIL module
 0001:0008f1e0       ??_GCListScenGraphique@@UEAAPEAXI@Z 00000001400901e0 f i ListScenGraphique.obj
 0001:0008f210       ??1CListScenGraphique@@UEAA@XZ 0000000140090210 f   ListScenGraphique.obj
 0001:0008f290       ?UtiliseAction@CListScenGraphique@@QEAAHHH@Z 0000000140090290 f   ListScenGraphique.obj
 0001:0008f310       ?RechListActionPrScenEnCours@CListScenGraphique@@QEAAPEAVCListAction@@XZ 0000000140090310 f   ListScenGraphique.obj
 0001:0008f370       ?SupprimeListAction@CListScenGraphique@@IEAAXPEAVCListAction@@@Z 0000000140090370 f   ListScenGraphique.obj
 0001:0008f400       ?SupprimeTout@CListScenGraphique@@QEAAXXZ 0000000140090400 f   ListScenGraphique.obj
 0001:0008f4a0       ?ListActionADetruire@CListScenGraphique@@IEAAXXZ 00000001400904a0 f   ListScenGraphique.obj
 0001:0008f550       ?LitArchive@CListScenGraphique@@QEAAXAEAVCInputArchive@@@Z 0000000140090550 f   ListScenGraphique.obj
 0001:0008f630       ?RendNomTypeDonnee@CAttenteTempo@@UEAAPEADXZ 0000000140090630 f i AttenteTempo.obj
 0001:0008f640       ?RendNomTypeDonnee@CVerrouLPX@@UEAAPEADXZ 0000000140090640 f i VerrouLPX.obj
 0001:0008f640       ?RendNomTypeDonnee@CCanalBD@@UEAAPEADXZ 0000000140090640 f i CanalBD.obj
 0001:0008f650       ??_GCCanalBD@@UEAAPEAXI@Z  0000000140090650 f i CanalBD.obj
 0001:0008f650       ??_ECDonneeLPX@@UEAAPEAXI@Z 0000000140090650 f i  CIL library: CIL module
 0001:0008f650       ??_ECCanalBD@@UEAAPEAXI@Z  0000000140090650 f i  CIL library: CIL module
 0001:0008f650       ??_GCDonneeLPX@@UEAAPEAXI@Z 0000000140090650 f i ListDonnees.obj
 0001:0008f650       ??_ECAttenteTempo@@UEAAPEAXI@Z 0000000140090650 f i  CIL library: CIL module
 0001:0008f650       ??_GCAttenteTempo@@UEAAPEAXI@Z 0000000140090650 f i AttenteTempo.obj
 0001:0008f680       EcritTerminalAvecNumero    0000000140090680 f   FoncExtLPX.obj
 0001:0008fc20       AttenteSaisie              0000000140090c20 f   FoncExtLPX.obj
 0001:0008fca0       EcritMemoireLPX            0000000140090ca0 f   FoncExtLPX.obj
 0001:00090350       LitMemoireLPX              0000000140091350 f   FoncExtLPX.obj
 0001:00090b80       LitMemoire                 0000000140091b80 f   FoncExtLPX.obj
 0001:00090c60       LitMemoireIndexUtilisateur 0000000140091c60 f   FoncExtLPX.obj
 0001:00090dd0       EffaceMemoireUtilisateur   0000000140091dd0 f   FoncExtLPX.obj
 0001:00090f30       MemoireReponseSQLUtilisateur 0000000140091f30 f   FoncExtLPX.obj
 0001:000914e0       IndexMaxMemoireUtilisateur 00000001400924e0 f   FoncExtLPX.obj
 0001:00091660       LitMemoireIndex            0000000140092660 f   FoncExtLPX.obj
 0001:00091780       LitMemoireSystem           0000000140092780 f   FoncExtLPX.obj
 0001:00091880       LitMemoireGroupe           0000000140092880 f   FoncExtLPX.obj
 0001:00091a00       EcritMemoireGroupeUtilisateur 0000000140092a00 f   FoncExtLPX.obj
 0001:00091be0       LitMemoireGroupeUtilisateur 0000000140092be0 f   FoncExtLPX.obj
 0001:00091de0       EcritMemoireGroupeIndex    0000000140092de0 f   FoncExtLPX.obj
 0001:000923b0       LitMemoireGroupeIndex      00000001400933b0 f   FoncExtLPX.obj
 0001:00092b00       EcritMemoireGroupeIndexUtilisateur 0000000140093b00 f   FoncExtLPX.obj
 0001:00092f90       LitMemoireGroupeIndexUtilisateur 0000000140093f90 f   FoncExtLPX.obj
 0001:000935d0       LitMemoireGroupeTerminal   00000001400945d0 f   FoncExtLPX.obj
 0001:00093760       MemoireGroupeReponseSQL    0000000140094760 f   FoncExtLPX.obj
 0001:00093c10       DeformaterDateHeure        0000000140094c10 f   FoncExtLPX.obj
 0001:00093d00       CalculNumeroExec           0000000140094d00 f   FoncExtLPX.obj
 0001:00093d70       ReserveCanal               0000000140094d70 f   FoncExtLPX.obj
 0001:00093e10       LibereCanal                0000000140094e10 f   FoncExtLPX.obj
 0001:00093ee0       ExecuteRequete             0000000140094ee0 f   FoncExtLPX.obj
 0001:00094090       ExecuteRequeteId           0000000140095090 f   FoncExtLPX.obj
 0001:000941c0       ExecuteRequeteSQL          00000001400951c0 f   FoncExtLPX.obj
 0001:000943a0       ExecuteRequeteSGBD         00000001400953a0 f   FoncExtLPX.obj
 0001:000944e0       ValeurChamp                00000001400954e0 f   FoncExtLPX.obj
 0001:00094590       FermeReponseSQL            0000000140095590 f   FoncExtLPX.obj
 0001:000946a0       ExecuteOkSQL               00000001400956a0 f   FoncExtLPX.obj
 0001:00094720       SourceErreurSQL            0000000140095720 f   FoncExtLPX.obj
 0001:00094800       DescriptionErreurSQL       0000000140095800 f   FoncExtLPX.obj
 0001:000948e0       NombreReponseSQL           00000001400958e0 f   FoncExtLPX.obj
 0001:00094950       NombreChampSQL             0000000140095950 f   FoncExtLPX.obj
 0001:000949c0       CreeVerrou                 00000001400959c0 f   FoncExtLPX.obj
 0001:00094a90       FermeVerrou                0000000140095a90 f   FoncExtLPX.obj
 0001:00094b80       PositionneVerrou           0000000140095b80 f   FoncExtLPX.obj
 0001:00094c60       LibereVerrou               0000000140095c60 f   FoncExtLPX.obj
 0001:00094d40       AfficheTrace               0000000140095d40 f   FoncExtLPX.obj
 0001:00095220       HtmlFormDebut              0000000140096220 f   FoncExtLPX.obj
 0001:000953a0       HtmlFormFin                00000001400963a0 f   FoncExtLPX.obj
 0001:000954e0       HtmlZoneSaisie             00000001400964e0 f   FoncExtLPX.obj
 0001:00095700       HtmlZoneMotPasse           0000000140096700 f   FoncExtLPX.obj
 0001:000958f0       HtmlZoneTexte              00000001400968f0 f   FoncExtLPX.obj
 0001:00096040       HtmlCaseCocher             0000000140097040 f   FoncExtLPX.obj
 0001:000961c0       HtmlRadio                  00000001400971c0 f   FoncExtLPX.obj
 0001:00096370       HtmlListeDebut             0000000140097370 f   FoncExtLPX.obj
 0001:00096520       HtmlListeFin               0000000140097520 f   FoncExtLPX.obj
 0001:00096660       ?RemplaceCarSpeciaux@@YAXPEADAEAVCString@@@Z 0000000140097660 f   FoncExtLPX.obj
 0001:00096860       HtmlListeAjout             0000000140097860 f   FoncExtLPX.obj
 0001:00096b30       HtmlBoutonValide           0000000140097b30 f   FoncExtLPX.obj
 0001:00096cc0       HtmlFichier                0000000140097cc0 f   FoncExtLPX.obj
 0001:00096ea0       ?FormatTexte@@YAXHPEADAEAVCString@@@Z 0000000140097ea0 f   FoncExtLPX.obj
 0001:00097e00       HtmlTitre                  0000000140098e00 f   FoncExtLPX.obj
 0001:000980d0       HtmlParagDebut             00000001400990d0 f   FoncExtLPX.obj
 0001:00098210       HtmlParagFin               0000000140099210 f   FoncExtLPX.obj
 0001:00098350       HtmlComment                0000000140099350 f   FoncExtLPX.obj
 0001:00098580       HtmlTexteASCII             0000000140099580 f   FoncExtLPX.obj
 0001:00098810       HtmlLigneFin               0000000140099810 f   FoncExtLPX.obj
 0001:00098950       HtmlTexte                  0000000140099950 f   FoncExtLPX.obj
 0001:00098ac0       HtmlTexteLien              0000000140099ac0 f   FoncExtLPX.obj
 0001:00098d50       HtmlTexteLienInterne       0000000140099d50 f   FoncExtLPX.obj
 0001:00098fe0       HtmlEtiquette              0000000140099fe0 f   FoncExtLPX.obj
 0001:00099210       HtmlImage                  000000014009a210 f   FoncExtLPX.obj
 0001:000993b0       HtmlImageLien              000000014009a3b0 f   FoncExtLPX.obj
 0001:00099560       HtmlImageLienInterne       000000014009a560 f   FoncExtLPX.obj
 0001:00099710       HtmlVideo                  000000014009a710 f   FoncExtLPX.obj
 0001:00099c50       ?RechercheValeurRGB@@YAXHAEAVCString@@@Z 000000014009ac50 f   FoncExtLPX.obj
 0001:00099da0       HtmlTableauDebut           000000014009ada0 f   FoncExtLPX.obj
 0001:0009a4c0       HtmlTableauLigneDebut      000000014009b4c0 f   FoncExtLPX.obj
 0001:0009a600       HtmlTableauLigneFin        000000014009b600 f   FoncExtLPX.obj
 0001:0009a740       HtmlTableauCellule         000000014009b740 f   FoncExtLPX.obj
 0001:0009ae00       HtmlTableauCelluleLien     000000014009be00 f   FoncExtLPX.obj
 0001:0009b500       HtmlTexteBrut              000000014009c500 f   FoncExtLPX.obj
 0001:0009b660       HtmlPageDebut              000000014009c660 f   FoncExtLPX.obj
 0001:0009bdc0       HtmlPageFin                000000014009cdc0 f   FoncExtLPX.obj
 0001:0009bf40       HtmlTableauFin             000000014009cf40 f   FoncExtLPX.obj
 0001:0009c080       HtmlTableauCelluleDebut    000000014009d080 f   FoncExtLPX.obj
 0001:0009c1c0       HtmlTableauCelluleFin      000000014009d1c0 f   FoncExtLPX.obj
 0001:0009c300       FichierVersChaineEx        000000014009d300 f   FoncExtLPX.obj
 0001:0009c3c0       ExtraitChainePosLongEx     000000014009d3c0 f   FoncExtLPX.obj
 0001:0009c640       PosSousChaineEx            000000014009d640 f   FoncExtLPX.obj
 0001:0009c640       PosSousChaine              000000014009d640 f   FoncExtLPX.obj
 0001:0009c940       InserePosSousChaine        000000014009d940 f   FoncExtLPX.obj
 0001:0009ccf0       InserePosSousChaineEx      000000014009dcf0 f   FoncExtLPX.obj
 0001:0009d0a0       SupprimePosSousChaine      000000014009e0a0 f   FoncExtLPX.obj
 0001:0009d3b0       SupprimePosSousChaineEx    000000014009e3b0 f   FoncExtLPX.obj
 0001:0009d6c0       RemplaceSousChaine         000000014009e6c0 f   FoncExtLPX.obj
 0001:0009d6c0       RemplaceSousChaineEx       000000014009e6c0 f   FoncExtLPX.obj
 0001:0009dcd0       ChaineExVersFichier        000000014009ecd0 f   FoncExtLPX.obj
 0001:0009de00       HtmlFichierBrut            000000014009ee00 f   FoncExtLPX.obj
 0001:0009e1f0       HtmlZoneCache              000000014009f1f0 f   FoncExtLPX.obj
 0001:0009e3a0       CommandeShell              000000014009f3a0 f   FoncExtLPX.obj
 0001:0009eea0       HtmlAligneDebut            000000014009fea0 f   FoncExtLPX.obj
 0001:0009f0f0       HtmlAligneFin              00000001400a00f0 f   FoncExtLPX.obj
 0001:0009f230       HtmlFormDebutNom           00000001400a0230 f   FoncExtLPX.obj
 0001:0009f3c0       HtmlActiveElement          00000001400a03c0 f   FoncExtLPX.obj
 0001:0009f550       AjouteScenarioTemp         00000001400a0550 f   FoncExtLPX.obj
 0001:0009f750       LitParam                   00000001400a0750 f   FoncExtLPX.obj
 0001:0009f960       ExecScenarioID             00000001400a0960 f   FoncExtLPX.obj
 0001:0009fc70       HtmlTableauCelluleDebutA   00000001400a0c70 f   FoncExtLPX.obj
 0001:0009fe80       HtmlCentrerDebut           00000001400a0e80 f   FoncExtLPX.obj
 0001:0009ffc0       HtmlCentrerFin             00000001400a0fc0 f   FoncExtLPX.obj
 0001:000a0100       HtmlTableauDebutA          00000001400a1100 f   FoncExtLPX.obj
 0001:000a0320       HtmlDebutJavaScript        00000001400a1320 f   FoncExtLPX.obj
 0001:000a0460       HtmlFinJavaScript          00000001400a1460 f   FoncExtLPX.obj
 0001:000a05a0       HtmlTexteLienA             00000001400a15a0 f   FoncExtLPX.obj
 0001:000a08c0       HtmlXml                    00000001400a18c0 f   FoncExtLPX.obj
 0001:000a0ad0       SgTestAction               00000001400a1ad0 f   FoncExtLPX.obj
 0001:000a0b50       Message_d                  00000001400a1b50 f   FoncExtLPX.obj
 0001:000a0ee0       MessageLangue              00000001400a1ee0 f   FoncExtLPX.obj
 0001:000a12b0       MessageFormat              00000001400a22b0 f   FoncExtLPX.obj
 0001:000a14d0       EnvoieChaine               00000001400a24d0 f   FoncExtLPX.obj
 0001:000a15b0       ImprimeEtat                00000001400a25b0 f   FoncExtLPX.obj
 0001:000a1ca0       ImprimeEtatId              00000001400a2ca0 f   FoncExtLPX.obj
 0001:000a2170       ArretImprimeEtat           00000001400a3170 f   FoncExtLPX.obj
 0001:000a23b0       JourSemaineAnneeIso        00000001400a33b0 f   FoncExtLPX.obj
 0001:000a2870       MessageAjoute              00000001400a3870 f   FoncExtLPX.obj
 0001:000a2a80       MessageModifie             00000001400a3a80 f   FoncExtLPX.obj
 0001:000a2c90       MessageSupprime            00000001400a3c90 f   FoncExtLPX.obj
 0001:000a2d60       OuvreFenetre               00000001400a3d60 f   FoncExtLPX.obj
 0001:000a3170       OuvreFenetreUtilisateur    00000001400a4170 f   FoncExtLPX.obj
 0001:000a35c0       FermeFenetre               00000001400a45c0 f   FoncExtLPX.obj
 0001:000a3930       FermeFenetreUtilisateur    00000001400a4930 f   FoncExtLPX.obj
 0001:000a3d20       NbMaxValeurMemoire         00000001400a4d20 f   FoncExtLPX.obj
 0001:000a3de0       IndexMaxMemoire            00000001400a4de0 f   FoncExtLPX.obj
 0001:000a3ee0       EffaceMemoire              00000001400a4ee0 f   FoncExtLPX.obj
 0001:000a3fd0       EffaceMemoireIndex         00000001400a4fd0 f   FoncExtLPX.obj
 0001:000a40d0       MemoireReponseSQL          00000001400a50d0 f   FoncExtLPX.obj
 0001:000a4570       ChaineEnReel               00000001400a5570 f   FoncExtLPX.obj
 0001:000a4700       AttenteSaisieTempo         00000001400a5700 f   FoncExtLPX.obj
 0001:000a4830       QuartisMsgChemin           00000001400a5830 f   FoncExtLPX.obj
 0001:000a4bd0       QuartisMsgNombreReponse    00000001400a5bd0 f   FoncExtLPX.obj
 0001:000a4c50       QuartisMsgLigne            00000001400a5c50 f   FoncExtLPX.obj
 0001:000a4e60       QuartisMsgFermeReponse     00000001400a5e60 f   FoncExtLPX.obj
 0001:000a4ef0       OuvreURL                   00000001400a5ef0 f   FoncExtLPX.obj
 0001:000a5000       OuvreConsoleWeb            00000001400a6000 f   FoncExtLPX.obj
 0001:000a5110       FermeConsoleWeb            00000001400a6110 f   FoncExtLPX.obj
 0001:000a5220       ExecuteSPC                 00000001400a6220 f   FoncExtLPX.obj
 0001:000a53e0       OuvreSPC                   00000001400a63e0 f   FoncExtLPX.obj
 0001:000a5580       FermeSPC                   00000001400a6580 f   FoncExtLPX.obj
 0001:000a5700       DecalageUTC                00000001400a6700 f   FoncExtLPX.obj
 0001:000a5750       TempsUTC                   00000001400a6750 f   FoncExtLPX.obj
 0001:000a57a0       CommandeShellTempo         00000001400a67a0 f   FoncExtLPX.obj
 0001:000a5930       CopierFichier              00000001400a6930 f   FoncExtLPX.obj
 0001:000a5ad0       SupprimerFichier           00000001400a6ad0 f   FoncExtLPX.obj
 0001:000a5c90       DeplacerFichier            00000001400a6c90 f   FoncExtLPX.obj
 0001:000a5e30       ListeFichier               00000001400a6e30 f   FoncExtLPX.obj
 0001:000a6070       ReponseListeFichier        00000001400a7070 f   FoncExtLPX.obj
 0001:000a6250       ReponseFichier             00000001400a7250 f   FoncExtLPX.obj
 0001:000a62f0       FermeReponseFichier        00000001400a72f0 f   FoncExtLPX.obj
 0001:000a6390       DeformaterDateTZEnUTC      00000001400a7390 f   FoncExtLPX.obj
 0001:000a63f0       FormaterDateUTCEnTZ        00000001400a73f0 f   FoncExtLPX.obj
 0001:000a64d0       DeltaDateTZUTC             00000001400a74d0 f   FoncExtLPX.obj
 0001:000a6530       DeformaterDateUTCEnTZ      00000001400a7530 f   FoncExtLPX.obj
 0001:000a6590       FormaterDateTZEnUTC        00000001400a7590 f   FoncExtLPX.obj
 0001:000a6670       ?GetAttrib@CMemXml@@QEAA?AVCString@@PEBD@Z 00000001400a7670 f i FoncXmlLPX.obj
 0001:000a66a0       XmlCree                    00000001400a76a0 f   FoncXmlLPX.obj
 0001:000a6750       XmlFerme                   00000001400a7750 f   FoncXmlLPX.obj
 0001:000a6850       XmlFichierLit              00000001400a7850 f   FoncXmlLPX.obj
 0001:000a6a50       XmlFichierEcrit            00000001400a7a50 f   FoncXmlLPX.obj
 0001:000a6bb0       XmlEfface                  00000001400a7bb0 f   FoncXmlLPX.obj
 0001:000a6c70       XmlEcrit                   00000001400a7c70 f   FoncXmlLPX.obj
 0001:000a6d80       XmlPositionInit            00000001400a7d80 f   FoncXmlLPX.obj
 0001:000a6e10       XmlElementSupprime         00000001400a7e10 f   FoncXmlLPX.obj
 0001:000a6eb0       XmlValeurLit               00000001400a7eb0 f   FoncXmlLPX.obj
 0001:000a6fe0       XmlAttributLit             00000001400a7fe0 f   FoncXmlLPX.obj
 0001:000a70f0       XmlElementFils             00000001400a80f0 f   FoncXmlLPX.obj
 0001:000a7190       XmlElementPere             00000001400a8190 f   FoncXmlLPX.obj
 0001:000a7230       XmlElementPremier          00000001400a8230 f   FoncXmlLPX.obj
 0001:000a7320       XmlFilsSupprime            00000001400a8320 f   FoncXmlLPX.obj
 0001:000a73c0       XmlFilsPositionne          00000001400a83c0 f   FoncXmlLPX.obj
 0001:000a7490       XmlReponseSQL              00000001400a8490 f   FoncXmlLPX.obj
 0001:000a75f0       ?ExtraitBaliseAttribut@@YAHPEBDAEAVCTabPtr@@@Z 00000001400a85f0 f   FoncXmlLPX.obj
 0001:000a7c40       ?ExtraitChaineBaliseAttribut@@YAXAEAVCString@@00@Z 00000001400a8c40 f   FoncXmlLPX.obj
 0001:000a7e00       ?FiltreEspaceDebutFin@CGestMessLang@@QEAAXAEAVCString@@@Z 00000001400a8e00 f   GestMessLang.obj
 0001:000a7e00       ?FiltreEspaceDebutFin@@YAXAEAVCString@@@Z 00000001400a8e00 f   FoncXmlLPX.obj
 0001:000a8000       ?AjouteListeBaliseAttribut@@YAXAEAVCTabPtr@@HAEAVCString@@1@Z 00000001400a9000 f   FoncXmlLPX.obj
 0001:000a8130       ?AjoutMemXml@@YAHAEAVCMemXml@@AEAVCTabPtr@@PEAVCResultatRequete@@@Z 00000001400a9130 f   FoncXmlLPX.obj
 0001:000a8620       ?GenereBaliseAttributValeur@@YAXAEAVCMemXml@@AEAVCTabPtr@@HAEAHPEAVCResultatRequete@@H2@Z 00000001400a9620 f   FoncXmlLPX.obj
 0001:000a8980       ?RazListBaliseAttribut@@YAXAEAVCTabPtr@@@Z 00000001400a9980 f   FoncXmlLPX.obj
 0001:000a8a80       RendTailleFichierLIX       00000001400a9a80 f   GestListLIX.obj
 0001:000a8c10       StockProgrammeLIX          00000001400a9c10 f   GestListLIX.obj
 0001:000a8cf0       EffaceListProgrammeLIX     00000001400a9cf0 f   GestListLIX.obj
 0001:000a8ee0       AjouteContexteEnPause      00000001400a9ee0 f   GestPause.obj
 0001:000a8fa0       AjouteSaisieAttenteEnPause 00000001400a9fa0 f   GestPause.obj
 0001:000a9060       MetAJourContexteEnPause    00000001400aa060 f   GestPause.obj
 0001:000a9130       SupprimeContexteEnPause    00000001400aa130 f   GestPause.obj
 0001:000a9230       EffaceListeContexteEnPause 00000001400aa230 f   GestPause.obj
 0001:000a9350       ??0CExecLix@@QEAA@PEAD@Z   00000001400aa350 f   ExecLix.obj
 0001:000a9440       ?ArretSrvLPX@CExecLix@@QEAAXH@Z 00000001400aa440 f   ExecLix.obj
 0001:000a94c0       ?ExecuteProgrammeLPX@CExecLix@@QEAAHHHHPEADVCListPeriph@@0D0D_JHHPEAHPEAVCConnHTTP@@H0@Z 00000001400aa4c0 f   ExecLix.obj
 0001:000a9ea0       ?ListePgmEnCours@CExecLix@@QEAAHVCOutputArchive@@@Z 00000001400aaea0 f   ExecLix.obj
 0001:000aa5f0       ?ArreteProgramme@CExecLix@@QEAAHH@Z 00000001400ab5f0 f   ExecLix.obj
 0001:000aa810       ?ReprendLeProgrammeId@CExecLix@@QEAAHHPEAVCConnHTTP@@@Z 00000001400ab810 f   ExecLix.obj
 0001:000aab50       ?InsereMessRecuScenEnCours@CExecLix@@QEAAHHPEADH_JPEAVCConnHTTP@@@Z 00000001400abb50 f   ExecLix.obj
 0001:000aac10       EffaceUnProgrammeLPX       00000001400abc10 f   ExecLix.obj
 0001:000aae20       FinDeProgrammeLPX          00000001400abe20 f   ExecLix.obj
 0001:000ab620       ?LPXExiste@CExecLix@@QEAAHHHHPEADVCListPeriph@@0DPEAVCConnHTTP@@@Z 00000001400ac620 f   ExecLix.obj
 0001:000aba30       ?InsereMessRecuAttenteSaisieTempo@CExecLix@@QEAAHHPEADH_JPEAVCConnHTTP@@@Z 00000001400aca30 f   ExecLix.obj
 0001:000abb80       FinAttenteSaisieTempo      00000001400acb80 f   ExecLix.obj
 0001:000abc50       ?ChercheLPXExiste@CExecLix@@QEAAHH@Z 00000001400acc50 f   ExecLix.obj
 0001:000abce0       ?ListeScenEnCours@CExecLix@@QEAAXAEAVCPtrList@@@Z 00000001400acce0 f   ExecLix.obj
 0001:000abe80       AjouteUnContexte           00000001400ace80 f   GListCont.obj
 0001:000abf20       SupprimeUnContexte         00000001400acf20 f   GListCont.obj
 0001:000abfc0       EffaceListeContexte        00000001400acfc0 f   GListCont.obj
 0001:000ac2c0       ChercheContexte            00000001400ad2c0 f   GListCont.obj
 0001:000ac330       ChercheContexteTransaction 00000001400ad330 f   GListCont.obj
 0001:000ac3c0       interprete                 00000001400ad3c0 f   interprete.obj
 0001:000ac960       InitInterprete             00000001400ad960 f   interprete.obj
 0001:000acb00       LPX_EstMajuscule           00000001400adb00 f   ITP_AppelC.obj
 0001:000acc20       LPX_EstMinuscule           00000001400adc20 f   ITP_AppelC.obj
 0001:000acd40       LPX_EstAlphabetique        00000001400add40 f   ITP_AppelC.obj
 0001:000ace60       LPX_EstChiffreDecimal      00000001400ade60 f   ITP_AppelC.obj
 0001:000acf80       LPX_EstAlphaNumerique      00000001400adf80 f   ITP_AppelC.obj
 0001:000ad0a0       LPX_EstChiffreHexaDecimal  00000001400ae0a0 f   ITP_AppelC.obj
 0001:000ad1c0       LPX_EstBlanc               00000001400ae1c0 f   ITP_AppelC.obj
 0001:000ad2e0       LPX_EstControle            00000001400ae2e0 f   ITP_AppelC.obj
 0001:000ad400       LPX_EstPonctuation         00000001400ae400 f   ITP_AppelC.obj
 0001:000ad520       LPX_EstGraphique           00000001400ae520 f   ITP_AppelC.obj
 0001:000ad640       LPX_EstImprimable          00000001400ae640 f   ITP_AppelC.obj
 0001:000ad760       LPX_ConvertisEnMajuscule   00000001400ae760 f   ITP_AppelC.obj
 0001:000ad850       LPX_ConvertisEnMinuscule   00000001400ae850 f   ITP_AppelC.obj
 0001:000ad940       LPX_ASCIIEnCaractere       00000001400ae940 f   ITP_AppelC.obj
 0001:000ada20       LPX_EntierEnChaine         00000001400aea20 f   ITP_AppelC.obj
 0001:000adb70       LPX_ChaineEnEntier         00000001400aeb70 f   ITP_AppelC.obj
 0001:000adc50       LPX_ChaineEnMajuscule      00000001400aec50 f   ITP_AppelC.obj
 0001:000add80       LPX_ChaineEnMinuscule      00000001400aed80 f   ITP_AppelC.obj
 0001:000adf30       LPX_EstEntierPositif       00000001400aef30 f   ITP_AppelC.obj
 0001:000ae060       LPX_EstEntier              00000001400af060 f   ITP_AppelC.obj
 0001:000ae1a0       LPX_EstNumerique           00000001400af1a0 f   ITP_AppelC.obj
 0001:000ae2e0       LPX_PosSousChaine          00000001400af2e0 f   ITP_AppelC.obj
 0001:000ae460       LPX_LongueurChaine         00000001400af460 f   ITP_AppelC.obj
 0001:000ae580       LPX_EnleveBlancs           00000001400af580 f   ITP_AppelC.obj
 0001:000ae6b0       LPX_ExtraitChaines         00000001400af6b0 f   ITP_AppelC.obj
 0001:000ae950       LPX_Strq                   00000001400af950 f   ITP_AppelC.obj
 0001:000aea60       LPX_ExtraitChainePosLong   00000001400afa60 f   ITP_AppelC.obj
 0001:000aec90       LPX_ExtraitChaineNumDel    00000001400afc90 f   ITP_AppelC.obj
 0001:000aee80       LPX_ExtraitChaineNumDelEx  00000001400afe80 f   ITP_AppelC.obj
 0001:000af070       LPX_AjouteNFoisCaractere   00000001400b0070 f   ITP_AppelC.obj
 0001:000af240       LPX_ComposeMessage2x40     00000001400b0240 f   ITP_AppelC.obj
 0001:000af3a0       LPX_ComposeMessage2x16     00000001400b03a0 f   ITP_AppelC.obj
 0001:000af500       LPX_ChaineEnReel           00000001400b0500 f   ITP_AppelC.obj
 0001:000af5e0       LPX_GrandeChaineEnReel     00000001400b05e0 f   ITP_AppelC.obj
 0001:000af6c0       LPX_ReelEnChaine           00000001400b06c0 f   ITP_AppelC.obj
 0001:000af840       LPX_ReelEnGrandeChaine     00000001400b0840 f   ITP_AppelC.obj
 0001:000af9d0       LPX_RacineCarree           00000001400b09d0 f   ITP_AppelC.obj
 0001:000afb00       LPX_SgTestAction           00000001400b0b00 f   ITP_AppelC.obj
 0001:000afb80       LPX_SgExecuteAction        00000001400b0b80 f   ITP_AppelC.obj
 0001:000afc30       LPX_SgExecuteActionFin     00000001400b0c30 f   ITP_AppelC.obj
 0001:000afce0       LPX_DateSysteme            00000001400b0ce0 f   ITP_AppelC.obj
 0001:000afdc0       LPX_EcritureFormateeDateSysteme 00000001400b0dc0 f   ITP_AppelC.obj
 0001:000afeb0       LPX_EcritureFormateeDate   00000001400b0eb0 f   ITP_AppelC.obj
 0001:000afff0       LPX_LectureFormateeDate    00000001400b0ff0 f   ITP_AppelC.obj
 0001:000b01f0       LPX_FormaterDateHeure      00000001400b11f0 f   ITP_AppelC.obj
 0001:000b0370       LPX_FormaterDate           00000001400b1370 f   ITP_AppelC.obj
 0001:000b04f0       LPX_FormaterDuree          00000001400b14f0 f   ITP_AppelC.obj
 0001:000b0670       LPX_DeformaterDateHeure    00000001400b1670 f   ITP_AppelC.obj
 0001:000b0770       LPX_EcritureFormateeDateSystemeUTC 00000001400b1770 f   ITP_AppelC.obj
 0001:000b0870       LPX_DeformaterTempsUTC     00000001400b1870 f   ITP_AppelC.obj
 0001:000b0a80       LPX_FormaterTempsUTC       00000001400b1a80 f   ITP_AppelC.obj
 0001:000b0bc0       LPX_DecalageUTC            00000001400b1bc0 f   ITP_AppelC.obj
 0001:000b0d10       LPX_TempsUTC               00000001400b1d10 f   ITP_AppelC.obj
 0001:000b0ea0       LPX_DeformaterDateTZEnUTC  00000001400b1ea0 f   ITP_AppelC.obj
 0001:000b1050       LPX_FormaterDateUTCEnTZ    00000001400b2050 f   ITP_AppelC.obj
 0001:000b1230       LPX_DeltaDateTZUTC         00000001400b2230 f   ITP_AppelC.obj
 0001:000b13f0       LPX_DeformaterDateUTCEnTZ  00000001400b23f0 f   ITP_AppelC.obj
 0001:000b15a0       LPX_FormaterDateTZEnUTC    00000001400b25a0 f   ITP_AppelC.obj
 0001:000b1780       LPX_Randomize              00000001400b2780 f   ITP_AppelC.obj
 0001:000b1830       LPX_Random                 00000001400b2830 f   ITP_AppelC.obj
 0001:000b1910       LPX_CommandeShell          00000001400b2910 f   ITP_AppelC.obj
 0001:000b1a10       LPX_CommandeShellTempo     00000001400b2a10 f   ITP_AppelC.obj
 0001:000b1b90       LPX_OuvreFichierLecture    00000001400b2b90 f   ITP_AppelC.obj
 0001:000b1ce0       LPX_CreeFichier            00000001400b2ce0 f   ITP_AppelC.obj
 0001:000b1e10       LPX_OuvreFichierEcriture   00000001400b2e10 f   ITP_AppelC.obj
 0001:000b1f60       LPX_LisLigneFichier        00000001400b2f60 f   ITP_AppelC.obj
 0001:000b2180       LPX_LectureGrandFichier    00000001400b3180 f   ITP_AppelC.obj
 0001:000b23a0       LPX_EcrisLigneFichier      00000001400b33a0 f   ITP_AppelC.obj
 0001:000b2550       LPX_FermeFichier           00000001400b3550 f   ITP_AppelC.obj
 0001:000b2620       LPX_Getenv                 00000001400b3620 f   ITP_AppelC.obj
 0001:000b2740       LPX_EcritTerminal          00000001400b3740 f   ITP_AppelC.obj
 0001:000b2830       LPX_EcritTerminalAvecNum   00000001400b3830 f   ITP_AppelC.obj
 0001:000b2930       LPX_AttenteSaisie          00000001400b3930 f   ITP_AppelC.obj
 0001:000b29a0       LPX_LitMessage             00000001400b39a0 f   ITP_AppelC.obj
 0001:000b2af0       LPX_LitPeriphMessage       00000001400b3af0 f   ITP_AppelC.obj
 0001:000b2bc0       LPX_LitDateHeureMessage    00000001400b3bc0 f   ITP_AppelC.obj
 0001:000b2d10       LPX_EcritMemoire           00000001400b3d10 f   ITP_AppelC.obj
 0001:000b2ed0       LPX_LitMemoire             00000001400b3ed0 f   ITP_AppelC.obj
 0001:000b3090       LPX_EcritMemoireTerminal   00000001400b4090 f   ITP_AppelC.obj
 0001:000b32a0       LPX_LitMemoireTerminal     00000001400b42a0 f   ITP_AppelC.obj
 0001:000b3470       LPX_EcritMemoireUtilisateur 00000001400b4470 f   ITP_AppelC.obj
 0001:000b37f0       LPX_LitMemoireUtilisateur  00000001400b47f0 f   ITP_AppelC.obj
 0001:000b3b30       LPX_EcritMemoireIndexUtilisateur 00000001400b4b30 f   ITP_AppelC.obj
 0001:000b3ee0       LPX_LitMemoireIndexUtilisateur 00000001400b4ee0 f   ITP_AppelC.obj
 0001:000b4080       LPX_EffaceMemoireUtilisateur 00000001400b5080 f   ITP_AppelC.obj
 0001:000b41f0       LPX_MemoireReponseSQLUtilisateur 00000001400b51f0 f   ITP_AppelC.obj
 0001:000b43a0       LPX_IndexMaxMemoireUtilisateur 00000001400b53a0 f   ITP_AppelC.obj
 0001:000b44d0       LPX_EcritMemoireIndex      00000001400b54d0 f   ITP_AppelC.obj
 0001:000b47d0       LPX_LitMemoireIndex        00000001400b57d0 f   ITP_AppelC.obj
 0001:000b4930       LPX_EcritMemoireSystem     00000001400b5930 f   ITP_AppelC.obj
 0001:000b4af0       LPX_LitMemoireSystem       00000001400b5af0 f   ITP_AppelC.obj
 0001:000b4c00       LPX_EcritMemoireGroupe     00000001400b5c00 f   ITP_AppelC.obj
 0001:000b4e90       LPX_LitMemoireGroupe       00000001400b5e90 f   ITP_AppelC.obj
 0001:000b4fe0       LPX_EcritMemoireGroupeIndex 00000001400b5fe0 f   ITP_AppelC.obj
 0001:000b51c0       LPX_LitMemoireGroupeIndex  00000001400b61c0 f   ITP_AppelC.obj
 0001:000b5360       LPX_EcritMemoireGroupeIndexUtilisateur 00000001400b6360 f   ITP_AppelC.obj
 0001:000b5580       LPX_LitMemoireGroupeIndexUtilisateur 00000001400b6580 f   ITP_AppelC.obj
 0001:000b5760       LPX_EcritMemoireGroupeUtilisateur 00000001400b6760 f   ITP_AppelC.obj
 0001:000b5930       LPX_LitMemoireGroupeUtilisateur 00000001400b6930 f   ITP_AppelC.obj
 0001:000b5ac0       LPX_EcritMemoireGroupeTerminal 00000001400b6ac0 f   ITP_AppelC.obj
 0001:000b5da0       LPX_LitMemoireGroupeTerminal 00000001400b6da0 f   ITP_AppelC.obj
 0001:000b5f40       LPX_MemoireGroupeReponseSQL 00000001400b6f40 f   ITP_AppelC.obj
 0001:000b60f0       LPX_EffaceMemoireGroupe    00000001400b70f0 f   ITP_AppelC.obj
 0001:000b6320       LPX_MemoireGroupeExiste    00000001400b7320 f   ITP_AppelC.obj
 0001:000b64e0       LPX_IndexMaxMemoireGroupe  00000001400b74e0 f   ITP_AppelC.obj
 0001:000b66f0       LPX_NbMaxValeurMemoireGroupe 00000001400b76f0 f   ITP_AppelC.obj
 0001:000b68b0       LPX_ReserveCanal           00000001400b78b0 f   ITP_AppelC.obj
 0001:000b6990       LPX_ReserveCanalLent       00000001400b7990 f   ITP_AppelC.obj
 0001:000b6a70       LPX_LibereCanal            00000001400b7a70 f   ITP_AppelC.obj
 0001:000b6b70       LPX_TypeCanalExecRequeteSQL 00000001400b7b70 f   ITP_AppelC.obj
 0001:000b6d10       LPX_TypeCanalExecRequeteSQLEx 00000001400b7d10 f   ITP_AppelC.obj
 0001:000b6eb0       LPX_TypeCanalExecRequete   00000001400b7eb0 f   ITP_AppelC.obj
 0001:000b7040       LPX_TypeCanalExecRequeteId 00000001400b8040 f   ITP_AppelC.obj
 0001:000b71e0       LPX_ExecuteRequeteId       00000001400b81e0 f   ITP_AppelC.obj
 0001:000b7330       LPX_ExecuteRequete         00000001400b8330 f   ITP_AppelC.obj
 0001:000b7480       LPX_ExecuteRequeteSQL      00000001400b8480 f   ITP_AppelC.obj
 0001:000b75d0       LPX_ExecuteRequeteSQLEx    00000001400b85d0 f   ITP_AppelC.obj
 0001:000b7740       LPX_CanalExecuteRequete    00000001400b8740 f   ITP_AppelC.obj
 0001:000b7920       LPX_CanalExecuteRequeteId  00000001400b8920 f   ITP_AppelC.obj
 0001:000b7b10       LPX_CanalExecuteRequeteSQL 00000001400b8b10 f   ITP_AppelC.obj
 0001:000b7d00       LPX_CanalExecuteRequeteSQLEx 00000001400b8d00 f   ITP_AppelC.obj
 0001:000b7ef0       LPX_ExecuteRequeteLente    00000001400b8ef0 f   ITP_AppelC.obj
 0001:000b8040       LPX_ExecuteRequeteSQLLente 00000001400b9040 f   ITP_AppelC.obj
 0001:000b8190       LPX_ExecuteRequeteSQLExLente 00000001400b9190 f   ITP_AppelC.obj
 0001:000b82f0       LPX_ExecuteRequeteIdLente  00000001400b92f0 f   ITP_AppelC.obj
 0001:000b8440       LPX_ExecuteRequeteSQLBD    00000001400b9440 f   ITP_AppelC.obj
 0001:000b86c0       LPX_ExecuteRequeteSQLExBD  00000001400b96c0 f   ITP_AppelC.obj
 0001:000b8960       LPX_ValeurChamp            00000001400b9960 f   ITP_AppelC.obj
 0001:000b8b80       LPX_ValeurChampEx          00000001400b9b80 f   ITP_AppelC.obj
 0001:000b8da0       LPX_FermeReponseSQL        00000001400b9da0 f   ITP_AppelC.obj
 0001:000b8ed0       LPX_ExecuteOk              00000001400b9ed0 f   ITP_AppelC.obj
 0001:000b9000       LPX_SourceErreurSQL        00000001400ba000 f   ITP_AppelC.obj
 0001:000b9130       LPX_DescriptionErreurSQL   00000001400ba130 f   ITP_AppelC.obj
 0001:000b9260       LPX_NombreReponseSQL       00000001400ba260 f   ITP_AppelC.obj
 0001:000b9380       LPX_NombreChampSQL         00000001400ba380 f   ITP_AppelC.obj
 0001:000b94a0       LPX_LitNiveauDebug         00000001400ba4a0 f   ITP_AppelC.obj
 0001:000b9510       LPX_EcritMessageErreur     00000001400ba510 f   ITP_AppelC.obj
 0001:000b95b0       LPX_LitNumeroTerminal      00000001400ba5b0 f   ITP_AppelC.obj
 0001:000b96c0       LPX_LitNomTraitementLPX    00000001400ba6c0 f   ITP_AppelC.obj
 0001:000b9770       LPX_CreeVerrou             00000001400ba770 f   ITP_AppelC.obj
 0001:000b9870       LPX_PositionneVerrou       00000001400ba870 f   ITP_AppelC.obj
 0001:000b99b0       LPX_LibereVerrou           00000001400ba9b0 f   ITP_AppelC.obj
 0001:000b9af0       LPX_FermeVerrou            00000001400baaf0 f   ITP_AppelC.obj
 0001:000b9c30       LPX_Sleep                  00000001400bac30 f   ITP_AppelC.obj
 0001:000b9d10       LPX_HtmlFormDebut          00000001400bad10 f   ITP_AppelC.obj
 0001:000b9dd0       LPX_HtmlFormFin            00000001400badd0 f   ITP_AppelC.obj
 0001:000b9e20       LPX_HtmlZoneSaisie         00000001400bae20 f   ITP_AppelC.obj
 0001:000b9f60       LPX_HtmlZoneMotPasse       00000001400baf60 f   ITP_AppelC.obj
 0001:000ba0a0       LPX_HtmlZoneTexte          00000001400bb0a0 f   ITP_AppelC.obj
 0001:000ba290       LPX_HtmlCaseCocher         00000001400bb290 f   ITP_AppelC.obj
 0001:000ba3b0       LPX_HtmlRadio              00000001400bb3b0 f   ITP_AppelC.obj
 0001:000ba500       LPX_HtmlListeDebut         00000001400bb500 f   ITP_AppelC.obj
 0001:000ba670       LPX_HtmlListeFin           00000001400bb670 f   ITP_AppelC.obj
 0001:000ba6c0       LPX_HtmlListeAjout         00000001400bb6c0 f   ITP_AppelC.obj
 0001:000ba810       LPX_HtmlBoutonValide       00000001400bb810 f   ITP_AppelC.obj
 0001:000ba900       LPX_CGILitValeur           00000001400bb900 f   ITP_AppelC.obj
 0001:000baa10       LPX_CGILitValeurEx         00000001400bba10 f   ITP_AppelC.obj
 0001:000baba0       LPX_HtmlFichier            00000001400bbba0 f   ITP_AppelC.obj
 0001:000bacb0       LPX_HtmlLitEnv             00000001400bbcb0 f   ITP_AppelC.obj
 0001:000bae10       LPX_HtmlTitre              00000001400bbe10 f   ITP_AppelC.obj
 0001:000baf60       LPX_HtmlParagDebut         00000001400bbf60 f   ITP_AppelC.obj
 0001:000bafb0       LPX_HtmlParagFin           00000001400bbfb0 f   ITP_AppelC.obj
 0001:000bb000       LPX_HtmlComment            00000001400bc000 f   ITP_AppelC.obj
 0001:000bb0c0       LPX_HtmlTexteASCII         00000001400bc0c0 f   ITP_AppelC.obj
 0001:000bb1c0       LPX_HtmlLigneFin           00000001400bc1c0 f   ITP_AppelC.obj
 0001:000bb210       LPX_HtmlTexte              00000001400bc210 f   ITP_AppelC.obj
 0001:000bb310       LPX_HtmlTexteLien          00000001400bc310 f   ITP_AppelC.obj
 0001:000bb450       LPX_HtmlTexteLienInterne   00000001400bc450 f   ITP_AppelC.obj
 0001:000bb590       LPX_HtmlEtiquette          00000001400bc590 f   ITP_AppelC.obj
 0001:000bb650       LPX_HtmlImage              00000001400bc650 f   ITP_AppelC.obj
 0001:000bb750       LPX_HtmlImageLien          00000001400bc750 f   ITP_AppelC.obj
 0001:000bb890       LPX_HtmlImageLienInterne   00000001400bc890 f   ITP_AppelC.obj
 0001:000bb9d0       LPX_HtmlVideo              00000001400bc9d0 f   ITP_AppelC.obj
 0001:000bbb10       LPX_HtmlTableauDebut       00000001400bcb10 f   ITP_AppelC.obj
 0001:000bbc70       LPX_HtmlTableauLigneDebut  00000001400bcc70 f   ITP_AppelC.obj
 0001:000bbcc0       LPX_HtmlTableauLigneFin    00000001400bccc0 f   ITP_AppelC.obj
 0001:000bbd10       LPX_HtmlTableauCellule     00000001400bcd10 f   ITP_AppelC.obj
 0001:000bbe60       LPX_HtmlTableauCelluleLien 00000001400bce60 f   ITP_AppelC.obj
 0001:000bbff0       LPX_HtmlTexteBrut          00000001400bcff0 f   ITP_AppelC.obj
 0001:000bc0b0       LPX_HtmlPageDebut          00000001400bd0b0 f   ITP_AppelC.obj
 0001:000bc1f0       LPX_HtmlPageFin            00000001400bd1f0 f   ITP_AppelC.obj
 0001:000bc240       LPX_HtmlTableauFin         00000001400bd240 f   ITP_AppelC.obj
 0001:000bc290       LPX_HtmlTableauCelluleDebut 00000001400bd290 f   ITP_AppelC.obj
 0001:000bc2e0       LPX_HtmlTableauCelluleFin  00000001400bd2e0 f   ITP_AppelC.obj
 0001:000bc330       LPX_CGILitFichier          00000001400bd330 f   ITP_AppelC.obj
 0001:000bc480       LPX_FichierVersChaineEx    00000001400bd480 f   ITP_AppelC.obj
 0001:000bc620       LPX_LongueurEx             00000001400bd620 f   ITP_AppelC.obj
 0001:000bc7b0       LPX_ExtraitChainePosLongEx 00000001400bd7b0 f   ITP_AppelC.obj
 0001:000bc960       LPX_PosSousChaineEx        00000001400bd960 f   ITP_AppelC.obj
 0001:000bcb10       LPX_InserePosSousChaine    00000001400bdb10 f   ITP_AppelC.obj
 0001:000bcd30       LPX_InserePosSousChaineEx  00000001400bdd30 f   ITP_AppelC.obj
 0001:000bcf60       LPX_SupprimePosSousChaine  00000001400bdf60 f   ITP_AppelC.obj
 0001:000bd160       LPX_SupprimePosSousChaineEx 00000001400be160 f   ITP_AppelC.obj
 0001:000bd360       LPX_RemplaceSousChaine     00000001400be360 f   ITP_AppelC.obj
 0001:000bd5d0       LPX_RemplaceSousChaineEx   00000001400be5d0 f   ITP_AppelC.obj
 0001:000bd840       LPX_ChaineExVersFichier    00000001400be840 f   ITP_AppelC.obj
 0001:000bd990       LPX_HtmlTexteBrutEx        00000001400be990 f   ITP_AppelC.obj
 0001:000bda70       LPX_HtmlFichierBrut        00000001400bea70 f   ITP_AppelC.obj
 0001:000bdb90       LPX_HtmlZoneCache          00000001400beb90 f   ITP_AppelC.obj
 0001:000bdc80       LPX_AjouteScenarioTemp     00000001400bec80 f   ITP_AppelC.obj
 0001:000bde60       LPX_SupprimeScenarioTemp   00000001400bee60 f   ITP_AppelC.obj
 0001:000bdf90       LPX_EcritValRetour         00000001400bef90 f   ITP_AppelC.obj
 0001:000be0f0       LPX_LitValRetour           00000001400bf0f0 f   ITP_AppelC.obj
 0001:000be230       LPX_LitParam               00000001400bf230 f   ITP_AppelC.obj
 0001:000be350       LPX_ExecScenario           00000001400bf350 f   ITP_AppelC.obj
 0001:000be530       LPX_HtmlAligneDebut        00000001400bf530 f   ITP_AppelC.obj
 0001:000be5e0       LPX_HtmlAligneFin          00000001400bf5e0 f   ITP_AppelC.obj
 0001:000be630       LPX_HtmlFormDebutNom       00000001400bf630 f   ITP_AppelC.obj
 0001:000be720       LPX_HtmlActiveElement      00000001400bf720 f   ITP_AppelC.obj
 0001:000be810       LPX_HtmlTableauCelluleDebutA 00000001400bf810 f   ITP_AppelC.obj
 0001:000be9c0       LPX_HtmlCentrerDebut       00000001400bf9c0 f   ITP_AppelC.obj
 0001:000bea10       LPX_HtmlCentrerFin         00000001400bfa10 f   ITP_AppelC.obj
 0001:000bea60       LPX_HtmlTableauDebutA      00000001400bfa60 f   ITP_AppelC.obj
 0001:000bec50       LPX_HtmlDebutJavaScript    00000001400bfc50 f   ITP_AppelC.obj
 0001:000beca0       LPX_HtmlFinJavaScript      00000001400bfca0 f   ITP_AppelC.obj
 0001:000becf0       LPX_HtmlTexteLienA         00000001400bfcf0 f   ITP_AppelC.obj
 0001:000bee70       LPX_OuvreFichier           00000001400bfe70 f   ITP_AppelC.obj
 0001:000bf080       LPX_ProprieteFichier       00000001400c0080 f   ITP_AppelC.obj
 0001:000bf270       LPX_PositionFichier        00000001400c0270 f   ITP_AppelC.obj
 0001:000bf470       LPX_CopierFichier          00000001400c0470 f   ITP_AppelC.obj
 0001:000bf630       LPX_SupprimerFichier       00000001400c0630 f   ITP_AppelC.obj
 0001:000bf7c0       LPX_DeplacerFichier        00000001400c07c0 f   ITP_AppelC.obj
 0001:000bf980       LPX_ListeFichier           00000001400c0980 f   ITP_AppelC.obj
 0001:000bfb30       LPX_ReponseListeFichier    00000001400c0b30 f   ITP_AppelC.obj
 0001:000bfcb0       LPX_ReponseFichier         00000001400c0cb0 f   ITP_AppelC.obj
 0001:000bfe10       LPX_FermeReponseFichier    00000001400c0e10 f   ITP_AppelC.obj
 0001:000bfed0       LPX_XmlCree                00000001400c0ed0 f   ITP_AppelC.obj
 0001:000bffd0       LPX_XmlFerme               00000001400c0fd0 f   ITP_AppelC.obj
 0001:000c00e0       LPX_XmlFichierLit          00000001400c10e0 f   ITP_AppelC.obj
 0001:000c0230       LPX_XmlFichierEcrit        00000001400c1230 f   ITP_AppelC.obj
 0001:000c0380       LPX_XmlEfface              00000001400c1380 f   ITP_AppelC.obj
 0001:000c0490       LPX_XmlLit                 00000001400c1490 f   ITP_AppelC.obj
 0001:000c06d0       LPX_XmlEcrit               00000001400c16d0 f   ITP_AppelC.obj
 0001:000c08a0       LPX_XmlPositionInit        00000001400c18a0 f   ITP_AppelC.obj
 0001:000c09c0       LPX_XmlElementAjoute       00000001400c19c0 f   ITP_AppelC.obj
 0001:000c0be0       LPX_XmlElementSupprime     00000001400c1be0 f   ITP_AppelC.obj
 0001:000c0d00       LPX_XmlValeurLit           00000001400c1d00 f   ITP_AppelC.obj
 0001:000c0ea0       LPX_XmlAttributEcrit       00000001400c1ea0 f   ITP_AppelC.obj
 0001:000c10a0       LPX_XmlAttributLit         00000001400c20a0 f   ITP_AppelC.obj
 0001:000c1280       LPX_XmlElementFils         00000001400c2280 f   ITP_AppelC.obj
 0001:000c13a0       LPX_XmlElementPere         00000001400c23a0 f   ITP_AppelC.obj
 0001:000c14c0       LPX_XmlElementSuivant      00000001400c24c0 f   ITP_AppelC.obj
 0001:000c1640       LPX_XmlElementPremier      00000001400c2640 f   ITP_AppelC.obj
 0001:000c1760       LPX_XmlElementPositionne   00000001400c2760 f   ITP_AppelC.obj
 0001:000c1920       LPX_XmlReponseSQL          00000001400c2920 f   ITP_AppelC.obj
 0001:000c1ac0       LPX_XmlFilsAjoute          00000001400c2ac0 f   ITP_AppelC.obj
 0001:000c1cd0       LPX_XmlFilsSupprime        00000001400c2cd0 f   ITP_AppelC.obj
 0001:000c1df0       LPX_XmlFilsPositionne      00000001400c2df0 f   ITP_AppelC.obj
 0001:000c1f50       LPX_HtmlXml                00000001400c2f50 f   ITP_AppelC.obj
 0001:000c20a0       LPX_Langue                 00000001400c30a0 f   ITP_AppelC.obj
 0001:000c2200       LPX_Message                00000001400c3200 f   ITP_AppelC.obj
 0001:000c2390       LPX_MessageLangue          00000001400c3390 f   ITP_AppelC.obj
 0001:000c2550       LPX_MessageFormat1         00000001400c3550 f   ITP_AppelC.obj
 0001:000c2730       LPX_MessageFormat2         00000001400c3730 f   ITP_AppelC.obj
 0001:000c2940       LPX_MessageFormat3         00000001400c3940 f   ITP_AppelC.obj
 0001:000c2b90       LPX_MessageFormat4         00000001400c3b90 f   ITP_AppelC.obj
 0001:000c2e10       LPX_MessageFormat5         00000001400c3e10 f   ITP_AppelC.obj
 0001:000c30d0       LPX_MessageFormat6         00000001400c40d0 f   ITP_AppelC.obj
 0001:000c33c0       LPX_MessageFormat7         00000001400c43c0 f   ITP_AppelC.obj
 0001:000c36f0       LPX_MessageFormat8         00000001400c46f0 f   ITP_AppelC.obj
 0001:000c3a50       LPX_MessageFormat9         00000001400c4a50 f   ITP_AppelC.obj
 0001:000c3df0       LPX_LitNomOrdinateur       00000001400c4df0 f   ITP_AppelC.obj
 0001:000c3ef0       LPX_LitPortHttp            00000001400c4ef0 f   ITP_AppelC.obj
 0001:000c3ff0       LPX_ImprimeEtat            00000001400c4ff0 f   ITP_AppelC.obj
 0001:000c41c0       LPX_ImprimeEtatEtAttend    00000001400c51c0 f   ITP_AppelC.obj
 0001:000c43e0       LPX_ArretImprimeEtat       00000001400c53e0 f   ITP_AppelC.obj
 0001:000c4500       LPX_JourSemaineAnneeIso    00000001400c5500 f   ITP_AppelC.obj
 0001:000c4810       LPX_MessageAjoute          00000001400c5810 f   ITP_AppelC.obj
 0001:000c4950       LPX_MessageModifie         00000001400c5950 f   ITP_AppelC.obj
 0001:000c4a90       LPX_MessageSupprime        00000001400c5a90 f   ITP_AppelC.obj
 0001:000c4b90       LPX_MessageRazListe        00000001400c5b90 f   ITP_AppelC.obj
 0001:000c4c00       LPX_OuvreFenetre           00000001400c5c00 f   ITP_AppelC.obj
 0001:000c4d40       LPX_OuvreFenetreUtilisateur 00000001400c5d40 f   ITP_AppelC.obj
 0001:000c4ec0       LPX_FermeFenetre           00000001400c5ec0 f   ITP_AppelC.obj
 0001:000c4fb0       LPX_FermeFenetreUtilisateur 00000001400c5fb0 f   ITP_AppelC.obj
 0001:000c50e0       LPX_RequeteVersMemoire     00000001400c60e0 f   ITP_AppelC.obj
 0001:000c5180       LPX_NbMaxValeurMemoire     00000001400c6180 f   ITP_AppelC.obj
 0001:000c5280       LPX_IndexMaxMemoire        00000001400c6280 f   ITP_AppelC.obj
 0001:000c5380       LPX_EffaceMemoire          00000001400c6380 f   ITP_AppelC.obj
 0001:000c54b0       LPX_EffaceMemoireIndex     00000001400c64b0 f   ITP_AppelC.obj
 0001:000c5670       LPX_MemoireExiste          00000001400c6670 f   ITP_AppelC.obj
 0001:000c5800       LPX_MemoireReponseSQL      00000001400c6800 f   ITP_AppelC.obj
 0001:000c5980       LPX_AttenteSaisieTempo     00000001400c6980 f   ITP_AppelC.obj
 0001:000c5ab0       LPX_LitValAttenteSaisieTempo 00000001400c6ab0 f   ITP_AppelC.obj
 0001:000c5ab0       LPX_LitValAttenteTempo     00000001400c6ab0 f   ITP_AppelC.obj
 0001:000c5b60       LPX_QuartisMsgChemin       00000001400c6b60 f   ITP_AppelC.obj
 0001:000c5c70       LPX_QuartisMsgLitMessage   00000001400c6c70 f   ITP_AppelC.obj
 0001:000c5da0       LPX_QuartisMsgEnvoieMessage 00000001400c6da0 f   ITP_AppelC.obj
 0001:000c5f50       LPX_QuartisMsgNombreReponse 00000001400c6f50 f   ITP_AppelC.obj
 0001:000c6070       LPX_QuartisMsgLigne        00000001400c7070 f   ITP_AppelC.obj
 0001:000c6320       LPX_QuartisMsgFermeReponse 00000001400c7320 f   ITP_AppelC.obj
 0001:000c6450       LPX_EtatConnexion          00000001400c7450 f   ITP_AppelC.obj
 0001:000c6570       LPX_SoumissionOK           00000001400c7570 f   ITP_AppelC.obj
 0001:000c66f0       LPX_ReinitialiseConnexionBD 00000001400c76f0 f   ITP_AppelC.obj
 0001:000c6840       LPX_OuvreURL               00000001400c7840 f   ITP_AppelC.obj
 0001:000c6900       LPX_OuvreConsoleWeb        00000001400c7900 f   ITP_AppelC.obj
 0001:000c69c0       LPX_FermeConsoleWeb        00000001400c79c0 f   ITP_AppelC.obj
 0001:000c6a80       LPX_CalculDateSuivante     00000001400c7a80 f   ITP_AppelC.obj
 0001:000c6c00       LPX_AjouterTemps           00000001400c7c00 f   ITP_AppelC.obj
 0001:000c6d60       LPX_ExecuteSPC             00000001400c7d60 f   ITP_AppelC.obj
 0001:000c6eb0       LPX_OuvreSPC               00000001400c7eb0 f   ITP_AppelC.obj
 0001:000c7020       LPX_FermeSPC               00000001400c8020 f   ITP_AppelC.obj
 0001:000c7100       LPX_InitialiseFonctionsC   00000001400c8100 f   ITP_AppelC.obj
 0001:000c8180       P_LPX_CreeContexte         00000001400c9180 f   ITP_Defs.obj
 0001:000c8370       PlusReel                   00000001400c9370 f   ITP_Exec.obj
 0001:000c8400       PlusReelEntier             00000001400c9400 f   ITP_Exec.obj
 0001:000c8490       PlusEntierReel             00000001400c9490 f   ITP_Exec.obj
 0001:000c8520       PlusEntier                 00000001400c9520 f   ITP_Exec.obj
 0001:000c85a0       MoinsReel                  00000001400c95a0 f   ITP_Exec.obj
 0001:000c8630       MoinsReelEntier            00000001400c9630 f   ITP_Exec.obj
 0001:000c86c0       MoinsEntierReel            00000001400c96c0 f   ITP_Exec.obj
 0001:000c8750       MoinsEntier                00000001400c9750 f   ITP_Exec.obj
 0001:000c87e0       MultReel                   00000001400c97e0 f   ITP_Exec.obj
 0001:000c8870       MultReelEntier             00000001400c9870 f   ITP_Exec.obj
 0001:000c8900       MultEntierReel             00000001400c9900 f   ITP_Exec.obj
 0001:000c8990       MultEntier                 00000001400c9990 f   ITP_Exec.obj
 0001:000c8a20       DivReel                    00000001400c9a20 f   ITP_Exec.obj
 0001:000c8ae0       DivReelEntier              00000001400c9ae0 f   ITP_Exec.obj
 0001:000c8ba0       DivEntierReel              00000001400c9ba0 f   ITP_Exec.obj
 0001:000c8c60       DivEntier                  00000001400c9c60 f   ITP_Exec.obj
 0001:000c8d10       DivisionEntiere            00000001400c9d10 f   ITP_Exec.obj
 0001:000c8db0       CHSEntier                  00000001400c9db0 f   ITP_Exec.obj
 0001:000c8e10       CHSReel                    00000001400c9e10 f   ITP_Exec.obj
 0001:000c8e80       NonLogique                 00000001400c9e80 f   ITP_Exec.obj
 0001:000c8ef0       EtLogique                  00000001400c9ef0 f   ITP_Exec.obj
 0001:000c8f90       OuLogique                  00000001400c9f90 f   ITP_Exec.obj
 0001:000c9030       Modulo                     00000001400ca030 f   ITP_Exec.obj
 0001:000c90d0       InfReel                    00000001400ca0d0 f   ITP_Exec.obj
 0001:000c9160       InfEgReel                  00000001400ca160 f   ITP_Exec.obj
 0001:000c91f0       InfEntier                  00000001400ca1f0 f   ITP_Exec.obj
 0001:000c9280       InfEgEntier                00000001400ca280 f   ITP_Exec.obj
 0001:000c9310       SupReel                    00000001400ca310 f   ITP_Exec.obj
 0001:000c93a0       SupEgReel                  00000001400ca3a0 f   ITP_Exec.obj
 0001:000c9430       SupEntier                  00000001400ca430 f   ITP_Exec.obj
 0001:000c94c0       SupEgEntier                00000001400ca4c0 f   ITP_Exec.obj
 0001:000c9550       DebutAffectAdresseCalculee 00000001400ca550 f   ITP_Exec.obj
 0001:000c9550       DebutAffect                00000001400ca550 f   ITP_Exec.obj
 0001:000c9550       DebutAffectCarChaineAdresseCalculee 00000001400ca550 f   ITP_Exec.obj
 0001:000c95b0       FinAffect                  00000001400ca5b0 f   ITP_Exec.obj
 0001:000c9680       FinAffectLocale            00000001400ca680 f   ITP_Exec.obj
 0001:000c9720       AffectParametre            00000001400ca720 f   ITP_Exec.obj
 0001:000c9850       FinAffectAdresseCalculee   00000001400ca850 f   ITP_Exec.obj
 0001:000c9960       FinAffectLocaleAdresseCalculee 00000001400ca960 f   ITP_Exec.obj
 0001:000c9a50       AdaptationChaine           00000001400caa50 f   ITP_Exec.obj
 0001:000c9b40       DebutFOR                   00000001400cab40 f   ITP_Exec.obj
 0001:000c9b40       DebutAffectCarChaine       00000001400cab40 f   ITP_Exec.obj
 0001:000c9ba0       FinAffectCarChaine         00000001400caba0 f   ITP_Exec.obj
 0001:000c9c60       DebutAffectLocaleCarChaineAdresseCalculee 00000001400cac60 f   ITP_Exec.obj
 0001:000c9c60       DebutAffectLocaleAdresseCalculee 00000001400cac60 f   ITP_Exec.obj
 0001:000c9c60       DebutAffectLocaleCarChaine 00000001400cac60 f   ITP_Exec.obj
 0001:000c9c60       DebutIF                    00000001400cac60 f   ITP_Exec.obj
 0001:000c9c60       DebutAffectLocale          00000001400cac60 f   ITP_Exec.obj
 0001:000c9cc0       FinAffectLocaleCarChaine   00000001400cacc0 f   ITP_Exec.obj
 0001:000c9d60       FinAffectCarChaineAdresseCalculee 00000001400cad60 f   ITP_Exec.obj
 0001:000c9e40       FinAffectLocaleCarChaineAdresseCalculee 00000001400cae40 f   ITP_Exec.obj
 0001:000c9f00       DebutAffectCarAdresseCalculee 00000001400caf00 f   ITP_Exec.obj
 0001:000c9f50       FinAffectCarAdresseCalculee 00000001400caf50 f   ITP_Exec.obj
 0001:000ca030       FinAffectLocaleCarAdresseCalculee 00000001400cb030 f   ITP_Exec.obj
 0001:000ca0f0       Literal                    00000001400cb0f0 f   ITP_Exec.obj
 0001:000ca1c0       LiteralReel                00000001400cb1c0 f   ITP_Exec.obj
 0001:000ca1c0       LiteralEntier              00000001400cb1c0 f   ITP_Exec.obj
 0001:000ca230       InstructionSPC             00000001400cb230 f   ITP_Exec.obj
 0001:000ca2d0       Variable                   00000001400cb2d0 f   ITP_Exec.obj
 0001:000ca3e0       VariableLocale             00000001400cb3e0 f   ITP_Exec.obj
 0001:000ca4d0       VariableAdresseCalculee    00000001400cb4d0 f   ITP_Exec.obj
 0001:000ca610       VariableLocaleAdresseCalculee 00000001400cb610 f   ITP_Exec.obj
 0001:000ca730       ParametreAdresseCalculee   00000001400cb730 f   ITP_Exec.obj
 0001:000ca8b0       CarAdresseCalculee         00000001400cb8b0 f   ITP_Exec.obj
 0001:000ca970       CarLocalAdresseCalculee    00000001400cb970 f   ITP_Exec.obj
 0001:000caa10       ParametreCarAdresseCalculee 00000001400cba10 f   ITP_Exec.obj
 0001:000cab40       AppelSousProgramme         00000001400cbb40 f   ITP_Exec.obj
 0001:000cac00       DebutProgramme             00000001400cbc00 f   ITP_Exec.obj
 0001:000cad90       RetourSousProgramme        00000001400cbd90 f   ITP_Exec.obj
 0001:000cae10       AppelModule                00000001400cbe10 f   ITP_Exec.obj
 0001:000caf10       RetourModule               00000001400cbf10 f   ITP_Exec.obj
 0001:000caf50       FinIF                      00000001400cbf50 f   ITP_Exec.obj
 0001:000cb030       DebutELSIF                 00000001400cc030 f   ITP_Exec.obj
 0001:000cb0a0       FinELSIF                   00000001400cc0a0 f   ITP_Exec.obj
 0001:000cb130       InstructionELSE            00000001400cc130 f   ITP_Exec.obj
 0001:000cb190       InstructionENDIF           00000001400cc190 f   ITP_Exec.obj
 0001:000cb210       DebutAffectLocaleCarAdresseCalculee 00000001400cc210 f   ITP_Exec.obj
 0001:000cb210       InstructionREPEAT          00000001400cc210 f   ITP_Exec.obj
 0001:000cb210       InstructionLOOP            00000001400cc210 f   ITP_Exec.obj
 0001:000cb210       DebutWHILE                 00000001400cc210 f   ITP_Exec.obj
 0001:000cb260       InstructionENDLOOP         00000001400cc260 f   ITP_Exec.obj
 0001:000cb280       FinWHILE                   00000001400cc280 f   ITP_Exec.obj
 0001:000cb310       InstructionENDWHILE        00000001400cc310 f   ITP_Exec.obj
 0001:000cb330       FinREPEAT                  00000001400cc330 f   ITP_Exec.obj
 0001:000cb3b0       FinFOR                     00000001400cc3b0 f   ITP_Exec.obj
 0001:000cb530       InstructionENDFOR          00000001400cc530 f   ITP_Exec.obj
 0001:000cb6c0       InstructionEXIT            00000001400cc6c0 f   ITP_Exec.obj
 0001:000cb860       OperateurEgal              00000001400cc860 f   ITP_Exec.obj
 0001:000cb940       OperateurDifferent         00000001400cc940 f   ITP_Exec.obj
 0001:000cba20       InstructionENDEXPR         00000001400cca20 f   ITP_Exec.obj
 0001:000cbba0       LPX_AfficheEntier          00000001400ccba0 f   ITP_Exec.obj
 0001:000cbc50       LPX_AfficheReel            00000001400ccc50 f   ITP_Exec.obj
 0001:000cbd10       LPX_AfficheChaine          00000001400ccd10 f   ITP_Exec.obj
 0001:000cbd90       LPX_AfficheCar             00000001400ccd90 f   ITP_Exec.obj
 0001:000cbe40       PlusChaine                 00000001400cce40 f   ITP_Exec.obj
 0001:000cbf80       PlusCharChaine             00000001400ccf80 f   ITP_Exec.obj
 0001:000cc090       PlusChaineChar             00000001400cd090 f   ITP_Exec.obj
 0001:000cc1b0       PlusChar                   00000001400cd1b0 f   ITP_Exec.obj
 0001:000cc240       LPX_CompareChaines         00000001400cd240 f   ITP_Exec.obj
 0001:000cc2f0       OperateurInfEgChaine       00000001400cd2f0 f   ITP_Exec.obj
 0001:000cc330       OperateurInfChaine         00000001400cd330 f   ITP_Exec.obj
 0001:000cc370       OperateurSupEgChaine       00000001400cd370 f   ITP_Exec.obj
 0001:000cc3b0       OperateurSupChaine         00000001400cd3b0 f   ITP_Exec.obj
 0001:000cc3f0       OperateurEgChaine          00000001400cd3f0 f   ITP_Exec.obj
 0001:000cc430       OperateurDiffChaine        00000001400cd430 f   ITP_Exec.obj
 0001:000cc470       VerifieContrainteIntervalle 00000001400cd470 f   ITP_Exec.obj
 0001:000cc4d0       VerifieIndiceChaine        00000001400cd4d0 f   ITP_Exec.obj
 0001:000cc510       LPX_Stop                   00000001400cd510 f   ITP_Exec.obj
 0001:000cc5d0       LPX_Initialisation         00000001400cd5d0 f   ITP_Exec.obj
 0001:000ccae0       LPX_ChangeTailleMemoire    00000001400cdae0 f   ITP_Memoire.obj
 0001:000cccd0       LPX_CreeEnvironnement      00000001400cdcd0 f   ITP_Memoire.obj
 0001:000ccde0       LPX_ExtensionDonnees       00000001400cdde0 f   ITP_Memoire.obj
 0001:000cce60       LPX_ExtensionControle      00000001400cde60 f   ITP_Memoire.obj
 0001:000ccf00       LPX_CreeEnvironnementVerif 00000001400cdf00 f   ITP_Memoire.obj
 0001:000ccf70       ?osysPrintf@@YAXPEADZZ     00000001400cdf70 f i ListDonnees.obj
 0001:000ccf70       ?osysPrintf@@YAXPEBDZZ     00000001400cdf70 f i ServeurArchive.obj
 0001:000ccf90       ??1CDonneeLPX@@UEAA@XZ     00000001400cdf90 f   ListDonnees.obj
 0001:000ccfa0       ??1CListDonneesLPX@@QEAA@XZ 00000001400cdfa0 f   ListDonnees.obj
 0001:000cd020       ?EffaceListe@CListDonneesLPX@@QEAAXXZ 00000001400ce020 f   ListDonnees.obj
 0001:000cd150       ?EffaceUneDonnees@CListDonneesLPX@@QEAAHH@Z 00000001400ce150 f   ListDonnees.obj
 0001:000cd1c0       ?RemplaceUneDonnee@CListDonneesLPX@@QEAAPEAVCDonneeLPX@@HPEAV2@@Z 00000001400ce1c0 f   ListDonnees.obj
 0001:000cd250       ??_GCListVerrou@@UEAAPEAXI@Z 00000001400ce250 f i ListVerrou.obj
 0001:000cd250       ??_ECListVerrou@@UEAAPEAXI@Z 00000001400ce250 f i  CIL library: CIL module
 0001:000cd2b0       ??1CListVerrou@@UEAA@XZ    00000001400ce2b0 f   ListVerrou.obj
 0001:000cd2f0       ?Recherche@CListVerrou@@QEAAPEAVCVerrou@@PEAD@Z 00000001400ce2f0 f   ListVerrou.obj
 0001:000cd370       ?Ajoute@CListVerrou@@QEAAPEAVCVerrou@@PEAD@Z 00000001400ce370 f   ListVerrou.obj
 0001:000cd420       ?SupprimeTout@CListVerrou@@QEAAXXZ 00000001400ce420 f   ListVerrou.obj
 0001:000cd690       ??_GCVerrou@@UEAAPEAXI@Z   00000001400ce690 f i ListVerrou.obj
 0001:000cd690       ??_ECVerrou@@UEAAPEAXI@Z   00000001400ce690 f i  CIL library: CIL module
 0001:000cd6f0       ?LitMemoireSysteme@CMemSysteme@@SAXPEAUt_infoContexte@@AEAVCString@@PEA_JHHH@Z 00000001400ce6f0 f   MemSysteme.obj
 0001:000cdd00       ?EcritMemoireSysteme@CMemSysteme@@SAHPEAUt_infoContexte@@PEAD_JHHHH@Z 00000001400ced00 f   MemSysteme.obj
 0001:000cdfd0       ?RendNomTypeDonnee@CMemXmlLPX@@UEAAPEADXZ 00000001400cefd0 f i MemXmlLPX.obj
 0001:000cdfe0       ??_GCMemXmlLPX@@UEAAPEAXI@Z 00000001400cefe0 f i MemXmlLPX.obj
 0001:000cdfe0       ??_ECMemXmlLPX@@UEAAPEAXI@Z 00000001400cefe0 f i  CIL library: CIL module
 0001:000ce010       ??1CMemXmlLPX@@UEAA@XZ     00000001400cf010 f   MemXmlLPX.obj
 0001:000ce080       ??0CScenarioEnCours@@QEAA@XZ 00000001400cf080 f   ScenarioEnCours.obj
 0001:000ce2e0       ??_ECScenarioEnCours@@UEAAPEAXI@Z 00000001400cf2e0 f i  CIL library: CIL module
 0001:000ce2e0       ??_GCScenarioEnCours@@UEAAPEAXI@Z 00000001400cf2e0 f i ScenarioEnCours.obj
 0001:000ce310       ??1CScenarioEnCours@@UEAA@XZ 00000001400cf310 f   ScenarioEnCours.obj
 0001:000ce510       strptime                   00000001400cf510 f   strpctime.obj
 0001:000cefd0       ??_GCVerrouLPX@@UEAAPEAXI@Z 00000001400cffd0 f i VerrouLPX.obj
 0001:000cefd0       ??_ECVerrouLPX@@UEAAPEAXI@Z 00000001400cffd0 f i  CIL library: CIL module
 0001:000cf000       ??1CVerrouLPX@@UEAA@XZ     00000001400d0000 f   VerrouLPX.obj
 0001:000cf0b0       ??_GCScenarioAttente@@UEAAPEAXI@Z 00000001400d00b0 f i ScenarioAttente.obj
 0001:000cf0b0       ??_ECScenarioAttente@@UEAAPEAXI@Z 00000001400d00b0 f i  CIL library: CIL module
 0001:000cf0e0       ??1CScenarioAttente@@UEAA@XZ 00000001400d00e0 f   ScenarioAttente.obj
 0001:000cf0f0       ??_ECCmdShell@@UEAAPEAXI@Z 00000001400d00f0 f i  CIL library: CIL module
 0001:000cf0f0       ??_GCCmdShell@@UEAAPEAXI@Z 00000001400d00f0 f i CmdShell.obj
 0001:000cf120       ??1CCmdShell@@UEAA@XZ      00000001400d0120 f   CmdShell.obj
 0001:000cf1a0       ??0CGestCmdShell@@QEAA@XZ  00000001400d01a0 f   GestCmdShell.obj
 0001:000cf250       ??_ECGestCmdShell@@UEAAPEAXI@Z 00000001400d0250 f i  CIL library: CIL module
 0001:000cf250       ??_GCGestCmdShell@@UEAAPEAXI@Z 00000001400d0250 f i GestCmdShell.obj
 0001:000cf280       ??1CGestCmdShell@@UEAA@XZ  00000001400d0280 f   GestCmdShell.obj
 0001:000cf340       ?InitRepShell@CGestCmdShell@@IEAAXXZ 00000001400d0340 f   GestCmdShell.obj
 0001:000cf480       ?Creer@CGestCmdShell@@UEAAHXZ 00000001400d0480 f   GestCmdShell.obj
 0001:000cf4f0       ?Boucle@CGestCmdShell@@UEAAHXZ 00000001400d04f0 f   GestCmdShell.obj
 0001:000cffc0       ?ReveilScenarioLPX@CGestCmdShell@@IEAAXHH@Z 00000001400d0fc0 f   GestCmdShell.obj
 0001:000d0070       ?SupprimeCmdShell@CGestCmdShell@@QEAAXH@Z 00000001400d1070 f   GestCmdShell.obj
 0001:000d00f0       ??_ECListeCmdShell@@UEAAPEAXI@Z 00000001400d10f0 f i  CIL library: CIL module
 0001:000d00f0       ??_GCListeCmdShell@@UEAAPEAXI@Z 00000001400d10f0 f i ListeCmdShell.obj
 0001:000d0120       ??1CListeCmdShell@@UEAA@XZ 00000001400d1120 f   ListeCmdShell.obj
 0001:000d01a0       ?SupprimeCmdShell@CListeCmdShell@@QEAAHH@Z 00000001400d11a0 f   ListeCmdShell.obj
 0001:000d0250       ??_GCSuppScenAttente@@UEAAPEAXI@Z 00000001400d1250 f i SuppScenAttente.obj
 0001:000d0250       ??_ECSuppScenAttente@@UEAAPEAXI@Z 00000001400d1250 f i  CIL library: CIL module
 0001:000d02a0       ??1CSuppScenAttente@@UEAA@XZ 00000001400d12a0 f   SuppScenAttente.obj
 0001:000d02d0       ?Creer@CSuppScenAttente@@UEAAHXZ 00000001400d12d0 f   SuppScenAttente.obj
 0001:000d0340       ?Boucle@CSuppScenAttente@@UEAAHXZ 00000001400d1340 f   SuppScenAttente.obj
 0001:000d04e0       ?TraitementScenCours@CSuppScenAttente@@IEAAXPEAVCDescEnCours@@@Z 00000001400d14e0 f   SuppScenAttente.obj
 0001:000d05d0       ?TestDelaiDepasse@CSuppScenAttente@@IEAAXPEAVCDescEnCours@@H@Z 00000001400d15d0 f   SuppScenAttente.obj
 0001:000d0710       ?EcritTraceScenSupp@CSuppScenAttente@@IEAAXPEAVCDescEnCours@@@Z 00000001400d1710 f   SuppScenAttente.obj
 0001:000d08f0       ??_GCClientMemoire@@UEAAPEAXI@Z 00000001400d18f0 f i ClientMemoire.obj
 0001:000d08f0       ??_ECClientMemoire@@UEAAPEAXI@Z 00000001400d18f0 f i  CIL library: CIL module
 0001:000d0920       ??1CClientMemoire@@UEAA@XZ 00000001400d1920 f   ClientMemoire.obj
 0001:000d09c0       ?ChercheValMem@CClientMemoire@@QEAAPEAVCValMemoire@@HH@Z 00000001400d19c0 f   ClientMemoire.obj
 0001:000d0a60       ?Supprime@CClientMemoire@@QEAAXHH@Z 00000001400d1a60 f   ClientMemoire.obj
 0001:000d0b10       ?SupprimeMemoire@CClientMemoire@@QEAAXH@Z 00000001400d1b10 f   ClientMemoire.obj
 0001:000d0ca0       ?SupprimeTout@CClientMemoire@@QEAAXXZ 00000001400d1ca0 f   ClientMemoire.obj
 0001:000d0e40       ?ReceptionDeclarationUtilisateur@CClientMemoire@@AEAAXXZ 00000001400d1e40 f   ClientMemoire.obj
 0001:000d1190       ?BoucleDAttente@CClientMemoire@@UEAAXXZ 00000001400d2190 f   ClientMemoire.obj
 0001:000d2050       ?Envoi@CClientMemoire@@QEAAXAEAVCString@@@Z 00000001400d3050 f   ClientMemoire.obj
 0001:000d20f0       ?ReceptionDemandeInfoAuto@CClientMemoire@@AEAAXXZ 00000001400d30f0 f   ClientMemoire.obj
 0001:000d2b00       ?ReceptionDemandeInfoAutoNomMem@CClientMemoire@@AEAAXXZ 00000001400d3b00 f   ClientMemoire.obj
 0001:000d3370       ?ReceptionSuppressionInfoAuto@CClientMemoire@@AEAAXXZ 00000001400d4370 f   ClientMemoire.obj
 0001:000d37a0       ?ReceptionSuppressionInfoAutoNomMem@CClientMemoire@@AEAAXXZ 00000001400d47a0 f   ClientMemoire.obj
 0001:000d3db0       ?ReceptionLectureContenu@CClientMemoire@@AEAAXXZ 00000001400d4db0 f   ClientMemoire.obj
 0001:000d4320       ?ReceptionEcritureContenu@CClientMemoire@@AEAAXXZ 00000001400d5320 f   ClientMemoire.obj
 0001:000d4930       ?ReceptionLectureContenuBase@CClientMemoire@@AEAAXXZ 00000001400d5930 f   ClientMemoire.obj
 0001:000d4ec0       ?ReceptionEcritureContenuBase@CClientMemoire@@AEAAXXZ 00000001400d5ec0 f   ClientMemoire.obj
 0001:000d5490       ?ReceptionOperation@CClientMemoire@@AEAAXXZ 00000001400d6490 f   ClientMemoire.obj
 0001:000d5840       ?ReceptionListeOperation@CClientMemoire@@AEAAXXZ 00000001400d6840 f   ClientMemoire.obj
 0001:000d5a20       ?ReceptionListeTest@CClientMemoire@@AEAAXXZ 00000001400d6a20 f   ClientMemoire.obj
 0001:000d5c00       ?ReceptionTest@CClientMemoire@@AEAAXXZ 00000001400d6c00 f   ClientMemoire.obj
 0001:000d6050       ?ReceptionDemandeEnregistrement@CClientMemoire@@AEAAXXZ 00000001400d7050 f   ClientMemoire.obj
 0001:000d6400       ?ReceptionEffaceMemoire@CClientMemoire@@AEAAXXZ 00000001400d7400 f   ClientMemoire.obj
 0001:000d6920       ?ReceptionEffaceMemoireIndex@CClientMemoire@@AEAAXXZ 00000001400d7920 f   ClientMemoire.obj
 0001:000d6e20       ?ReceptionDemandeIndexMax@CClientMemoire@@AEAAXXZ 00000001400d7e20 f   ClientMemoire.obj
 0001:000d7280       ?ReceptionDmdInfoAutoAll@CClientMemoire@@AEAAXXZ 00000001400d8280 f   ClientMemoire.obj
 0001:000d7330       ?MajListeValMem@CClientMemoire@@QEAAHPEAVCValMemoire@@@Z 00000001400d8330 f   ClientMemoire.obj
 0001:000d7410       ??0CContenu@@QEAA@XZ       00000001400d8410 f   Contenu.obj
 0001:000d7490       ?Ecrit@CContenu@@QEAAXAEAVCString@@_J@Z 00000001400d8490 f   Contenu.obj
 0001:000d7500       ?Clone@CContenu@@QEAAPEAV1@XZ 00000001400d8500 f   Contenu.obj
 0001:000d7580       ?LitArchive@CContenu@@QEAAXAEAVCInputArchive@@@Z 00000001400d8580 f   Contenu.obj
 0001:000d7680       ?EcritArchive@CContenu@@QEAAXAEAVCOutputArchive@@@Z 00000001400d8680 f   Contenu.obj
 0001:000d7750       ??_ECListContenu@@UEAAPEAXI@Z 00000001400d8750 f i  CIL library: CIL module
 0001:000d7750       ??_GCListContenu@@UEAAPEAXI@Z 00000001400d8750 f i Contenu.obj
 0001:000d7790       ??1CListContenu@@UEAA@XZ   00000001400d8790 f   Contenu.obj
 0001:000d77b0       ?SauveValeurModifieeEnArchive@CListContenu@@UEAAXAEAVCOutputArchive@@@Z 00000001400d87b0 f   Contenu.obj
 0001:000d7910       ??_GCContenu@@QEAAPEAXI@Z  00000001400d8910 f i Contenu.obj
 0001:000d7960       ?SauveValeurSupprimerEnArchive@CListContenu@@UEAAXAEAVCOutputArchive@@@Z 00000001400d8960 f   Contenu.obj
 0001:000d7a20       ??0CRamMemoire@@QEAA@HH@Z  00000001400d8a20 f   Contenu.obj
 0001:000d7ac0       ??_GCRamMemoire@@UEAAPEAXI@Z 00000001400d8ac0 f i Contenu.obj
 0001:000d7ac0       ??_ECRamMemoire@@UEAAPEAXI@Z 00000001400d8ac0 f i  CIL library: CIL module
 0001:000d7af0       ??0CRamMemoire@@QEAA@XZ    00000001400d8af0 f   Contenu.obj
 0001:000d7b70       ??1CRamMemoire@@UEAA@XZ    00000001400d8b70 f   Contenu.obj
 0001:000d7c20       ?InitNumero@CRamMemoire@@UEAAXHH@Z 00000001400d8c20 f   Contenu.obj
 0001:000d7d00       ?LitMaxIndexMemoire@CRamMemoire@@UEAAHXZ 00000001400d8d00 f   Contenu.obj
 0001:000d7d40       ?TestModifDefMemoire@CRamMemoire@@QEAAXXZ 00000001400d8d40 f   Contenu.obj
 0001:000d7e30       ?LitContenu@CRamMemoire@@UEAAPEAVCContenu@@H@Z 00000001400d8e30 f   Contenu.obj
 0001:000d7f00       ?EcritContenu@CRamMemoire@@UEAAXPEAVCContenu@@H@Z 00000001400d8f00 f   Contenu.obj
 0001:000d8090       ?SupprimeContenu@CRamMemoire@@UEAAXH@Z 00000001400d9090 f   Contenu.obj
 0001:000d8150       ?Clone@CRamMemoire@@UEAAXPEAVCListContenu@@@Z 00000001400d9150 f   Contenu.obj
 0001:000d8350       ?SupprimeTout@CRamMemoire@@UEAAXXZ 00000001400d9350 f   Contenu.obj
 0001:000d84d0       ?EcritArchive@CTypeArchiveMemoire@@UEAAXAEAVCOutputArchive@@@Z 00000001400d94d0 f   Contenu.obj
 0001:000d84d0       ?EcritArchive@CRamMemoire@@UEAAXAEAVCOutputArchive@@@Z 00000001400d94d0 f   Contenu.obj
 0001:000d84e0       ?SauveEnArchive@CRamMemoire@@UEAAXAEAVCOutputArchive@@@Z 00000001400d94e0 f   Contenu.obj
 0001:000d8820       ?RestoreArchive@CRamMemoire@@UEAAXAEAVCInputArchive@@@Z 00000001400d9820 f   Contenu.obj
 0001:000d8b90       ??0CTypeArchiveMemoire@@QEAA@HH@Z 00000001400d9b90 f   Contenu.obj
 0001:000d8c80       ??_GCTypeArchiveMemoire@@UEAAPEAXI@Z 00000001400d9c80 f i Contenu.obj
 0001:000d8c80       ??_ECTypeArchiveMemoire@@UEAAPEAXI@Z 00000001400d9c80 f i  CIL library: CIL module
 0001:000d8cb0       ??1CTypeArchiveMemoire@@UEAA@XZ 00000001400d9cb0 f   Contenu.obj
 0001:000d8d50       ?LitMaxIndexMemoire@CTypeArchiveMemoire@@UEAAHXZ 00000001400d9d50 f   Contenu.obj
 0001:000d8d60       ?InitNumero@CTypeArchiveMemoire@@UEAAXHH@Z 00000001400d9d60 f   Contenu.obj
 0001:000d8d70       ?LitContenu@CTypeArchiveMemoire@@UEAAPEAVCContenu@@H@Z 00000001400d9d70 f   Contenu.obj
 0001:000d8fc0       ?EcritContenu@CTypeArchiveMemoire@@UEAAXPEAVCContenu@@H@Z 00000001400d9fc0 f   Contenu.obj
 0001:000d9470       ?Clone@CTypeArchiveMemoire@@UEAAXPEAVCListContenu@@@Z 00000001400da470 f   Contenu.obj
 0001:000d97d0       ?SupprimeTout@CTypeArchiveMemoire@@UEAAXXZ 00000001400da7d0 f   Contenu.obj
 0001:000d9a10       ?LitArchive@CTypeArchiveMemoire@@UEAAXAEAVCInputArchive@@@Z 00000001400daa10 f   Contenu.obj
 0001:000d9a10       ?LitArchive@CRamMemoire@@UEAAXAEAVCInputArchive@@@Z 00000001400daa10 f   Contenu.obj
 0001:000d9a20       ?SauveEnArchive@CTypeArchiveMemoire@@UEAAXAEAVCOutputArchive@@@Z 00000001400daa20 f   Contenu.obj
 0001:000da070       ?RestoreArchive@CTypeArchiveMemoire@@UEAAXAEAVCInputArchive@@@Z 00000001400db070 f   Contenu.obj
 0001:000da3e0       ?AjouteProprieteDansValeur@CTypeArchiveMemoire@@QEAAXPEAVCContenu@@VCString@@@Z 00000001400db3e0 f   Contenu.obj
 0001:000da540       ?SauveValeurModifieeEnArchive@CTypeArchiveMemoire@@UEAAXAEAVCOutputArchive@@@Z 00000001400db540 f   Contenu.obj
 0001:000da760       ?DecodeDateHeure@CDecodeType@@AEAAHVCString@@PEAHPEAN@Z 00000001400db760 f   DecodeType.obj
 0001:000da900       ?DecodeDuree@CDecodeType@@AEAAHVCString@@PEAHPEAN@Z 00000001400db900 f   DecodeType.obj
 0001:000daa10       ?DecodeType@CDecodeType@@QEAAHVCString@@HPEAHPEAN@Z 00000001400dba10 f   DecodeType.obj
 0001:000dac90       ?CodeType@CDecodeType@@QEAAHPEAVCString@@HH@Z 00000001400dbc90 f   DecodeType.obj
 0001:000daf20       ?CodeType@CDecodeType@@QEAAHPEAVCString@@H_J@Z 00000001400dbf20 f   DecodeType.obj
 0001:000db150       ?CodeType@CDecodeType@@QEAAHPEAVCString@@HN@Z 00000001400dc150 f   DecodeType.obj
 0001:000db1f0       ?StockageEnFichier@CFichierMemoire@@UEAAHXZ 00000001400dc1f0 f i FichierMemoire.obj
 0001:000db200       ??0CFichierMemoire@@QEAA@HH@Z 00000001400dc200 f   FichierMemoire.obj
 0001:000db290       ??_ECFichierMemoire@@UEAAPEAXI@Z 00000001400dc290 f i  CIL library: CIL module
 0001:000db290       ??_GCFichierMemoire@@UEAAPEAXI@Z 00000001400dc290 f i FichierMemoire.obj
 0001:000db2c0       ??1CFichierMemoire@@UEAA@XZ 00000001400dc2c0 f   FichierMemoire.obj
 0001:000db330       ?InitNumero@CFichierMemoire@@UEAAXHH@Z 00000001400dc330 f   FichierMemoire.obj
 0001:000db600       ?LitContenu@CFichierMemoire@@UEAAPEAVCContenu@@H@Z 00000001400dc600 f   FichierMemoire.obj
 0001:000db750       ?EcritContenu@CFichierMemoire@@UEAAXPEAVCContenu@@H@Z 00000001400dc750 f   FichierMemoire.obj
 0001:000db970       ?Clone@CFichierMemoire@@UEAAXPEAVCListContenu@@@Z 00000001400dc970 f   FichierMemoire.obj
 0001:000dbad0       ?SupprimeTout@CFichierMemoire@@UEAAXXZ 00000001400dcad0 f   FichierMemoire.obj
 0001:000dbb40       ?LitArchive@CFichierMemoire@@UEAAXAEAVCInputArchive@@@Z 00000001400dcb40 f   FichierMemoire.obj
 0001:000dbdc0       ?SauveEnArchive@CFichierMemoire@@UEAAXAEAVCOutputArchive@@@Z 00000001400dcdc0 f   FichierMemoire.obj
 0001:000dc120       ?RestoreArchive@CFichierMemoire@@UEAAXAEAVCInputArchive@@@Z 00000001400dd120 f   FichierMemoire.obj
 0001:000dc490       ?TestModifDefMemoire@CFichierMemoire@@QEAAXXZ 00000001400dd490 f   FichierMemoire.obj
 0001:000dc5c0       ?LitEnTeteFichier@CFichierMemoire@@IEAAHXZ 00000001400dd5c0 f   FichierMemoire.obj
 0001:000dc640       ?EcritEnTeteFichier@CFichierMemoire@@IEAAHXZ 00000001400dd640 f   FichierMemoire.obj
 0001:000dc6c0       ?LitEnregistrement@CFichierMemoire@@IEAAHHAEAVCString@@PEA_J@Z 00000001400dd6c0 f   FichierMemoire.obj
 0001:000dc800       ?EcritEnregistrement@CFichierMemoire@@IEAAHHVCString@@_J@Z 00000001400dd800 f   FichierMemoire.obj
 0001:000dc9a0       ?CreationFichier@CFichierMemoire@@IEAAHXZ 00000001400dd9a0 f   FichierMemoire.obj
 0001:000dcb80       ??_ECGroupeMemoire@@UEAAPEAXI@Z 00000001400ddb80 f i  CIL library: CIL module
 0001:000dcb80       ??_GCGroupeMemoire@@UEAAPEAXI@Z 00000001400ddb80 f i GoupeMemoire.obj
 0001:000dcbc0       ?NewElement@CGroupeMemoire@@UEAAPEAVCElement@@HH@Z 00000001400ddbc0 f   GoupeMemoire.obj
 0001:000dcc70       ?MiseAJourArchive@CGroupeMemoire@@UEAAXXZ 00000001400ddc70 f   GoupeMemoire.obj
 0001:000dccb0       ?CreateMemSysteme@CGroupeMemoire@@QEAAXXZ 00000001400ddcb0 f   GoupeMemoire.obj
 0001:000dd470       ?AjouteNouvelleMem@CGroupeMemoire@@IEAAXPEAVCMemoire@@HHPEAD@Z 00000001400de470 f   GoupeMemoire.obj
 0001:000dd5c0       ?LitNomGroupe@CGroupeMemoire@@UEAAXAEAVCString@@PEAD@Z 00000001400de5c0 f   GoupeMemoire.obj
 0001:000dd720       ?EcritNomGrpArchive@CGroupeMemoire@@UEAAHAEAVCOutputArchive@@@Z 00000001400de720 f   GoupeMemoire.obj
 0001:000dd720       ?EcritNomGrpArchive@CGroupeFicLPX@@UEAAHAEAVCOutputArchive@@@Z 00000001400de720 f   GroupeFicLPX.obj
 0001:000dd850       ?LitListeElement@CGroupeMemoire@@UEAAXAEAVCOutputArchive@@HHPEAD@Z 00000001400de850 f   GoupeMemoire.obj
 0001:000ddb30       ?AjoutModifGrpElementConsoleWeb@CGroupeMemoire@@UEAAXH@Z 00000001400deb30 f   GoupeMemoire.obj
 0001:000ddb70       ?AjouteElement@CGroupeMemoire@@UEAAHAEAVCInputArchive@@PEAD1HH1@Z 00000001400deb70 f   GoupeMemoire.obj
 0001:000ddbd0       ?EcritElement@CGroupeMemoire@@UEAAHAEAVCInputArchive@@HHHH@Z 00000001400debd0 f   GoupeMemoire.obj
 0001:000ddc30       ?SupprimeElement@CGroupeMemoire@@UEAAHAEAVCOutputArchive@@HHH@Z 00000001400dec30 f   GoupeMemoire.obj
 0001:000ddc80       ?SuppElementConsoleWeb@CGroupeMemoire@@UEAAXH@Z 00000001400dec80 f   GoupeMemoire.obj
 0001:000ddcc0       ?LitBaliseSuppElement@CGroupeMemoire@@UEAAXAEAVCFicXML@@H@Z 00000001400decc0 f   GoupeMemoire.obj
 0001:000ddcd0       ?SupprimeClient@CListClientMemoire@@QEAAXPEAVCClientMemoire@@@Z 00000001400decd0 f   ListClientMem.obj
 0001:000dddb0       ?EnvoiClient@CListClientMemoire@@QEAAXAEAVCString@@@Z 00000001400dedb0 f   ListClientMem.obj
 0001:000dde00       ??0CListeGroupeMemoire@@QEAA@HPEAD0@Z 00000001400dee00 f   ListeGroupeMemoire.obj
 0001:000dde90       ??_ECListeGroupeMemoire@@UEAAPEAXI@Z 00000001400dee90 f i  CIL library: CIL module
 0001:000dde90       ??_GCListeGroupeMemoire@@UEAAPEAXI@Z 00000001400dee90 f i ListeGroupeMemoire.obj
 0001:000dded0       ?NewGroupe@CListeGroupeMemoire@@UEAAPEAVCGroupe@@PEAVCListeGroupe@@HH@Z 00000001400deed0 f   ListeGroupeMemoire.obj
 0001:000ddf50       ?CreateGroupe1@CListeGroupeMemoire@@QEAAXXZ 00000001400def50 f   ListeGroupeMemoire.obj
 0001:000de090       ?SupprimeGroupe@CListeGroupeMemoire@@UEAAHHHH@Z 00000001400df090 f   ListeGroupeMemoire.obj
 0001:000de310       ?EcritGroupe@CListeGroupeMemoire@@UEAAHPEADHHH0@Z 00000001400df310 f   ListeGroupeMemoire.obj
 0001:000de450       ?SupprimeElement@CListeGroupeMemoire@@UEAAHAEAVCOutputArchive@@HHH@Z 00000001400df450 f   ListeGroupeMemoire.obj
 0001:000de5f0       ?EcritElement@CListeGroupeMemoire@@UEAAHAEAVCInputArchive@@HHHH@Z 00000001400df5f0 f   ListeGroupeMemoire.obj
 0001:000de730       ?AjouteElement@CListeGroupeMemoire@@UEAAHAEAVCInputArchive@@PEADH1HH1@Z 00000001400df730 f   ListeGroupeMemoire.obj
 0001:000de7c0       ?RechercheMemoire@CListeGroupeMemoire@@QEAAPEAVCMemoire@@H@Z 00000001400df7c0 f   ListeGroupeMemoire.obj
 0001:000de800       ?AjouteGroupe@CListeGroupeMemoire@@UEAAHPEADHH0H@Z 00000001400df800 f   ListeGroupeMemoire.obj
 0001:000de880       ?RechercheMemSystem@CListeGroupeMemoire@@QEAAPEAVCMemoire@@PEADH@Z 00000001400df880 f   ListeGroupeMemoire.obj
 0001:000de980       ?ReceptionDmdInfoAutoAll@CListeGroupeMemoire@@QEAAXHPEAVCClientMemoire@@HH@Z 00000001400df980 f   ListeGroupeMemoire.obj
 0001:000df380       ?InitMemoire@CMemoire@@QEAAXXZ 00000001400e0380 f   Memoire.obj
 0001:000df460       ??_ECMemoire@@UEAAPEAXI@Z  00000001400e0460 f i  CIL library: CIL module
 0001:000df460       ??_GCMemoire@@UEAAPEAXI@Z  00000001400e0460 f i Memoire.obj
 0001:000df490       ??1CMemoire@@UEAA@XZ       00000001400e0490 f   Memoire.obj
 0001:000df530       ?EcritArchive@CMemoire@@UEAAXAEAVCOutputArchive@@PEADH@Z 00000001400e0530 f   Memoire.obj
 0001:000dfd80       ?LitArchive@CMemoire@@UEAAHAEAVCInputArchive@@H@Z 00000001400e0d80 f   Memoire.obj
 0001:000e0aa0       ?UtiliseId@CMemoire@@UEAAHHAEAVCOutputArchive@@PEAD@Z 00000001400e1aa0 f   Memoire.obj
 0001:000e0cf0       ?LitNomElement@CMemoire@@UEAAXAEAVCString@@PEAD@Z 00000001400e1cf0 f   Memoire.obj
 0001:000e0e50       ?LitIdNomMemSyst@CMemoire@@IEAAHH@Z 00000001400e1e50 f   Memoire.obj
 0001:000e0f70       ?LitBaliseElement@CMemoire@@UEAAXAEAVCFicXML@@@Z 00000001400e1f70 f   Memoire.obj
 0001:000e1130       ??1CListeValeur@@QEAA@XZ   00000001400e2130 f   OperationMemoire.obj
 0001:000e11a0       ?EffaceListe@CListeValeur@@QEAAXXZ 00000001400e21a0 f   OperationMemoire.obj
 0001:000e1220       ?Valeur@CListeValeur@@QEAA?AVCString@@H@Z 00000001400e2220 f   OperationMemoire.obj
 0001:000e12a0       ?AjouteElement@CListeValeur@@QEAAHVCString@@H@Z 00000001400e22a0 f   OperationMemoire.obj
 0001:000e2a50       ??0COperationMemoire@@QEAA@XZ 00000001400e3a50 f   OperationMemoire.obj
 0001:000e2b60       ?AffectationMemoire@COperationMemoire@@QEAAHHVCString@@HH@Z 00000001400e3b60 f   OperationMemoire.obj
 0001:000e2dd0       ?DecodeOperation@COperationMemoire@@QEAAPEAUt_defOperation@@AEAVCInputArchive@@@Z 00000001400e3dd0 f   OperationMemoire.obj
 0001:000e2f10       ?Calcul@COperationMemoire@@QEAAHHAEAVCInputArchive@@@Z 00000001400e3f10 f   OperationMemoire.obj
 0001:000e2fa0       ?Calcul@COperationMemoire@@QEAAHHAEAVCInputArchive@@AEAVCString@@@Z 00000001400e3fa0 f   OperationMemoire.obj
 0001:000e3a60       ??1CBaseSocket@@QEAA@XZ    00000001400e4a60 f i ServeurArchive.obj
 0001:000e3a60       ??1CString@@QEAA@XZ        00000001400e4a60 f i CString.obj
 0001:000e3a60       ??1t_listeResuTemp@?1??Calcul@COperationMemoire@@QEAAHHAEAVCInputArchive@@AEAVCString@@@Z@QEAA@XZ 00000001400e4a60 f i OperationMemoire.obj
 0001:000e3a60       ??1CTexte@@QEAA@XZ         00000001400e4a60 f i ActionOpMem.obj
 0001:000e3a90       ?GetListOperation@COperationMemoire@@QEAAXAEAVCOutputArchive@@PEAD@Z 00000001400e4a90 f   OperationMemoire.obj
 0001:000e3bf0       ?NewClient@CServeurMemoire@@UEAAPEAVCSocketServeurArchive@@XZ 00000001400e4bf0 f   ServeurMemoire.obj
 0001:000e4e70       ??0CTestMemoire@@QEAA@XZ   00000001400e5e70 f   TestMemoire.obj
 0001:000e4f80       ?DecodeTest@CTestMemoire@@QEAAPEAUt_defTest@@AEAVCInputArchive@@@Z 00000001400e5f80 f   TestMemoire.obj
 0001:000e50d0       ?Test@CTestMemoire@@QEAAHHAEAVCInputArchive@@@Z 00000001400e60d0 f   TestMemoire.obj
 0001:000e58f0       ?LitListeParametre@COperationMemoire@@QEAAHAEAVCInputArchive@@HPEAVCListeValeur@@H@Z 00000001400e68f0 f   OperationMemoire.obj
 0001:000e58f0       ?LitListeParametre@CTestMemoire@@QEAAHAEAVCInputArchive@@HPEAVCListeValeur@@H@Z 00000001400e68f0 f   TestMemoire.obj
 0001:000e5d30       ?GetListTest@CTestMemoire@@QEAAXAEAVCOutputArchive@@PEAD@Z 00000001400e6d30 f   TestMemoire.obj
 0001:000e5e90       ??0CValMemoire@@QEAA@HHHHHHPEAD@Z 00000001400e6e90 f   ValMemoire.obj
 0001:000e5fd0       ??1CPtrList@@QEAA@XZ       00000001400e6fd0 f i PtrList.obj
 0001:000e5fd0       ??1CListClientMemoire@@QEAA@XZ 00000001400e6fd0 f i ValMemoire.obj
 0001:000e6030       ??1CValMemoire@@QEAA@XZ    00000001400e7030 f   ValMemoire.obj
 0001:000e60e0       ?LitUneMemoire@CValMemoire@@QEAAXAEAVCString@@PEA_JH@Z 00000001400e70e0 f   ValMemoire.obj
 0001:000e61b0       ?EcritUneMemoire@CValMemoire@@QEAAXPEAD_JHH@Z 00000001400e71b0 f   ValMemoire.obj
 0001:000e6540       ?EcritMemoire@CValMemoire@@QEAAXPEADH@Z 00000001400e7540 f   ValMemoire.obj
 0001:000e6970       ?LitMemoire@CValMemoire@@QEAAXAEAVCString@@@Z 00000001400e7970 f   ValMemoire.obj
 0001:000e6cc0       ?AjouteClient@CValMemoire@@QEAAHPEAVCClientMemoire@@@Z 00000001400e7cc0 f   ValMemoire.obj
 0001:000e6d40       ?LitArchive@CValMemoire@@QEAAXAEAVCInputArchive@@@Z 00000001400e7d40 f   ValMemoire.obj
 0001:000e6fe0       ?EffaceMemoire@CValMemoire@@QEAAXHH@Z 00000001400e7fe0 f   ValMemoire.obj
 0001:000e72b0       ?EffaceMemoireIndex@CValMemoire@@QEAAXHHHH@Z 00000001400e82b0 f   ValMemoire.obj
 0001:000e7830       ?LitMemoire@CListValMemoire@@QEAAXHAEAVCString@@@Z 00000001400e8830 f   ValMemoire.obj
 0001:000e78c0       ?Recherche@CListValMemoire@@QEAAPEAVCValMemoire@@H@Z 00000001400e88c0 f   ValMemoire.obj
 0001:000e7a50       ?Ajoute@CListValMemoire@@QEAAXHPEAVCValMemoire@@@Z 00000001400e8a50 f   ValMemoire.obj
 0001:000e7ae0       ?SupprimeTout@CListValMemoire@@QEAAXXZ 00000001400e8ae0 f   ValMemoire.obj
 0001:000e7c40       ?LitArchive@CListValMemoire@@QEAAXAEAVCInputArchive@@@Z 00000001400e8c40 f   ValMemoire.obj
 0001:000e81c0       ?EcritArchive@CListValMemoire@@QEAAXAEAVCOutputArchive@@@Z 00000001400e91c0 f   ValMemoire.obj
 0001:000e83b0       ?SupprimeMemoire@CListValMemoire@@QEAAXH@Z 00000001400e93b0 f   ValMemoire.obj
 0001:000e8450       ??1CListUserMemoire@@QEAA@XZ 00000001400e9450 f   ValMemoire.obj
 0001:000e84d0       ?EffaceMemoire@CListUserMemoire@@QEAAXHHH@Z 00000001400e94d0 f   ValMemoire.obj
 0001:000e8540       ?EffaceMemoireIndex@CListUserMemoire@@QEAAXHHHHH@Z 00000001400e9540 f   ValMemoire.obj
 0001:000e85d0       ?LitIndexMaxMemoire@CListUserMemoire@@QEAAHHHH@Z 00000001400e95d0 f   ValMemoire.obj
 0001:000e8650       ?LitMemoire@CListUserMemoire@@QEAAXAEAVCString@@HH@Z 00000001400e9650 f   ValMemoire.obj
 0001:000e8770       ?EcritMemoire@CListUserMemoire@@QEAAXPEADHHH@Z 00000001400e9770 f   ValMemoire.obj
 0001:000e87d0       ?LitUneMemoire@CListUserMemoire@@QEAAXAEAVCString@@PEA_JHHH@Z 00000001400e97d0 f   ValMemoire.obj
 0001:000e88e0       ?EcritUneMemoire@CListUserMemoire@@QEAAHPEAD_JHHHH@Z 00000001400e98e0 f   ValMemoire.obj
 0001:000e89e0       ?EcritUneMemoireBase@CListUserMemoire@@QEAAHPEAD_JHHHH@Z 00000001400e99e0 f   ValMemoire.obj
 0001:000e8a80       ?Recherche@CListUserMemoire@@QEAAPEAVCListValMemoire@@H@Z 00000001400e9a80 f   ValMemoire.obj
 0001:000e8b30       ?Ajoute@CListUserMemoire@@QEAAXHPEAVCListValMemoire@@@Z 00000001400e9b30 f   ValMemoire.obj
 0001:000e8bc0       ??_GCListValMemoire@@QEAAPEAXI@Z 00000001400e9bc0 f i ValMemoire.obj
 0001:000e8c40       ?SupprimeTout@CListUserMemoire@@QEAAXXZ 00000001400e9c40 f   ValMemoire.obj
 0001:000e8de0       ?SupprimeMemoire@CListUserMemoire@@QEAAXH@Z 00000001400e9de0 f   ValMemoire.obj
 0001:000e8e90       ?EcritArchive@CListUserMemoire@@QEAAXH@Z 00000001400e9e90 f   ValMemoire.obj
 0001:000e9210       ?EcritArchive@CListUserMemoire@@QEAAXXZ 00000001400ea210 f   ValMemoire.obj
 0001:000e92b0       ?LitArchive@CListUserMemoire@@QEAAXAEAVCInputArchive@@@Z 00000001400ea2b0 f   ValMemoire.obj
 0001:000e9720       ?LitArchive@CListUserMemoire@@QEAAXXZ 00000001400ea720 f   ValMemoire.obj
 0001:000e9de0       ?InitFichierMessage@CFichierMessage@@QEAAXVCInputArchive@@@Z 00000001400eade0 f   FichierMessage.obj
 0001:000ea350       ??_ECFicProperties@@UEAAPEAXI@Z 00000001400eb350 f i  CIL library: CIL module
 0001:000ea350       ??_GCFicProperties@@UEAAPEAXI@Z 00000001400eb350 f i FicProperties.obj
 0001:000ea3b0       ??1CFicProperties@@UEAA@XZ 00000001400eb3b0 f   FicProperties.obj
 0001:000ea3f0       ?ExtraitLigneCleValue@CFicProperties@@IEAAHVCString@@AEAV2@1@Z 00000001400eb3f0 f   FicProperties.obj
 0001:000ea5a0       ?TraiteFichier@CFicProperties@@QEAAXVCString@@PEAVCGestMessLang@@@Z 00000001400eb5a0 f   FicProperties.obj
 0001:000eb000       ??0CGestMessLang@@QEAA@XZ  00000001400ec000 f   GestMessLang.obj
 0001:000eb080       ??_GCGestMessLang@@UEAAPEAXI@Z 00000001400ec080 f i GestMessLang.obj
 0001:000eb080       ??_ECGestMessLang@@UEAAPEAXI@Z 00000001400ec080 f i  CIL library: CIL module
 0001:000eb0b0       ??1CGestMessLang@@UEAA@XZ  00000001400ec0b0 f   GestMessLang.obj
 0001:000eb150       ?SupprimeTout@CGestMessLang@@QEAAXXZ 00000001400ec150 f   GestMessLang.obj
 0001:000eb3a0       ?LitMessage@CGestMessLang@@QEAAHVCString@@0AEAV2@@Z 00000001400ec3a0 f   GestMessLang.obj
 0001:000eb580       ?AjouteMessage@CGestMessLang@@QEAAHVCString@@00@Z 00000001400ec580 f   GestMessLang.obj
 0001:000eb7d0       ?Initialise@CGestMessLang@@QEAAXVCString@@@Z 00000001400ec7d0 f   GestMessLang.obj
 0001:000ebe40       ?TestFicModif@CGestMessLang@@QEAAH_J@Z 00000001400ece40 f   GestMessLang.obj
 0001:000ec1b0       ?TraiteFichier@CGestMessLang@@QEAAXVCString@@@Z 00000001400ed1b0 f   GestMessLang.obj
 0001:000ecdc0       ?ExtraitLigneClefMessage@CGestMessLang@@QEAAHAEAVCString@@00@Z 00000001400eddc0 f   GestMessLang.obj
 0001:000ed050       ?ModifieMessage@CGestMessLang@@QEAAHVCString@@00@Z 00000001400ee050 f   GestMessLang.obj
 0001:000ed210       ?SupprimeMessage@CGestMessLang@@QEAAHVCString@@@Z 00000001400ee210 f   GestMessLang.obj
 0001:000ed370       ?ActualiseFichierDico@CGestMessLang@@QEAAHXZ 00000001400ee370 f   GestMessLang.obj
 0001:000ede60       ??0CListAppliMessage@@QEAA@XZ 00000001400eee60 f   ListeAppliMessage.obj
 0001:000edef0       ??1CListAppliMessage@@QEAA@XZ 00000001400eeef0 f   ListeAppliMessage.obj
 0001:000edf90       ?LireFichier@CListAppliMessage@@QEAAXPEAD@Z 00000001400eef90 f   ListeAppliMessage.obj
 0001:000ee5a0       ?LireMessage@CListAppliMessage@@QEAAXHAEAVCString@@@Z 00000001400ef5a0 f   ListeAppliMessage.obj
 0001:000ee640       ?SupprimeTout@CListAppliMessage@@QEAAXXZ 00000001400ef640 f   ListeAppliMessage.obj
 0001:000ee7d0       ?AjouteFichierMessage@CListAppliMessage@@QEAAXHVCInputArchive@@@Z 00000001400ef7d0 f   ListeAppliMessage.obj
 0001:000ee900       ?TestRepExiste@CListFichierMessage@@QEAAXXZ 00000001400ef900 f   ListeFichierMessage.obj
 0001:000eea60       ?InitListMess@CListFichierMessage@@QEAAXXZ 00000001400efa60 f   ListeFichierMessage.obj
 0001:000eeb40       ?LireFichiersRepertoire@CListFichierMessage@@QEAAXPEAD@Z 00000001400efb40 f   ListeFichierMessage.obj
 0001:000ef390       ?Ajoute@CListFichierMessage@@QEAAXPEAD0@Z 00000001400f0390 f   ListeFichierMessage.obj
 0001:000ef4f0       ?RecherheLangue@CListFichierMessage@@QEAAHPEADAEAVCString@@@Z 00000001400f04f0 f   ListeFichierMessage.obj
 0001:000ef790       ?SupprimeTout@CListFichierMessage@@QEAAXXZ 00000001400f0790 f   ListeFichierMessage.obj
 0001:000ef980       ?FiltreLangue@CListFichierMessage@@QEAAXAEAVCString@@@Z 00000001400f0980 f   ListeFichierMessage.obj
 0001:000efa60       ?LireMessage@CListFichierMessage@@QEAAXAEAVCString@@H0@Z 00000001400f0a60 f   ListeFichierMessage.obj
 0001:000efc70       ?ClientArchive@CListFichierMessage@@QEAAXPEAVCInputArchive@@PEAVCOutputArchive@@H@Z 00000001400f0c70 f   ListeFichierMessage.obj
 0001:000f0250       ?SupprimeTout@CListMessage@@QEAAXXZ 00000001400f1250 f   ListMessage.obj
 0001:000f0390       ?LitMessage@CListMessage@@QEAAHAEAVCString@@H@Z 00000001400f1390 f   ListMessage.obj
 0001:000f0420       ??_ECGroupePageHTML@@UEAAPEAXI@Z 00000001400f1420 f i  CIL library: CIL module
 0001:000f0420       ??_GCGroupePageHTML@@UEAAPEAXI@Z 00000001400f1420 f i GroupePageHTML.obj
 0001:000f0460       ?NewElement@CGroupePageHTML@@UEAAPEAVCElement@@HH@Z 00000001400f1460 f   GroupePageHTML.obj
 0001:000f04e0       ?SupprimeElement@CGroupePageHTML@@UEAAHAEAVCOutputArchive@@HHH@Z 00000001400f14e0 f   GroupePageHTML.obj
 0001:000f0640       ?EcritElement@CGroupePageHTML@@UEAAHAEAVCInputArchive@@HHHH@Z 00000001400f1640 f   GroupePageHTML.obj
 0001:000f08d0       ?ModifPageHtml@CGroupePageHTML@@QEAAXPEAD0@Z 00000001400f18d0 f   GroupePageHTML.obj
 0001:000f0a90       ?SuppPageHtml@CGroupePageHTML@@QEAAXPEAD@Z 00000001400f1a90 f   GroupePageHTML.obj
 0001:000f0c40       ??_GCListeGroupePageHTML@@UEAAPEAXI@Z 00000001400f1c40 f i ListeGroupePageHTML.obj
 0001:000f0c40       ??_ECListeGroupePageHTML@@UEAAPEAXI@Z 00000001400f1c40 f i  CIL library: CIL module
 0001:000f0c80       ?NewGroupe@CListeGroupePageHTML@@UEAAPEAVCGroupe@@PEAVCListeGroupe@@HH@Z 00000001400f1c80 f   ListeGroupePageHTML.obj
 0001:000f0d00       ??_ECPageHTML@@UEAAPEAXI@Z 00000001400f1d00 f i  CIL library: CIL module
 0001:000f0d00       ??_GCPageHTML@@UEAAPEAXI@Z 00000001400f1d00 f i PageHTML.obj
 0001:000f0d80       ?LitArchive@CPageHTML@@UEAAHAEAVCInputArchive@@H@Z 00000001400f1d80 f   PageHTML.obj
 0001:000f1960       ?EcritArchive@CPageHTML@@UEAAXAEAVCOutputArchive@@PEADH@Z 00000001400f2960 f   PageHTML.obj
 0001:000f1c90       ??_GCClientProfileTCP@@UEAAPEAXI@Z 00000001400f2c90 f i ClientProfileTCP.obj
 0001:000f1c90       ??_ECClientProfileTCP@@UEAAPEAXI@Z 00000001400f2c90 f i  CIL library: CIL module
 0001:000f1cd0       ?ServeurDeconnecte@CClientProfileTCP@@UEAAXXZ 00000001400f2cd0 f   ClientProfileTCP.obj
 0001:000f1d10       ?Receive@CClientProfileTCP@@UEAAHPEAD@Z 00000001400f2d10 f   ClientProfileTCP.obj
 0001:000f1d50       ??_GCComClientProfile@@UEAAPEAXI@Z 00000001400f2d50 f i ComClientProfile.obj
 0001:000f1d50       ??_ECComClientProfile@@UEAAPEAXI@Z 00000001400f2d50 f i  CIL library: CIL module
 0001:000f1dc0       ?Init@CComClientProfile@@QEAAHXZ 00000001400f2dc0 f   ComClientProfile.obj
 0001:000f1e70       ?Send@CComClientProfile@@QEAAHPEAD@Z 00000001400f2e70 f   ComClientProfile.obj
 0001:000f1f10       ?GetPlatform@@YA?AW4PLATFORM@@XZ 00000001400f2f10 f   CpuUsage.obj
 0001:000f1fb0       ??_GCCpuUsage@@UEAAPEAXI@Z 00000001400f2fb0 f i CpuUsage.obj
 0001:000f1fb0       ??_ECCpuUsage@@UEAAPEAXI@Z 00000001400f2fb0 f i  CIL library: CIL module
 0001:000f1fe0       ??1CCpuUsage@@UEAA@XZ      00000001400f2fe0 f   CpuUsage.obj
 0001:000f1ff0       ?EnablePerformaceCounters@CCpuUsage@@QEAAHH@Z 00000001400f2ff0 f   CpuUsage.obj
 0001:000f2140       ?GetCpuUsage@CCpuUsage@@QEAAHXZ 00000001400f3140 f   CpuUsage.obj
 0001:000f2300       ?QueryPerformanceData@?$CPerfCounters@_J@@IEAAXPEAPEAU_PERF_DATA_BLOCK@@KK@Z 00000001400f3300 f i CpuUsage.obj
 0001:000f2440       ?GetCounterValue@?$CPerfCounters@_J@@IEAA_JPEAU_PERF_OBJECT_TYPE@@KPEBD@Z 00000001400f3440 f i CpuUsage.obj
 0001:000f2630       ?FonctionLancementThread@@YAHPEAX@Z 00000001400f3630 f   InfoCpuMem.obj
 0001:000f2640       ??_GCInfoCpuMem@@UEAAPEAXI@Z 00000001400f3640 f i InfoCpuMem.obj
 0001:000f2640       ??_ECInfoCpuMem@@UEAAPEAXI@Z 00000001400f3640 f i  CIL library: CIL module
 0001:000f26a0       ??1CInfoCpuMem@@UEAA@XZ    00000001400f36a0 f   InfoCpuMem.obj
 0001:000f26f0       ?Boucle@CInfoCpuMem@@QEAAXXZ 00000001400f36f0 f   InfoCpuMem.obj
 0001:000f27a0       ?LitCpu@CInfoCpuMem@@QEAAHXZ 00000001400f37a0 f   InfoCpuMem.obj
 0001:000f2800       ??0CProfileQuartis@@QEAA@XZ 00000001400f3800 f   ProfileQuartis.obj
 0001:000f28e0       ??_ECProfileQuartis@@UEAAPEAXI@Z 00000001400f38e0 f i  CIL library: CIL module
 0001:000f28e0       ??_GCProfileQuartis@@UEAAPEAXI@Z 00000001400f38e0 f i ProfileQuartis.obj
 0001:000f2910       ??1CProfileQuartis@@UEAA@XZ 00000001400f3910 f   ProfileQuartis.obj
 0001:000f29d0       ?Init@CProfileQuartis@@QEAAXXZ 00000001400f39d0 f   ProfileQuartis.obj
 0001:000f2b90       ?Ajoute@CProfileQuartis@@IEAAXPEAD@Z 00000001400f3b90 f   ProfileQuartis.obj
 0001:000f2c00       ?LitNumIdProfile@CProfileQuartis@@QEAAHXZ 00000001400f3c00 f   ProfileQuartis.obj
 0001:000f2c60       ?InsertTraceDecl@CProfileQuartis@@QEAAXHPEBD_JHH@Z 00000001400f3c60 f   ProfileQuartis.obj
 0001:000f3190       ?InsertTraceLpx@CProfileQuartis@@QEAAXHPEADH0HHH@Z 00000001400f4190 f   ProfileQuartis.obj
 0001:000f35c0       ?InsertTraceBD@CProfileQuartis@@QEAAXHPEADH0HH0@Z 00000001400f45c0 f   ProfileQuartis.obj
 0001:000f3a10       ?LitDateMs@CProfileQuartis@@QEAAXAEAVCString@@@Z 00000001400f4a10 f   ProfileQuartis.obj
 0001:000f3c40       ?FormateTimeChaine@CProfileQuartis@@IEAA?AVCString@@_J@Z 00000001400f4c40 f   ProfileQuartis.obj
 0001:000f3d10       ?EnvoiModifEtatProfile@CProfileQuartis@@QEAAXXZ 00000001400f4d10 f   ProfileQuartis.obj
 0001:000f3dd0       ?ErreurEnvoiMessage@CProfileQuartis@@IEAAXPEADHH@Z 00000001400f4dd0 f   ProfileQuartis.obj
 0001:000f40b0       ?ErreurInitComProfiler@CProfileQuartis@@IEAAXPEADHH@Z 00000001400f50b0 f   ProfileQuartis.obj
 0001:000f43a0       ?MessageErreurSocket@CProfileQuartis@@IEAAXPEADHH@Z 00000001400f53a0 f   ProfileQuartis.obj
 0001:000f45b0       ?LitCpu@CProfileQuartis@@QEAAHXZ 00000001400f55b0 f   ProfileQuartis.obj
 0001:000f4610       ?LitMem@CProfileQuartis@@QEAAHXZ 00000001400f5610 f   ProfileQuartis.obj
 0001:000f4660       ?Connexion@CProfileQuartis@@IEAAHXZ 00000001400f5660 f   ProfileQuartis.obj
 0001:000f4760       ?FinConnexion@CProfileQuartis@@IEAAXXZ 00000001400f5760 f   ProfileQuartis.obj
 0001:000f47b0       ?EnvoiMemPartagee@CProfileQuartis@@IEAAXPEADH@Z 00000001400f57b0 f   ProfileQuartis.obj
 0001:000f4990       ?EnvoieSocket@CProfileQuartis@@IEAAXPEADH@Z 00000001400f5990 f   ProfileQuartis.obj
 0001:000f4ab0       ?LitTypeConnexion@CProfileQuartis@@IEAAHXZ 00000001400f5ab0 f   ProfileQuartis.obj
 0001:000f4b20       ??0CParamSPC@@QEAA@XZ      00000001400f5b20 f   ParamSPC.obj
 0001:000f4c70       ??_GCParamSPC@@UEAAPEAXI@Z 00000001400f5c70 f i ParamSPC.obj
 0001:000f4c70       ??_ECParamSPC@@UEAAPEAXI@Z 00000001400f5c70 f i  CIL library: CIL module
 0001:000f4ca0       ??1CParamSPC@@UEAA@XZ      00000001400f5ca0 f   ParamSPC.obj
 0001:000f4e10       ?LitArchive@CParamSPC@@QEAAHAEAVCInputArchive@@@Z 00000001400f5e10 f   ParamSPC.obj
 0001:000f59b0       ?EcritArchive@CParamSPC@@QEAAHAEAVCOutputArchive@@@Z 00000001400f69b0 f   ParamSPC.obj
 0001:000f5c30       ??4CParamSPC@@QEAAAEAV0@AEAV0@@Z 00000001400f6c30 f   ParamSPC.obj
 0001:000f5d50       ??0CConfSrvHTTP@@QEAA@XZ   00000001400f6d50 f   ConfSrvHTTP.obj
 0001:000f6280       ??_GCConfSrvHTTP@@UEAAPEAXI@Z 00000001400f7280 f i ConfSrvHTTP.obj
 0001:000f6280       ??_ECConfSrvHTTP@@UEAAPEAXI@Z 00000001400f7280 f i  CIL library: CIL module
 0001:000f62b0       ??1CConfSrvHTTP@@UEAA@XZ   00000001400f72b0 f   ConfSrvHTTP.obj
 0001:000f6500       ?LitNomRepBase@CConfSrvHTTP@@QEAAXAEAVCString@@@Z 00000001400f7500 f   ConfSrvHTTP.obj
 0001:000f6640       ?LitNumPort@CConfSrvHTTP@@QEAAHXZ 00000001400f7640 f   ConfSrvHTTP.obj
 0001:000f6680       ?LitDureeMaxAttenteConn@CConfSrvHTTP@@QEAAHXZ 00000001400f7680 f   ConfSrvHTTP.obj
 0001:000f66c0       ?LitDureeMaxConn@CConfSrvHTTP@@QEAAHXZ 00000001400f76c0 f   ConfSrvHTTP.obj
 0001:000f6700       ?LitTempsMaxConn@CConfSrvHTTP@@QEAAHXZ 00000001400f7700 f   ConfSrvHTTP.obj
 0001:000f6740       ?LitCleSrvHTTP@CConfSrvHTTP@@QEAAHXZ 00000001400f7740 f   ConfSrvHTTP.obj
 0001:000f6780       ?LitTailleMaxFicTmp@CConfSrvHTTP@@QEAAHXZ 00000001400f7780 f   ConfSrvHTTP.obj
 0001:000f67c0       ?LitNbMaxConn@CConfSrvHTTP@@QEAAHXZ 00000001400f77c0 f   ConfSrvHTTP.obj
 0001:000f6800       ?LitAutoriseCGI@CConfSrvHTTP@@QEAAHXZ 00000001400f7800 f   ConfSrvHTTP.obj
 0001:000f6840       ?LitArchive@CConfSrvHTTP@@QEAAXXZ 00000001400f7840 f   ConfSrvHTTP.obj
 0001:000f6f00       ?LitArchive@CConfSrvHTTP@@QEAAHAEAVCInputArchive@@@Z 00000001400f7f00 f   ConfSrvHTTP.obj
 0001:000f8080       ?EcritArchive@CConfSrvHTTP@@QEAAXXZ 00000001400f9080 f   ConfSrvHTTP.obj
 0001:000f85a0       ?EcritArchive@CConfSrvHTTP@@QEAAHAEAVCOutputArchive@@@Z 00000001400f95a0 f   ConfSrvHTTP.obj
 0001:000f95d0       ?CreerRepWeb@CConfSrvHTTP@@QEAAXPEAD@Z 00000001400fa5d0 f   ConfSrvHTTP.obj
 0001:000f9820       ?RechercheTypeFic@CConfSrvHTTP@@QEAAHPEADAEAVCString@@@Z 00000001400fa820 f   ConfSrvHTTP.obj
 0001:000f9950       ?InitListMimeType@CConfSrvHTTP@@QEAAXXZ 00000001400fa950 f   ConfSrvHTTP.obj
 0001:000fa970       ?LitPortTomcat@CConfSrvHTTP@@QEAAHXZ 00000001400fb970 f   ConfSrvHTTP.obj
 0001:000fa9b0       ?GetRepWebAppsTomcat@CConfSrvHTTP@@QEAAXAEAVCString@@@Z 00000001400fb9b0 f   ConfSrvHTTP.obj
 0001:000fab80       ?VerifValueModuleWeb@CConfSrvHTTP@@QEAAXXZ 00000001400fbb80 f   ConfSrvHTTP.obj
 0001:000fb0a0       ?LitGestConsoleWeb@CConfSrvHTTP@@QEAAHXZ 00000001400fc0a0 f   ConfSrvHTTP.obj
 0001:000fb0e0       ?EcritUrlLicence@CConfSrvHTTP@@QEAAXPEAD@Z 00000001400fc0e0 f   ConfSrvHTTP.obj
 0001:000fb310       ?EcritAttrMaxUserAtel@CConfSrvHTTP@@QEAAXPEAD@Z 00000001400fc310 f   ConfSrvHTTP.obj
 0001:000fb540       ?EcritAttrDateFin@CConfSrvHTTP@@QEAAXPEAD@Z 00000001400fc540 f   ConfSrvHTTP.obj
 0001:000fb770       ??0CConnHTTP@@QEAA@PEAVCConfSrvHTTP@@PEAVCSocketHTTP@@PEAUin_addr@@@Z 00000001400fc770 f   ConnHTTP.obj
 0001:000fbb60       ??_GCConnHTTP@@UEAAPEAXI@Z 00000001400fcb60 f i ConnHTTP.obj
 0001:000fbb60       ??_ECConnHTTP@@UEAAPEAXI@Z 00000001400fcb60 f i  CIL library: CIL module
 0001:000fbb90       ??1CConnHTTP@@UEAA@XZ      00000001400fcb90 f   ConnHTTP.obj
 0001:000fc000       ?SupprimeConnHTTP@CConnHTTP@@QEAAXXZ 00000001400fd000 f   ConnHTTP.obj
 0001:000fc310       ?ConnRead@CConnHTTP@@QEAAHH@Z 00000001400fd310 f   ConnHTTP.obj
 0001:000fc3b0       ?ConnReadLine@CConnHTTP@@QEAAHPEAPEADH@Z 00000001400fd3b0 f   ConnHTTP.obj
 0001:000fc500       ?ConnWrite@CConnHTTP@@QEAAHPEADH@Z 00000001400fd500 f   ConnHTTP.obj
 0001:000fc580       ?ConnWriteFromFile@CConnHTTP@@QEAAHPEAVCFichier@@HHPEADHH@Z 00000001400fd580 f   ConnHTTP.obj
 0001:000fc6d0       ?ConnDeleteDebutBuffer@CConnHTTP@@QEAAHH@Z 00000001400fd6d0 f   ConnHTTP.obj
 0001:000fc720       ?Answer@CConnHTTP@@AEAAXHPEAD@Z 00000001400fd720 f   ConnHTTP.obj
 0001:000fc9b0       ?HandleMotPasse@CConnHTTP@@AEAAHXZ 00000001400fd9b0 f   ConnHTTP.obj
 0001:000fcce0       ?Boucle@CConnHTTP@@QEAAXXZ 00000001400fdce0 f   ConnHTTP.obj
 0001:000fce70       ?MIMETypeGuessFromFile@CConnHTTP@@AEAAXPEADAEAVCString@@@Z 00000001400fde70 f   ConnHTTP.obj
 0001:000fd0b0       ?ServerFileHandler@CConnHTTP@@QEAAXPEADPEAVCDateHTTP@@@Z 00000001400fe0b0 f   ConnHTTP.obj
 0001:000fdb30       ?SupprimeListRange@CConnHTTP@@AEAAXXZ 00000001400feb30 f   ConnHTTP.obj
 0001:000fdbd0       ?ServerDefaultHandlerFunc@CConnHTTP@@QEAAXXZ 00000001400febd0 f   ConnHTTP.obj
 0001:000fe890       ?RequestInit@CConnHTTP@@QEAAXXZ 00000001400ff890 f   ConnHTTP.obj
 0001:000feab0       ?RequestFree@CConnHTTP@@QEAAXXZ 00000001400ffab0 f   ConnHTTP.obj
 0001:000ff070       ?RequestHeaderValue@CConnHTTP@@QEAAPEADPEAD@Z 0000000140100070 f   ConnHTTP.obj
 0001:000ff160       ?RequestHeaderBoundary@CConnHTTP@@QEAAXAEAVCString@@@Z 0000000140100160 f   ConnHTTP.obj
 0001:000ff240       ?FindBuffer@CConnHTTP@@AEAAHPEADH0@Z 0000000140100240 f   ConnHTTP.obj
 0001:000ff350       ?RequestAttributVal@CConnHTTP@@QEAAHPEAD0HDAEAVCString@@@Z 0000000140100350 f   ConnHTTP.obj
 0001:000ff4f0       ?RequestPost@CConnHTTP@@QEAAHXZ 00000001401004f0 f   ConnHTTP.obj
 0001:00100ad0       ?RequestRead@CConnHTTP@@QEAAHXZ 0000000140101ad0 f   ConnHTTP.obj
 0001:00101150       ?RequestDecodeURL@CConnHTTP@@AEAAXXZ 0000000140102150 f   ConnHTTP.obj
 0001:00101590       ?RechercheCheminInfo@CConnHTTP@@AEAAXXZ 0000000140102590 f   ConnHTTP.obj
 0001:00101bf0       ?StripLast@CConnHTTP@@AEAAHAEAVCString@@0@Z 0000000140102bf0 f   ConnHTTP.obj
 0001:00101ce0       ?RequestChampValUrl@CConnHTTP@@QEAAXPEAD@Z 0000000140102ce0 f   ConnHTTP.obj
 0001:001024a0       ?AjoutConcatVal@CConnHTTP@@QEAAXPEAD0@Z 00000001401034a0 f   ConnHTTP.obj
 0001:00102730       ?RequestDecodeVal@CConnHTTP@@AEAAHPEAD@Z 0000000140103730 f   ConnHTTP.obj
 0001:00102810       ?RequestValidURI@CConnHTTP@@AEAAHXZ 0000000140103810 f   ConnHTTP.obj
 0001:00102a30       ?RequestValidURIPath@CConnHTTP@@AEAAXPEAD@Z 0000000140103a30 f   ConnHTTP.obj
 0001:00102bd0       ?RequestAuth@CConnHTTP@@QEAAHPEAD@Z 0000000140103bd0 f   ConnHTTP.obj
 0001:00103080       ?HTTPWrite@CConnHTTP@@QEAAHPEADH@Z 0000000140104080 f   ConnHTTP.obj
 0001:00103170       ?HTTPWriteEnd@CConnHTTP@@QEAAHXZ 0000000140104170 f   ConnHTTP.obj
 0001:00103210       ?ResponseError@CConnHTTP@@QEAAXXZ 0000000140104210 f   ConnHTTP.obj
 0001:00103340       ?ResponseStatusErrno@CConnHTTP@@QEAAXXZ 0000000140104340 f   ConnHTTP.obj
 0001:00103390       ?ResponseAddField@CConnHTTP@@QEAAXPEAD0@Z 0000000140104390 f   ConnHTTP.obj
 0001:001035e0       ?ResponseWrite@CConnHTTP@@QEAAXXZ 00000001401045e0 f   ConnHTTP.obj
 0001:00104230       ?ResponseContentLength@CConnHTTP@@QEAAXH@Z 0000000140105230 f   ConnHTTP.obj
 0001:00104380       ?EnvoiMess@CConnHTTP@@QEAAXPEAD@Z 0000000140105380 f   ConnHTTP.obj
 0001:00104bf0       ?RechercheIdUserConnecte@CConnHTTP@@QEAAHXZ 0000000140105bf0 f   ConnHTTP.obj
 0001:00104cb0       ?GetHostName@CConnHTTP@@QEAA?AVCString@@Uin_addr@@@Z 0000000140105cb0 f   ConnHTTP.obj
 0001:00104cb0       ?GetHostName@CListAdresseIpUser@@IEAA?AVCString@@Uin_addr@@@Z 0000000140105cb0 f   ListAdresseIpUser.obj
 0001:00104dc0       ?RechercheValeur@CConnHTTP@@QEAAHPEAD0H@Z 0000000140105dc0 f   ConnHTTP.obj
 0001:00104f60       ?ExtraitContenuFichier@CConnHTTP@@QEAAHPEAD0@Z 0000000140105f60 f   ConnHTTP.obj
 0001:001050d0       ?RechercheVariableEnvironnement@CConnHTTP@@QEAAHPEADAEAVCString@@@Z 00000001401060d0 f   ConnHTTP.obj
 0001:001054d0       ?ResponseMessError@CConnHTTP@@AEAAXH@Z 00000001401064d0 f   ConnHTTP.obj
 0001:00105840       ?TestFicCGI@CConnHTTP@@AEAAHXZ 0000000140106840 f   ConnHTTP.obj
 0001:00105a70       ?CGIStart@CConnHTTP@@AEAAHXZ 0000000140106a70 f   ConnHTTP.obj
 0001:00105bd0       ?CGIThread@CConnHTTP@@AEAAIXZ 0000000140106bd0 f   ConnHTTP.obj
 0001:00106d40       ?HeaderToEnvVar@CConnHTTP@@AEAAXAEAVCString@@@Z 0000000140107d40 f   ConnHTTP.obj
 0001:00106ee0       ?EnvoiResFicCGI@CConnHTTP@@AEAAXXZ 0000000140107ee0 f   ConnHTTP.obj
 0001:00107c80       ??_ECEnvironment@@UEAAPEAXI@Z 0000000140108c80 f i  CIL library: CIL module
 0001:00107c80       ??_GCEnvironment@@UEAAPEAXI@Z 0000000140108c80 f i ConnHTTP.obj
 0001:00107cb0       ??1CEnvironment@@UEAA@XZ   0000000140108cb0 f   ConnHTTP.obj
 0001:00107d30       ?Add@CEnvironment@@QEAAHVCString@@0@Z 0000000140108d30 f   ConnHTTP.obj
 0001:00107f10       ?GetBlock@CEnvironment@@QEAAPEAXXZ 0000000140108f10 f   ConnHTTP.obj
 0001:00108050       ?SupprimeTout@CEnvironment@@QEAAXXZ 0000000140109050 f   ConnHTTP.obj
 0001:001080e0       ?LitAdresseSocket@CConnHTTP@@QEAAPEADXZ 00000001401090e0 f   ConnHTTP.obj
 0001:001082d0       ??_ECDateHTTP@@UEAAPEAXI@Z 00000001401092d0 f i  CIL library: CIL module
 0001:001082d0       ??_GCDateHTTP@@UEAAPEAXI@Z 00000001401092d0 f i DateHTTP.obj
 0001:00108300       ??1CDateHTTP@@UEAA@XZ      0000000140109300 f   DateHTTP.obj
 0001:00108310       ?LitDateGMT@CDateHTTP@@QEAAHAEAVCString@@@Z 0000000140109310 f   DateHTTP.obj
 0001:00108410       ?AjoutDateGMT@CDateHTTP@@QEAAHPEAD@Z 0000000140109410 f   DateHTTP.obj
 0001:00108600       ??_GCListConnHTTP@@UEAAPEAXI@Z 0000000140109600 f i ListConnHTTP.obj
 0001:00108600       ??_ECListConnHTTP@@UEAAPEAXI@Z 0000000140109600 f i  CIL library: CIL module
 0001:00108630       ??1CListConnHTTP@@UEAA@XZ  0000000140109630 f   ListConnHTTP.obj
 0001:001086b0       ?SupprimeTout@CListConnHTTP@@QEAAXXZ 00000001401096b0 f   ListConnHTTP.obj
 0001:001087e0       ?Supprime@CListConnHTTP@@QEAAXPEAVCConnHTTP@@@Z 00000001401097e0 f   ListConnHTTP.obj
 0001:00108870       ?FonctionDeLancementDUnThreadCConnHTTP@@YAHPEAX@Z 0000000140109870 f   ListConnHTTP.obj
 0001:001088c0       ?Ajoute@CListConnHTTP@@QEAAXPEAVCConfSrvHTTP@@PEAVCSocketHTTP@@PEAUin_addr@@@Z 00000001401098c0 f   ListConnHTTP.obj
 0001:00108cf0       ??_GCListExtensExec@@UEAAPEAXI@Z 0000000140109cf0 f i ListExtensExec.obj
 0001:00108cf0       ??_ECListExtensExec@@UEAAPEAXI@Z 0000000140109cf0 f i  CIL library: CIL module
 0001:00108d50       ??1CListExtensExec@@UEAA@XZ 0000000140109d50 f   ListExtensExec.obj
 0001:00108d90       ?AjouteExtensionExec@CListExtensExec@@QEAAXPEAD0@Z 0000000140109d90 f   ListExtensExec.obj
 0001:00108fb0       ?RechercheExtensionExec@CListExtensExec@@QEAAHPEBDAEAVCString@@@Z 0000000140109fb0 f   ListExtensExec.obj
 0001:00109340       ?RazListe@CListExtensExec@@QEAAXXZ 000000014010a340 f   ListExtensExec.obj
 0001:00109440       ?LitArchive@CListExtensExec@@QEAAHAEAVCInputArchive@@@Z 000000014010a440 f   ListExtensExec.obj
 0001:00109b50       ?EcritArchive@CListExtensExec@@QEAAHAEAVCOutputArchive@@@Z 000000014010ab50 f   ListExtensExec.obj
 0001:00109f30       ??_GCListFicTmp@@UEAAPEAXI@Z 000000014010af30 f i ListFicTmp.obj
 0001:00109f30       ??_ECListFicTmp@@UEAAPEAXI@Z 000000014010af30 f i  CIL library: CIL module
 0001:00109f90       ??1CListFicTmp@@UEAA@XZ    000000014010af90 f   ListFicTmp.obj
 0001:00109fd0       ?SupprimeTout@CListFicTmp@@QEAAXXZ 000000014010afd0 f   ListFicTmp.obj
 0001:0010a290       ??1CFileTmp@@QEAA@XZ       000000014010b290 f i ListFicTmp.obj
 0001:0010a320       ?AjouteFicTmp@CListFicTmp@@QEAAXPEAD000@Z 000000014010b320 f   ListFicTmp.obj
 0001:0010a4a0       ??0CFileTmp@@QEAA@XZ       000000014010b4a0 f i ListFicTmp.obj
 0001:0010a510       ?SupprimeFicTmp@CListFicTmp@@QEAAHPEAD@Z 000000014010b510 f   ListFicTmp.obj
 0001:0010a600       ??0CServeurHTTP@@QEAA@XZ   000000014010b600 f   ServeurHTTP.obj
 0001:0010a710       ??_GCServeurHTTP@@UEAAPEAXI@Z 000000014010b710 f i ServeurHTTP.obj
 0001:0010a710       ??_ECServeurHTTP@@UEAAPEAXI@Z 000000014010b710 f i  CIL library: CIL module
 0001:0010a790       ?ClientArchive@CServeurHTTP@@QEAAXAEAVCInputArchive@@AEAVCOutputArchive@@H@Z 000000014010b790 f   ServeurHTTP.obj
 0001:0010aa70       ?InitServeurHTTP@CServeurHTTP@@QEAAHXZ 000000014010ba70 f   ServeurHTTP.obj
 0001:0010ac00       ?FonctionDeLancementDUnThreadHTTP@@YAHPEAX@Z 000000014010bc00 f   ServeurHTTP.obj
 0001:0010ac10       ?Boucle@CServeurHTTP@@QEAAXXZ 000000014010bc10 f   ServeurHTTP.obj
 0001:0010af40       ?MessageError@CServeurHTTP@@QEAAXH@Z 000000014010bf40 f   ServeurHTTP.obj
 0001:0010b1c0       ??_ECSocketHTTP@@UEAAPEAXI@Z 000000014010c1c0 f i  CIL library: CIL module
 0001:0010b1c0       ??_GCSocketHTTP@@UEAAPEAXI@Z 000000014010c1c0 f i SocketHTTP.obj
 0001:0010b1f0       ??1CSocketHTTP@@UEAA@XZ    000000014010c1f0 f   SocketHTTP.obj
 0001:0010b200       ?SocketWait@CSocketHTTP@@QEAAHHHH@Z 000000014010c200 f   SocketHTTP.obj
 0001:0010b320       ??0CClientSrv@@QEAA@XZ     000000014010c320 f   ClientSrv.obj
 0001:0010b3c0       ??_GCClientSrv@@UEAAPEAXI@Z 000000014010c3c0 f i ClientSrv.obj
 0001:0010b3c0       ??_ECClientSrv@@UEAAPEAXI@Z 000000014010c3c0 f i  CIL library: CIL module
 0001:0010b3f0       ??1CClientSrv@@UEAA@XZ     000000014010c3f0 f   ClientSrv.obj
 0001:0010b4b0       ?ReceptionDeclarationUtilisateur@CClientSrv@@AEAAXXZ 000000014010c4b0 f   ClientSrv.obj
 0001:0010bc70       ?BoucleDAttente@CClientSrv@@UEAAXXZ 000000014010cc70 f   ClientSrv.obj
 0001:0010ce50       ?Envoi@CClientSrv@@QEAAXAEAVCString@@@Z 000000014010de50 f   ClientSrv.obj
 0001:0010cef0       ?ClientArchive@CClientSrv@@QEAAXPEAVCInputArchive@@PEAVCOutputArchive@@H@Z 000000014010def0 f   ClientSrv.obj
 0001:0010d810       ?EnvoiArretConnexion@CClientSrv@@QEAAXXZ 000000014010e810 f   ClientSrv.obj
 0001:0010d8e0       ?LectureParamConnexionUser@CClientSrv@@QEAAXAEAVCFicXML@@@Z 000000014010e8e0 f   ClientSrv.obj
 0001:0010dca0       ?ArretConsoleConnect@CClientSrv@@QEAAXXZ 000000014010eca0 f   ClientSrv.obj
 0001:0010ddf0       ??0CConfiguration@@QEAA@PEAD0H@Z 000000014010edf0 f   Configuration.obj
 0001:0010e180       ??1CConfiguration@@QEAA@XZ 000000014010f180 f   Configuration.obj
 0001:0010e300       ?LitAnonymes@CConfiguration@@QEAAHXZ 000000014010f300 f   Configuration.obj
 0001:0010e340       ?EcritAnonymes@CConfiguration@@QEAAXH@Z 000000014010f340 f   Configuration.obj
 0001:0010e380       ?LitRepertoireBase@CConfiguration@@QEAAXAEAVCString@@@Z 000000014010f380 f   Configuration.obj
 0001:0010e3d0       ?LitLangue@CConfiguration@@QEAAXAEAVCString@@@Z 000000014010f3d0 f   Configuration.obj
 0001:0010e420       ?LitLangue@CConfiguration@@QEAAXPEADH@Z 000000014010f420 f   Configuration.obj
 0001:0010e4a0       ?EcritLangue@CConfiguration@@QEAAXPEAD@Z 000000014010f4a0 f   Configuration.obj
 0001:0010e4f0       ?LitTempsEnregistrement@CConfiguration@@QEAAHXZ 000000014010f4f0 f   Configuration.obj
 0001:0010e530       ?EcritTempsEnregistrement@CConfiguration@@QEAAXH@Z 000000014010f530 f   Configuration.obj
 0001:0010e570       ?LitPortOsysTrace@CConfiguration@@QEAAHXZ 000000014010f570 f   Configuration.obj
 0001:0010e5b0       ?LitPortOsysMem@CConfiguration@@QEAAHXZ 000000014010f5b0 f   Configuration.obj
 0001:0010e5f0       ?LitPortOsysSrv@CConfiguration@@QEAAHXZ 000000014010f5f0 f   Configuration.obj
 0001:0010e630       ?EcritAdresseIpFixe@CConfiguration@@QEAAXH@Z 000000014010f630 f   Configuration.obj
 0001:0010e670       ?EcritDateHeureArretSrv@CConfiguration@@QEAAX_J@Z 000000014010f670 f   Configuration.obj
 0001:0010e6b0       ?InitDateArretSrv@CConfiguration@@QEAAXXZ 000000014010f6b0 f   Configuration.obj
 0001:0010e740       ?EcritArchive@CConfiguration@@QEAAXAEAVCOutputArchive@@@Z 000000014010f740 f   Configuration.obj
 0001:0010ef70       ?EcritArchive@CConfiguration@@QEAAXXZ 000000014010ff70 f   Configuration.obj
 0001:0010f200       ?LitArchive@CConfiguration@@QEAAXAEAVCInputArchive@@@Z 0000000140110200 f   Configuration.obj
 0001:0010fb00       ?LitArchive@CConfiguration@@QEAAXXZ 0000000140110b00 f   Configuration.obj
 0001:0010fff0       ?UtiliseId@CConfiguration@@QEAAHHAEAVCOutputArchive@@PEADH@Z 0000000140110ff0 f   Configuration.obj
 0001:00110150       ?LitNomModule@CConfiguration@@QEAAXHPEADAEAVCString@@@Z 0000000140111150 f   Configuration.obj
 0001:00110310       ?LitNomGroupe@CConfiguration@@QEAAXHPEADAEAVCString@@@Z 0000000140111310 f   Configuration.obj
 0001:00110420       ?LitNomElement@CConfiguration@@QEAAXHPEADAEAVCString@@@Z 0000000140111420 f   Configuration.obj
 0001:00110530       ?EcritPortOsysConsoleWeb@CConfiguration@@QEAAXH@Z 0000000140111530 f   Configuration.obj
 0001:00110570       ?LitPortOsysConsoleWeb@CConfiguration@@QEAAHXZ 0000000140111570 f   Configuration.obj
 0001:001105b0       ?EcritNumPortProfile@CConfiguration@@QEAAXH@Z 00000001401115b0 f   Configuration.obj
 0001:001105f0       ?LitNumPortProfile@CConfiguration@@QEAAHXZ 00000001401115f0 f   Configuration.obj
 0001:00110630       ?EcritTypeConnexion@CConfiguration@@QEAAXH@Z 0000000140111630 f   Configuration.obj
 0001:00110670       ?LitTypeConnexion@CConfiguration@@QEAAHXZ 0000000140111670 f   Configuration.obj
 0001:001106b0       ?VerifLangue@CConfiguration@@QEAAHPEAD@Z 00000001401116b0 f   Configuration.obj
 0001:001107a0       ?EcritFreezeDetected@CConfiguration@@QEAAXH@Z 00000001401117a0 f   Configuration.obj
 0001:001107f0       ?InitDate@CGereDateMemoire@@QEAAHPEBD@Z 00000001401117f0 f   GereDateMemoire.obj
 0001:00110a90       ??HCGereDateMemoire@@QEAA?BV0@AEBV0@@Z 0000000140111a90 f   GereDateMemoire.obj
 0001:00110b30       ??GCGereDateMemoire@@QEAA?BV0@AEBV0@@Z 0000000140111b30 f   GereDateMemoire.obj
 0001:00110bd0       ?FiltreLangue@CGestionLangue@@SAXPEADAEAVCString@@@Z 0000000140111bd0 f   GestionLangue.obj
 0001:00110e70       ?InitSrv@CGestionSrv@@QEAAHXZ 0000000140111e70 f   GestionSrv.obj
 0001:00110f50       ?EventData@CGestionSrv@@QEAAXHPEAVCDataArchive@@@Z 0000000140111f50 f   GestionSrv.obj
 0001:00111070       ?SupprimerConnexion@CGestionSrv@@QEAAHH_JHH@Z 0000000140112070 f   GestionSrv.obj
 0001:00111100       ?RechercheDernierUserConnecte@CGestionSrv@@QEAAHVCString@@@Z 0000000140112100 f   GestionSrv.obj
 0001:001111a0       ??1CListDateFormat@@QEAA@XZ 00000001401121a0 f   ListDateFormat.obj
 0001:001111e0       ?FormateDateAvecFormat@CListDateFormat@@SAXPEAD_JAEAVCString@@@Z 00000001401121e0 f   ListDateFormat.obj
 0001:001114a0       ?Ajoute@CListDateFormat@@QEAAXPEAD0@Z 00000001401124a0 f   ListDateFormat.obj
 0001:00111650       ?SupprimeTout@CListDateFormat@@QEAAXXZ 0000000140112650 f   ListDateFormat.obj
 0001:00111870       ?FormateDateHeureMemoire@CListDateFormat@@SAX_JAEAVCString@@PEAD@Z 0000000140112870 f   ListDateFormat.obj
 0001:00111920       ?FormateHeureMemoire@CListDateFormat@@SAX_JAEAVCString@@PEAD@Z 0000000140112920 f   ListDateFormat.obj
 0001:00111a10       ?FormateDureeMemoire@CListDateFormat@@SAX_JAEAVCString@@PEAD@Z 0000000140112a10 f   ListDateFormat.obj
 0001:00111b00       ?EcritArchive@CListDateFormat@@QEAAXAEAVCOutputArchive@@@Z 0000000140112b00 f   ListDateFormat.obj
 0001:00111e40       ?LitArchive@CListDateFormat@@QEAAXAEAVCInputArchive@@@Z 0000000140112e40 f   ListDateFormat.obj
 0001:00112420       ??_ECNumeroAuto@@UEAAPEAXI@Z 0000000140113420 f i  CIL library: CIL module
 0001:00112420       ??_ECNumIDAuto@@UEAAPEAXI@Z 0000000140113420 f i  CIL library: CIL module
 0001:00112420       ??_GCNumeroAuto@@UEAAPEAXI@Z 0000000140113420 f i NumeroAuto.obj
 0001:00112420       ??_GCNumIDAuto@@UEAAPEAXI@Z 0000000140113420 f i NumIDAuto.obj
 0001:00112460       ??1CNumIDAuto@@UEAA@XZ     0000000140113460 f   NumIDAuto.obj
 0001:00112460       ??1CNumeroAuto@@UEAA@XZ    0000000140113460 f   NumeroAuto.obj
 0001:00112480       ?LitNumero@CNumeroAuto@@QEAAHXZ 0000000140113480 f   NumeroAuto.obj
 0001:001124e0       ?NewClient@CServeurSrv@@UEAAPEAVCSocketServeurArchive@@XZ 00000001401134e0 f   ServeurSrv.obj
 0001:00112520       ?EventData@CServeurSrv@@UEAAXHPEAVCDataArchive@@@Z 0000000140113520 f   ServeurSrv.obj
 0001:001127a0       ?EventDataConsoleWeb@CServeurSrv@@QEAAXHAEAVCString@@@Z 00000001401137a0 f   ServeurSrv.obj
 0001:001129f0       ?LectureLstUserConnecte@CServeurSrv@@QEAAXAEAVCOutputArchive@@PEAD@Z 00000001401139f0 f   ServeurSrv.obj
 0001:00112d10       ?SupprimerConnexion@CServeurSrv@@QEAAHH_JHH@Z 0000000140113d10 f   ServeurSrv.obj
 0001:001135c0       ?RechercheDernierUserConnecte@CServeurSrv@@QEAAHVCString@@@Z 00000001401145c0 f   ServeurSrv.obj
 0001:00113700       ?SupprimeDriverConnecte@CServeurSrv@@QEAAHH_J@Z 0000000140114700 f   ServeurSrv.obj
 0001:00113a20       ?UtilisateurDejaConnecte@CServeurSrv@@QEAAHH_JPEAD@Z 0000000140114a20 f   ServeurSrv.obj
 0001:00113cb0       ?LectureLstConsoleConnecte@CServeurSrv@@QEAAXAEAVCFicXML@@@Z 0000000140114cb0 f   ServeurSrv.obj
 0001:00113e70       ??_ECSrvLocal@@UEAAPEAXI@Z 0000000140114e70 f i  CIL library: CIL module
 0001:00113e70       ??_GCSrvLocal@@UEAAPEAXI@Z 0000000140114e70 f i SrvLocal.obj
 0001:00113ea0       ??1CServeurSrv@@QEAA@XZ    0000000140114ea0 f i SrvLocal.obj
 0001:00113eb0       ??1CSrvLocal@@UEAA@XZ      0000000140114eb0 f   SrvLocal.obj
 0001:00113f50       ?EventDataDriver@CSrvLocal@@QEAAXHPEAVCDataArchive@@@Z 0000000140114f50 f   SrvLocal.obj
 0001:00114170       ?EnvoiMessage@CSrvLocal@@IEAAHHPEAVCString@@@Z 0000000140115170 f   SrvLocal.obj
 0001:00114210       ?SupprimeToutLstMess@CSrvLocal@@IEAAXXZ 0000000140115210 f   SrvLocal.obj
 0001:00114420       ?EnvoiLstMessEnAttente@CSrvLocal@@QEAAXHH@Z 0000000140115420 f   SrvLocal.obj
 0001:00114580       ?AjoutMess@CSrvLocal@@IEAAXHPEAVCString@@@Z 0000000140115580 f   SrvLocal.obj
 0001:001146b0       ?Ajoute@CListTermConn@@QEAAXPEADH@Z 00000001401156b0 f   ListTermConn.obj
 0001:001147a0       ?EcritListConnTerm@CGestTermConn@@QEAAHPEADHH@Z 00000001401157a0 f   GestTermConn.obj
 0001:00114880       ??_ECGestErreurTimeZone@@UEAAPEAXI@Z 0000000140115880 f i  CIL library: CIL module
 0001:00114880       ??_GCGestErreurTimeZone@@UEAAPEAXI@Z 0000000140115880 f i GestErreurTimeZone.obj
 0001:001148b0       ??_GCGestTimeZone@@UEAAPEAXI@Z 00000001401158b0 f i GestTimeZone.obj
 0001:001148b0       ??_ECGestTimeZone@@UEAAPEAXI@Z 00000001401158b0 f i  CIL library: CIL module
 0001:00114910       ?InitLstTZ@CGestTimeZone@@QEAAXXZ 0000000140115910 f   GestTimeZone.obj
 0001:001150a0       ?GetRegKeyTimeZone@CGestTimeZone@@IEAAXAEAVCString@@@Z 00000001401160a0 f   GestTimeZone.obj
 0001:00115170       ?RemoveAllTZI@CGestTimeZone@@QEAAXXZ 0000000140116170 f   GestTimeZone.obj
 0001:00115370       ??_GCTimeZoneInfo@@QEAAPEAXI@Z 0000000140116370 f i GestTimeZone.obj
 0001:001153f0       ?GetOffsetTZI@CGestTimeZone@@QEAAHPEADH@Z 00000001401163f0 f   GestTimeZone.obj
 0001:00115620       ?OffsetTimeZone@CGestTimeZone@@IEAAHPEAVCTimeZoneInfo@@H@Z 0000000140116620 f   GestTimeZone.obj
 0001:001156b0       ?IsDaylightSavingTime@CGestTimeZone@@IEAAHPEAVCTimeZoneInfo@@@Z 00000001401166b0 f   GestTimeZone.obj
 0001:001157e0       ?GetTimeUTC@CGestTimeZone@@QEAAHHPEADH@Z 00000001401167e0 f   GestTimeZone.obj
 0001:00115a30       ?UnformatTZDateToUTCTime@CGestTimeZone@@QEAA_JPEAD00H@Z 0000000140116a30 f   GestTimeZone.obj
 0001:00115d40       ?FormatUTCTimeToTZDate@CGestTimeZone@@QEAAX_JPEAD1HAEAVCString@@@Z 0000000140116d40 f   GestTimeZone.obj
 0001:00116030       ?GetDeltaTZDate@CGestTimeZone@@QEAAHPEAD00H@Z 0000000140117030 f   GestTimeZone.obj
 0001:00116380       ?UnformatUTCDateToTZTime@CGestTimeZone@@QEAA_JPEAD00H@Z 0000000140117380 f   GestTimeZone.obj
 0001:00116690       ?FormatTZTimeToUTCDate@CGestTimeZone@@QEAAX_JPEAD1HAEAVCString@@@Z 0000000140117690 f   GestTimeZone.obj
 0001:00116980       ?SystemTimeToDateFormat@CGestTimeZone@@IEAAXPEBU_SYSTEMTIME@@PEADAEAVCString@@@Z 0000000140117980 f   GestTimeZone.obj
 0001:00116a80       ?TimeFromSystemTimeUTC@CGestTimeZone@@IEAA_JPEBU_SYSTEMTIME@@@Z 0000000140117a80 f   GestTimeZone.obj
 0001:00116b50       ??1CLicenceAtelLog@@UEAA@XZ 0000000140117b50 f   LicenceAtelLog.obj
 0001:00116b50       ??1CFileLpxLog@@UEAA@XZ    0000000140117b50 f   FileLpxLog.obj
 0001:00116b50       ??1CTraceLog@@UEAA@XZ      0000000140117b50 f   TraceLog.obj
 0001:00116b90       ?CompareDate@CTraceLog@@IEAAHXZ 0000000140117b90 f   TraceLog.obj
 0001:00116ca0       ?EcritMessage@CTraceLog@@QEAAXPEAD@Z 0000000140117ca0 f   TraceLog.obj
 0001:00116dd0       ?EcritDelimiteur@CTraceLog@@QEAAXXZ 0000000140117dd0 f   TraceLog.obj
 0001:00116e80       ?EcritDelimiteurMessage@CTraceLog@@QEAAXPEAD@Z 0000000140117e80 f   TraceLog.obj
 0001:00116fc0       ?LitActiveTrace@CTraceLog@@QEAAHXZ 0000000140117fc0 f   TraceLog.obj
 0001:00117000       ?ActiveTrace@CTraceLog@@QEAAXH@Z 0000000140118000 f   TraceLog.obj
 0001:001170c0       ??0CTraceLogFile@@QEAA@XZ  00000001401180c0 f   TraceLogFile.obj
 0001:001171e0       ??_ECTraceLogFile@@UEAAPEAXI@Z 00000001401181e0 f i  CIL library: CIL module
 0001:001171e0       ??_GCTraceLogFile@@UEAAPEAXI@Z 00000001401181e0 f i TraceLogFile.obj
 0001:00117210       ??0CTraceLogFile@@QEAA@PEAD0@Z 0000000140118210 f   TraceLogFile.obj
 0001:001172d0       ??1CTraceLogFile@@UEAA@XZ  00000001401182d0 f   TraceLogFile.obj
 0001:001173b0       ?InitLogFile@CTraceLogFile@@QEAAXPEAD0@Z 00000001401183b0 f   TraceLogFile.obj
 0001:00117470       ?CreatePathOsys@CTraceLogFile@@IEAAXXZ 0000000140118470 f   TraceLogFile.obj
 0001:001175e0       ?ConstruireRep@CTraceLogFile@@IEAAXPEAD0AEAVCString@@@Z 00000001401185e0 f   TraceLogFile.obj
 0001:00117650       ?CreerFichier@CTraceLogFile@@IEAAXXZ 0000000140118650 f   TraceLogFile.obj
 0001:00117790       ?CreateNameFile@CTraceLogFile@@IEAAXAEAVCString@@@Z 0000000140118790 f   TraceLogFile.obj
 0001:00117890       ??_ECTraceLogFileOld@@UEAAPEAXI@Z 0000000140118890 f i  CIL library: CIL module
 0001:00117890       ??_GCTraceLogFileOld@@UEAAPEAXI@Z 0000000140118890 f i TraceLogFileOld.obj
 0001:001178d0       ??1CTraceLogFileOld@@UEAA@XZ 00000001401188d0 f   TraceLogFileOld.obj
 0001:001178e0       ?EffaceFichierTropVieux@CTraceLogFileOld@@QEAAXXZ 00000001401188e0 f   TraceLogFileOld.obj
 0001:00117a00       ?DateFichierLog@CTraceLogFileOld@@QEAAHPEAD@Z 0000000140118a00 f   TraceLogFileOld.obj
 0001:00117c30       ?FonctionDeLancementSuppScenAttente@@YAHPEAX@Z 0000000140118c30 f   SuppScenAttente.obj
 0001:00117c30       ?FonctionDeLancementGestCmdShell@@YAHPEAX@Z 0000000140118c30 f   GestCmdShell.obj
 0001:00117c30       ?FonctionLancementImpEtat@@YAHPEAX@Z 0000000140118c30 f   ImpEtat.obj
 0001:00117c30       ?FonctionDeLancementTraceLog@@YAHPEAX@Z 0000000140118c30 f   TraceLogThread.obj
 0001:00117c50       ??0CTraceLogThread@@QEAA@XZ 0000000140118c50 f   TraceLogThread.obj
 0001:00117cf0       ??_ECTraceLogThread@@UEAAPEAXI@Z 0000000140118cf0 f i  CIL library: CIL module
 0001:00117cf0       ??_GCTraceLogThread@@UEAAPEAXI@Z 0000000140118cf0 f i TraceLogThread.obj
 0001:00117d20       ??1CTraceLogThread@@UEAA@XZ 0000000140118d20 f   TraceLogThread.obj
 0001:00117da0       ?Init@CTraceLogThread@@QEAAHH@Z 0000000140118da0 f   TraceLogThread.obj
 0001:00117e70       ?Creer@CTraceLogThread@@UEAAHXZ 0000000140118e70 f   TraceLogThread.obj
 0001:00117ee0       ?Boucle@CTraceLogThread@@UEAAHXZ 0000000140118ee0 f   TraceLogThread.obj
 0001:00118100       ?Create@CClientTrace@@UEAAHHPEAVCServeurTCP@@@Z 0000000140119100 f   ClientTrace.obj
 0001:00118120       ?Receive@CClientTrace@@UEAAHPEAD@Z 0000000140119120 f   ClientTrace.obj
 0001:001182c0       ?Send@CClientTrace@@UEAAHPEAD@Z 00000001401192c0 f   ClientTrace.obj
 0001:001182d0       ??0CConfOsysTrace@@QEAA@XZ 00000001401192d0 f   ConfOsysTrace.obj
 0001:00118380       ?LitArchive@CConfOsysTrace@@UEAAHAEAVCInputArchive@@H@Z 0000000140119380 f   ConfOsysTrace.obj
 0001:00118850       ?EcritDansArchive@CConfOsysTrace@@UEAAHAEAVCOutputArchive@@H@Z 0000000140119850 f   ConfOsysTrace.obj
 0001:00118aa0       ?EcritRepDestination@CConfOsysTrace@@UEAAXVCString@@@Z 0000000140119aa0 f   ConfOsysTrace.obj
 0001:00118b20       ?EcritPurgeDate@CConfOsysTrace@@UEAAXH@Z 0000000140119b20 f   ConfOsysTrace.obj
 0001:00118b70       ?EcritTraceInstLPX@CConfOsysTrace@@UEAAXH@Z 0000000140119b70 f   ConfOsysTrace.obj
 0001:00118bc0       ?EcritTraceCmdShell@CConfOsysTrace@@UEAAXH@Z 0000000140119bc0 f   ConfOsysTrace.obj
 0001:00118c10       ??_ECConfTraceSrv@@UEAAPEAXI@Z 0000000140119c10 f i  CIL library: CIL module
 0001:00118c10       ??_GCConfTraceSrv@@UEAAPEAXI@Z 0000000140119c10 f i ConfTraceSrv.obj
 0001:00118c80       ??1CConfTraceSrv@@UEAA@XZ  0000000140119c80 f   ConfTraceSrv.obj
 0001:00118cd0       ?InitConf@CConfTraceSrv@@QEAAXPEAD@Z 0000000140119cd0 f   ConfTraceSrv.obj
 0001:00118d70       ?LitFichier@CConfTraceSrv@@QEAAHPEAD@Z 0000000140119d70 f   ConfTraceSrv.obj
 0001:00119050       ?EcritFichier@CConfTraceSrv@@QEAAHPEAD@Z 000000014011a050 f   ConfTraceSrv.obj
 0001:00119430       ?EcritRepDestination@CConfTraceSrv@@UEAAXVCString@@@Z 000000014011a430 f   ConfTraceSrv.obj
 0001:001194d0       ?EcritPurgeDate@CConfTraceSrv@@UEAAXH@Z 000000014011a4d0 f   ConfTraceSrv.obj
 0001:00119540       ?EcritTraceInstLPX@CConfTraceSrv@@UEAAXH@Z 000000014011a540 f   ConfTraceSrv.obj
 0001:001195a0       ?EcritActiveTraceCmdShell@CConfTraceSrv@@UEAAXH@Z 000000014011a5a0 f   ConfTraceSrv.obj
 0001:00119600       ?EcritActiveTraceFileLPX@CConfTraceSrv@@UEAAXH@Z 000000014011a600 f   ConfTraceSrv.obj
 0001:00119670       ?EcritActiveTraceGestLicence@CConfTraceSrv@@UEAAXH@Z 000000014011a670 f   ConfTraceSrv.obj
 0001:001196f0       ?LitArchive@CConfTraceSrv@@UEAAHAEAVCInputArchive@@H@Z 000000014011a6f0 f   ConfTraceSrv.obj
 0001:00119c60       ?EcritDansArchive@CConfTraceSrv@@UEAAHAEAVCOutputArchive@@H@Z 000000014011ac60 f   ConfTraceSrv.obj
 0001:0011a020       ??0COsysTrace@@QEAA@XZ     000000014011b020 f   OsysTrace.obj
 0001:0011a100       ??1COsysTrace@@QEAA@XZ     000000014011b100 f   OsysTrace.obj
 0001:0011a210       ?InitOsysTrace@COsysTrace@@QEAAXVCString@@HH@Z 000000014011b210 f   OsysTrace.obj
 0001:0011a300       ?EcritMessage@COsysTrace@@QEAAXHHHHPEAPEADH@Z 000000014011b300 f   OsysTrace.obj
 0001:0011a490       ?EcritInfoDebug@COsysTrace@@QEAAXHHHPEADPEAPEADHHH@Z 000000014011b490 f   OsysTrace.obj
 0001:0011a6e0       ?GetMessFicTrace@COsysTrace@@AEAAXHHPEADPEAPEADHH0AEAVCString@@@Z 000000014011b6e0 f   OsysTrace.obj
 0001:0011ac70       ?ClientArchive@COsysTrace@@QEAAXPEAVCInputArchive@@PEAVCOutputArchive@@H@Z 000000014011bc70 f   OsysTrace.obj
 0001:0011bb80       ?CreerFic@COsysTrace@@AEAAXXZ 000000014011cb80 f   OsysTrace.obj
 0001:0011bcc0       ?CompareDate@COsysTrace@@AEAAHXZ 000000014011ccc0 f   OsysTrace.obj
 0001:0011bdd0       ?EcritDansArchive@COsysTrace@@AEAAHAEAVCOutputArchive@@PEADH@Z 000000014011cdd0 f   OsysTrace.obj
 0001:0011c0f0       ?LitNomModule@COsysTrace@@AEAAXHPEADH@Z 000000014011d0f0 f   OsysTrace.obj
 0001:0011c350       ?CreerThread@COsysTrace@@AEAAXXZ 000000014011d350 f   OsysTrace.obj
 0001:0011c480       ?EnvoiMessages@COsysTrace@@QEAAXXZ 000000014011d480 f   OsysTrace.obj
 0001:0011c720       ?AjoutMess@COsysTrace@@AEAAXPEADH@Z 000000014011d720 f   OsysTrace.obj
 0001:0011c7f0       ?EcritMessClient@COsysTrace@@AEAAXHHHPEADPEAPEADHH0@Z 000000014011d7f0 f   OsysTrace.obj
 0001:0011caf0       ?ArretThread@COsysTrace@@AEAAXXZ 000000014011daf0 f   OsysTrace.obj
 0001:0011cbb0       ?CreerRep@COsysTrace@@AEAAXPEAD@Z 000000014011dbb0 f   OsysTrace.obj
 0001:0011ccd0       ?EffaceFichierTropVieux@COsysTrace@@AEAAXXZ 000000014011dcd0 f   OsysTrace.obj
 0001:0011ced0       ?NewClient@CServeurTrace@@UEAAPEAVCSocketTCP@@XZ 000000014011ded0 f   ServeurTrace.obj
 0001:0011cf20       ??_ECClientTrace@@UEAAPEAXI@Z 000000014011df20 f i  CIL library: CIL module
 0001:0011cf20       ??_GCSocketTCP@@UEAAPEAXI@Z 000000014011df20 f i SocketTCP.obj
 0001:0011cf20       ??_ECSocketTCP@@UEAAPEAXI@Z 000000014011df20 f i  CIL library: CIL module
 0001:0011cf20       ??_GCClientTrace@@UEAAPEAXI@Z 000000014011df20 f i ServeurTrace.obj
 0001:0011cf50       ?Send@CServeurTrace@@UEAAHHPEAD@Z 000000014011df50 f   ServeurTrace.obj
 0001:0011cff0       ??0CConfigurationDriver@@QEAA@H@Z 000000014011dff0 f   ConfigurationDriver.obj
 0001:0011d080       ??_ECConfigurationDriver@@UEAAPEAXI@Z 000000014011e080 f i  CIL library: CIL module
 0001:0011d080       ??_GCConfigurationDriver@@UEAAPEAXI@Z 000000014011e080 f i ConfigurationDriver.obj
 0001:0011d0b0       ??1CConfigurationDriver@@UEAA@XZ 000000014011e0b0 f   ConfigurationDriver.obj
 0001:0011d1a0       ?EcritArchive@CConfigurationDriver@@QEAAXAEAVCOutputArchive@@@Z 000000014011e1a0 f   ConfigurationDriver.obj
 0001:0011d430       ?LitArchive@CConfigurationDriver@@QEAAHAEAVCInputArchive@@H@Z 000000014011e430 f   ConfigurationDriver.obj
 0001:0011dd80       ?LigneCommande@CConfigurationDriver@@IEAAXHPEADAEAVCString@@@Z 000000014011ed80 f   ConfigurationDriver.obj
 0001:0011e170       ?ExecuteDriverParMoteur@CConfigurationDriver@@QEAAXHPEAD@Z 000000014011f170 f   ConfigurationDriver.obj
 0001:0011e3a0       ?ConstruitRep@CConfigurationDriver@@IEAAXAEAVCString@@@Z 000000014011f3a0 f   ConfigurationDriver.obj
 0001:0011e480       ?ConstruitFicDriver@CConfigurationDriver@@IEAAXAEAVCString@@@Z 000000014011f480 f   ConfigurationDriver.obj
 0001:0011e5d0       ?EnvoiMess@CConfigurationDriver@@QEAAXPEAD@Z 000000014011f5d0 f   ConfigurationDriver.obj
 0001:0011e6d0       ??_GCCryptCodeAdmin@@UEAAPEAXI@Z 000000014011f6d0 f i CryptCodeAdmin.obj
 0001:0011e6d0       ??_ECCryptCodeAdmin@@UEAAPEAXI@Z 000000014011f6d0 f i  CIL library: CIL module
 0001:0011e700       ?Decrypte@CCryptCodeAdmin@@QEAAJPEAD@Z 000000014011f700 f   CryptCodeAdmin.obj
 0001:0011e950       ?IsCodeJour@CCryptCodeAdmin@@QEAAH_J@Z 000000014011f950 f   CryptCodeAdmin.obj
 0001:0011ea90       ?CrypteChaine@CCrypteOsys@@SAXPEADAEAVCString@@0@Z 000000014011fa90 f   CryptOsys.obj
 0001:0011eb60       ?DecrypteChaine@CCrypteOsys@@SAHPEADAEAVCString@@0@Z 000000014011fb60 f   CryptOsys.obj
 0001:0011ec70       ??_GCGroupeSuperAdmin@@UEAAPEAXI@Z 000000014011fc70 f i GroupeSuperAdmin.obj
 0001:0011ec70       ??_ECGroupeSuperAdmin@@UEAAPEAXI@Z 000000014011fc70 f i  CIL library: CIL module
 0001:0011ecc0       ?TestMotPasse@CGroupeSuperAdmin@@UEAAHPEADH00@Z 000000014011fcc0 f   GroupeSuperAdmin.obj
 0001:0011eec0       ?LitLangueUser@CGroupeSuperAdmin@@UEAAHAEAVCOutputArchive@@HH@Z 000000014011fec0 f   GroupeSuperAdmin.obj
 0001:0011efe0       ??_GCGroupeUser@@UEAAPEAXI@Z 000000014011ffe0 f i GroupeUser.obj
 0001:0011efe0       ??_ECGroupeUser@@UEAAPEAXI@Z 000000014011ffe0 f i  CIL library: CIL module
 0001:0011f020       ?NewElement@CGroupeUser@@UEAAPEAVCElement@@HH@Z 0000000140120020 f   GroupeUser.obj
 0001:0011f070       ?CreationTerminaux@CGroupeUser@@QEAAXXZ 0000000140120070 f   GroupeUser.obj
 0001:0011f170       ?CreationAdministrateur@CGroupeUser@@QEAAXPEAD0@Z 0000000140120170 f   GroupeUser.obj
 0001:0011f220       ?TestMotPasse@CGroupeUser@@QEAAHPEADH00@Z 0000000140120220 f   GroupeUser.obj
 0001:0011f590       ?MiseAJourArchive@CGroupeUser@@UEAAXXZ 0000000140120590 f   GroupeUser.obj
 0001:0011f5d0       ?LitDescUser@CGroupeUser@@QEAAHAEAVCOutputArchive@@HPEAD@Z 00000001401205d0 f   GroupeUser.obj
 0001:0011f710       ?LitIdFenetreDefaut@CGroupeUser@@QEAAHHH@Z 0000000140120710 f   GroupeUser.obj
 0001:0011f9f0       ?LitLangueUser@CGroupeUser@@UEAAHAEAVCOutputArchive@@HH@Z 00000001401209f0 f   GroupeUser.obj
 0001:0011fdb0       ?LitLangueUser@CGroupeUser@@QEAAXAEAVCString@@H@Z 0000000140120db0 f   GroupeUser.obj
 0001:0011fe40       ?LitCfgDriver@CGroupeUser@@QEAAHAEAVCOutputArchive@@HH@Z 0000000140120e40 f   GroupeUser.obj
 0001:00120100       ?AjoutScenEnCoursUser@CGroupeUser@@QEAAXHHPEAVCListPeriph@@H@Z 0000000140121100 f   GroupeUser.obj
 0001:00120320       ?SupprimeScenEnCoursUser@CGroupeUser@@QEAAXHH@Z 0000000140121320 f   GroupeUser.obj
 0001:00120710       ?MessageDriver@CGroupeUser@@QEAAHHPEBD_JHHH@Z 0000000140121710 f   GroupeUser.obj
 0001:00120830       ?MessageUser@CGroupeUser@@QEAAHHPEBD_JPEAVCConnHTTP@@HH@Z 0000000140121830 f   GroupeUser.obj
 0001:00120c50       ?RechercheIdDriverScrut@CGroupeUser@@QEAAHHPEAH@Z 0000000140121c50 f   GroupeUser.obj
 0001:00120d10       ?LitNomGroupe@CGroupeUser@@UEAAXAEAVCString@@PEAD@Z 0000000140121d10 f   GroupeUser.obj
 0001:00120ed0       ?EcritNomGrpArchive@CGroupeUser@@UEAAHAEAVCOutputArchive@@@Z 0000000140121ed0 f   GroupeUser.obj
 0001:00120fd0       ?EcritElement@CGroupeUser@@UEAAHAEAVCInputArchive@@HHHH@Z 0000000140121fd0 f   GroupeUser.obj
 0001:00121120       ?AjouteElement@CGroupeUser@@UEAAHAEAVCInputArchive@@PEAD1HH1@Z 0000000140122120 f   GroupeUser.obj
 0001:001211d0       ?SupprimeElement@CGroupeUser@@UEAAHAEAVCOutputArchive@@HHH@Z 00000001401221d0 f   GroupeUser.obj
 0001:00121480       ?LitArchive@CGroupeUser@@UEAAXAEAVCInputArchive@@@Z 0000000140122480 f   GroupeUser.obj
 0001:00121d80       ?LitLicenceUser@CGroupeUser@@QEAAHHH@Z 0000000140122d80 f   GroupeUser.obj
 0001:00121f20       ?DriverAuto@CGroupeUser@@QEAAHH@Z 0000000140122f20 f   GroupeUser.obj
 0001:00122010       ?ArretDriverGereParSrv@CGroupeUser@@QEAAXXZ 0000000140123010 f   GroupeUser.obj
 0001:001220a0       ?AjoutModifGrpElementConsoleWeb@CGroupeUser@@UEAAXH@Z 00000001401230a0 f   GroupeUser.obj
 0001:001220d0       ?SuppElementConsoleWeb@CGroupeUser@@UEAAXH@Z 00000001401230d0 f   GroupeUser.obj
 0001:00122100       ?LitBaliseSuppElement@CGroupeUser@@UEAAXAEAVCFicXML@@H@Z 0000000140123100 f   GroupeUser.obj
 0001:00122110       ?CreationUserSrvWeb@CGroupeUser@@QEAAHPEAD0@Z 0000000140123110 f   GroupeUser.obj
 0001:001221e0       ??0CAdresseIpUser@@QEAA@HPEADPEAUin_addr@@@Z 00000001401231e0 f   ListAdresseIpUser.obj
 0001:00122280       ??_ECAdresseIpUser@@UEAAPEAXI@Z 0000000140123280 f i  CIL library: CIL module
 0001:00122280       ??_GCAdresseIpUser@@UEAAPEAXI@Z 0000000140123280 f i ListAdresseIpUser.obj
 0001:00122300       ??_ECListAdresseIpUser@@UEAAPEAXI@Z 0000000140123300 f i  CIL library: CIL module
 0001:00122300       ??_GCListAdresseIpUser@@UEAAPEAXI@Z 0000000140123300 f i ListAdresseIpUser.obj
 0001:00122330       ??1CListAdresseIpUser@@UEAA@XZ 0000000140123330 f   ListAdresseIpUser.obj
 0001:001223b0       ?Ajoute@CListAdresseIpUser@@QEAAHPEADHPEAUin_addr@@@Z 00000001401233b0 f   ListAdresseIpUser.obj
 0001:001224d0       ?SupprimeTout@CListAdresseIpUser@@QEAAXXZ 00000001401234d0 f   ListAdresseIpUser.obj
 0001:00122570       ?Supprime@CListAdresseIpUser@@QEAAHUin_addr@@@Z 0000000140123570 f   ListAdresseIpUser.obj
 0001:00122670       ?Supprime@CListAdresseIpUser@@QEAAHH@Z 0000000140123670 f   ListAdresseIpUser.obj
 0001:00122700       ?RechercheUser@CListAdresseIpUser@@QEAAHUin_addr@@PEAD@Z 0000000140123700 f   ListAdresseIpUser.obj
 0001:001227a0       ?CompareAdrIpHostName@CListAdresseIpUser@@IEAAHUin_addr@@PEAD1@Z 00000001401237a0 f   ListAdresseIpUser.obj
 0001:00122890       ??_ECListeDrivers@@UEAAPEAXI@Z 0000000140123890 f i  CIL library: CIL module
 0001:00122890       ??_GCListeDrivers@@UEAAPEAXI@Z 0000000140123890 f i ListeDrivers.obj
 0001:001228c0       ??1CListeDrivers@@UEAA@XZ  00000001401238c0 f   ListeDrivers.obj
 0001:00122940       ?Init@CListeDrivers@@QEAAXXZ 0000000140123940 f   ListeDrivers.obj
 0001:001230a0       ??0CDriver@@QEAA@XZ        00000001401240a0 f i ListeDrivers.obj
 0001:00123120       ?SupprimeTout@CListeDrivers@@QEAAXXZ 0000000140124120 f   ListeDrivers.obj
 0001:00123290       ?ConstruitRep@CListeDrivers@@IEAAXAEAVCString@@@Z 0000000140124290 f   ListeDrivers.obj
 0001:00123350       ?LitListeDrivers@CListeDrivers@@QEAAXAEAVCOutputArchive@@PEAD@Z 0000000140124350 f   ListeDrivers.obj
 0001:00123550       ?RechercheNom@CListeDrivers@@QEAAPEAVCDriver@@PEAD@Z 0000000140124550 f   ListeDrivers.obj
 0001:00123660       ?LitContenuFicDriver@CListeDrivers@@QEAAXAEAVCOutputArchive@@PEAD@Z 0000000140124660 f   ListeDrivers.obj
 0001:001239c0       ?LitArchive@CListeDrivers@@QEAAXAEAVCInputArchive@@PEAVCDriver@@@Z 00000001401249c0 f   ListeDrivers.obj
 0001:00123d20       ??0CListeGroupeUser@@QEAA@HPEAD0@Z 0000000140124d20 f   ListeGroupeUser.obj
 0001:00123e80       ??_GCListeGroupeUser@@UEAAPEAXI@Z 0000000140124e80 f i ListeGroupeUser.obj
 0001:00123e80       ??_ECListeGroupeUser@@UEAAPEAXI@Z 0000000140124e80 f i  CIL library: CIL module
 0001:00123eb0       ??1CListeGroupeUser@@UEAA@XZ 0000000140124eb0 f   ListeGroupeUser.obj
 0001:00123fb0       ?InitListGrpUser@CListeGroupeUser@@QEAAXXZ 0000000140124fb0 f   ListeGroupeUser.obj
 0001:00124040       ?CreateGroupe@CListeGroupeUser@@IEAAXXZ 0000000140125040 f   ListeGroupeUser.obj
 0001:001245f0       ?EcritGroupe@CListeGroupeUser@@UEAAHPEADHHH0@Z 00000001401255f0 f   ListeGroupeUser.obj
 0001:00124770       ?TestMotPasse@CListeGroupeUser@@QEAAHPEADH00@Z 0000000140125770 f   ListeGroupeUser.obj
 0001:00125520       ?NewGroupe@CListeGroupeUser@@UEAAPEAVCGroupe@@PEAVCListeGroupe@@HH@Z 0000000140126520 f   ListeGroupeUser.obj
 0001:001255a0       ?ClientArchiveEx@CListeGroupeUser@@UEAAXPEADAEAVCInputArchive@@AEAVCOutputArchive@@H0@Z 00000001401265a0 f   ListeGroupeUser.obj
 0001:00126e80       ?LitArchiveEx@CListeGroupeUser@@UEAAXPEADAEAVCInputArchive@@@Z 0000000140127e80 f   ListeGroupeUser.obj
 0001:001270e0       ?EcritArchiveEx@CListeGroupeUser@@UEAAXAEAVCOutputArchive@@@Z 00000001401280e0 f   ListeGroupeUser.obj
 0001:001271d0       ?AjouteGroupe@CListeGroupeUser@@UEAAHPEADHH0H@Z 00000001401281d0 f   ListeGroupeUser.obj
 0001:00127250       ?SupprimeGroupe@CListeGroupeUser@@UEAAHHHH@Z 0000000140128250 f   ListeGroupeUser.obj
 0001:001274d0       ?SupprimeElement@CListeGroupeUser@@UEAAHAEAVCOutputArchive@@HHH@Z 00000001401284d0 f   ListeGroupeUser.obj
 0001:00127780       ?DeconnexionAnonyme@CListeGroupeUser@@QEAAXH@Z 0000000140128780 f   ListeGroupeUser.obj
 0001:001278a0       ?LitDescUser@CListeGroupeUser@@QEAAHAEAVCOutputArchive@@HPEAD@Z 00000001401288a0 f   ListeGroupeUser.obj
 0001:001279a0       ?AjoutScenEnCoursUser@CListeGroupeUser@@QEAAXHHPEAVCListPeriph@@H@Z 00000001401289a0 f   ListeGroupeUser.obj
 0001:00127a30       ?AttenteSaisieScenUser@CListeGroupeUser@@QEAAXHHH@Z 0000000140128a30 f   ListeGroupeUser.obj
 0001:00127ae0       ?MessageDriver@CListeGroupeUser@@QEAAHHPEBD_JHHH@Z 0000000140128ae0 f   ListeGroupeUser.obj
 0001:00127ba0       ?MessageUser@CListeGroupeUser@@QEAAHHPEBD_JPEAVCConnHTTP@@HH@Z 0000000140128ba0 f   ListeGroupeUser.obj
 0001:00127e40       ?MessErreurDroitInsuff@CListeGroupeUser@@QEAAXHHH@Z 0000000140128e40 f   ListeGroupeUser.obj
 0001:00128130       ?LitIdFenetreDefaut@CListeGroupeUser@@QEAAHHH@Z 0000000140129130 f   ListeGroupeUser.obj
 0001:00128320       ?LitLangueUser@CListeGroupeUser@@QEAAHAEAVCOutputArchive@@HH@Z 0000000140129320 f   ListeGroupeUser.obj
 0001:00128510       ?LitLangueUser@CListeGroupeUser@@QEAAXAEAVCString@@H@Z 0000000140129510 f   ListeGroupeUser.obj
 0001:001285d0       ?LitCfgDriver@CListeGroupeUser@@QEAAHAEAVCOutputArchive@@HH@Z 00000001401295d0 f   ListeGroupeUser.obj
 0001:00128830       ?LitLancDriver@CListeGroupeUser@@QEAAHHH@Z 0000000140129830 f   ListeGroupeUser.obj
 0001:00128900       ?FonctionDeLancementDUnThreadCListeGroupeUser@@YAHPEAX@Z 0000000140129900 f   ListeGroupeUser.obj
 0001:00128910       ?Create@CListeGroupeUser@@QEAAXXZ 0000000140129910 f   ListeGroupeUser.obj
 0001:00128990       ?AjoutListIdUser@CListeGroupeUser@@QEAAXH@Z 0000000140129990 f   ListeGroupeUser.obj
 0001:00128a30       ?SupprimeTout@CListeGroupeUser@@QEAAXXZ 0000000140129a30 f   ListeGroupeUser.obj
 0001:00128b30       ?Boucle@CListeGroupeUser@@QEAAXXZ 0000000140129b30 f   ListeGroupeUser.obj
 0001:0012a250       ?ArretDriverNonGereMoteur@CListeGroupeUser@@QEAAHH@Z 000000014012b250 f   ListeGroupeUser.obj
 0001:0012a300       ?UtiliseHost@CListeGroupeUser@@QEAAHPEADHH@Z 000000014012b300 f   ListeGroupeUser.obj
 0001:0012a490       ?DriverAuto@CListeGroupeUser@@QEAAHH@Z 000000014012b490 f   ListeGroupeUser.obj
 0001:0012a510       ?LitTimeoutFenetreDefaut@CListeGroupeUser@@QEAAHHH@Z 000000014012b510 f   ListeGroupeUser.obj
 0001:0012a5b0       ?LitTypeFonctionnementDriver@CListeGroupeUser@@QEAAHH@Z 000000014012b5b0 f   ListeGroupeUser.obj
 0001:0012a640       ?LitListeBaliseGrp@CListeGroupeUser@@UEAAXAEAVCFicXML@@PEAD1@Z 000000014012b640 f   ListeGroupeUser.obj
 0001:0012a790       ?LitListeGroupe@CListeGroupeUser@@UEAAXAEAVCOutputArchive@@HHPEAD@Z 000000014012b790 f   ListeGroupeUser.obj
 0001:0012a960       ?AjouteUser@CListeGroupeUser@@QEAAHAEAVCInputArchive@@PEAD1H@Z 000000014012b960 f   ListeGroupeUser.obj
 0001:0012ad90       ?EcritUser@CListeGroupeUser@@QEAAHAEAVCInputArchive@@PEAD1@Z 000000014012bd90 f   ListeGroupeUser.obj
 0001:0012af30       ?SupprimeUser@CListeGroupeUser@@QEAAHAEAVCOutputArchive@@PEAD1@Z 000000014012bf30 f   ListeGroupeUser.obj
 0001:0012b0c0       ??1CListeMasqueIP@@QEAA@XZ 000000014012c0c0 f   ListeMasqueIP.obj
 0001:0012b140       ?AjouteMasqueIP@CListeMasqueIP@@QEAAHPEAD@Z 000000014012c140 f   ListeMasqueIP.obj
 0001:0012b230       ?SupprimeMasqueIP@CListeMasqueIP@@QEAAHPEAD@Z 000000014012c230 f   ListeMasqueIP.obj
 0001:0012b310       ?SupprimeTout@CListeMasqueIP@@QEAAXXZ 000000014012c310 f   ListeMasqueIP.obj
 0001:0012b3e0       ?EstAdresseValide@CListeMasqueIP@@AEAAHPEAD0@Z 000000014012c3e0 f   ListeMasqueIP.obj
 0001:0012b790       ?EstParametreValide@CListeMasqueIP@@AEAAHPEAD0@Z 000000014012c790 f   ListeMasqueIP.obj
 0001:0012b860       ?DecomposeAdresseIP@CListeMasqueIP@@AEAAXPEADAEAVCString@@111@Z 000000014012c860 f   ListeMasqueIP.obj
 0001:0012bf30       ?TesteAdresseIP@CListeMasqueIP@@QEAAHPEAD@Z 000000014012cf30 f   ListeMasqueIP.obj
 0001:0012bfd0       ?EcritArchive@CListeMasqueIP@@QEAAXAEAVCOutputArchive@@@Z 000000014012cfd0 f   ListeMasqueIP.obj
 0001:0012bfd0       ?LitListeMasqueIP@CListeMasqueIP@@QEAAXAEAVCOutputArchive@@@Z 000000014012cfd0 f   ListeMasqueIP.obj
 0001:0012c0d0       ?LitArchive@CListeMasqueIP@@QEAAXAEAVCInputArchive@@@Z 000000014012d0d0 f   ListeMasqueIP.obj
 0001:0012c550       ??_GCListMessUser@@UEAAPEAXI@Z 000000014012d550 f i ListMessUser.obj
 0001:0012c550       ??_ECListMessUser@@UEAAPEAXI@Z 000000014012d550 f i  CIL library: CIL module
 0001:0012c580       ??1CListMessUser@@UEAA@XZ  000000014012d580 f   ListMessUser.obj
 0001:0012c600       ?AjouteMess@CListMessUser@@QEAAXHPEBD_JPEAVCConnHTTP@@H@Z 000000014012d600 f   ListMessUser.obj
 0001:0012c6d0       ?SupprimePremierMess@CListMessUser@@QEAAXXZ 000000014012d6d0 f   ListMessUser.obj
 0001:0012c760       ??_GCMessUser@@QEAAPEAXI@Z 000000014012d760 f i ListMessUser.obj
 0001:0012c7b0       ?SupprimeTout@CListMessUser@@QEAAXXZ 000000014012d7b0 f   ListMessUser.obj
 0001:0012c880       ?SupprimeMessage@CListMessUser@@QEAAHPEAVCConnHTTP@@@Z 000000014012d880 f   ListMessUser.obj
 0001:0012c950       ??_GCListScenarioEnCoursUser@@UEAAPEAXI@Z 000000014012d950 f i ListScenarioEnCoursUser.obj
 0001:0012c950       ??_ECListScenarioEnCoursUser@@UEAAPEAXI@Z 000000014012d950 f i  CIL library: CIL module
 0001:0012c980       ??1CListScenarioEnCoursUser@@UEAA@XZ 000000014012d980 f   ListScenarioEnCoursUser.obj
 0001:0012ca00       ?SupprimeTout@CListScenarioEnCoursUser@@QEAAXXZ 000000014012da00 f   ListScenarioEnCoursUser.obj
 0001:0012cae0       ?AjouteScen@CListScenarioEnCoursUser@@QEAAXHAEAVCListPeriph@@H@Z 000000014012dae0 f   ListScenarioEnCoursUser.obj
 0001:0012cbb0       ?SupprimeScen@CListScenarioEnCoursUser@@QEAAXH@Z 000000014012dbb0 f   ListScenarioEnCoursUser.obj
 0001:0012cc50       ?SupprimeScenCours@CListScenarioEnCoursUser@@QEAAHH@Z 000000014012dc50 f   ListScenarioEnCoursUser.obj
 0001:0012cd00       ?EcritAttentMessScen@CListScenarioEnCoursUser@@QEAAXHH@Z 000000014012dd00 f   ListScenarioEnCoursUser.obj
 0001:0012cd90       ?RechercheScen@CListScenarioEnCoursUser@@QEAAHH@Z 000000014012dd90 f   ListScenarioEnCoursUser.obj
 0001:0012ce50       ?LitSupprimePremier@CListScenarioEnCoursUser@@QEAAHXZ 000000014012de50 f   ListScenarioEnCoursUser.obj
 0001:0012cec0       ??0CUser@@QEAA@HH@Z        000000014012dec0 f   User.obj
 0001:0012d140       ??_GCUser@@UEAAPEAXI@Z     000000014012e140 f i User.obj
 0001:0012d140       ??_ECUser@@UEAAPEAXI@Z     000000014012e140 f i  CIL library: CIL module
 0001:0012d170       ??1CUser@@UEAA@XZ          000000014012e170 f   User.obj
 0001:0012d340       ?EcritNomUser@CUser@@QEAAXPEAD@Z 000000014012e340 f   User.obj
 0001:0012d470       ?TestMotPasse@CUser@@QEAAHPEAD00@Z 000000014012e470 f   User.obj
 0001:0012d8c0       ?LitConfigDriver@CUser@@QEAAHAEAVCOutputArchive@@@Z 000000014012e8c0 f   User.obj
 0001:0012d9e0       ?UtiliseId@CUser@@UEAAHHAEAVCOutputArchive@@PEAD@Z 000000014012e9e0 f   User.obj
 0001:0012db90       ?EcritNomHote@CUser@@QEAAXPEAD@Z 000000014012eb90 f   User.obj
 0001:0012dc30       ?EcritArchive@CUser@@UEAAXAEAVCOutputArchive@@PEADH@Z 000000014012ec30 f   User.obj
 0001:0012e7b0       ?LitArchive@CUser@@UEAAHAEAVCInputArchive@@H@Z 000000014012f7b0 f   User.obj
 0001:0012fca0       ?MessErreurWriteProp@CUser@@QEAAXPEAD@Z 0000000140130ca0 f   User.obj
 0001:0012fdd0       ?MessErreurWriteValProp@CUser@@QEAAXPEAD0@Z 0000000140130dd0 f   User.obj
 0001:0012ff00       ?MessErreurReadProp@CUser@@QEAAXPEAD@Z 0000000140130f00 f   User.obj
 0001:00130030       ?ExecuteDriverParMoteur@CUser@@QEAAXXZ 0000000140131030 f   User.obj
 0001:00130120       ?LitNomElement@CUser@@UEAAXAEAVCString@@PEAD@Z 0000000140131120 f   User.obj
 0001:00130240       ?TestModifNomUser@CUser@@QEAAHXZ 0000000140131240 f   User.obj
 0001:001305e0       ?AjouteMess@CUser@@QEAAXHPEBD_JPEAVCConnHTTP@@H@Z 00000001401315e0 f   User.obj
 0001:00130b50       ?UtiliseHost@CUser@@QEAAHPEADH@Z 0000000140131b50 f   User.obj
 0001:00130d80       ?LitBaliseElement@CUser@@UEAAXAEAVCFicXML@@@Z 0000000140131d80 f   User.obj
 0001:001311f0       ??3@YAXPEAXHPEBDH@Z        00000001401321f0 f i Osyssrv.obj
 0001:00131200       main                       0000000140132200 f   Osyssrv.obj
 0001:001312c0       ??0CNTService@@QEAA@PEBD0@Z 00000001401322c0 f   NTService.obj
 0001:001314c0       ?RegisterService@CNTService@@UEAAHHPEAPEAD@Z 00000001401324c0 f   NTService.obj
 0001:00131640       ?StartDispatcher@CNTService@@UEAAHXZ 0000000140132640 f   NTService.obj
 0001:00131700       ?InstallService@CNTService@@UEAAHXZ 0000000140132700 f   NTService.obj
 0001:00131990       ?RemoveService@CNTService@@UEAAHXZ 0000000140132990 f   NTService.obj
 0001:00131bd0       ?EndService@CNTService@@UEAAHXZ 0000000140132bd0 f   NTService.obj
 0001:00131d60       ?StartupService@CNTService@@UEAAHXZ 0000000140132d60 f   NTService.obj
 0001:00131f20       ?_FacelessWndProc_@@YA_JPEAUHWND__@@I_K_J@Z 0000000140132f20 f   NTService.obj
 0001:00131f70       ?DebugService@CNTService@@UEAAHHPEAPEADH@Z 0000000140132f70 f   NTService.obj
 0001:001320f0       ?LitArchiveEx@CListeGroupe@@UEAAXPEADAEAVCInputArchive@@@Z 00000001401330f0 f   ListeGroupe.obj
 0001:001320f0       ?SupprimeContenu@CFichierMemoire@@UEAAXH@Z 00000001401330f0 f   FichierMemoire.obj
 0001:001320f0       ?Shutdown@CNTService@@UEAAXXZ 00000001401330f0 f   NTService.obj
 0001:001320f0       ?LitBaliseElement@CElement@@UEAAXAEAVCFicXML@@@Z 00000001401330f0 f   Fenetre.obj
 0001:001320f0       ?AjoutModifGrpElementConsoleWeb@CGroupe@@UEAAXH@Z 00000001401330f0 f   Groupe.obj
 0001:001320f0       ?LitArchiveEx@CBaseAction@@UEAAXPEADAEAVCInputArchive@@@Z 00000001401330f0 f   baseaction.obj
 0001:001320f0       ?EcritArchiveEx@CListeGroupe@@UEAAXAEAVCOutputArchive@@@Z 00000001401330f0 f   ListeGroupe.obj
 0001:001320f0       ?LitBaliseSuppElement@CGroupe@@UEAAXAEAVCFicXML@@H@Z 00000001401330f0 f   Groupe.obj
 0001:001320f0       ?EcritArchive@CFichierMemoire@@UEAAXAEAVCOutputArchive@@@Z 00000001401330f0 f   FichierMemoire.obj
 0001:001320f0       ?Continue@CNTService@@UEAAXXZ 00000001401330f0 f   NTService.obj
 0001:001320f0       ?ClientArchiveEx@CListeGroupe@@UEAAXPEADAEAVCInputArchive@@AEAVCOutputArchive@@H0@Z 00000001401330f0 f   ListeGroupe.obj
 0001:001320f0       ?Pause@CNTService@@UEAAXXZ 00000001401330f0 f   NTService.obj
 0001:001320f0       ?EcritArchive@CBaseAction@@UEAAXAEAVCOutputArchive@@PEAVCListAction@@PEAD@Z 00000001401330f0 f   baseaction.obj
 0001:001320f0       ?SuppElementConsoleWeb@CGroupe@@UEAAXH@Z 00000001401330f0 f   Groupe.obj
 0001:001320f0       ?SupprimeContenu@CTypeArchiveMemoire@@UEAAXH@Z 00000001401330f0 f   Contenu.obj
 0001:001320f0       ?EcritArchiveEx@CBaseAction@@UEAAXAEAVCOutputArchive@@@Z 00000001401330f0 f   baseaction.obj
 0001:00132100       ?ServiceMain@CNTService@@SAXKPEAPEAD@Z 0000000140133100 f   NTService.obj
 0001:00132210       ?ServiceCtrl@CNTService@@SAXK@Z 0000000140133210 f   NTService.obj
 0001:001322a0       ?ControlHandler@CNTService@@SAHK@Z 00000001401332a0 f   NTService.obj
 0001:001322e0       ?ReportStatus@CNTService@@QEAAHKKK@Z 00000001401332e0 f   NTService.obj
 0001:00132370       ?AddToMessageLog@CNTService@@UEAAXPEADGK@Z 0000000140133370 f   NTService.obj
 0001:00132440       ?GetLastErrorText@CNTService@@QEAAPEADPEADK@Z 0000000140133440 f   NTService.obj
 0001:00132500       ?RegisterApplicationLog@CNTService@@MEAAXPEBDK@Z 0000000140133500 f   NTService.obj
 0001:00132790       ?DeregisterApplicationLog@CNTService@@MEAAXXZ 0000000140133790 f   NTService.obj
 0001:001329f0       ?SetupConsole@CNTService@@QEAAXXZ 00000001401339f0 f   NTService.obj
 0001:00132b30       ??_9CNTService@@$BEI@AA    0000000140133b30 f i NTService.obj
 0001:00132b40       ??_9CNTService@@$BDA@AA    0000000140133b40 f i NTService.obj
 0001:00132b50       ??_9CNTService@@$BEA@AA    0000000140133b50 f i NTService.obj
 0001:00132b60       ??_9CNTService@@$BFA@AA    0000000140133b60 f i NTService.obj
 0001:00132b70       ??_9CNTService@@$BDI@AA    0000000140133b70 f i NTService.obj
 0001:00132b80       ??0CSerBor@@QEAA@XZ        0000000140133b80 f   SerBor.obj
 0001:00132c10       ?Run@CSerBor@@UEAAXKPEAPEAD@Z 0000000140133c10 f   SerBor.obj
 0001:001343d0       ?Stop@CSerBor@@UEAAXXZ     00000001401353d0 f   SerBor.obj
 0001:001344a0       ?TraceDmdArretSrv@CSerBor@@AEAAXXZ 00000001401354a0 f   SerBor.obj
 0001:00134a40       ?VideRepTmp@CSerBor@@AEAAXXZ 0000000140135a40 f   SerBor.obj
 0001:00134da0       ?RepModuleExiste@@YAXPEAD0@Z 0000000140135da0 f   SerBor.obj
 0001:00134e80       ?TestRepModuleExiste@@YAXPEAD@Z 0000000140135e80 f   SerBor.obj
 0001:00134f50       ?DecodeLigneCommande@@YAXAEAVCString@@00AEAH1@Z 0000000140135f50 f   SerBor.obj
 0001:00135760       ?MiseAJourArchive@@YAXXZ   0000000140136760 f   SerBor.obj
 0001:001358f0       ?TraceDemarrageSrv@@YAXPEADH@Z 00000001401368f0 f   SerBor.obj
 0001:00135bc0       ?TraceArretSrv@@YAXH@Z     0000000140136bc0 f   SerBor.obj
 0001:00135d40       ?LitNomFichier@CFicCfg@@KAHAEAVCString@@PEAD@Z 0000000140136d40 f   FicCfg.obj
 0001:00135f10       ?InitFichier@CFicCfg@@SAXXZ 0000000140136f10 f   FicCfg.obj
 0001:00136010       ?LitArchive@CFicCfg@@KAXAEAVCInputArchive@@@Z 0000000140137010 f   FicCfg.obj
 0001:001362f0       ?EcritArchive@CFicCfg@@KAXAEAVCOutputArchive@@@Z 00000001401372f0 f   FicCfg.obj
 0001:00136650       ?SauvFichier@CFicCfg@@SAXXZ 0000000140137650 f   FicCfg.obj
 0001:00136770       ?LitFichier@CFicCfg@@KAXPEAD@Z 0000000140137770 f   FicCfg.obj
 0001:00136910       ?EcritFichier@CFicCfg@@KAXPEAD@Z 0000000140137910 f   FicCfg.obj
 0001:001369c0       ??1CProcessDriverEtat@@UEAA@XZ 00000001401379c0 f   ProcessDriverEtat.obj
 0001:00136a00       ?GetListIdProcess@CProcessDriverEtat@@QEAAHQEAHH@Z 0000000140137a00 f   ProcessDriverEtat.obj
 0001:00136ce0       ?FonctionLancementDUnThread@@YAHPEAX@Z 0000000140137ce0 f   SurveilDriverEtat.obj
 0001:00136cf0       ??0CSurveilDriverEtat@@QEAA@XZ 0000000140137cf0 f   SurveilDriverEtat.obj
 0001:00136e00       ??_ECSurveilDriverEtat@@UEAAPEAXI@Z 0000000140137e00 f i  CIL library: CIL module
 0001:00136e00       ??_GCSurveilDriverEtat@@UEAAPEAXI@Z 0000000140137e00 f i SurveilDriverEtat.obj
 0001:00136e30       ??1CSurveilDriverEtat@@UEAA@XZ 0000000140137e30 f   SurveilDriverEtat.obj
 0001:00136f10       ?ExecuteDriver@CSurveilDriverEtat@@QEAAHHPEAD0H@Z 0000000140137f10 f   SurveilDriverEtat.obj
 0001:00137060       ?TuerProcessDriverEtat@CSurveilDriverEtat@@QEAAXH@Z 0000000140138060 f   SurveilDriverEtat.obj
 0001:00137110       ?SupprimeDriver@CSurveilDriverEtat@@IEAAHH@Z 0000000140138110 f   SurveilDriverEtat.obj
 0001:001371b0       ?SupprimeTout@CSurveilDriverEtat@@IEAAXXZ 00000001401381b0 f   SurveilDriverEtat.obj
 0001:001372f0       ?DriverExiste@CSurveilDriverEtat@@IEAAXH@Z 00000001401382f0 f   SurveilDriverEtat.obj
 0001:00137390       ?IsKillProcess@CSurveilDriverEtat@@IEAAHHH@Z 0000000140138390 f   SurveilDriverEtat.obj
 0001:001374a0       ?InitThread@CSurveilDriverEtat@@IEAAHXZ 00000001401384a0 f   SurveilDriverEtat.obj
 0001:00137520       ?Boucle@CSurveilDriverEtat@@QEAAHXZ 0000000140138520 f   SurveilDriverEtat.obj
 0001:001375c0       ?GestionArretDriverEtat@CSurveilDriverEtat@@IEAAXXZ 00000001401385c0 f   SurveilDriverEtat.obj
 0001:001377d0       ?DepileMessChaqueDriver@CSurveilDriverEtat@@QEAAXXZ 00000001401387d0 f   SurveilDriverEtat.obj
 0001:00137890       ?ArretProcessus@CSurveilDriverEtat@@IEAAHPEAU_PROCESS_INFORMATION@@@Z 0000000140138890 f   SurveilDriverEtat.obj
 0001:00137960       ?ArretThreadSurveilEtat@CSurveilDriverEtat@@IEAAXH@Z 0000000140138960 f   SurveilDriverEtat.obj
 0001:001379f0       ?FonctionDeLancementDUnThread@@YAHPEAX@Z 00000001401389f0 f   SurveilScrut.obj
 0001:00137a20       ?AjouteDriver@CSurveilScrut@@QEAAHH@Z 0000000140138a20 f   SurveilScrut.obj
 0001:00137aa0       ?GestionAppliScrut@CSurveilScrut@@QEAAHXZ 0000000140138aa0 f   SurveilScrut.obj
 0001:00138050       ?ConvertStringToBSTR@_com_util@@YAPEA_WPEBD@Z 0000000140139050 f   comsuppw:comutil.obj
 0001:001381e0       ?ConvertBSTRToString@_com_util@@YAPEADPEA_W@Z 00000001401391e0 f   comsuppw:comutil.obj
 0001:001382f0       ?_com_issue_error@@YAXJ@Z  00000001401392f0 f   comsuppw:comsupp.obj
 0001:00138300       ?_com_issue_errorex@@YAXJPEAUIUnknown@@AEBU_GUID@@@Z 0000000140139300 f   comsuppw:comsupp.obj
 0001:001383a0       ?_com_raise_error@@YAXJPEAUIErrorInfo@@@Z 00000001401393a0 f   comsuppw:comraise.obj
 0001:001383f0       __security_check_cookie    00000001401393f0 f   LIBCMT:amdsecgs.obj
 0001:00138410       sprintf                    0000000140139410 f   LIBCMT:sprintf.obj
 0001:001384b0       feof                       00000001401394b0 f   LIBCMT:feoferr.obj
 0001:001384d8       strstr                     00000001401394d8 f   LIBCMT:strstr.obj
 0001:00138530       _snprintf                  0000000140139530 f   LIBCMT:snprintf.obj
 0001:001385e4       fgets                      00000001401395e4 f   LIBCMT:fgets.obj
 0001:0013874c       _fsopen                    000000014013974c f   LIBCMT:fopen.obj
 0001:00138824       fopen                      0000000140139824 f   LIBCMT:fopen.obj
 0001:00138830       ??3@YAXPEAX@Z              0000000140139830 f   LIBCMT:delete.obj
 0001:00138838       ??_Etype_info@@UEAAPEAXI@Z 0000000140139838 f i LIBCMT:typinfo.obj
 0001:00138838       ??_Gtype_info@@UEAAPEAXI@Z 0000000140139838 f i LIBCMT:typinfo.obj
 0001:00138874       ??8type_info@@QEBA_NAEBV0@@Z 0000000140139874 f   LIBCMT:typinfo.obj
 0001:00138894       _fclose_nolock             0000000140139894 f   LIBCMT:fclose.obj
 0001:00138910       fclose                     0000000140139910 f   LIBCMT:fclose.obj
 0001:00138978       _time64                    0000000140139978 f   LIBCMT:time64.obj
 0001:001389d8       ??1bad_alloc@std@@UEAA@XZ  00000001401399d8 f i LIBCMT:new.obj
 0001:001389e8       ??_Gbad_alloc@std@@UEAAPEAXI@Z 00000001401399e8 f i LIBCMT:new.obj
 0001:001389e8       ??_Ebad_alloc@std@@UEAAPEAXI@Z 00000001401399e8 f i LIBCMT:new.obj
 0001:00138a24       ??0bad_alloc@std@@QEAA@AEBV01@@Z 0000000140139a24 f i LIBCMT:new.obj
 0001:00138a48       ??2@YAPEAX_K@Z             0000000140139a48 f   LIBCMT:new.obj
 0001:00138b00       strncpy                    0000000140139b00 f   LIBCMT:strncpy.obj
 0001:00138c64       div                        0000000140139c64 f   LIBCMT:div.obj
 0001:00138c7c       printf                     0000000140139c7c f   LIBCMT:printf.obj
 0001:00138d28       _get_printf_count_output   0000000140139d28 f   LIBCMT:printf.obj
 0001:00138d94       _itoa                      0000000140139d94 f   LIBCMT:xtoa.obj
 0001:00138dc0       free                       0000000140139dc0 f   LIBCMT:free.obj
 0001:00138e00       malloc                     0000000140139e00 f   LIBCMT:malloc.obj
 0001:00138eb8       ??0_LocaleUpdate@@QEAA@PEAUlocaleinfo_struct@@@Z 0000000140139eb8 f i LIBCMT:toupper.obj
 0001:00138f5c       _toupper_l                 0000000140139f5c f   LIBCMT:toupper.obj
 0001:001390ac       toupper                    000000014013a0ac f   LIBCMT:toupper.obj
 0001:001390cc       realloc                    000000014013a0cc f   LIBCMT:realloc.obj
 0001:001391a0       ??_U@YAPEAX_K@Z            000000014013a1a0 f   LIBCMT:new2.obj
 0001:001391a0       ??2@YAPEAX_KHPEBDH@Z       000000014013a1a0 f   LIBCMT:dbgnew.obj
 0001:001391a8       ??_V@YAXPEAX@Z             000000014013a1a8 f   LIBCMT:delete2.obj
 0001:00139258       sscanf                     000000014013a258 f   LIBCMT:sscanf.obj
 0001:00139290       isalpha                    000000014013a290 f i LIBCMT:_ctype.obj
 0001:00139314       isupper                    000000014013a314 f i LIBCMT:_ctype.obj
 0001:00139394       islower                    000000014013a394 f i LIBCMT:_ctype.obj
 0001:00139414       isdigit                    000000014013a414 f i LIBCMT:_ctype.obj
 0001:00139494       isxdigit                   000000014013a494 f i LIBCMT:_ctype.obj
 0001:00139518       isspace                    000000014013a518 f i LIBCMT:_ctype.obj
 0001:00139598       ispunct                    000000014013a598 f i LIBCMT:_ctype.obj
 0001:00139618       isalnum                    000000014013a618 f i LIBCMT:_ctype.obj
 0001:0013969c       isprint                    000000014013a69c f i LIBCMT:_ctype.obj
 0001:00139720       isgraph                    000000014013a720 f i LIBCMT:_ctype.obj
 0001:001397a4       iscntrl                    000000014013a7a4 f i LIBCMT:_ctype.obj
 0001:00139824       __ascii_stricmp            000000014013a824 f   LIBCMT:stricmp.obj
 0001:00139860       _stricmp_l                 000000014013a860 f   LIBCMT:stricmp.obj
 0001:00139938       _stricmp                   000000014013a938 f   LIBCMT:stricmp.obj
 0001:00139990       memmove                    000000014013a990     LIBCMT:memcpy.obj
 0001:00139990       memcpy                     000000014013a990 f   LIBCMT:memcpy.obj
 0001:00139cc4       strchr                     000000014013acc4 f   LIBCMT:strchr.obj
 0001:00139ce0       _tolower_l                 000000014013ace0 f   LIBCMT:tolower.obj
 0001:00139e30       tolower                    000000014013ae30 f   LIBCMT:tolower.obj
 0001:00139e50       _initp_heap_handler        000000014013ae50 f   LIBCMT:handler.obj
 0001:00139e58       ?_set_new_handler@@YAP6AH_K@ZP6AH0@Z@Z 000000014013ae58 f   LIBCMT:handler.obj
 0001:00139ea8       _callnewh                  000000014013aea8 f   LIBCMT:handler.obj
 0001:00139edc       strrchr                    000000014013aedc f   LIBCMT:strrchr.obj
 0001:00139f04       strcspn                    000000014013af04 f   LIBCMT:strcspn.obj
 0001:00139f98       strpbrk                    000000014013af98 f   LIBCMT:strpbrk.obj
 0001:0013a034       __crtCorExitProcess        000000014013b034 f   LIBCMT:crt0dat.obj
 0001:0013a070       __crtExitProcess           000000014013b070 f   LIBCMT:crt0dat.obj
 0001:0013a088       _lockexit                  000000014013b088 f   LIBCMT:crt0dat.obj
 0001:0013a094       _unlockexit                000000014013b094 f   LIBCMT:crt0dat.obj
 0001:0013a0a0       _init_pointers             000000014013b0a0 f   LIBCMT:crt0dat.obj
 0001:0013a118       _initterm_e                000000014013b118 f   LIBCMT:crt0dat.obj
 0001:0013a154       _cinit                     000000014013b154 f   LIBCMT:crt0dat.obj
 0001:0013a394       exit                       000000014013b394 f   LIBCMT:crt0dat.obj
 0001:0013a3a0       _exit                      000000014013b3a0 f   LIBCMT:crt0dat.obj
 0001:0013a3ac       _cexit                     000000014013b3ac f   LIBCMT:crt0dat.obj
 0001:0013a3bc       _c_exit                    000000014013b3bc f   LIBCMT:crt0dat.obj
 0001:0013a3cc       _amsg_exit                 000000014013b3cc f   LIBCMT:crt0dat.obj
 0001:0013a3f4       _vsnprintf_l               000000014013b3f4 f   LIBCMT:vsnprint.obj
 0001:0013a4c0       _vsnprintf                 000000014013b4c0 f   LIBCMT:vsnprint.obj
 0001:0013a4d8       fputc                      000000014013b4d8 f   LIBCMT:fputc.obj
 0001:0013a5f0       fgetc                      000000014013b5f0 f   LIBCMT:fgetc.obj
 0001:0013a6f4       _fread_nolock_s            000000014013b6f4 f   LIBCMT:fread.obj
 0001:0013a92c       fread_s                    000000014013b92c f   LIBCMT:fread.obj
 0001:0013a9d4       fread                      000000014013b9d4 f   LIBCMT:fread.obj
 0001:0013a9f4       _fwrite_nolock             000000014013b9f4 f   LIBCMT:fwrite.obj
 0001:0013ab80       fwrite                     000000014013bb80 f   LIBCMT:fwrite.obj
 0001:0013ac10       _msize                     000000014013bc10 f   LIBCMT:msize.obj
 0001:0013ac60       strncmp                    000000014013bc60 f   LIBCMT:strncmp.obj
 0001:0013ad18       _localtime64_s             000000014013bd18 f   LIBCMT:loctim64.obj
 0001:0013b034       _localtime64               000000014013c034 f   LIBCMT:loctim64.obj
 0001:0013b07c       rename                     000000014013c07c f   LIBCMT:rename.obj
 0001:0013b0ac       _getdrive                  000000014013c0ac f   LIBCMT:drive.obj
 0001:0013b19c       remove                     000000014013c19c f   LIBCMT:unlink.obj
 0001:0013b1cc       __time64_t_from_ft         000000014013c1cc f   LIBCMT:findfi32.obj
 0001:0013b25c       _findfirst64i32            000000014013c25c f   LIBCMT:findfi32.obj
 0001:0013b3a4       _findnext64i32             000000014013c3a4 f   LIBCMT:findfi32.obj
 0001:0013b4c8       _findclose                 000000014013c4c8 f   LIBCMT:findfile.obj
 0001:0013b4f0       _mkdir                     000000014013c4f0 f   LIBCMT:mkdir.obj
 0001:0013b524       _rmdir                     000000014013c524 f   LIBCMT:rmdir.obj
 0001:0013b554       _stat64i32                 000000014013c554 f   LIBCMT:stati32.obj
 0001:0013ba54       vprintf_helper             000000014013ca54 f   LIBCMT:vprintf.obj
 0001:0013bafc       vprintf                    000000014013cafc f   LIBCMT:vprintf.obj
 0001:0013bb14       perror                     000000014013cb14 f   LIBCMT:perror.obj
 0001:0013bbc4       __iob_func                 000000014013cbc4 f   LIBCMT:_file.obj
 0001:0013bbcc       __initstdio                000000014013cbcc f   LIBCMT:_file.obj
 0001:0013bcac       __endstdio                 000000014013ccac f   LIBCMT:_file.obj
 0001:0013bcd4       _lock_file                 000000014013ccd4 f   LIBCMT:_file.obj
 0001:0013bd38       _lock_file2                000000014013cd38 f   LIBCMT:_file.obj
 0001:0013bd6c       _unlock_file               000000014013cd6c f   LIBCMT:_file.obj
 0001:0013bdb8       _unlock_file2              000000014013cdb8 f   LIBCMT:_file.obj
 0001:0013bdd8       fprintf                    000000014013cdd8 f   LIBCMT:fprintf.obj
 0001:0013bf08       atoi                       000000014013cf08 f   LIBCMT:atox.obj
 0001:0013bf08       atol                       000000014013cf08 f   LIBCMT:atox.obj
 0001:0013bf14       memcpy_s                   000000014013cf14 f   LIBCMT:memcpy_s.obj
 0001:0013c250       _mktime64                  000000014013d250 f   LIBCMT:mktime64.obj
 0001:0013c25c       _mkgmtime64                000000014013d25c f   LIBCMT:mktime64.obj
 0001:0013c264       fputs                      000000014013d264 f   LIBCMT:fputs.obj
 0001:0013c398       _flush                     000000014013d398 f   LIBCMT:fflush.obj
 0001:0013c414       _fflush_nolock             000000014013d414 f   LIBCMT:fflush.obj
 0001:0013c54c       fflush                     000000014013d54c f   LIBCMT:fflush.obj
 0001:0013c590       _flushall                  000000014013d590 f   LIBCMT:fflush.obj
 0001:0013c59c       _ftell_nolock              000000014013d59c f   LIBCMT:ftell.obj
 0001:0013c754       ftell                      000000014013d754 f   LIBCMT:ftell.obj
 0001:0013c7ac       _fseek_nolock              000000014013d7ac f   LIBCMT:fseek.obj
 0001:0013c860       fseek                      000000014013d860 f   LIBCMT:fseek.obj
 0001:0013d55c       _Strftime_l                000000014013e55c f   LIBCMT:strftime.obj
 0001:0013d72c       strftime                   000000014013e72c f   LIBCMT:strftime.obj
 0001:0013d748       _difftime64                000000014013e748 f   LIBCMT:difftm64.obj
 0001:0013d778       _ftime64_s                 000000014013e778 f   LIBCMT:ftime64.obj
 0001:0013d90c       _ftime64                   000000014013e90c f   LIBCMT:ftime64.obj
 0001:0013d914       _chdir                     000000014013e914 f   LIBCMT:chdir.obj
 0001:0013da44       __onexitinit               000000014013ea44 f   LIBCMT:onexit.obj
 0001:0013da88       _onexit                    000000014013ea88 f   LIBCMT:onexit.obj
 0001:0013db94       atexit                     000000014013eb94 f   LIBCMT:onexit.obj
 0001:0013dbac       _getpid                    000000014013ebac f   LIBCMT:getpid.obj
 0001:0013dbb4       clock                      000000014013ebb4 f   LIBCMT:clock.obj
 0001:0013dbf4       __inittime                 000000014013ebf4 f   LIBCMT:clock.obj
 0001:0013dc24       _gmtime64_s                000000014013ec24 f   LIBCMT:gmtime64.obj
 0001:0013def4       _gmtime64                  000000014013eef4 f   LIBCMT:gmtime64.obj
 0001:0013df3c       ?_strlwr_s_l_stat@@YAHPEAD_KPEAUlocaleinfo_struct@@@Z 000000014013ef3c f   LIBCMT:strlwr.obj
 0001:0013e138       _strlwr_s_l                000000014013f138 f   LIBCMT:strlwr.obj
 0001:0013e184       _strlwr                    000000014013f184 f   LIBCMT:strlwr.obj
 0001:0013e3e4       _strupr_s_l                000000014013f3e4 f   LIBCMT:strupr.obj
 0001:0013e430       _strupr                    000000014013f430 f   LIBCMT:strupr.obj
 0001:0013e494       srand                      000000014013f494 f   LIBCMT:rand.obj
 0001:0013e4ac       rand                       000000014013f4ac f   LIBCMT:rand.obj
 0001:0013e4d8       _getenv_helper_nolock      000000014013f4d8 f   LIBCMT:getenv.obj
 0001:0013e57c       getenv                     000000014013f57c f   LIBCMT:getenv.obj
 0001:0013e600       longjmp                    000000014013f600 f   LIBCMT:longjmp.obj
 0001:0013e700       strncat                    000000014013f700 f   LIBCMT:strncat.obj
 0001:0013e898       _purecall                  000000014013f898 f   LIBCMT:purevirt.obj
 0001:0013e8d0       __ascii_strnicmp           000000014013f8d0 f   LIBCMT:strnicmp.obj
 0001:0013e918       _strnicmp_l                000000014013f918 f   LIBCMT:strnicmp.obj
 0001:0013ea1c       _strnicmp                  000000014013fa1c f   LIBCMT:strnicmp.obj
 0001:0013ea6c       _atof_l                    000000014013fa6c f   LIBCMT:atof.obj
 0001:0013eb3c       atof                       000000014013fb3c f   LIBCMT:atof.obj
 0001:0013eb44       ?__ArrayUnwind@@YAXPEAX_KHP6AX0@Z@Z 000000014013fb44 f   LIBCMT:ehvecdtr.obj
 0001:0013eb90       ??_M@YAXPEAX_KHP6AX0@Z@Z   000000014013fb90 f   LIBCMT:ehvecdtr.obj
 0001:0013ebf0       ??_L@YAXPEAX_KHP6AX0@Z2@Z  000000014013fbf0 f   LIBCMT:ehvecctr.obj
 0001:0013ec54       _get_errno_from_oserr      000000014013fc54 f   LIBCMT:dosmap.obj
 0001:0013ec9c       _errno                     000000014013fc9c f   LIBCMT:dosmap.obj
 0001:0013ecbc       __doserrno                 000000014013fcbc f   LIBCMT:dosmap.obj
 0001:0013ecdc       _dosmaperr                 000000014013fcdc f   LIBCMT:dosmap.obj
 0001:0013ef90       strtol                     000000014013ff90 f   LIBCMT:strtol.obj
 0001:0013efc0       setvbuf                    000000014013ffc0 f   LIBCMT:setvbuf.obj
 0001:0013f0d0       _set_osfhnd                00000001401400d0 f   LIBCMT:osfinfo.obj
 0001:0013f180       _free_osfhnd               0000000140140180 f   LIBCMT:osfinfo.obj
 0001:0013f22c       _get_osfhandle             000000014014022c f   LIBCMT:osfinfo.obj
 0001:0013f2a0       __lock_fhandle             00000001401402a0 f   LIBCMT:osfinfo.obj
 0001:0013f348       _unlock_fhandle            0000000140140348 f   LIBCMT:osfinfo.obj
 0001:0013f370       _alloc_osfhnd              0000000140140370 f   LIBCMT:osfinfo.obj
 0001:0013f578       _open_osfhandle            0000000140140578 f   LIBCMT:osfinfo.obj
 0001:0013f674       _fdopen                    0000000140140674 f   LIBCMT:fdopen.obj
 0001:00140220       __tzset                    0000000140141220 f   LIBCMT:tzset.obj
 0001:0014025c       _tzset                     000000014014125c f   LIBCMT:tzset.obj
 0001:00140280       _isindst                   0000000140141280 f   LIBCMT:tzset.obj
 0001:001402b0       _strcats                   00000001401412b0 f   LIBCMT:setlocal.obj
 0001:00140318       __lc_strtolc               0000000140141318 f   LIBCMT:setlocal.obj
 0001:001404c8       __lc_lctostr               00000001401414c8 f   LIBCMT:setlocal.obj
 0001:0014073c       _expandlocale              000000014014173c f   LIBCMT:setlocal.obj
 0001:00140eac       setlocale                  0000000140141eac f   LIBCMT:setlocal.obj
 0001:001411e0       mainCRTStartup             00000001401421e0 f   LIBCMT:crt0.obj
 0001:001411f4       __GSHandlerCheck_SEH       00000001401421f4 f   LIBCMT:gshandlerseh.obj
 0001:001412a0       _alloca_probe              00000001401422a0     LIBCMT:chkstk.obj
 0001:001412a0       __chkstk                   00000001401422a0 f   LIBCMT:chkstk.obj
 0001:001412f0       ?_GetEstablisherFrame@@YAPEA_KPEA_KPEAU_xDISPATCHER_CONTEXT@@PEBU_s_FuncInfo@@0@Z 00000001401422f0 f   LIBCMT:trnsctrl.obj
 0001:001413dc       _GetImageBase              00000001401423dc f   LIBCMT:trnsctrl.obj
 0001:001413f4       _GetThrowImageBase         00000001401423f4 f   LIBCMT:trnsctrl.obj
 0001:0014140c       _SetImageBase              000000014014240c f   LIBCMT:trnsctrl.obj
 0001:00141428       _SetThrowImageBase         0000000140142428 f   LIBCMT:trnsctrl.obj
 0001:00141444       ?__FrameUnwindToEmptyState@@YAXPEA_KPEAU_xDISPATCHER_CONTEXT@@PEBU_s_FuncInfo@@@Z 0000000140142444 f   LIBCMT:trnsctrl.obj
 0001:001414f0       __CxxFrameHandler3         00000001401424f0 f   LIBCMT:trnsctrl.obj
 0001:00141578       ?__SehTransFilter@@YAHPEAU_EXCEPTION_POINTERS@@PEAUEHExceptionRecord@@PEA_KPEAU_CONTEXT@@PEAU_xDISPATCHER_CONTEXT@@PEBU_s_FuncInfo@@PEAH@Z 0000000140142578 f   LIBCMT:trnsctrl.obj
 0001:0014161c       _CallSETranslator          000000014014261c f   LIBCMT:trnsctrl.obj
 0001:00141670       ?_GetRangeOfTrysToCheck@@YAPEBU_s_TryBlockMapEntry@@PEA_KPEBU_s_FuncInfo@@HHPEAI2PEAU_xDISPATCHER_CONTEXT@@@Z 0000000140142670 f   LIBCMT:trnsctrl.obj
 0001:0014179c       _CreateFrameInfo           000000014014279c f   LIBCMT:trnsctrl.obj
 0001:001417e0       _IsExceptionObjectToBeDestroyed 00000001401427e0 f   LIBCMT:trnsctrl.obj
 0001:00141814       _FindAndUnlinkFrame        0000000140142814 f   LIBCMT:trnsctrl.obj
 0001:00141874       _UnwindNestedFrames        0000000140142874 f   LIBCMT:trnsctrl.obj
 0001:00141964       _CxxThrowException         0000000140142964 f   LIBCMT:throw.obj
 0001:001419f8       _cfltcvt_init              00000001401429f8 f   LIBCMT:_fpinit_.obj
 0001:00141a80       _fpmath                    0000000140142a80 f   LIBCMT:_fpinit_.obj
 0001:00141aa0       memset                     0000000140142aa0 f   LIBCMT:memset.obj
 0001:00141b8c       __report_gsfailure         0000000140142b8c f   LIBCMT:gs_report.obj
 0001:00141cd8       _flsbuf                    0000000140142cd8 f   LIBCMT:_flsbuf.obj
 0001:00141f9c       _output_l                  0000000140142f9c f   LIBCMT:output.obj
 0001:00142a48       _initp_misc_invarg         0000000140143a48 f   LIBCMT:invarg.obj
 0001:00142a50       _call_reportfault          0000000140143a50 f   LIBCMT:invarg.obj
 0001:00142b9c       _invoke_watson             0000000140143b9c f   LIBCMT:invarg.obj
 0001:00142bd0       _invalid_parameter         0000000140143bd0 f   LIBCMT:invarg.obj
 0001:00142c40       _invalid_parameter_noinfo  0000000140143c40 f   LIBCMT:invarg.obj
 0001:00142c60       __C_specific_handler       0000000140143c60 f   LIBCMT:chandler.obj
 0001:00142e60       _filbuf                    0000000140143e60 f   LIBCMT:_filbuf.obj
 0001:00142fb4       _ioinit                    0000000140143fb4 f   LIBCMT:ioinit.obj
 0001:00143288       _fileno                    0000000140144288 f   LIBCMT:fileno.obj
 0001:001432b0       _openfile                  00000001401442b0 f   LIBCMT:_open.obj
 0001:00143568       _getstream                 0000000140144568 f   LIBCMT:stream.obj
 0001:001436d0       _local_unwind              00000001401446d0 f   LIBCMT:jmpuwind.obj
 0001:00143700       _NLG_Notify                0000000140144700 f   LIBCMT:jmpuwind.obj
 0001:00143720       __NLG_Dispatch2            0000000140144720 f   LIBCMT:jmpuwind.obj
 0001:00143730       __NLG_Return2              0000000140144730 f   LIBCMT:jmpuwind.obj
 0001:00143734       ?_Type_info_dtor@type_info@@CAXPEAV1@@Z 0000000140144734 f   LIBCMT:typname.obj
 0001:001437b0       strcmp                     00000001401447b0 f   LIBCMT:strcmp.obj
 0001:00143860       _close_nolock              0000000140144860 f   LIBCMT:close.obj
 0001:0014391c       _close                     000000014014491c f   LIBCMT:close.obj
 0001:001439e0       _freebuf                   00000001401449e0 f   LIBCMT:_freebuf.obj
 0001:00143a18       ??0exception@std@@QEAA@AEBQEBDH@Z 0000000140144a18 f   LIBCMT:stdexcpt.obj
 0001:00143a34       ?what@exception@std@@UEBAPEBDXZ 0000000140144a34 f   LIBCMT:stdexcpt.obj
 0001:00143a48       ?_Copy_str@exception@std@@AEAAXPEBD@Z 0000000140144a48 f   LIBCMT:stdexcpt.obj
 0001:00143aa4       ?_Tidy@exception@std@@AEAAXXZ 0000000140144aa4 f   LIBCMT:stdexcpt.obj
 0001:00143acc       ??0exception@std@@QEAA@AEBQEBD@Z 0000000140144acc f   LIBCMT:stdexcpt.obj
 0001:00143afc       ??4exception@std@@QEAAAEAV01@AEBV01@@Z 0000000140144afc f   LIBCMT:stdexcpt.obj
 0001:00143b40       ??1exception@std@@UEAA@XZ  0000000140144b40 f   LIBCMT:stdexcpt.obj
 0001:00143b50       ??_Gexception@std@@UEAAPEAXI@Z 0000000140144b50 f i LIBCMT:stdexcpt.obj
 0001:00143b50       ??_Eexception@std@@UEAAPEAXI@Z 0000000140144b50 f i LIBCMT:stdexcpt.obj
 0001:00143b8c       ??0exception@std@@QEAA@AEBV01@@Z 0000000140144b8c f   LIBCMT:stdexcpt.obj
 0001:00143bb8       _stbuf                     0000000140144bb8 f   LIBCMT:_sftbuf.obj
 0001:00143c8c       _ftbuf                     0000000140144c8c f   LIBCMT:_sftbuf.obj
 0001:00143cc4       _heap_init                 0000000140144cc4 f   LIBCMT:heapinit.obj
 0001:00143d1c       _GET_RTERRMSG              0000000140144d1c f   LIBCMT:crt0msg.obj
 0001:00143d48       _NMSG_WRITE                0000000140144d48 f   LIBCMT:crt0msg.obj
 0001:00143fa8       _FF_MSGBANNER              0000000140144fa8 f   LIBCMT:crt0msg.obj
 0001:00144268       __updatetmbcinfo           0000000140145268 f   LIBCMT:mbctype.obj
 0001:001443b4       _setmbcp_nolock            00000001401453b4 f   LIBCMT:mbctype.obj
 0001:0014462c       _setmbcp                   000000014014562c f   LIBCMT:mbctype.obj
 0001:0014480c       __initmbctable             000000014014580c f   LIBCMT:mbctype.obj
 0001:00144834       __addlocaleref             0000000140145834 f   LIBCMT:localref.obj
 0001:001448c0       __removelocaleref          00000001401458c0 f   LIBCMT:localref.obj
 0001:00144964       __freetlocinfo             0000000140145964 f   LIBCMT:localref.obj
 0001:00144ae0       _updatetlocinfoEx_nolock   0000000140145ae0 f   LIBCMT:localref.obj
 0001:00144b38       __updatetlocinfo           0000000140145b38 f   LIBCMT:localref.obj
 0001:00144bb0       _encoded_null              0000000140145bb0 f   LIBCMT:tidtable.obj
 0001:00144bbc       _mtterm                    0000000140145bbc f   LIBCMT:tidtable.obj
 0001:00144be4       _initptd                   0000000140145be4 f   LIBCMT:tidtable.obj
 0001:00144c9c       _getptd_noexit             0000000140145c9c f   LIBCMT:tidtable.obj
 0001:00144d20       _getptd                    0000000140145d20 f   LIBCMT:tidtable.obj
 0001:00144d44       _freefls                   0000000140145d44 f   LIBCMT:tidtable.obj
 0001:00144e78       _mtinit                    0000000140145e78 f   LIBCMT:tidtable.obj
 0001:001451c8       __crtLCMapStringA          00000001401461c8 f   LIBCMT:a_map.obj
 0001:00145260       _isleadbyte_l              0000000140146260 f i LIBCMT:_wctype.obj
 0001:001452a8       isleadbyte                 00000001401462a8 f i LIBCMT:_wctype.obj
 0001:001452f0       _isctype_l                 00000001401462f0 f   LIBCMT:isctype.obj
 0001:001453f0       strlen                     00000001401463f0 f   LIBCMT:strlen.obj
 0001:00145558       _input_l                   0000000140146558 f   LIBCMT:input.obj
 0001:00146910       __crtCompareStringA        0000000140147910 f   LIBCMT:a_cmp.obj
 0001:0014699c       _mtinitlocks               000000014014799c f   LIBCMT:mlock.obj
 0001:00146a20       _mtdeletelocks             0000000140147a20 f   LIBCMT:mlock.obj
 0001:00146aa8       _unlock                    0000000140147aa8 f   LIBCMT:mlock.obj
 0001:00146ac0       _mtinitlocknum             0000000140147ac0 f   LIBCMT:mlock.obj
 0001:00146ba8       _lock                      0000000140147ba8 f   LIBCMT:mlock.obj
 0001:00146bec       __GSHandlerCheckCommon     0000000140147bec f   LIBCMT:gshandler.obj
 0001:00146c50       __GSHandlerCheck           0000000140147c50 f   LIBCMT:gshandler.obj
 0001:00146c70       ?terminate@@YAXXZ          0000000140147c70 f   LIBCMT:hooks.obj
 0001:00146c94       ?_inconsistency@@YAXXZ     0000000140147c94 f   LIBCMT:hooks.obj
 0001:00146cbc       _initp_eh_hooks            0000000140147cbc f   LIBCMT:hooks.obj
 0001:00146cdc       _initp_misc_winsig         0000000140147cdc f   LIBCMT:winsig.obj
 0001:00146cfc       __get_sigabrt              0000000140147cfc f   LIBCMT:winsig.obj
 0001:00146d0c       raise                      0000000140147d0c f   LIBCMT:winsig.obj
 0001:00146f40       _initp_misc_rand_s         0000000140147f40 f   LIBCMT:rand_s.obj
 0001:00146f48       __getlocaleinfo            0000000140147f48 f   LIBCMT:inithelp.obj
 0001:00147124       _initp_misc_purevirt       0000000140148124 f   LIBCMT:inithelp.obj
 0001:0014712c       _RTC_Initialize            000000014014812c f   LIBCMT:_initsect_.obj
 0001:00147164       _RTC_Terminate             0000000140148164 f   LIBCMT:_initsect_.obj
 0001:0014719c       _initp_misc_cfltcvt_tab    000000014014819c f   LIBCMT:cmiscdat.obj
 0001:001471e0       _ValidateImageBase         00000001401481e0 f   LIBCMT:pesect.obj
 0001:00147210       _FindPESection             0000000140148210 f   LIBCMT:pesect.obj
 0001:00147260       _IsNonwritableInCurrentImage 0000000140148260 f   LIBCMT:pesect.obj
 0001:001472a4       _read_nolock               00000001401482a4 f   LIBCMT:read.obj
 0001:001479c8       _read                      00000001401489c8 f   LIBCMT:read.obj
 0001:00147ae4       _write_nolock              0000000140148ae4 f   LIBCMT:write.obj
 0001:00148244       _write                     0000000140149244 f   LIBCMT:write.obj
 0001:00148324       _get_daylight              0000000140149324 f   LIBCMT:timeset.obj
 0001:00148354       _get_dstbias               0000000140149354 f   LIBCMT:timeset.obj
 0001:00148384       _get_timezone              0000000140149384 f   LIBCMT:timeset.obj
 0001:001483b4       __daylight                 00000001401493b4 f   LIBCMT:timeset.obj
 0001:001483bc       __dstbias                  00000001401493bc f   LIBCMT:timeset.obj
 0001:001483c4       __timezone                 00000001401493c4 f   LIBCMT:timeset.obj
 0001:001483cc       __tzname                   00000001401493cc f   LIBCMT:timeset.obj
 0001:001483d4       __getgmtimebuf             00000001401493d4 f   LIBCMT:gmtime.obj
 0001:0014841c       _malloc_crt                000000014014941c f   LIBCMT:crtheap.obj
 0001:0014849c       _calloc_crt                000000014014949c f   LIBCMT:crtheap.obj
 0001:00148520       _realloc_crt               0000000140149520 f   LIBCMT:crtheap.obj
 0001:001485a8       _recalloc_crt              00000001401495a8 f   LIBCMT:crtheap.obj
 0001:00148630       __loctotime64_t            0000000140149630 f   LIBCMT:dtoxtm64.obj
 0001:001488fc       strcpy_s                   00000001401498fc f   LIBCMT:strcpy_s.obj
 0001:00148960       _fullpath                  0000000140149960 f   LIBCMT:fullpath.obj
 0001:00148a8c       __dtoxmode                 0000000140149a8c f   LIBCMT:stat.obj
 0001:00148b74       _fstat64i32                0000000140149b74 f   LIBCMT:fstati32.obj
 0001:001496d0       _sopen_helper              000000014014a6d0 f   LIBCMT:open.obj
 0001:001497a4       _sopen_s                   000000014014a7a4 f   LIBCMT:open.obj
 0001:001497d8       _mbctolower_l              000000014014a7d8 f   LIBCMT:mbtolwr.obj
 0001:001498bc       _mbctolower                000000014014a8bc f   LIBCMT:mbtolwr.obj
 0001:001498c4       _mbspbrk_l                 000000014014a8c4 f   LIBCMT:mbspbrk.obj
 0001:001499b8       _mbspbrk                   000000014014a9b8 f   LIBCMT:mbspbrk.obj
 0001:001499c0       __sys_nerr                 000000014014a9c0 f   LIBCMT:syserr.obj
 0001:001499c8       __sys_errlist              000000014014a9c8 f   LIBCMT:syserr.obj
 0001:001499d0       _fcloseall                 000000014014a9d0 f   LIBCMT:closeall.obj
 0001:00149a7c       _commit                    000000014014aa7c f   LIBCMT:commit.obj
 0001:00149b54       _lseek_nolock              000000014014ab54 f   LIBCMT:lseek.obj
 0001:00149bec       _lseek                     000000014014abec f   LIBCMT:lseek.obj
 0001:00149ccc       _mbctoupper_l              000000014014accc f   LIBCMT:mbtoupr.obj
 0001:00149db0       _mbctoupper                000000014014adb0 f   LIBCMT:mbtoupr.obj
 0001:00149db8       strnlen                    000000014014adb8 f   LIBCMT:strlen_s.obj
 0001:00149dd4       _mbsnbicoll_l              000000014014add4 f   LIBCMT:mbsnbico.obj
 0001:00149ed8       _mbsnbicoll                000000014014aed8 f   LIBCMT:mbsnbico.obj
 0001:00149ee0       __wtomb_environ            000000014014aee0 f   LIBCMT:wtombenv.obj
 0001:00149fd4       calloc                     000000014014afd4 f   LIBCMT:calloc.obj
 0001:0014a018       abort                      000000014014b018 f   LIBCMT:abort.obj
 0001:0014a058       _set_abort_behavior        000000014014b058 f   LIBCMT:abort.obj
 0001:0014a074       _fltin2                    000000014014b074 f   LIBCMT:_cfin_.obj
 0001:0014a138       __strgtold12_l             000000014014b138 f   LIBCMT:_strgtold_.obj
 0001:0014a99c       strncpy_s                  000000014014b99c f   LIBCMT:strncpy_s.obj
 0001:0014aa5c       __init_ctype               000000014014ba5c f   LIBCMT:initctyp.obj
 0001:0014ae7c       ___lc_codepage_func        000000014014be7c f   LIBCMT:initctyp.obj
 0001:0014ba24       __free_lc_time             000000014014ca24 f   LIBCMT:inittime.obj
 0001:0014be14       __init_time                000000014014ce14 f   LIBCMT:inittime.obj
 0001:0014beb0       __free_lconv_num           000000014014ceb0 f   LIBCMT:initnum.obj
 0001:0014bf1c       __init_numeric             000000014014cf1c f   LIBCMT:initnum.obj
 0001:0014c184       __free_lconv_mon           000000014014d184 f   LIBCMT:initmon.obj
 0001:0014c290       __init_monetary            000000014014d290 f   LIBCMT:initmon.obj
 0001:0014c744       __init_collate             000000014014d744 f   LIBCMT:initcoll.obj
 0001:0014c744       _matherr                   000000014014d744 f   LIBCMT:_matherr_.obj
 0001:0014c744       __init_dummy               000000014014d744 f   LIBCMT:setlocal.obj
 0001:0014c748       strcat_s                   000000014014d748 f   LIBCMT:strcat_s.obj
 0001:0014cf14       __get_qualified_locale     000000014014df14 f   LIBCMT:getqloc.obj
 0001:0014d210       memcmp                     000000014014e210 f   LIBCMT:memcmp.obj
 0001:0014d438       __crtGetStringTypeA        000000014014e438 f   LIBCMT:a_str.obj
 0001:0014d4b8       ?__CxxUnhandledExceptionFilter@@YAJPEAU_EXCEPTION_POINTERS@@@Z 000000014014e4b8 f   LIBCMT:unhandld.obj
 0001:0014d4fc       __CxxSetUnhandledExceptionFilter 000000014014e4fc f   LIBCMT:unhandld.obj
 0001:0014d514       _XcptFilter                000000014014e514 f   LIBCMT:winxfltr.obj
 0001:0014d6e4       _setenvp                   000000014014e6e4 f   LIBCMT:stdenvp.obj
 0001:0014d9e4       _setargv                   000000014014e9e4 f   LIBCMT:stdargv.obj
 0001:0014dadc       __crtGetEnvironmentStringsA 000000014014eadc f   LIBCMT:a_env.obj
 0001:0014dbd0       __security_init_cookie     000000014014ebd0 f   LIBCMT:gs_support.obj
 0001:0014dc84       ?__StateFromIp@@YAHPEBU_s_FuncInfo@@PEAU_xDISPATCHER_CONTEXT@@_J@Z 000000014014ec84 f   LIBCMT:ehstate.obj
 0001:0014dd10       ?__StateFromControlPc@@YAHPEBU_s_FuncInfo@@PEAU_xDISPATCHER_CONTEXT@@@Z 000000014014ed10 f   LIBCMT:ehstate.obj
 0001:0014dd18       ?__GetCurrentState@@YAHPEA_KPEAU_xDISPATCHER_CONTEXT@@PEBU_s_FuncInfo@@@Z 000000014014ed18 f   LIBCMT:ehstate.obj
 0001:0014dd40       ?__SetState@@YAXPEA_KPEAU_xDISPATCHER_CONTEXT@@PEBU_s_FuncInfo@@H@Z 000000014014ed40 f   LIBCMT:ehstate.obj
 0001:0014dd4c       ?__SetUnwindTryBlock@@YAXPEA_KPEAU_xDISPATCHER_CONTEXT@@PEBU_s_FuncInfo@@H@Z 000000014014ed4c f   LIBCMT:ehstate.obj
 0001:0014dd88       ?__GetUnwindTryBlock@@YAHPEA_KPEAU_xDISPATCHER_CONTEXT@@PEBU_s_FuncInfo@@@Z 000000014014ed88 f   LIBCMT:ehstate.obj
 0001:0014ddb4       ??1bad_exception@std@@UEAA@XZ 000000014014edb4 f i LIBCMT:frame.obj
 0001:0014ddc4       ??_Ebad_exception@std@@UEAAPEAXI@Z 000000014014edc4 f i LIBCMT:frame.obj
 0001:0014ddc4       ??_Gbad_exception@std@@UEAAPEAXI@Z 000000014014edc4 f i LIBCMT:frame.obj
 0001:0014de00       __TypeMatch                000000014014ee00 f   LIBCMT:frame.obj
 0001:0014df24       __FrameUnwindFilter        000000014014ef24 f   LIBCMT:frame.obj
 0001:0014df78       __FrameUnwindToState       000000014014ef78 f   LIBCMT:frame.obj
 0001:0014e104       __DestructExceptionObject  000000014014f104 f   LIBCMT:frame.obj
 0001:0014e148       __AdjustPointer            000000014014f148 f   LIBCMT:frame.obj
 0001:0014e240       __CxxCallCatchBlock        000000014014f240 f   LIBCMT:frame.obj
 0001:0014e454       __BuildCatchObjectHelper   000000014014f454 f   LIBCMT:frame.obj
 0001:0014e658       __BuildCatchObject         000000014014f658 f   LIBCMT:frame.obj
 0001:0014eed4       ??0bad_exception@std@@QEAA@AEBV01@@Z 000000014014fed4 f i LIBCMT:frame.obj
 0001:0014eef8       __InternalCxxFrameHandler  000000014014fef8 f   LIBCMT:frame.obj
 0001:0014f120       _forcdecpt_l               0000000140150120 f   LIBCMT:cvt.obj
 0001:0014f1a0       _cropzeros_l               00000001401501a0 f   LIBCMT:cvt.obj
 0001:0014f240       _positive                  0000000140150240 f   LIBCMT:cvt.obj
 0001:0014f258       _fassign_l                 0000000140150258 f   LIBCMT:cvt.obj
 0001:0014f29c       _fassign                   000000014015029c f   LIBCMT:cvt.obj
 0001:0014f2a4       _forcdecpt                 00000001401502a4 f   LIBCMT:cvt.obj
 0001:0014f2ac       _cropzeros                 00000001401502ac f   LIBCMT:cvt.obj
 0001:0014f4e8       _cftoe_l                   00000001401504e8 f   LIBCMT:cvt.obj
 0001:0014f5e0       _cftoa_l                   00000001401505e0 f   LIBCMT:cvt.obj
 0001:0014fb5c       _cftof_l                   0000000140150b5c f   LIBCMT:cvt.obj
 0001:0014fc30       _cftog_l                   0000000140150c30 f   LIBCMT:cvt.obj
 0001:0014fd64       _cfltcvt_l                 0000000140150d64 f   LIBCMT:cvt.obj
 0001:0014fdfc       _cfltcvt                   0000000140150dfc f   LIBCMT:cvt.obj
 0001:0014fe20       __crt_debugger_hook        0000000140150e20 f   LIBCMT:dbghook.obj
 0001:0014fe28       _lseeki64_nolock           0000000140150e28 f   LIBCMT:lseeki64.obj
 0001:0014fec0       _lseeki64                  0000000140150ec0 f   LIBCMT:lseeki64.obj
 0001:0014ffa4       _getbuf                    0000000140150fa4 f   LIBCMT:_getbuf.obj
 0001:0014fff8       _isatty                    0000000140150ff8 f   LIBCMT:isatty.obj
 0001:00150058       _wctomb_s_l                0000000140151058 f   LIBCMT:wctomb.obj
 0001:0015021c       wctomb_s                   000000014015121c f   LIBCMT:wctomb.obj
 0001:00150230       _mbsnbicmp_l               0000000140151230 f   LIBCMT:mbsnbicm.obj
 0001:00150418       _mbsnbicmp                 0000000140151418 f   LIBCMT:mbsnbicm.obj
 0001:00150420       _mbsnbcmp_l                0000000140151420 f   LIBCMT:mbsnbcmp.obj
 0001:00150580       _mbsnbcmp                  0000000140151580 f   LIBCMT:mbsnbcmp.obj
 0001:00150588       __crtMessageBoxW           0000000140151588 f   LIBCMT:crtmboxw.obj
 0001:00150790       wcscat_s                   0000000140151790 f   LIBCMT:wcscat_s.obj
 0001:00150818       wcsncpy_s                  0000000140151818 f   LIBCMT:wcsncpy_s.obj
 0001:001508e8       wcslen                     00000001401518e8 f   LIBCMT:wcslen.obj
 0001:00150904       wcscpy_s                   0000000140151904 f   LIBCMT:wcscpy_s.obj
 0001:00150970       _set_error_mode            0000000140151970 f   LIBCMT:errmode.obj
 0001:001509b0       _ungetc_nolock             00000001401519b0 f   LIBCMT:ungetc.obj
 0001:00150abc       _mbtowc_l                  0000000140151abc f   LIBCMT:mbtowc.obj
 0001:00150c34       mbtowc                     0000000140151c34 f   LIBCMT:mbtowc.obj
 0001:00150d94       __crtGetLocaleInfoA        0000000140151d94 f   LIBCMT:a_loc.obj
 0001:00150dfc       _fptrap                    0000000140151dfc f   LIBCMT:crt0fp.obj
 0001:00150e08       _putwch_nolock             0000000140151e08 f   LIBCMT:putwch.obj
 0001:00150e64       _calloc_impl               0000000140151e64 f   LIBCMT:calloc_impl.obj
 0001:00150f00       _recalloc                  0000000140151f00 f   LIBCMT:recalloc.obj
 0001:00150f88       _validdrive                0000000140151f88 f   LIBCMT:getcwd.obj
 0001:00150fec       _getdcwd_nolock            0000000140151fec f   LIBCMT:getcwd.obj
 0001:00151118       _getcwd                    0000000140152118 f   LIBCMT:getcwd.obj
 0001:0015115c       _mbsicmp_l                 000000014015215c f   LIBCMT:mbsicmp.obj
 0001:00151368       _mbsicmp                   0000000140152368 f   LIBCMT:mbsicmp.obj
 0001:00151370       _mbsrchr_l                 0000000140152370 f   LIBCMT:mbsrchr.obj
 0001:00151450       _mbsrchr                   0000000140152450 f   LIBCMT:mbsrchr.obj
 0001:00151458       _chsize_nolock             0000000140152458 f   LIBCMT:chsize.obj
 0001:001515f0       _setmode_nolock            00000001401525f0 f   LIBCMT:setmode.obj
 0001:001516c0       _get_fmode                 00000001401526c0 f   LIBCMT:setmode.obj
 0001:001516f0       _strnicoll_l               00000001401526f0 f   LIBCMT:strnicol.obj
 0001:001517f4       __crtsetenv                00000001401527f4 f   LIBCMT:setenv.obj
 0001:00151b90       _ld12tod                   0000000140152b90 f   LIBCMT:_intrncvt_.obj
 0001:0015215c       _ld12tof                   000000014015315c f   LIBCMT:_intrncvt_.obj
 0001:00152728       __mtold12                  0000000140153728 f   LIBCMT:_mantold_.obj
 0001:00152a44       _itoa_s                    0000000140153a44 f   LIBCMT:xtoas.obj
 0001:00152ae8       _ismbblead                 0000000140153ae8 f   LIBCMT:ismbbyte.obj
 0001:00152b10       _CallSettingFrame          0000000140153b10 f   LIBCMT:handlers.obj
 0001:00152b50       _GetNextInstrOffset        0000000140153b50 f   LIBCMT:handlers.obj
 0001:00152b58       ?_ValidateExecute@@YAHP6A_JXZ@Z 0000000140153b58 f   LIBCMT:validate.obj
 0001:00152b58       ?_ValidateRead@@YAHPEBXI@Z 0000000140153b58 f   LIBCMT:validate.obj
 0001:00152b58       ?_ValidateWrite@@YAHPEAXI@Z 0000000140153b58 f   LIBCMT:validate.obj
 0001:00152b64       _atodbl_l                  0000000140153b64 f   LIBCMT:atodbl.obj
 0001:00152c64       _atoflt_l                  0000000140153c64 f   LIBCMT:atodbl.obj
 0001:00152d64       _fptostr                   0000000140153d64 f   LIBCMT:_fptostr.obj
 0001:00152e30       __dtold                    0000000140153e30 f   LIBCMT:_cfout_.obj
 0001:00152ef8       _fltout2                   0000000140153ef8 f   LIBCMT:_cfout_.obj
 0001:00152fb0       __initconout               0000000140153fb0 f   LIBCMT:initcon.obj
 0001:00152fec       __termconout               0000000140153fec f   LIBCMT:initcon.obj
 0001:00153010       _strdup                    0000000140154010 f   LIBCMT:strdup.obj
 0001:00153080       _mbschr_l                  0000000140154080 f   LIBCMT:mbschr.obj
 0001:0015316c       _mbschr                    000000014015416c f   LIBCMT:mbschr.obj
 0001:00153174       $I10_OUTPUT                0000000140154174 f   LIBCMT:_x10fout_.obj
 0001:00153c1e       RtlUnwindEx                0000000140154c1e f   kernel32:KERNEL32.dll
 0001:00153c24       RtlLookupFunctionEntry     0000000140154c24 f   kernel32:KERNEL32.dll
 0001:00153c2a       RtlPcToFileHeader          0000000140154c2a f   kernel32:KERNEL32.dll
 0001:00153c30       RtlVirtualUnwind           0000000140154c30 f   kernel32:KERNEL32.dll
 0001:00153c38       __GSHandlerCheck_EH        0000000140154c38 f   LIBCMT:gshandlereh.obj
 0001:00153cc8       sqrt                       0000000140154cc8 f   LIBCMT:_sqrt_.obj
 0001:00153e90       _handle_error              0000000140154e90 f   LIBCMT:_libm_error_.obj
 0001:00153fe0       _raise_exc_ex              0000000140154fe0 f   LIBCMT:_fpexcept_.obj
 0001:001542ec       _raise_exc                 00000001401552ec f   LIBCMT:_fpexcept_.obj
 0001:00154314       _set_errno_from_matherr    0000000140155314 f   LIBCMT:_fpexcept_.obj
 0001:00154344       _statfp                    0000000140155344 f   LIBCMT:_fpctrl_.obj
 0001:00154358       _clrfp                     0000000140155358 f   LIBCMT:_fpctrl_.obj
 0001:00154378       _ctrlfp                    0000000140155378 f   LIBCMT:_fpctrl_.obj
 0001:001543f4       _set_statfp                00000001401553f4 f   LIBCMT:_fpctrl_.obj
 0001:00154430       _get_fpsr                  0000000140155430 f   LIBCMT:_fpsr_.obj
 0001:00154440       _set_fpsr                  0000000140155440 f   LIBCMT:_fpsr_.obj
 0001:0015444a       _fclrf                     000000014015544a f   LIBCMT:_fpsr_.obj
 0001:0015445e       _frnd                      000000014015545e f   LIBCMT:_fpsr_.obj
 0001:00160d50       ??__FBuffer@?1??QueryPerformanceData@?$CPerfCounters@_J@@IEAAXPEAPEAU_PERF_DATA_BLOCK@@KK@Z@YAXXZ 0000000140161d50 f i CpuUsage.obj
 0002:00000000       __imp_RegisterEventSourceA 0000000140162000     advapi32:ADVAPI32.dll
 0002:00000008       __imp_ControlService       0000000140162008     advapi32:ADVAPI32.dll
 0002:00000010       __imp_GetLengthSid         0000000140162010     advapi32:ADVAPI32.dll
 0002:00000018       __imp_GetUserNameA         0000000140162018     advapi32:ADVAPI32.dll
 0002:00000020       __imp_IsValidSid           0000000140162020     advapi32:ADVAPI32.dll
 0002:00000028       __imp_OpenSCManagerA       0000000140162028     advapi32:ADVAPI32.dll
 0002:00000030       __imp_SetServiceStatus     0000000140162030     advapi32:ADVAPI32.dll
 0002:00000038       __imp_RegDeleteValueA      0000000140162038     advapi32:ADVAPI32.dll
 0002:00000040       __imp_QueryServiceStatus   0000000140162040     advapi32:ADVAPI32.dll
 0002:00000048       __imp_ReportEventA         0000000140162048     advapi32:ADVAPI32.dll
 0002:00000050       __imp_StartServiceA        0000000140162050     advapi32:ADVAPI32.dll
 0002:00000058       __imp_RegCreateKeyA        0000000140162058     advapi32:ADVAPI32.dll
 0002:00000060       __imp_RegDeleteKeyA        0000000140162060     advapi32:ADVAPI32.dll
 0002:00000068       __imp_DeregisterEventSource 0000000140162068     advapi32:ADVAPI32.dll
 0002:00000070       __imp_CreateServiceA       0000000140162070     advapi32:ADVAPI32.dll
 0002:00000078       __imp_RegisterServiceCtrlHandlerA 0000000140162078     advapi32:ADVAPI32.dll
 0002:00000080       __imp_CopySid              0000000140162080     advapi32:ADVAPI32.dll
 0002:00000088       __imp_LookupAccountNameA   0000000140162088     advapi32:ADVAPI32.dll
 0002:00000090       __imp_DeleteService        0000000140162090     advapi32:ADVAPI32.dll
 0002:00000098       __imp_StartServiceCtrlDispatcherA 0000000140162098     advapi32:ADVAPI32.dll
 0002:000000a0       __imp_CloseServiceHandle   00000001401620a0     advapi32:ADVAPI32.dll
 0002:000000a8       __imp_OpenServiceA         00000001401620a8     advapi32:ADVAPI32.dll
 0002:000000b0       __imp_RegEnumKeyExA        00000001401620b0     advapi32:ADVAPI32.dll
 0002:000000b8       __imp_RegSetValueExA       00000001401620b8     advapi32:ADVAPI32.dll
 0002:000000c0       __imp_RegCloseKey          00000001401620c0     advapi32:ADVAPI32.dll
 0002:000000c8       __imp_RegOpenKeyExA        00000001401620c8     advapi32:ADVAPI32.dll
 0002:000000d0       __imp_RegQueryValueExA     00000001401620d0     advapi32:ADVAPI32.dll
 0002:000000d8       __imp_SetSecurityDescriptorDacl 00000001401620d8     advapi32:ADVAPI32.dll
 0002:000000e0       __imp_InitializeSecurityDescriptor 00000001401620e0     advapi32:ADVAPI32.dll
 0002:000000e8       __imp_AdjustTokenPrivileges 00000001401620e8     advapi32:ADVAPI32.dll
 0002:000000f0       __imp_LookupPrivilegeValueA 00000001401620f0     advapi32:ADVAPI32.dll
 0002:000000f8       __imp_OpenProcessToken     00000001401620f8     advapi32:ADVAPI32.dll
 0002:00000100       \177ADVAPI32_NULL_THUNK_DATA 0000000140162100     advapi32:ADVAPI32.dll
 0002:00000108       __imp_CreateFileA          0000000140162108     kernel32:KERNEL32.dll
 0002:00000110       __imp_GetFileSize          0000000140162110     kernel32:KERNEL32.dll
 0002:00000118       __imp_SetFilePointer       0000000140162118     kernel32:KERNEL32.dll
 0002:00000120       __imp_WriteFile            0000000140162120     kernel32:KERNEL32.dll
 0002:00000128       __imp_ReadFile             0000000140162128     kernel32:KERNEL32.dll
 0002:00000130       __imp_CloseHandle          0000000140162130     kernel32:KERNEL32.dll
 0002:00000138       __imp_GetTempFileNameA     0000000140162138     kernel32:KERNEL32.dll
 0002:00000140       __imp_GetCurrentProcess    0000000140162140     kernel32:KERNEL32.dll
 0002:00000148       __imp_Process32First       0000000140162148     kernel32:KERNEL32.dll
 0002:00000150       __imp_OpenProcess          0000000140162150     kernel32:KERNEL32.dll
 0002:00000158       __imp_TerminateProcess     0000000140162158     kernel32:KERNEL32.dll
 0002:00000160       __imp_GetLastError         0000000140162160     kernel32:KERNEL32.dll
 0002:00000168       __imp_Process32Next        0000000140162168     kernel32:KERNEL32.dll
 0002:00000170       __imp_CreateToolhelp32Snapshot 0000000140162170     kernel32:KERNEL32.dll
 0002:00000178       __imp_PeekNamedPipe        0000000140162178     kernel32:KERNEL32.dll
 0002:00000180       __imp_WaitForSingleObject  0000000140162180     kernel32:KERNEL32.dll
 0002:00000188       __imp_GetExitCodeProcess   0000000140162188     kernel32:KERNEL32.dll
 0002:00000190       __imp_CreateProcessA       0000000140162190     kernel32:KERNEL32.dll
 0002:00000198       __imp_CreatePipe           0000000140162198     kernel32:KERNEL32.dll
 0002:000001a0       __imp_ExitProcess          00000001401621a0     kernel32:KERNEL32.dll
 0002:000001a8       __imp_SetEvent             00000001401621a8     kernel32:KERNEL32.dll
 0002:000001b0       __imp_Sleep                00000001401621b0     kernel32:KERNEL32.dll
 0002:000001b8       __imp_CreateEventA         00000001401621b8     kernel32:KERNEL32.dll
 0002:000001c0       __imp_ResetEvent           00000001401621c0     kernel32:KERNEL32.dll
 0002:000001c8       __imp_WaitForMultipleObjects 00000001401621c8     kernel32:KERNEL32.dll
 0002:000001d0       __imp_CopyFileA            00000001401621d0     kernel32:KERNEL32.dll
 0002:000001d8       __imp_ResumeThread         00000001401621d8     kernel32:KERNEL32.dll
 0002:000001e0       __imp_CreateThread         00000001401621e0     kernel32:KERNEL32.dll
 0002:000001e8       __imp_GetCurrentThread     00000001401621e8     kernel32:KERNEL32.dll
 0002:000001f0       __imp_TerminateThread      00000001401621f0     kernel32:KERNEL32.dll
 0002:000001f8       __imp_GetExitCodeThread    00000001401621f8     kernel32:KERNEL32.dll
 0002:00000200       __imp_PulseEvent           0000000140162200     kernel32:KERNEL32.dll
 0002:00000208       __imp_OpenEventA           0000000140162208     kernel32:KERNEL32.dll
 0002:00000210       __imp_LocalFree            0000000140162210     kernel32:KERNEL32.dll
 0002:00000218       __imp_lstrlenA             0000000140162218     kernel32:KERNEL32.dll
 0002:00000220       __imp_DeleteCriticalSection 0000000140162220     kernel32:KERNEL32.dll
 0002:00000228       __imp_GetProcAddress       0000000140162228     kernel32:KERNEL32.dll
 0002:00000230       __imp_GetModuleHandleA     0000000140162230     kernel32:KERNEL32.dll
 0002:00000238       __imp_GetModuleFileNameA   0000000140162238     kernel32:KERNEL32.dll
 0002:00000240       __imp_GetTickCount         0000000140162240     kernel32:KERNEL32.dll
 0002:00000248       __imp_GlobalAlloc          0000000140162248     kernel32:KERNEL32.dll
 0002:00000250       __imp_SetLastError         0000000140162250     kernel32:KERNEL32.dll
 0002:00000258       __imp_GlobalFree           0000000140162258     kernel32:KERNEL32.dll
 0002:00000260       __imp_MoveFileWithProgressA 0000000140162260     kernel32:KERNEL32.dll
 0002:00000268       __imp_FormatMessageA       0000000140162268     kernel32:KERNEL32.dll
 0002:00000270       __imp_CopyFileExA          0000000140162270     kernel32:KERNEL32.dll
 0002:00000278       __imp_DeleteFileA          0000000140162278     kernel32:KERNEL32.dll
 0002:00000280       __imp_GetVersionExA        0000000140162280     kernel32:KERNEL32.dll
 0002:00000288       __imp_GetFileAttributesA   0000000140162288     kernel32:KERNEL32.dll
 0002:00000290       __imp_MapViewOfFile        0000000140162290     kernel32:KERNEL32.dll
 0002:00000298       __imp_UnmapViewOfFile      0000000140162298     kernel32:KERNEL32.dll
 0002:000002a0       __imp_CreateMutexA         00000001401622a0     kernel32:KERNEL32.dll
 0002:000002a8       __imp_ReleaseMutex         00000001401622a8     kernel32:KERNEL32.dll
 0002:000002b0       __imp_GetCurrentProcessId  00000001401622b0     kernel32:KERNEL32.dll
 0002:000002b8       __imp_OpenFileMappingA     00000001401622b8     kernel32:KERNEL32.dll
 0002:000002c0       __imp_GlobalMemoryStatus   00000001401622c0     kernel32:KERNEL32.dll
 0002:000002c8       __imp_lstrcpyA             00000001401622c8     kernel32:KERNEL32.dll
 0002:000002d0       __imp_SystemTimeToTzSpecificLocalTime 00000001401622d0     kernel32:KERNEL32.dll
 0002:000002d8       __imp_TzSpecificLocalTimeToSystemTime 00000001401622d8     kernel32:KERNEL32.dll
 0002:000002e0       __imp_GetSystemTime        00000001401622e0     kernel32:KERNEL32.dll
 0002:000002e8       __imp_AllocConsole         00000001401622e8     kernel32:KERNEL32.dll
 0002:000002f0       __imp_GetStdHandle         00000001401622f0     kernel32:KERNEL32.dll
 0002:000002f8       __imp_SetConsoleCtrlHandler 00000001401622f8     kernel32:KERNEL32.dll
 0002:00000300       __imp_FlsGetValue          0000000140162300     kernel32:KERNEL32.dll
 0002:00000308       __imp_IsValidCodePage      0000000140162308     kernel32:KERNEL32.dll
 0002:00000310       __imp_GetOEMCP             0000000140162310     kernel32:KERNEL32.dll
 0002:00000318       __imp_GetACP               0000000140162318     kernel32:KERNEL32.dll
 0002:00000320       __imp_GetCPInfo            0000000140162320     kernel32:KERNEL32.dll
 0002:00000328       __imp_InitializeCriticalSection 0000000140162328     kernel32:KERNEL32.dll
 0002:00000330       __imp_EnterCriticalSection 0000000140162330     kernel32:KERNEL32.dll
 0002:00000338       __imp_LeaveCriticalSection 0000000140162338     kernel32:KERNEL32.dll
 0002:00000340       __imp_FlsSetValue          0000000140162340     kernel32:KERNEL32.dll
 0002:00000348       __imp_FlsFree              0000000140162348     kernel32:KERNEL32.dll
 0002:00000350       __imp_GetCurrentThreadId   0000000140162350     kernel32:KERNEL32.dll
 0002:00000358       __imp_FlsAlloc             0000000140162358     kernel32:KERNEL32.dll
 0002:00000360       __imp_LCMapStringW         0000000140162360     kernel32:KERNEL32.dll
 0002:00000368       __imp_CompareStringW       0000000140162368     kernel32:KERNEL32.dll
 0002:00000370       __imp_LoadLibraryW         0000000140162370     kernel32:KERNEL32.dll
 0002:00000378       __imp_GetLocaleInfoW       0000000140162378     kernel32:KERNEL32.dll
 0002:00000380       __imp_GetConsoleCP         0000000140162380     kernel32:KERNEL32.dll
 0002:00000388       __imp_RtlVirtualUnwind     0000000140162388     kernel32:KERNEL32.dll
 0002:00000390       __imp_GetConsoleMode       0000000140162390     kernel32:KERNEL32.dll
 0002:00000398       __imp_GetFullPathNameA     0000000140162398     kernel32:KERNEL32.dll
 0002:000003a0       __imp_GetFileInformationByHandle 00000001401623a0     kernel32:KERNEL32.dll
 0002:000003a8       __imp_FlushFileBuffers     00000001401623a8     kernel32:KERNEL32.dll
 0002:000003b0       __imp_GetUserDefaultLCID   00000001401623b0     kernel32:KERNEL32.dll
 0002:000003b8       __imp_GetLocaleInfoA       00000001401623b8     kernel32:KERNEL32.dll
 0002:000003c0       __imp_EnumSystemLocalesA   00000001401623c0     kernel32:KERNEL32.dll
 0002:000003c8       __imp_IsValidLocale        00000001401623c8     kernel32:KERNEL32.dll
 0002:000003d0       __imp_GetStringTypeW       00000001401623d0     kernel32:KERNEL32.dll
 0002:000003d8       __imp_FreeEnvironmentStringsW 00000001401623d8     kernel32:KERNEL32.dll
 0002:000003e0       __imp_GetEnvironmentStringsW 00000001401623e0     kernel32:KERNEL32.dll
 0002:000003e8       __imp_QueryPerformanceCounter 00000001401623e8     kernel32:KERNEL32.dll
 0002:000003f0       __imp_WriteConsoleW        00000001401623f0     kernel32:KERNEL32.dll
 0002:000003f8       __imp_GetDriveTypeW        00000001401623f8     kernel32:KERNEL32.dll
 0002:00000400       __imp_SetEndOfFile         0000000140162400     kernel32:KERNEL32.dll
 0002:00000408       __imp_GetProcessHeap       0000000140162408     kernel32:KERNEL32.dll
 0002:00000410       __imp_CreateFileW          0000000140162410     kernel32:KERNEL32.dll
 0002:00000418       __imp_RtlCaptureContext    0000000140162418     kernel32:KERNEL32.dll
 0002:00000420       __imp_SetHandleCount       0000000140162420     kernel32:KERNEL32.dll
 0002:00000428       __imp_GetModuleFileNameW   0000000140162428     kernel32:KERNEL32.dll
 0002:00000430       __imp_HeapCreate           0000000140162430     kernel32:KERNEL32.dll
 0002:00000438       __imp_GetVersion           0000000140162438     kernel32:KERNEL32.dll
 0002:00000440       __imp_HeapSetInformation   0000000140162440     kernel32:KERNEL32.dll
 0002:00000448       __imp_IsDebuggerPresent    0000000140162448     kernel32:KERNEL32.dll
 0002:00000450       __imp_SetUnhandledExceptionFilter 0000000140162450     kernel32:KERNEL32.dll
 0002:00000458       __imp_UnhandledExceptionFilter 0000000140162458     kernel32:KERNEL32.dll
 0002:00000460       __imp_RtlPcToFileHeader    0000000140162460     kernel32:KERNEL32.dll
 0002:00000468       __imp_RaiseException       0000000140162468     kernel32:KERNEL32.dll
 0002:00000470       __imp_RtlLookupFunctionEntry 0000000140162470     kernel32:KERNEL32.dll
 0002:00000478       __imp_GetCommandLineA      0000000140162478     kernel32:KERNEL32.dll
 0002:00000480       __imp_GetFileType          0000000140162480     kernel32:KERNEL32.dll
 0002:00000488       __imp_InitializeCriticalSectionAndSpinCount 0000000140162488     kernel32:KERNEL32.dll
 0002:00000490       __imp_SetStdHandle         0000000140162490     kernel32:KERNEL32.dll
 0002:00000498       __imp_MultiByteToWideChar  0000000140162498     kernel32:KERNEL32.dll
 0002:000004a0       __imp_WideCharToMultiByte  00000001401624a0     kernel32:KERNEL32.dll
 0002:000004a8       __imp_GetSystemTimeAsFileTime 00000001401624a8     kernel32:KERNEL32.dll
 0002:000004b0       __imp_HeapFree             00000001401624b0     kernel32:KERNEL32.dll
 0002:000004b8       __imp_HeapAlloc            00000001401624b8     kernel32:KERNEL32.dll
 0002:000004c0       __imp_HeapReAlloc          00000001401624c0     kernel32:KERNEL32.dll
 0002:000004c8       __imp_EncodePointer        00000001401624c8     kernel32:KERNEL32.dll
 0002:000004d0       __imp_DecodePointer        00000001401624d0     kernel32:KERNEL32.dll
 0002:000004d8       __imp_GetModuleHandleW     00000001401624d8     kernel32:KERNEL32.dll
 0002:000004e0       __imp_HeapSize             00000001401624e0     kernel32:KERNEL32.dll
 0002:000004e8       __imp_MoveFileA            00000001401624e8     kernel32:KERNEL32.dll
 0002:000004f0       __imp_GetCurrentDirectoryW 00000001401624f0     kernel32:KERNEL32.dll
 0002:000004f8       __imp_FileTimeToSystemTime 00000001401624f8     kernel32:KERNEL32.dll
 0002:00000500       __imp_FileTimeToLocalFileTime 0000000140162500     kernel32:KERNEL32.dll
 0002:00000508       __imp_FindFirstFileExA     0000000140162508     kernel32:KERNEL32.dll
 0002:00000510       __imp_FindNextFileA        0000000140162510     kernel32:KERNEL32.dll
 0002:00000518       __imp_FindClose            0000000140162518     kernel32:KERNEL32.dll
 0002:00000520       __imp_CreateDirectoryA     0000000140162520     kernel32:KERNEL32.dll
 0002:00000528       __imp_RemoveDirectoryA     0000000140162528     kernel32:KERNEL32.dll
 0002:00000530       __imp_GetDriveTypeA        0000000140162530     kernel32:KERNEL32.dll
 0002:00000538       __imp_GetDateFormatA       0000000140162538     kernel32:KERNEL32.dll
 0002:00000540       __imp_GetTimeFormatA       0000000140162540     kernel32:KERNEL32.dll
 0002:00000548       __imp_GetTimeZoneInformation 0000000140162548     kernel32:KERNEL32.dll
 0002:00000550       __imp_SetEnvironmentVariableA 0000000140162550     kernel32:KERNEL32.dll
 0002:00000558       __imp_GetCurrentDirectoryA 0000000140162558     kernel32:KERNEL32.dll
 0002:00000560       __imp_SetCurrentDirectoryA 0000000140162560     kernel32:KERNEL32.dll
 0002:00000568       __imp_RtlUnwindEx          0000000140162568     kernel32:KERNEL32.dll
 0002:00000570       __imp_GetStartupInfoW      0000000140162570     kernel32:KERNEL32.dll
 0002:00000578       \177KERNEL32_NULL_THUNK_DATA 0000000140162578     kernel32:KERNEL32.dll
 0002:00000580       __imp_SysFreeString        0000000140162580     oleaut32:OLEAUT32.dll
 0002:00000588       __imp_VariantChangeType    0000000140162588     oleaut32:OLEAUT32.dll
 0002:00000590       __imp_VariantInit          0000000140162590     oleaut32:OLEAUT32.dll
 0002:00000598       __imp_VariantCopy          0000000140162598     oleaut32:OLEAUT32.dll
 0002:000005a0       __imp_VariantTimeToSystemTime 00000001401625a0     oleaut32:OLEAUT32.dll
 0002:000005a8       __imp_VariantClear         00000001401625a8     oleaut32:OLEAUT32.dll
 0002:000005b0       __imp_SysAllocString       00000001401625b0     oleaut32:OLEAUT32.dll
 0002:000005b8       __imp_GetErrorInfo         00000001401625b8     oleaut32:OLEAUT32.dll
 0002:000005c0       \177OLEAUT32_NULL_THUNK_DATA 00000001401625c0     oleaut32:OLEAUT32.dll
 0002:000005c8       __imp_RegisterClassA       00000001401625c8     user32:USER32.dll
 0002:000005d0       __imp_DestroyWindow        00000001401625d0     user32:USER32.dll
 0002:000005d8       __imp_CreateWindowExA      00000001401625d8     user32:USER32.dll
 0002:000005e0       __imp_DefWindowProcA       00000001401625e0     user32:USER32.dll
 0002:000005e8       \177USER32_NULL_THUNK_DATA 00000001401625e8     user32:USER32.dll
 0002:000005f0       __imp_WSAStartup           00000001401625f0     ws2_32:WS2_32.dll
 0002:000005f8       __imp_ntohs                00000001401625f8     ws2_32:WS2_32.dll
 0002:00000600       __imp_WSACleanup           0000000140162600     ws2_32:WS2_32.dll
 0002:00000608       __imp_connect              0000000140162608     ws2_32:WS2_32.dll
 0002:00000610       __imp_accept               0000000140162610     ws2_32:WS2_32.dll
 0002:00000618       __imp_ioctlsocket          0000000140162618     ws2_32:WS2_32.dll
 0002:00000620       __imp___WSAFDIsSet         0000000140162620     ws2_32:WS2_32.dll
 0002:00000628       __imp_gethostbyaddr        0000000140162628     ws2_32:WS2_32.dll
 0002:00000630       __imp_select               0000000140162630     ws2_32:WS2_32.dll
 0002:00000638       __imp_gethostname          0000000140162638     ws2_32:WS2_32.dll
 0002:00000640       __imp_getservbyname        0000000140162640     ws2_32:WS2_32.dll
 0002:00000648       __imp_inet_addr            0000000140162648     ws2_32:WS2_32.dll
 0002:00000650       __imp_recv                 0000000140162650     ws2_32:WS2_32.dll
 0002:00000658       __imp_gethostbyname        0000000140162658     ws2_32:WS2_32.dll
 0002:00000660       __imp_send                 0000000140162660     ws2_32:WS2_32.dll
 0002:00000668       __imp_inet_ntoa            0000000140162668     ws2_32:WS2_32.dll
 0002:00000670       __imp_htonl                0000000140162670     ws2_32:WS2_32.dll
 0002:00000678       __imp_WSAGetLastError      0000000140162678     ws2_32:WS2_32.dll
 0002:00000680       __imp_htons                0000000140162680     ws2_32:WS2_32.dll
 0002:00000688       __imp_shutdown             0000000140162688     ws2_32:WS2_32.dll
 0002:00000690       __imp_setsockopt           0000000140162690     ws2_32:WS2_32.dll
 0002:00000698       __imp_bind                 0000000140162698     ws2_32:WS2_32.dll
 0002:000006a0       __imp_socket               00000001401626a0     ws2_32:WS2_32.dll
 0002:000006a8       __imp_closesocket          00000001401626a8     ws2_32:WS2_32.dll
 0002:000006b0       __imp_listen               00000001401626b0     ws2_32:WS2_32.dll
 0002:000006b8       \177WS2_32_NULL_THUNK_DATA 00000001401626b8     ws2_32:WS2_32.dll
 0002:000006c0       __imp_CoUninitialize       00000001401626c0     ole32:ole32.dll
 0002:000006c8       __imp_OleRun               00000001401626c8     ole32:ole32.dll
 0002:000006d0       __imp_CoInitializeEx       00000001401626d0     ole32:ole32.dll
 0002:000006d8       __imp_CoCreateInstance     00000001401626d8     ole32:ole32.dll
 0002:000006e0       \177ole32_NULL_THUNK_DATA  00000001401626e0     ole32:ole32.dll
 0002:000006e8       __xc_a                     00000001401626e8     LIBCMT:crt0init.obj
 0002:00000700       __xc_z                     0000000140162700     LIBCMT:crt0init.obj
 0002:00000708       __xi_a                     0000000140162708     LIBCMT:crt0init.obj
 0002:00000738       __xi_z                     0000000140162738     LIBCMT:crt0init.obj
 0002:00000740       __xp_a                     0000000140162740     LIBCMT:crt0init.obj
 0002:00000758       __xp_z                     0000000140162758     LIBCMT:crt0init.obj
 0002:00000760       __xt_a                     0000000140162760     LIBCMT:crt0init.obj
 0002:00000768       __xt_z                     0000000140162768     LIBCMT:crt0init.obj
 0002:000007b8       _GUID_df0b3d60_548f_101b_8e65_08002b2bd119 00000001401627b8     comsuppw:comsupp.obj
 0002:000007d0       ??_7type_info@@6B@         00000001401627d0     LIBCMT:typinfo.obj
 0002:000007e0       ??_7bad_alloc@std@@6B@     00000001401627e0     LIBCMT:new.obj
 0002:000007f0       ??_C@_0P@GHFPNOJB@bad?5allocation?$AA@ 00000001401627f0     LIBCMT:new.obj
 0002:00000800       ??_C@_0P@MIGLKIOC@CorExitProcess?$AA@ 0000000140162800     LIBCMT:crt0dat.obj
 0002:00000810       ??_C@_1BI@BGOHAHKC@?$AAm?$AAs?$AAc?$AAo?$AAr?$AAe?$AAe?$AA?4?$AAd?$AAl?$AAl?$AA?$AA@ 0000000140162810     LIBCMT:crt0dat.obj
 0002:00000828       ??_C@_03LLEJOLGL@?4?1?2?$AA@ 0000000140162828     LIBCMT:stati32.obj
 0002:0000082c       ??_C@_02EAOCEIGI@?$DP?$CK?$AA@ 000000014016282c     LIBCMT:stati32.obj
 0002:00000830       ??_C@_03EBAPMIKO@a?1p?$AA@ 0000000140162830     LIBCMT:strftime.obj
 0002:00000834       ??_C@_05JAMEPDIN@am?1pm?$AA@ 0000000140162834     LIBCMT:strftime.obj
 0002:0000083c       ??_C@_02CLFPBFFP@TZ?$AA@   000000014016283c     LIBCMT:tzset.obj
 0002:00000840       ??_C@_07LCBHPJJN@LC_TIME?$AA@ 0000000140162840     LIBCMT:setlocal.obj
 0002:00000848       ??_C@_0L@DLHIECNL@LC_NUMERIC?$AA@ 0000000140162848     LIBCMT:setlocal.obj
 0002:00000858       ??_C@_0M@MIENIKLA@LC_MONETARY?$AA@ 0000000140162858     LIBCMT:setlocal.obj
 0002:00000868       ??_C@_08EADHIDAD@LC_CTYPE?$AA@ 0000000140162868     LIBCMT:setlocal.obj
 0002:00000878       ??_C@_0L@KFJHEKIK@LC_COLLATE?$AA@ 0000000140162878     LIBCMT:setlocal.obj
 0002:00000884       ??_C@_06NEFDFEKB@LC_ALL?$AA@ 0000000140162884     LIBCMT:setlocal.obj
 0002:00000890       __lc_category              0000000140162890     LIBCMT:setlocal.obj
 0002:000009a0       ??_C@_03EGDHDPFD@_?4?0?$AA@ 00000001401629a0     LIBCMT:setlocal.obj
 0002:000009a4       ??_C@_01IDAFKMJL@_?$AA@    00000001401629a4     LIBCMT:setlocal.obj
 0002:000009a8       ??_C@_01GFHCPBMG@C?$AA@    00000001401629a8     LIBCMT:setlocal.obj
 0002:000009ac       ??_C@_02BALPLPBG@?$DN?$DL?$AA@ 00000001401629ac     LIBCMT:setlocal.obj
 0002:00000a90       _FPinit                    0000000140162a90     LIBCMT:_fpinit_.obj
 0002:00000aa8       ??_C@_1O@CEDCILHN@?$AA?$CI?$AAn?$AAu?$AAl?$AAl?$AA?$CJ?$AA?$AA@ 0000000140162aa8     LIBCMT:output.obj
 0002:00000ab8       ??_C@_06OJHGLDPL@?$CInull?$CJ?$AA@ 0000000140162ab8     LIBCMT:output.obj
 0002:00000ac0       __lookuptable              0000000140162ac0     LIBCMT:output.obj
 0002:00000b50       ??_7exception@std@@6B@     0000000140162b50     LIBCMT:stdexcpt.obj
 0002:00000b60       ??_C@_0BC@EOODALEL@Unknown?5exception?$AA@ 0000000140162b60     LIBCMT:stdexcpt.obj
 0002:00000b78       ??_C@_1BO@BKOMIGKJ@?$AAr?$AAu?$AAn?$AAt?$AAi?$AAm?$AAe?$AA?5?$AAe?$AAr?$AAr?$AAo?$AAr?$AA?5?$AA?$AA@ 0000000140162b78     LIBCMT:crt0msg.obj
 0002:00000b98       ??_C@_15JNBOKNOG@?$AA?$AN?$AA?6?$AA?$AA@ 0000000140162b98     LIBCMT:crt0msg.obj
 0002:00000ba0       ??_C@_1BM@JBBEPPHI@?$AAT?$AAL?$AAO?$AAS?$AAS?$AA?5?$AAe?$AAr?$AAr?$AAo?$AAr?$AA?$AN?$AA?6?$AA?$AA@ 0000000140162ba0     LIBCMT:crt0msg.obj
 0002:00000bc0       ??_C@_1BK@KMOMNAAI@?$AAS?$AAI?$AAN?$AAG?$AA?5?$AAe?$AAr?$AAr?$AAo?$AAr?$AA?$AN?$AA?6?$AA?$AA@ 0000000140162bc0     LIBCMT:crt0msg.obj
 0002:00000be0       ??_C@_1BO@BFCDCGC@?$AAD?$AAO?$AAM?$AAA?$AAI?$AAN?$AA?5?$AAe?$AAr?$AAr?$AAo?$AAr?$AA?$AN?$AA?6?$AA?$AA@ 0000000140162be0     LIBCMT:crt0msg.obj
 0002:00000c00       ??_C@_1BOO@KGEDBGAJ@?$AAR?$AA6?$AA0?$AA3?$AA3?$AA?$AN?$AA?6?$AA?9?$AA?5?$AAA?$AAt?$AAt?$AAe?$AAm?$AAp?$AAt?$AA?5?$AAt?$AAo?$AA?5?$AAu?$AAs?$AAe?$AA?5?$AAM?$AAS?$AAI?$AAL?$AA?5?$AAc?$AAo?$AAd@ 0000000140162c00     LIBCMT:crt0msg.obj
 0002:00000df0       ??_C@_1GG@GOPILAJP@?$AAR?$AA6?$AA0?$AA3?$AA2?$AA?$AN?$AA?6?$AA?9?$AA?5?$AAn?$AAo?$AAt?$AA?5?$AAe?$AAn?$AAo?$AAu?$AAg?$AAh?$AA?5?$AAs?$AAp?$AAa?$AAc?$AAe?$AA?5?$AAf?$AAo?$AAr?$AA?5?$AAl?$AAo@ 0000000140162df0     LIBCMT:crt0msg.obj
 0002:00000e60       ??_C@_1MG@ENCOOIDF@?$AAR?$AA6?$AA0?$AA3?$AA1?$AA?$AN?$AA?6?$AA?9?$AA?5?$AAA?$AAt?$AAt?$AAe?$AAm?$AAp?$AAt?$AA?5?$AAt?$AAo?$AA?5?$AAi?$AAn?$AAi?$AAt?$AAi?$AAa?$AAl?$AAi?$AAz?$AAe?$AA?5?$AAt@ 0000000140162e60     LIBCMT:crt0msg.obj
 0002:00000f28       ??_C@_1DO@BMFCDCD@?$AAR?$AA6?$AA0?$AA3?$AA0?$AA?$AN?$AA?6?$AA?9?$AA?5?$AAC?$AAR?$AAT?$AA?5?$AAn?$AAo?$AAt?$AA?5?$AAi?$AAn?$AAi?$AAt?$AAi?$AAa?$AAl?$AAi?$AAz?$AAe?$AAd?$AA?$AN?$AA?6?$AA?$AA@ 0000000140162f28     LIBCMT:crt0msg.obj
 0002:00000f70       ??_C@_1EK@HHFLMAOL@?$AAR?$AA6?$AA0?$AA2?$AA8?$AA?$AN?$AA?6?$AA?9?$AA?5?$AAu?$AAn?$AAa?$AAb?$AAl?$AAe?$AA?5?$AAt?$AAo?$AA?5?$AAi?$AAn?$AAi?$AAt?$AAi?$AAa?$AAl?$AAi?$AAz?$AAe?$AA?5?$AAh?$AAe@ 0000000140162f70     LIBCMT:crt0msg.obj
 0002:00000fc0       ??_C@_1GK@MFGOKLAG@?$AAR?$AA6?$AA0?$AA2?$AA7?$AA?$AN?$AA?6?$AA?9?$AA?5?$AAn?$AAo?$AAt?$AA?5?$AAe?$AAn?$AAo?$AAu?$AAg?$AAh?$AA?5?$AAs?$AAp?$AAa?$AAc?$AAe?$AA?5?$AAf?$AAo?$AAr?$AA?5?$AAl?$AAo@ 0000000140162fc0     LIBCMT:crt0msg.obj
 0002:00001030       ??_C@_1GK@MCAAGJMO@?$AAR?$AA6?$AA0?$AA2?$AA6?$AA?$AN?$AA?6?$AA?9?$AA?5?$AAn?$AAo?$AAt?$AA?5?$AAe?$AAn?$AAo?$AAu?$AAg?$AAh?$AA?5?$AAs?$AAp?$AAa?$AAc?$AAe?$AA?5?$AAf?$AAo?$AAr?$AA?5?$AAs?$AAt@ 0000000140163030     LIBCMT:crt0msg.obj
 0002:000010a0       ??_C@_1EM@MAADIHMB@?$AAR?$AA6?$AA0?$AA2?$AA5?$AA?$AN?$AA?6?$AA?9?$AA?5?$AAp?$AAu?$AAr?$AAe?$AA?5?$AAv?$AAi?$AAr?$AAt?$AAu?$AAa?$AAl?$AA?5?$AAf?$AAu?$AAn?$AAc?$AAt?$AAi?$AAo?$AAn?$AA?5?$AAc@ 00000001401630a0     LIBCMT:crt0msg.obj
 0002:000010f0       ??_C@_1GK@FHCKBEFA@?$AAR?$AA6?$AA0?$AA2?$AA4?$AA?$AN?$AA?6?$AA?9?$AA?5?$AAn?$AAo?$AAt?$AA?5?$AAe?$AAn?$AAo?$AAu?$AAg?$AAh?$AA?5?$AAs?$AAp?$AAa?$AAc?$AAe?$AA?5?$AAf?$AAo?$AAr?$AA?5?$AA_?$AAo@ 00000001401630f0     LIBCMT:crt0msg.obj
 0002:00001160       ??_C@_1FC@ECHBIFBC@?$AAR?$AA6?$AA0?$AA1?$AA9?$AA?$AN?$AA?6?$AA?9?$AA?5?$AAu?$AAn?$AAa?$AAb?$AAl?$AAe?$AA?5?$AAt?$AAo?$AA?5?$AAo?$AAp?$AAe?$AAn?$AA?5?$AAc?$AAo?$AAn?$AAs?$AAo?$AAl?$AAe?$AA?5@ 0000000140163160     LIBCMT:crt0msg.obj
 0002:000011c0       ??_C@_1EC@JIBHAOPH@?$AAR?$AA6?$AA0?$AA1?$AA8?$AA?$AN?$AA?6?$AA?9?$AA?5?$AAu?$AAn?$AAe?$AAx?$AAp?$AAe?$AAc?$AAt?$AAe?$AAd?$AA?5?$AAh?$AAe?$AAa?$AAp?$AA?5?$AAe?$AAr?$AAr?$AAo?$AAr?$AA?$AN?$AA?6@ 00000001401631c0     LIBCMT:crt0msg.obj
 0002:00001210       ??_C@_1FK@BEOGODMC@?$AAR?$AA6?$AA0?$AA1?$AA7?$AA?$AN?$AA?6?$AA?9?$AA?5?$AAu?$AAn?$AAe?$AAx?$AAp?$AAe?$AAc?$AAt?$AAe?$AAd?$AA?5?$AAm?$AAu?$AAl?$AAt?$AAi?$AAt?$AAh?$AAr?$AAe?$AAa?$AAd?$AA?5@ 0000000140163210     LIBCMT:crt0msg.obj
 0002:00001270       ??_C@_1FI@LOGNIKDM@?$AAR?$AA6?$AA0?$AA1?$AA6?$AA?$AN?$AA?6?$AA?9?$AA?5?$AAn?$AAo?$AAt?$AA?5?$AAe?$AAn?$AAo?$AAu?$AAg?$AAh?$AA?5?$AAs?$AAp?$AAa?$AAc?$AAe?$AA?5?$AAf?$AAo?$AAr?$AA?5?$AAt?$AAh@ 0000000140163270     LIBCMT:crt0msg.obj
 0002:000012d0       ??_C@_1EG@BEHAGFJD@?$AAR?$AA6?$AA0?$AA1?$AA0?$AA?$AN?$AA?6?$AA?9?$AA?5?$AAa?$AAb?$AAo?$AAr?$AAt?$AA?$CI?$AA?$CJ?$AA?5?$AAh?$AAa?$AAs?$AA?5?$AAb?$AAe?$AAe?$AAn?$AA?5?$AAc?$AAa?$AAl?$AAl?$AAe?$AAd@ 00000001401632d0     LIBCMT:crt0msg.obj
 0002:00001320       ??_C@_1FI@HONFMGBI@?$AAR?$AA6?$AA0?$AA0?$AA9?$AA?$AN?$AA?6?$AA?9?$AA?5?$AAn?$AAo?$AAt?$AA?5?$AAe?$AAn?$AAo?$AAu?$AAg?$AAh?$AA?5?$AAs?$AAp?$AAa?$AAc?$AAe?$AA?5?$AAf?$AAo?$AAr?$AA?5?$AAe?$AAn@ 0000000140163320     LIBCMT:crt0msg.obj
 0002:00001380       ??_C@_1FE@LLNEDJMD@?$AAR?$AA6?$AA0?$AA0?$AA8?$AA?$AN?$AA?6?$AA?9?$AA?5?$AAn?$AAo?$AAt?$AA?5?$AAe?$AAn?$AAo?$AAu?$AAg?$AAh?$AA?5?$AAs?$AAp?$AAa?$AAc?$AAe?$AA?5?$AAf?$AAo?$AAr?$AA?5?$AAa?$AAr@ 0000000140163380     LIBCMT:crt0msg.obj
 0002:000013e0       ??_C@_1FK@PGACCAFB@?$AAR?$AA6?$AA0?$AA0?$AA2?$AA?$AN?$AA?6?$AA?9?$AA?5?$AAf?$AAl?$AAo?$AAa?$AAt?$AAi?$AAn?$AAg?$AA?5?$AAp?$AAo?$AAi?$AAn?$AAt?$AA?5?$AAs?$AAu?$AAp?$AAp?$AAo?$AAr?$AAt?$AA?5@ 00000001401633e0     LIBCMT:crt0msg.obj
 0002:000015a0       ??_C@_1EK@MBDPDCGA@?$AAM?$AAi?$AAc?$AAr?$AAo?$AAs?$AAo?$AAf?$AAt?$AA?5?$AAV?$AAi?$AAs?$AAu?$AAa?$AAl?$AA?5?$AAC?$AA?$CL?$AA?$CL?$AA?5?$AAR?$AAu?$AAn?$AAt?$AAi?$AAm?$AAe?$AA?5?$AAL?$AAi?$AAb@ 00000001401635a0     LIBCMT:crt0msg.obj
 0002:000015ec       ??_C@_15IABLJNFO@?$AA?6?$AA?6?$AA?$AA@ 00000001401635ec     LIBCMT:crt0msg.obj
 0002:000015f8       ??_C@_17LGKOMLJ@?$AA?4?$AA?4?$AA?4?$AA?$AA@ 00000001401635f8     LIBCMT:crt0msg.obj
 0002:00001600       ??_C@_1CO@EAEJAADC@?$AA?$DM?$AAp?$AAr?$AAo?$AAg?$AAr?$AAa?$AAm?$AA?5?$AAn?$AAa?$AAm?$AAe?$AA?5?$AAu?$AAn?$AAk?$AAn?$AAo?$AAw?$AAn?$AA?$DO?$AA?$AA@ 0000000140163600     LIBCMT:crt0msg.obj
 0002:00001630       ??_C@_1DE@JNGNBFGO@?$AAR?$AAu?$AAn?$AAt?$AAi?$AAm?$AAe?$AA?5?$AAE?$AAr?$AAr?$AAo?$AAr?$AA?$CB?$AA?6?$AA?6?$AAP?$AAr?$AAo?$AAg?$AAr?$AAa?$AAm?$AA?3?$AA?5?$AA?$AA@ 0000000140163630     LIBCMT:crt0msg.obj
 0002:00001668       ??_C@_1BC@GDGBMEMK@?$AAH?$AAH?$AA?3?$AAm?$AAm?$AA?3?$AAs?$AAs?$AA?$AA@ 0000000140163668     LIBCMT:nlsdata2.obj
 0002:00001680       ??_C@_1CI@KNAKOEBC@?$AAd?$AAd?$AAd?$AAd?$AA?0?$AA?5?$AAM?$AAM?$AAM?$AAM?$AA?5?$AAd?$AAd?$AA?0?$AA?5?$AAy?$AAy?$AAy?$AAy?$AA?$AA@ 0000000140163680     LIBCMT:nlsdata2.obj
 0002:000016a8       ??_C@_1BC@IEBCMHCM@?$AAM?$AAM?$AA?1?$AAd?$AAd?$AA?1?$AAy?$AAy?$AA?$AA@ 00000001401636a8     LIBCMT:nlsdata2.obj
 0002:000016bc       ??_C@_15CLMNNGEL@?$AAP?$AAM?$AA?$AA@ 00000001401636bc     LIBCMT:nlsdata2.obj
 0002:000016c4       ??_C@_15ODEHAHHF@?$AAA?$AAM?$AA?$AA@ 00000001401636c4     LIBCMT:nlsdata2.obj
 0002:000016d0       ??_C@_1BC@FEMKIFH@?$AAD?$AAe?$AAc?$AAe?$AAm?$AAb?$AAe?$AAr?$AA?$AA@ 00000001401636d0     LIBCMT:nlsdata2.obj
 0002:000016e8       ??_C@_1BC@BGLIFPF@?$AAN?$AAo?$AAv?$AAe?$AAm?$AAb?$AAe?$AAr?$AA?$AA@ 00000001401636e8     LIBCMT:nlsdata2.obj
 0002:00001700       ??_C@_1BA@EPANDLNG@?$AAO?$AAc?$AAt?$AAo?$AAb?$AAe?$AAr?$AA?$AA@ 0000000140163700     LIBCMT:nlsdata2.obj
 0002:00001710       ??_C@_1BE@DKAAMBJL@?$AAS?$AAe?$AAp?$AAt?$AAe?$AAm?$AAb?$AAe?$AAr?$AA?$AA@ 0000000140163710     LIBCMT:nlsdata2.obj
 0002:00001728       ??_C@_1O@PAHLKOAC@?$AAA?$AAu?$AAg?$AAu?$AAs?$AAt?$AA?$AA@ 0000000140163728     LIBCMT:nlsdata2.obj
 0002:00001738       ??_C@_19BIFMLPCD@?$AAJ?$AAu?$AAl?$AAy?$AA?$AA@ 0000000140163738     LIBCMT:nlsdata2.obj
 0002:00001748       ??_C@_19EPFLPGAP@?$AAJ?$AAu?$AAn?$AAe?$AA?$AA@ 0000000140163748     LIBCMT:nlsdata2.obj
 0002:00001758       ??_C@_1M@GJNLMHFD@?$AAA?$AAp?$AAr?$AAi?$AAl?$AA?$AA@ 0000000140163758     LIBCMT:nlsdata2.obj
 0002:00001768       ??_C@_1M@IKEENEDF@?$AAM?$AAa?$AAr?$AAc?$AAh?$AA?$AA@ 0000000140163768     LIBCMT:nlsdata2.obj
 0002:00001778       ??_C@_1BC@JGDDFFAM@?$AAF?$AAe?$AAb?$AAr?$AAu?$AAa?$AAr?$AAy?$AA?$AA@ 0000000140163778     LIBCMT:nlsdata2.obj
 0002:00001790       ??_C@_1BA@EFMEIEBA@?$AAJ?$AAa?$AAn?$AAu?$AAa?$AAr?$AAy?$AA?$AA@ 0000000140163790     LIBCMT:nlsdata2.obj
 0002:000017a0       ??_C@_17EGKACKIF@?$AAD?$AAe?$AAc?$AA?$AA@ 00000001401637a0     LIBCMT:nlsdata2.obj
 0002:000017a8       ??_C@_17BBDMLCIG@?$AAN?$AAo?$AAv?$AA?$AA@ 00000001401637a8     LIBCMT:nlsdata2.obj
 0002:000017b0       ??_C@_17FNLKOI@?$AAO?$AAc?$AAt?$AA?$AA@ 00000001401637b0     LIBCMT:nlsdata2.obj
 0002:000017b8       ??_C@_17HCHCOKMG@?$AAS?$AAe?$AAp?$AA?$AA@ 00000001401637b8     LIBCMT:nlsdata2.obj
 0002:000017c0       ??_C@_17ICPELBCN@?$AAA?$AAu?$AAg?$AA?$AA@ 00000001401637c0     LIBCMT:nlsdata2.obj
 0002:000017c8       ??_C@_17IJPCKHK@?$AAJ?$AAu?$AAl?$AA?$AA@ 00000001401637c8     LIBCMT:nlsdata2.obj
 0002:000017d0       ??_C@_17KCJGOCPB@?$AAJ?$AAu?$AAn?$AA?$AA@ 00000001401637d0     LIBCMT:nlsdata2.obj
 0002:000017d8       ??_C@_17PNNKMEED@?$AAM?$AAa?$AAy?$AA?$AA@ 00000001401637d8     LIBCMT:nlsdata2.obj
 0002:000017e0       ??_C@_17LFPOIHDD@?$AAA?$AAp?$AAr?$AA?$AA@ 00000001401637e0     LIBCMT:nlsdata2.obj
 0002:000017e8       ??_C@_17CKNLEDEC@?$AAM?$AAa?$AAr?$AA?$AA@ 00000001401637e8     LIBCMT:nlsdata2.obj
 0002:000017f0       ??_C@_17LMDJEKJN@?$AAF?$AAe?$AAb?$AA?$AA@ 00000001401637f0     LIBCMT:nlsdata2.obj
 0002:000017f8       ??_C@_17DKNBKCHM@?$AAJ?$AAa?$AAn?$AA?$AA@ 00000001401637f8     LIBCMT:nlsdata2.obj
 0002:00001800       ??_C@_1BC@ENMNNPAJ@?$AAS?$AAa?$AAt?$AAu?$AAr?$AAd?$AAa?$AAy?$AA?$AA@ 0000000140163800     LIBCMT:nlsdata2.obj
 0002:00001818       ??_C@_1O@PDICJHAG@?$AAF?$AAr?$AAi?$AAd?$AAa?$AAy?$AA?$AA@ 0000000140163818     LIBCMT:nlsdata2.obj
 0002:00001828       ??_C@_1BC@HHMNLIHE@?$AAT?$AAh?$AAu?$AAr?$AAs?$AAd?$AAa?$AAy?$AA?$AA@ 0000000140163828     LIBCMT:nlsdata2.obj
 0002:00001840       ??_C@_1BE@EBOGMDOH@?$AAW?$AAe?$AAd?$AAn?$AAe?$AAs?$AAd?$AAa?$AAy?$AA?$AA@ 0000000140163840     LIBCMT:nlsdata2.obj
 0002:00001858       ??_C@_1BA@ENFBFFEK@?$AAT?$AAu?$AAe?$AAs?$AAd?$AAa?$AAy?$AA?$AA@ 0000000140163858     LIBCMT:nlsdata2.obj
 0002:00001868       ??_C@_1O@MMNBFLIA@?$AAM?$AAo?$AAn?$AAd?$AAa?$AAy?$AA?$AA@ 0000000140163868     LIBCMT:nlsdata2.obj
 0002:00001878       ??_C@_1O@IHNHDHPB@?$AAS?$AAu?$AAn?$AAd?$AAa?$AAy?$AA?$AA@ 0000000140163878     LIBCMT:nlsdata2.obj
 0002:00001888       ??_C@_17GGIBDPIH@?$AAS?$AAa?$AAt?$AA?$AA@ 0000000140163888     LIBCMT:nlsdata2.obj
 0002:00001890       ??_C@_17HFOLPPLP@?$AAF?$AAr?$AAi?$AA?$AA@ 0000000140163890     LIBCMT:nlsdata2.obj
 0002:00001898       ??_C@_17PDPHAADD@?$AAT?$AAh?$AAu?$AA?$AA@ 0000000140163898     LIBCMT:nlsdata2.obj
 0002:000018a0       ??_C@_17CJEDCEPE@?$AAW?$AAe?$AAd?$AA?$AA@ 00000001401638a0     LIBCMT:nlsdata2.obj
 0002:000018a8       ??_C@_17BMKGEGOJ@?$AAT?$AAu?$AAe?$AA?$AA@ 00000001401638a8     LIBCMT:nlsdata2.obj
 0002:000018b0       ??_C@_17KBOMKBF@?$AAM?$AAo?$AAn?$AA?$AA@ 00000001401638b0     LIBCMT:nlsdata2.obj
 0002:000018b8       ??_C@_17MBGCMIPB@?$AAS?$AAu?$AAn?$AA?$AA@ 00000001401638b8     LIBCMT:nlsdata2.obj
 0002:000018c0       ??_C@_08JCCMCCIL@HH?3mm?3ss?$AA@ 00000001401638c0     LIBCMT:nlsdata2.obj
 0002:000018d0       ??_C@_0BE@CKGJFCPC@dddd?0?5MMMM?5dd?0?5yyyy?$AA@ 00000001401638d0     LIBCMT:nlsdata2.obj
 0002:000018e8       ??_C@_08BPBNCDIB@MM?1dd?1yy?$AA@ 00000001401638e8     LIBCMT:nlsdata2.obj
 0002:000018f8       ??_C@_08EDHMEBNP@December?$AA@ 00000001401638f8     LIBCMT:nlsdata2.obj
 0002:00001908       ??_C@_08HCHEGEOA@November?$AA@ 0000000140163908     LIBCMT:nlsdata2.obj
 0002:00001918       ??_C@_07JJNFCEND@October?$AA@ 0000000140163918     LIBCMT:nlsdata2.obj
 0002:00001920       ??_C@_09BHHEALKD@September?$AA@ 0000000140163920     LIBCMT:nlsdata2.obj
 0002:0000192c       ??_C@_06LBBHFDDG@August?$AA@ 000000014016392c     LIBCMT:nlsdata2.obj
 0002:00001934       ??_C@_04MIEPOIFP@July?$AA@ 0000000140163934     LIBCMT:nlsdata2.obj
 0002:0000193c       ??_C@_04CNLMGBGM@June?$AA@ 000000014016393c     LIBCMT:nlsdata2.obj
 0002:00001944       ??_C@_05DMJDNLEJ@April?$AA@ 0000000140163944     LIBCMT:nlsdata2.obj
 0002:0000194c       ??_C@_05HPCKOFNC@March?$AA@ 000000014016394c     LIBCMT:nlsdata2.obj
 0002:00001958       ??_C@_08GNJGEPFN@February?$AA@ 0000000140163958     LIBCMT:nlsdata2.obj
 0002:00001968       ??_C@_07CGJPFGJA@January?$AA@ 0000000140163968     LIBCMT:nlsdata2.obj
 0002:00001970       ??_C@_08INBOOONO@Saturday?$AA@ 0000000140163970     LIBCMT:nlsdata2.obj
 0002:0000197c       ??_C@_06JECMNKMI@Friday?$AA@ 000000014016397c     LIBCMT:nlsdata2.obj
 0002:00001988       ??_C@_08HACCIKIA@Thursday?$AA@ 0000000140163988     LIBCMT:nlsdata2.obj
 0002:00001998       ??_C@_09DLIGFAKA@Wednesday?$AA@ 0000000140163998     LIBCMT:nlsdata2.obj
 0002:000019a8       ??_C@_07BAAGCFCM@Tuesday?$AA@ 00000001401639a8     LIBCMT:nlsdata2.obj
 0002:000019b0       ??_C@_06JLEDEDGH@Monday?$AA@ 00000001401639b0     LIBCMT:nlsdata2.obj
 0002:000019b8       ??_C@_06OOPIFAJ@Sunday?$AA@ 00000001401639b8     LIBCMT:nlsdata2.obj
 0002:000019c0       __dnames                   00000001401639c0     LIBCMT:timeset.obj
 0002:000019d8       __mnames                   00000001401639d8     LIBCMT:timeset.obj
 0002:00001a00       ??_C@_04PNGHFIJN@?4com?$AA@ 0000000140163a00     LIBCMT:stat.obj
 0002:00001a08       ??_C@_04NEEFLLOK@?4bat?$AA@ 0000000140163a08     LIBCMT:stat.obj
 0002:00001a10       ??_C@_04CPCBDHLK@?4cmd?$AA@ 0000000140163a10     LIBCMT:stat.obj
 0002:00001a18       ??_C@_04JLMDILM@?4exe?$AA@ 0000000140163a18     LIBCMT:stat.obj
 0002:00001a20       __lookuptable_s            0000000140163a20     LIBCMT:outputs.obj
 0002:00001a80       ??_C@_0BG@KLEAJEFJ@Illegal?5byte?5sequence?$AA@ 0000000140163a80     LIBCMT:syserr.obj
 0002:00001a98       ??_C@_0BE@ICMCHPHH@Directory?5not?5empty?$AA@ 0000000140163a98     LIBCMT:syserr.obj
 0002:00001ab0       ??_C@_0BJ@IHEHINLI@Function?5not?5implemented?$AA@ 0000000140163ab0     LIBCMT:syserr.obj
 0002:00001ad0       ??_C@_0BD@CLHBCGPB@No?5locks?5available?$AA@ 0000000140163ad0     LIBCMT:syserr.obj
 0002:00001ae8       ??_C@_0BC@BEDIHIDK@Filename?5too?5long?$AA@ 0000000140163ae8     LIBCMT:syserr.obj
 0002:00001b00       ??_C@_0BK@JAEBMJJM@Resource?5deadlock?5avoided?$AA@ 0000000140163b00     LIBCMT:syserr.obj
 0002:00001b20       ??_C@_0BB@FCBJFCAJ@Result?5too?5large?$AA@ 0000000140163b20     LIBCMT:syserr.obj
 0002:00001b38       ??_C@_0N@MMJPGLJK@Domain?5error?$AA@ 0000000140163b38     LIBCMT:syserr.obj
 0002:00001b48       ??_C@_0M@LHEPIIOM@Broken?5pipe?$AA@ 0000000140163b48     LIBCMT:syserr.obj
 0002:00001b58       ??_C@_0P@PKCJJLLM@Too?5many?5links?$AA@ 0000000140163b58     LIBCMT:syserr.obj
 0002:00001b68       ??_C@_0BG@DDBFNKBH@Read?9only?5file?5system?$AA@ 0000000140163b68     LIBCMT:syserr.obj
 0002:00001b80       ??_C@_0N@FEHLOILP@Invalid?5seek?$AA@ 0000000140163b80     LIBCMT:syserr.obj
 0002:00001b90       ??_C@_0BI@FEALHKLD@No?5space?5left?5on?5device?$AA@ 0000000140163b90     LIBCMT:syserr.obj
 0002:00001ba8       ??_C@_0P@LFMMIPAE@File?5too?5large?$AA@ 0000000140163ba8     LIBCMT:syserr.obj
 0002:00001bb8       ??_C@_0CE@ONOKNLPF@Inappropriate?5I?1O?5control?5operat@ 0000000140163bb8     LIBCMT:syserr.obj
 0002:00001be0       ??_C@_0BE@INBJMKGG@Too?5many?5open?5files?$AA@ 0000000140163be0     LIBCMT:syserr.obj
 0002:00001bf8       ??_C@_0BO@IIFBODJE@Too?5many?5open?5files?5in?5system?$AA@ 0000000140163bf8     LIBCMT:syserr.obj
 0002:00001c18       ??_C@_0BB@HMGGCEBG@Invalid?5argument?$AA@ 0000000140163c18     LIBCMT:syserr.obj
 0002:00001c30       ??_C@_0P@NDHGCGKE@Is?5a?5directory?$AA@ 0000000140163c30     LIBCMT:syserr.obj
 0002:00001c40       ??_C@_0BA@CJBACOOL@Not?5a?5directory?$AA@ 0000000140163c40     LIBCMT:syserr.obj
 0002:00001c50       ??_C@_0P@NLEIANHE@No?5such?5device?$AA@ 0000000140163c50     LIBCMT:syserr.obj
 0002:00001c60       ??_C@_0O@OAMDNOCP@Improper?5link?$AA@ 0000000140163c60     LIBCMT:syserr.obj
 0002:00001c70       ??_C@_0M@NAAJNNGH@File?5exists?$AA@ 0000000140163c70     LIBCMT:syserr.obj
 0002:00001c80       ??_C@_0BA@BIBLIOEK@Resource?5device?$AA@ 0000000140163c80     LIBCMT:syserr.obj
 0002:00001c90       ??_C@_0O@NIPGCINC@Unknown?5error?$AA@ 0000000140163c90     LIBCMT:syserr.obj
 0002:00001ca0       ??_C@_0M@LOEHLCJD@Bad?5address?$AA@ 0000000140163ca0     LIBCMT:syserr.obj
 0002:00001cb0       ??_C@_0BC@HFNFNKAI@Permission?5denied?$AA@ 0000000140163cb0     LIBCMT:syserr.obj
 0002:00001cc8       ??_C@_0BB@IMDKMPFB@Not?5enough?5space?$AA@ 0000000140163cc8     LIBCMT:syserr.obj
 0002:00001ce0       ??_C@_0CB@EPFKGNAK@Resource?5temporarily?5unavailable@ 0000000140163ce0     LIBCMT:syserr.obj
 0002:00001d08       ??_C@_0BD@LOHELEP@No?5child?5processes?$AA@ 0000000140163d08     LIBCMT:syserr.obj
 0002:00001d20       ??_C@_0BE@NFGDDCEF@Bad?5file?5descriptor?$AA@ 0000000140163d20     LIBCMT:syserr.obj
 0002:00001d38       ??_C@_0BC@HKPNECK@Exec?5format?5error?$AA@ 0000000140163d38     LIBCMT:syserr.obj
 0002:00001d50       ??_C@_0BC@MFFGCDFL@Arg?5list?5too?5long?$AA@ 0000000140163d50     LIBCMT:syserr.obj
 0002:00001d68       ??_C@_0BK@DPKMCKJ@No?5such?5device?5or?5address?$AA@ 0000000140163d68     LIBCMT:syserr.obj
 0002:00001d88       ??_C@_0BD@KKNFOBBD@Input?1output?5error?$AA@ 0000000140163d88     LIBCMT:syserr.obj
 0002:00001da0       ??_C@_0BK@FJBOAFDK@Interrupted?5function?5call?$AA@ 0000000140163da0     LIBCMT:syserr.obj
 0002:00001dc0       ??_C@_0BA@FKIAIBGA@No?5such?5process?$AA@ 0000000140163dc0     LIBCMT:syserr.obj
 0002:00001dd0       ??_C@_0BK@FMDHKPNF@No?5such?5file?5or?5directory?$AA@ 0000000140163dd0     LIBCMT:syserr.obj
 0002:00001df0       ??_C@_0BI@BJFCGOHL@Operation?5not?5permitted?$AA@ 0000000140163df0     LIBCMT:syserr.obj
 0002:00001e08       ??_C@_08INEPGKHH@No?5error?$AA@ 0000000140163e08     LIBCMT:syserr.obj
 0002:00001e20       __newctype                 0000000140163e20     LIBCMT:ctype.obj
 0002:00002120       _wctype                    0000000140164120     LIBCMT:ctype.obj
 0002:00002330       __newclmap                 0000000140164330     LIBCMT:ctype.obj
 0002:000024b0       __newcumap                 00000001401644b0     LIBCMT:ctype.obj
 0002:00002630       ??_C@_0O@FMJNFNKE@united?9states?$AA@ 0000000140164630     LIBCMT:getqloc.obj
 0002:00002640       ??_C@_0P@NDHFFKCA@united?9kingdom?$AA@ 0000000140164640     LIBCMT:getqloc.obj
 0002:00002650       ??_C@_0BC@HHDADLGF@trinidad?5?$CG?5tobago?$AA@ 0000000140164650     LIBCMT:getqloc.obj
 0002:00002668       ??_C@_0M@IOAEBDAC@south?9korea?$AA@ 0000000140164668     LIBCMT:getqloc.obj
 0002:00002678       ??_C@_0N@FIELFKIJ@south?9africa?$AA@ 0000000140164678     LIBCMT:getqloc.obj
 0002:00002688       ??_C@_0M@OPNDHCMC@south?5korea?$AA@ 0000000140164688     LIBCMT:getqloc.obj
 0002:00002698       ??_C@_0N@MDEOEPFI@south?5africa?$AA@ 0000000140164698     LIBCMT:getqloc.obj
 0002:000026a8       ??_C@_06FKAPCJLB@slovak?$AA@ 00000001401646a8     LIBCMT:getqloc.obj
 0002:000026b0       ??_C@_0M@EFJANOAL@puerto?9rico?$AA@ 00000001401646b0     LIBCMT:getqloc.obj
 0002:000026c0       ??_C@_08PGOJKDAI@pr?9china?$AA@ 00000001401646c0     LIBCMT:getqloc.obj
 0002:000026d0       ??_C@_08JHDOMCMI@pr?5china?$AA@ 00000001401646d0     LIBCMT:getqloc.obj
 0002:000026dc       ??_C@_02JHCHFBLL@nz?$AA@   00000001401646dc     LIBCMT:getqloc.obj
 0002:000026e0       ??_C@_0M@LINHDHKP@new?9zealand?$AA@ 00000001401646e0     LIBCMT:getqloc.obj
 0002:000026f0       ??_C@_09IIIPPBDB@hong?9kong?$AA@ 00000001401646f0     LIBCMT:getqloc.obj
 0002:00002700       ??_C@_07HJLCKBG@holland?$AA@ 0000000140164700     LIBCMT:getqloc.obj
 0002:00002708       ??_C@_0O@LEHGMHAG@great?5britain?$AA@ 0000000140164708     LIBCMT:getqloc.obj
 0002:00002718       ??_C@_07FACOMELA@england?$AA@ 0000000140164718     LIBCMT:getqloc.obj
 0002:00002720       ??_C@_05JIHCEICB@czech?$AA@ 0000000140164720     LIBCMT:getqloc.obj
 0002:00002728       ??_C@_05BBJOBLGB@china?$AA@ 0000000140164728     LIBCMT:getqloc.obj
 0002:00002730       ??_C@_07GPKPHICP@britain?$AA@ 0000000140164730     LIBCMT:getqloc.obj
 0002:00002738       ??_C@_07MHIPBHMG@america?$AA@ 0000000140164738     LIBCMT:getqloc.obj
 0002:00002740       ??_C@_03KIALPMKC@usa?$AA@  0000000140164740     LIBCMT:getqloc.obj
 0002:00002744       ??_C@_02FGJGKGGD@us?$AA@   0000000140164744     LIBCMT:getqloc.obj
 0002:00002748       ??_C@_02NEINDODK@uk?$AA@   0000000140164748     LIBCMT:getqloc.obj
 0002:0000274c       ??_C@_05JMPCFJFJ@swiss?$AA@ 000000014016474c     LIBCMT:getqloc.obj
 0002:00002758       ??_C@_0BA@HLOCPIOD@swedish?9finland?$AA@ 0000000140164758     LIBCMT:getqloc.obj
 0002:00002768       ??_C@_0BC@PKCNIABK@spanish?9venezuela?$AA@ 0000000140164768     LIBCMT:getqloc.obj
 0002:00002780       ??_C@_0BA@GBHHMIJI@spanish?9uruguay?$AA@ 0000000140164780     LIBCMT:getqloc.obj
 0002:00002790       ??_C@_0BE@BHDOHPMC@spanish?9puerto?5rico?$AA@ 0000000140164790     LIBCMT:getqloc.obj
 0002:000027a8       ??_C@_0N@KMOIDGGN@spanish?9peru?$AA@ 00000001401647a8     LIBCMT:getqloc.obj
 0002:000027b8       ??_C@_0BB@HMHLPGPH@spanish?9paraguay?$AA@ 00000001401647b8     LIBCMT:getqloc.obj
 0002:000027d0       ??_C@_0P@MCPKNGFD@spanish?9panama?$AA@ 00000001401647d0     LIBCMT:getqloc.obj
 0002:000027e0       ??_C@_0BC@IHOHGAIL@spanish?9nicaragua?$AA@ 00000001401647e0     LIBCMT:getqloc.obj
 0002:000027f8       ??_C@_0P@KLMJDNFJ@spanish?9modern?$AA@ 00000001401647f8     LIBCMT:getqloc.obj
 0002:00002808       ??_C@_0BA@BPAPGBCM@spanish?9mexican?$AA@ 0000000140164808     LIBCMT:getqloc.obj
 0002:00002818       ??_C@_0BB@PDECHHHE@spanish?9honduras?$AA@ 0000000140164818     LIBCMT:getqloc.obj
 0002:00002830       ??_C@_0BC@KLHKFGDB@spanish?9guatemala?$AA@ 0000000140164830     LIBCMT:getqloc.obj
 0002:00002848       ??_C@_0BE@MFOOKJAI@spanish?9el?5salvador?$AA@ 0000000140164848     LIBCMT:getqloc.obj
 0002:00002860       ??_C@_0BA@FCOKFPFC@spanish?9ecuador?$AA@ 0000000140164860     LIBCMT:getqloc.obj
 0002:00002870       ??_C@_0BL@PLMGIMOO@spanish?9dominican?5republic?$AA@ 0000000140164870     LIBCMT:getqloc.obj
 0002:00002890       ??_C@_0BD@HLGDNMHB@spanish?9costa?5rica?$AA@ 0000000140164890     LIBCMT:getqloc.obj
 0002:000028a8       ??_C@_0BB@PKCBKCPE@spanish?9colombia?$AA@ 00000001401648a8     LIBCMT:getqloc.obj
 0002:000028c0       ??_C@_0O@MCBIJGNE@spanish?9chile?$AA@ 00000001401648c0     LIBCMT:getqloc.obj
 0002:000028d0       ??_C@_0BA@BEFEIGJJ@spanish?9bolivia?$AA@ 00000001401648d0     LIBCMT:getqloc.obj
 0002:000028e0       ??_C@_0BC@EMECMPD@spanish?9argentina?$AA@ 00000001401648e0     LIBCMT:getqloc.obj
 0002:000028f8       ??_C@_0BF@EALFLENP@portuguese?9brazilian?$AA@ 00000001401648f8     LIBCMT:getqloc.obj
 0002:00002910       ??_C@_0BC@HBLEBLNN@norwegian?9nynorsk?$AA@ 0000000140164910     LIBCMT:getqloc.obj
 0002:00002928       ??_C@_0BB@HMACDDCK@norwegian?9bokmal?$AA@ 0000000140164928     LIBCMT:getqloc.obj
 0002:00002940       ??_C@_09BAFFPPHE@norwegian?$AA@ 0000000140164940     LIBCMT:getqloc.obj
 0002:00002950       ??_C@_0O@EAJFJDFG@italian?9swiss?$AA@ 0000000140164950     LIBCMT:getqloc.obj
 0002:00002960       ??_C@_0O@CNOMPGD@irish?9english?$AA@ 0000000140164960     LIBCMT:getqloc.obj
 0002:00002970       ??_C@_0N@EDHBGCKG@german?9swiss?$AA@ 0000000140164970     LIBCMT:getqloc.obj
 0002:00002980       ??_C@_0BC@JACMHNBP@german?9luxembourg?$AA@ 0000000140164980     LIBCMT:getqloc.obj
 0002:00002998       ??_C@_0BE@HBGMGFEG@german?9lichtenstein?$AA@ 0000000140164998     LIBCMT:getqloc.obj
 0002:000029b0       ??_C@_0BA@HKKBIBKL@german?9austrian?$AA@ 00000001401649b0     LIBCMT:getqloc.obj
 0002:000029c0       ??_C@_0N@GCAEPEBK@french?9swiss?$AA@ 00000001401649c0     LIBCMT:getqloc.obj
 0002:000029d0       ??_C@_0BC@DJFJJCK@french?9luxembourg?$AA@ 00000001401649d0     LIBCMT:getqloc.obj
 0002:000029e8       ??_C@_0BA@NNCEDFIC@french?9canadian?$AA@ 00000001401649e8     LIBCMT:getqloc.obj
 0002:000029f8       ??_C@_0P@CMPOCLM@french?9belgian?$AA@ 00000001401649f8     LIBCMT:getqloc.obj
 0002:00002a08       ??_C@_0M@GHHDJOK@english?9usa?$AA@ 0000000140164a08     LIBCMT:getqloc.obj
 0002:00002a18       ??_C@_0L@PLDJKEIL@english?9us?$AA@ 0000000140164a18     LIBCMT:getqloc.obj
 0002:00002a28       ??_C@_0L@HJCCDMNC@english?9uk?$AA@ 0000000140164a28     LIBCMT:getqloc.obj
 0002:00002a38       ??_C@_0BK@CKLIAGJB@english?9trinidad?5y?5tobago?$AA@ 0000000140164a38     LIBCMT:getqloc.obj
 0002:00002a58       ??_C@_0BF@JMJMGNNF@english?9south?5africa?$AA@ 0000000140164a58     LIBCMT:getqloc.obj
 0002:00002a70       ??_C@_0L@DKIIFDFD@english?9nz?$AA@ 0000000140164a70     LIBCMT:getqloc.obj
 0002:00002a80       ??_C@_0BA@ONHGJCLH@english?9jamaica?$AA@ 0000000140164a80     LIBCMT:getqloc.obj
 0002:00002a90       ??_C@_0M@HJBGHOPO@english?9ire?$AA@ 0000000140164a90     LIBCMT:getqloc.obj
 0002:00002aa0       ??_C@_0BC@LFEKMIFB@english?9caribbean?$AA@ 0000000140164aa0     LIBCMT:getqloc.obj
 0002:00002ab8       ??_C@_0M@OLDPFKHI@english?9can?$AA@ 0000000140164ab8     LIBCMT:getqloc.obj
 0002:00002ac8       ??_C@_0P@OMDEHBMP@english?9belize?$AA@ 0000000140164ac8     LIBCMT:getqloc.obj
 0002:00002ad8       ??_C@_0M@KFHFPFED@english?9aus?$AA@ 0000000140164ad8     LIBCMT:getqloc.obj
 0002:00002ae8       ??_C@_0BB@MNMBKDFE@english?9american?$AA@ 0000000140164ae8     LIBCMT:getqloc.obj
 0002:00002b00       ??_C@_0O@KIDLNNBA@dutch?9belgian?$AA@ 0000000140164b00     LIBCMT:getqloc.obj
 0002:00002b10       ??_C@_0BE@JBKABBMH@chinese?9traditional?$AA@ 0000000140164b10     LIBCMT:getqloc.obj
 0002:00002b28       ??_C@_0BC@MJJMPKCG@chinese?9singapore?$AA@ 0000000140164b28     LIBCMT:getqloc.obj
 0002:00002b40       ??_C@_0BD@FDKADDCP@chinese?9simplified?$AA@ 0000000140164b40     LIBCMT:getqloc.obj
 0002:00002b58       ??_C@_0BB@DBEFDDME@chinese?9hongkong?$AA@ 0000000140164b58     LIBCMT:getqloc.obj
 0002:00002b70       ??_C@_07DHNMFMCI@chinese?$AA@ 0000000140164b70     LIBCMT:getqloc.obj
 0002:00002b78       ??_C@_03FNDDCHI@chi?$AA@   0000000140164b78     LIBCMT:getqloc.obj
 0002:00002b7c       ??_C@_03BMMIADDJ@chh?$AA@  0000000140164b7c     LIBCMT:getqloc.obj
 0002:00002b80       ??_C@_08OAIPJDGI@canadian?$AA@ 0000000140164b80     LIBCMT:getqloc.obj
 0002:00002b90       ??_C@_07HBPMNPNJ@belgian?$AA@ 0000000140164b90     LIBCMT:getqloc.obj
 0002:00002b98       ??_C@_0L@OEKOPBEL@australian?$AA@ 0000000140164b98     LIBCMT:getqloc.obj
 0002:00002ba8       ??_C@_0BB@MEIMBEDG@american?9english?$AA@ 0000000140164ba8     LIBCMT:getqloc.obj
 0002:00002bc0       ??_C@_0BB@DFMDPDGB@american?5english?$AA@ 0000000140164bc0     LIBCMT:getqloc.obj
 0002:00002bd8       ??_C@_08IJLOKOLL@american?$AA@ 0000000140164bd8     LIBCMT:getqloc.obj
 0002:00002bf0       __rg_language              0000000140164bf0     LIBCMT:getqloc.obj
 0002:00003000       __rg_country               0000000140165000     LIBCMT:getqloc.obj
 0002:00003170       __rglangidNotDefault       0000000140165170     LIBCMT:getqloc.obj
 0002:00003184       ??_C@_03NFKLAGEF@OCP?$AA@  0000000140165184     LIBCMT:getqloc.obj
 0002:00003188       ??_C@_03DFHEHBHG@ACP?$AA@  0000000140165188     LIBCMT:getqloc.obj
 0002:00003190       ??_C@_0BC@NFIEMBLL@Norwegian?9Nynorsk?$AA@ 0000000140165190     LIBCMT:getqloc.obj
 0002:000031b0       _XcptActTab                00000001401651b0     LIBCMT:winxfltr.obj
 0002:00003270       _First_FPE_Indx            0000000140165270     LIBCMT:winxfltr.obj
 0002:00003274       _Num_FPE                   0000000140165274     LIBCMT:winxfltr.obj
 0002:00003278       _XcptActTabSize            0000000140165278     LIBCMT:winxfltr.obj
 0002:0000327c       _XcptActTabCount           000000014016527c     LIBCMT:winxfltr.obj
 0002:00003280       _pDestructExceptionObject  0000000140165280     LIBCMT:frame.obj
 0002:00003290       ??_7bad_exception@std@@6B@ 0000000140165290     LIBCMT:frame.obj
 0002:000032a0       ??_C@_0O@DPKOEFFH@bad?5exception?$AA@ 00000001401652a0     LIBCMT:frame.obj
 0002:000032b0       ??_C@_05KLBDPFGC@e?$CL000?$AA@ 00000001401652b0     LIBCMT:cvt.obj
 0002:000032b8       ??_C@_0BK@CFCOFLF@?5Complete?5Object?5Locator?8?$AA@ 00000001401652b8     LIBCMT:undname.obj
 0002:000032d8       ??_C@_0BN@MECKDCOJ@?5Class?5Hierarchy?5Descriptor?8?$AA@ 00000001401652d8     LIBCMT:undname.obj
 0002:000032f8       ??_C@_0BD@LGICGFMM@?5Base?5Class?5Array?8?$AA@ 00000001401652f8     LIBCMT:undname.obj
 0002:00003310       ??_C@_0BM@LDKODKLH@?5Base?5Class?5Descriptor?5at?5?$CI?$AA@ 0000000140165310     LIBCMT:undname.obj
 0002:00003330       ??_C@_0BC@DAFEJGAK@?5Type?5Descriptor?8?$AA@ 0000000140165330     LIBCMT:undname.obj
 0002:00003348       ??_C@_0BM@PMGGMLDN@?$GAlocal?5static?5thread?5guard?8?$AA@ 0000000140165348     LIBCMT:undname.obj
 0002:00003368       ??_C@_0CL@FGIJHLCE@?$GAmanaged?5vector?5copy?5constructor@ 0000000140165368     LIBCMT:undname.obj
 0002:00003398       ??_C@_0CJ@GJELGAMM@?$GAvector?5vbase?5copy?5constructor?5i@ 0000000140165398     LIBCMT:undname.obj
 0002:000033c8       ??_C@_0CD@CGAJBKEJ@?$GAvector?5copy?5constructor?5iterato@ 00000001401653c8     LIBCMT:undname.obj
 0002:000033f0       ??_C@_0CB@PDBIFEP@?$GAdynamic?5atexit?5destructor?5for?5?8@ 00000001401653f0     LIBCMT:undname.obj
 0002:00003418       ??_C@_0BL@CLIPGLGB@?$GAdynamic?5initializer?5for?5?8?$AA@ 0000000140165418     LIBCMT:undname.obj
 0002:00003438       ??_C@_0CM@FCBBDIGB@?$GAeh?5vector?5vbase?5copy?5constructo@ 0000000140165438     LIBCMT:undname.obj
 0002:00003468       ??_C@_0CG@HLDDJMAG@?$GAeh?5vector?5copy?5constructor?5iter@ 0000000140165468     LIBCMT:undname.obj
 0002:00003490       ??_C@_0CF@IMGKMJNO@?$GAmanaged?5vector?5destructor?5itera@ 0000000140165490     LIBCMT:undname.obj
 0002:000034b8       ??_C@_0CG@CFDHKGGD@?$GAmanaged?5vector?5constructor?5iter@ 00000001401654b8     LIBCMT:undname.obj
 0002:000034e0       ??_C@_0BN@CKNJLHMB@?$GAplacement?5delete?$FL?$FN?5closure?8?$AA@ 00000001401654e0     LIBCMT:undname.obj
 0002:00003500       ??_C@_0BL@CNOONJFP@?$GAplacement?5delete?5closure?8?$AA@ 0000000140165500     LIBCMT:undname.obj
 0002:00003520       ??_C@_0P@HJKNJFNN@?$GAomni?5callsig?8?$AA@ 0000000140165520     LIBCMT:undname.obj
 0002:00003530       ??_C@_09LBNFPBCA@?5delete?$FL?$FN?$AA@ 0000000140165530     LIBCMT:undname.obj
 0002:0000353c       ??_C@_06FHBGPFGH@?5new?$FL?$FN?$AA@ 000000014016553c     LIBCMT:undname.obj
 0002:00003548       ??_C@_0CE@IIHCMGGL@?$GAlocal?5vftable?5constructor?5closu@ 0000000140165548     LIBCMT:undname.obj
 0002:00003570       ??_C@_0BA@KKLDJDLB@?$GAlocal?5vftable?8?$AA@ 0000000140165570     LIBCMT:undname.obj
 0002:00003580       ??_C@_05KHLCHHI@?$GARTTI?$AA@ 0000000140165580     LIBCMT:undname.obj
 0002:00003588       ??_C@_03KLGMFNMG@?$GAEH?$AA@ 0000000140165588     LIBCMT:undname.obj
 0002:00003590       ??_C@_0BA@KBCDOMBN@?$GAudt?5returning?8?$AA@ 0000000140165590     LIBCMT:undname.obj
 0002:000035a0       ??_C@_0BL@LLKPOHJI@?$GAcopy?5constructor?5closure?8?$AA@ 00000001401655a0     LIBCMT:undname.obj
 0002:000035c0       ??_C@_0CH@OOJPLCPH@?$GAeh?5vector?5vbase?5constructor?5ite@ 00000001401655c0     LIBCMT:undname.obj
 0002:000035e8       ??_C@_0CA@GCEOPDGL@?$GAeh?5vector?5destructor?5iterator?8?$AA@ 00000001401655e8     LIBCMT:undname.obj
 0002:00003608       ??_C@_0CB@JONCMFFK@?$GAeh?5vector?5constructor?5iterator?8@ 0000000140165608     LIBCMT:undname.obj
 0002:00003630       ??_C@_0BL@NILFHHPC@?$GAvirtual?5displacement?5map?8?$AA@ 0000000140165630     LIBCMT:undname.obj
 0002:00003650       ??_C@_0CE@IKBNEHA@?$GAvector?5vbase?5constructor?5iterat@ 0000000140165650     LIBCMT:undname.obj
 0002:00003678       ??_C@_0BN@LFPFMEDL@?$GAvector?5destructor?5iterator?8?$AA@ 0000000140165678     LIBCMT:undname.obj
 0002:00003698       ??_C@_0BO@PFGOCPJJ@?$GAvector?5constructor?5iterator?8?$AA@ 0000000140165698     LIBCMT:undname.obj
 0002:000036b8       ??_C@_0BN@IMDCHIKM@?$GAscalar?5deleting?5destructor?8?$AA@ 00000001401656b8     LIBCMT:undname.obj
 0002:000036d8       ??_C@_0BO@OBMKPJIG@?$GAdefault?5constructor?5closure?8?$AA@ 00000001401656d8     LIBCMT:undname.obj
 0002:000036f8       ??_C@_0BN@DEGPLNFK@?$GAvector?5deleting?5destructor?8?$AA@ 00000001401656f8     LIBCMT:undname.obj
 0002:00003718       ??_C@_0BD@JDLKDPAB@?$GAvbase?5destructor?8?$AA@ 0000000140165718     LIBCMT:undname.obj
 0002:00003730       ??_C@_08OBABFOLI@?$GAstring?8?$AA@ 0000000140165730     LIBCMT:undname.obj
 0002:00003740       ??_C@_0BF@KDPPACIK@?$GAlocal?5static?5guard?8?$AA@ 0000000140165740     LIBCMT:undname.obj
 0002:00003758       ??_C@_08LLFFHHDJ@?$GAtypeof?8?$AA@ 0000000140165758     LIBCMT:undname.obj
 0002:00003768       ??_C@_07FEEIOKP@?$GAvcall?8?$AA@ 0000000140165768     LIBCMT:undname.obj
 0002:00003770       ??_C@_09BLBHBJP@?$GAvbtable?8?$AA@ 0000000140165770     LIBCMT:undname.obj
 0002:00003780       ??_C@_09IFPLHPGF@?$GAvftable?8?$AA@ 0000000140165780     LIBCMT:undname.obj
 0002:0000378c       ??_C@_02MHEGNOJ@?$FO?$DN?$AA@ 000000014016578c     LIBCMT:undname.obj
 0002:00003790       ??_C@_02DHLNPPGH@?$HM?$DN?$AA@ 0000000140165790     LIBCMT:undname.obj
 0002:00003794       ??_C@_02FGJGFEAB@?$CG?$DN?$AA@ 0000000140165794     LIBCMT:undname.obj
 0002:00003798       ??_C@_03CDNPDDLA@?$DM?$DM?$DN?$AA@ 0000000140165798     LIBCMT:undname.obj
 0002:0000379c       ??_C@_03IKFCCPFF@?$DO?$DO?$DN?$AA@ 000000014016579c     LIBCMT:undname.obj
 0002:000037a0       ??_C@_02FENAOKFI@?$CF?$DN?$AA@ 00000001401657a0     LIBCMT:undname.obj
 0002:000037a4       ??_C@_02FJEHGPIO@?1?$DN?$AA@ 00000001401657a4     LIBCMT:undname.obj
 0002:000037a8       ??_C@_02FKMDLLOA@?9?$DN?$AA@ 00000001401657a8     LIBCMT:undname.obj
 0002:000037ac       ??_C@_02FOEOMHFC@?$CL?$DN?$AA@ 00000001401657ac     LIBCMT:undname.obj
 0002:000037b0       ??_C@_02FPIMKNGF@?$CK?$DN?$AA@ 00000001401657b0     LIBCMT:undname.obj
 0002:000037b4       ??_C@_02NONPIBCD@?$HM?$HM?$AA@ 00000001401657b4     LIBCMT:undname.obj
 0002:000037b8       ??_C@_02PPKAJPJL@?$CG?$CG?$AA@ 00000001401657b8     LIBCMT:undname.obj
 0002:000037bc       ??_C@_01JKBOJNNK@?$FO?$AA@ 00000001401657bc     LIBCMT:undname.obj
 0002:000037c0       ??_C@_01PJKLJHI@?$HO?$AA@  00000001401657c0     LIBCMT:undname.obj
 0002:000037c4       ??_C@_02HCKGKOFO@?$CI?$CJ?$AA@ 00000001401657c4     LIBCMT:undname.obj
 0002:000037c8       ??_C@_03MNHNFDLC@?9?$DO?$CK?$AA@ 00000001401657c8     LIBCMT:undname.obj
 0002:000037cc       ??_C@_02ECNGHCIF@?$CL?$CL?$AA@ 00000001401657cc     LIBCMT:undname.obj
 0002:000037d0       ??_C@_02HBOOOICD@?9?$DO?$AA@ 00000001401657d0     LIBCMT:undname.obj
 0002:000037d8       ??_C@_08LHJFAFGD@operator?$AA@ 00000001401657d8     LIBCMT:undname.obj
 0002:000037e4       ??_C@_02GPECMEKF@?$FL?$FN?$AA@ 00000001401657e4     LIBCMT:undname.obj
 0002:000037e8       ??_C@_02FDNJECIE@?$CB?$DN?$AA@ 00000001401657e8     LIBCMT:undname.obj
 0002:000037ec       ??_C@_02EGOFBIJA@?$DN?$DN?$AA@ 00000001401657ec     LIBCMT:undname.obj
 0002:000037f0       ??_C@_01DCLJPIOD@?$CB?$AA@ 00000001401657f0     LIBCMT:undname.obj
 0002:000037f4       ??_C@_02FODMEDOG@?$DM?$DM?$AA@ 00000001401657f4     LIBCMT:undname.obj
 0002:000037f8       ??_C@_02GPIOPFAK@?$DO?$DO?$AA@ 00000001401657f8     LIBCMT:undname.obj
 0002:00003800       ??_C@_07FPCDHGMM@?5delete?$AA@ 0000000140165800     LIBCMT:undname.obj
 0002:00003808       ??_C@_04NIHEBCM@?5new?$AA@ 0000000140165808     LIBCMT:undname.obj
 0002:00003810       ??_C@_0M@GFIIJFMG@__unaligned?$AA@ 0000000140165810     LIBCMT:undname.obj
 0002:00003820       ??_C@_0L@PILCLIHE@__restrict?$AA@ 0000000140165820     LIBCMT:undname.obj
 0002:00003830       ??_C@_07JOMMBBKO@__ptr64?$AA@ 0000000140165830     LIBCMT:undname.obj
 0002:00003838       ??_C@_06GHPCKEAG@__eabi?$AA@ 0000000140165838     LIBCMT:undname.obj
 0002:00003840       ??_C@_09HIJEGCPM@__clrcall?$AA@ 0000000140165840     LIBCMT:undname.obj
 0002:00003850       ??_C@_0L@JMKHOMEK@__fastcall?$AA@ 0000000140165850     LIBCMT:undname.obj
 0002:00003860       ??_C@_0L@NPHFGOKO@__thiscall?$AA@ 0000000140165860     LIBCMT:undname.obj
 0002:00003870       ??_C@_09IFJBGAPI@__stdcall?$AA@ 0000000140165870     LIBCMT:undname.obj
 0002:00003880       ??_C@_08GHMPAG@__pascal?$AA@ 0000000140165880     LIBCMT:undname.obj
 0002:00003890       ??_C@_07KOLFKCDI@__cdecl?$AA@ 0000000140165890     LIBCMT:undname.obj
 0002:00003898       ??_C@_08EHJDFFNH@__based?$CI?$AA@ 0000000140165898     LIBCMT:undname.obj
 0002:00003bb8       ??_C@_0BI@DFKBFLJE@GetProcessWindowStation?$AA@ 0000000140165bb8     LIBCMT:crtmboxw.obj
 0002:00003bd0       ??_C@_0BK@DEKFELLI@GetUserObjectInformationW?$AA@ 0000000140165bd0     LIBCMT:crtmboxw.obj
 0002:00003bf0       ??_C@_0BD@HHGDFDBJ@GetLastActivePopup?$AA@ 0000000140165bf0     LIBCMT:crtmboxw.obj
 0002:00003c08       ??_C@_0BA@HNOPNCHB@GetActiveWindow?$AA@ 0000000140165c08     LIBCMT:crtmboxw.obj
 0002:00003c18       ??_C@_0M@DLDCCGNP@MessageBoxW?$AA@ 0000000140165c18     LIBCMT:crtmboxw.obj
 0002:00003c28       ??_C@_1BG@GOEBHBDC@?$AAU?$AAS?$AAE?$AAR?$AA3?$AA2?$AA?4?$AAD?$AAL?$AAL?$AA?$AA@ 0000000140165c28     LIBCMT:crtmboxw.obj
 0002:00003c40       ??_C@_1BA@BALFACEM@?$AAC?$AAO?$AAN?$AAO?$AAU?$AAT?$AA$?$AA?$AA@ 0000000140165c40     LIBCMT:initcon.obj
 0002:00003c50       ??_C@_06IMKFLFPG@1?$CDQNAN?$AA@ 0000000140165c50     LIBCMT:_x10fout_.obj
 0002:00003c58       ??_C@_05DNEBIAHO@1?$CDINF?$AA@ 0000000140165c58     LIBCMT:_x10fout_.obj
 0002:00003c60       ??_C@_05PHHOCPM@1?$CDIND?$AA@ 0000000140165c60     LIBCMT:_x10fout_.obj
 0002:00003c68       ??_C@_06PGGFOGJG@1?$CDSNAN?$AA@ 0000000140165c68     LIBCMT:_x10fout_.obj
 0002:00003c70       ??_C@_07KDKMIPIP@OPTIONS?$AA@ 0000000140165c70     Fenetre.obj
 0002:00003c78       ??_C@_05EHILDPJH@TRACE?$AA@ 0000000140165c78     Fenetre.obj
 0002:00003c80       ??_C@_06FKDAMKFP@DELETE?$AA@ 0000000140165c80     Fenetre.obj
 0002:00003c88       ??_C@_04HCJEIHPL@POST?$AA@ 0000000140165c88     Fenetre.obj
 0002:00003c90       ??_C@_04BINJNOJD@HEAD?$AA@ 0000000140165c90     Fenetre.obj
 0002:00003c98       ??_C@_03KBBGFLEK@PUT?$AA@  0000000140165c98     Fenetre.obj
 0002:00003c9c       ??_C@_03HAPOJHBM@GET?$AA@  0000000140165c9c     Fenetre.obj
 0002:00003ca0       ??_C@_06PMPIMKLF@UNKNOW?$AA@ 0000000140165ca0     Fenetre.obj
 0002:00003ca8       ??_C@_03MKABNOCG@Dec?$AA@  0000000140165ca8     Fenetre.obj
 0002:00003cac       ??_C@_03JPJOFNIA@Nov?$AA@  0000000140165cac     Fenetre.obj
 0002:00003cb0       ??_C@_03BMAOKBAD@Oct?$AA@  0000000140165cb0     Fenetre.obj
 0002:00003cb4       ??_C@_03GGCAPAJC@Sep?$AA@  0000000140165cb4     Fenetre.obj
 0002:00003cb8       ??_C@_03IFJFEIGA@Aug?$AA@  0000000140165cb8     Fenetre.obj
 0002:00003cbc       ??_C@_03LBGABGKK@Jul?$AA@  0000000140165cbc     Fenetre.obj
 0002:00003cc0       ??_C@_03IDFGHECI@Jun?$AA@  0000000140165cc0     Fenetre.obj
 0002:00003cc4       ??_C@_03CNMDKL@May?$AA@    0000000140165cc4     Fenetre.obj
 0002:00003cc8       ??_C@_03LEOLGMJP@Apr?$AA@  0000000140165cc8     Fenetre.obj
 0002:00003ccc       ??_C@_03ODNJBKGA@Mar?$AA@  0000000140165ccc     Fenetre.obj
 0002:00003cd0       ??_C@_03HJBDCHOM@Feb?$AA@  0000000140165cd0     Fenetre.obj
 0002:00003cd4       ??_C@_03JIHJHPIE@Jan?$AA@  0000000140165cd4     Fenetre.obj
 0002:00003cd8       ??_C@_03FEFJNEK@Sat?$AA@   0000000140165cd8     Fenetre.obj
 0002:00003cdc       ??_C@_03IDIOELNC@Fri?$AA@  0000000140165cdc     Fenetre.obj
 0002:00003ce0       ??_C@_03IOFIKPDN@Thu?$AA@  0000000140165ce0     Fenetre.obj
 0002:00003ce4       ??_C@_03MHOMLAJA@Wed?$AA@  0000000140165ce4     Fenetre.obj
 0002:00003ce8       ??_C@_03NAGEINEP@Tue?$AA@  0000000140165ce8     Fenetre.obj
 0002:00003cec       ??_C@_03PDAGKDH@Mon?$AA@   0000000140165cec     Fenetre.obj
 0002:00003cf0       ??_C@_03KOEHGMDN@Sun?$AA@  0000000140165cf0     Fenetre.obj
 0002:00003cf4       ??_C@_01GBGANLPD@0?$AA@    0000000140165cf4     Fenetre.obj
 0002:00003cf8       ??_C@_03JLGBPEFI@NOM?$AA@  0000000140165cf8     Fenetre.obj
 0002:00003cfc       ??_C@_01CELHOKLL@?$HN?$AA@ 0000000140165cfc     Fenetre.obj
 0002:00003cfe       ??_C@_00CNPNBAHC@?$AA@     0000000140165cfe     Fenetre.obj
 0002:00003d00       ??_C@_04IPKHEEB@NAME?$AA@  0000000140165d00     Fenetre.obj
 0002:00003d08       ??_C@_04INMKNCEL@DESC?$AA@ 0000000140165d08     Fenetre.obj
 0002:00003d10       ??_C@_04ECCODIIJ@ETAT?$AA@ 0000000140165d10     Fenetre.obj
 0002:00003d18       ??_C@_0M@BLPGJNPN@ID_CREATION?$AA@ 0000000140165d18     Fenetre.obj
 0002:00003d24       ??_C@_04FBLNPEBP@DATE?$AA@ 0000000140165d24     Fenetre.obj
 0002:00003d2c       ??_C@_05OKEGBJNA@MODIF?$AA@ 0000000140165d2c     Fenetre.obj
 0002:00003d34       ??_C@_06IAMCMNFI@OBJECT?$AA@ 0000000140165d34     Fenetre.obj
 0002:00003d3c       ??_C@_01HCONENDN@?$HL?$AA@ 0000000140165d3c     Fenetre.obj
 0002:00003d40       ??_C@_03JECLAOEA@win?$AA@  0000000140165d40     Fenetre.obj
 0002:00003d48       ??_C@_09DGPPLHDG@WIN?$CFd?4cfg?$AA@ 0000000140165d48     Fenetre.obj
 0002:00003d54       ??_C@_05NJJANGJH@?$EAID?$CFx?$AA@ 0000000140165d54     Fenetre.obj
 0002:00003d5c       ??_C@_01KDCPPGHE@r?$AA@    0000000140165d5c     Fenetre.obj
 0002:00003d60       ??_C@_03GEEEJGKJ@OBJ?$AA@  0000000140165d60     Fenetre.obj
 0002:00003d68       ??_C@_08FIOGGMAD@TYPE_WEB?$AA@ 0000000140165d68     Fenetre.obj
 0002:00003d78       ??_C@_07BDEMOCBA@URL_WEB?$AA@ 0000000140165d78     Fenetre.obj
 0002:00003d80       ??_C@_0BI@EKEEJEPP@QuartisConsoleWeb?2pages?$AA@ 0000000140165d80     Fenetre.obj
 0002:00003d98       ??_C@_0N@FOKIMMNI@?$CFs?2?$CFs?2?$CFs?4jsp?$AA@ 0000000140165d98     Fenetre.obj
 0002:00003da8       ??_C@_0BK@HNDCEGND@QuartisConsoleWeb?1Console?$AA@ 0000000140165da8     Fenetre.obj
 0002:00003dc4       ??_C@_05MGJOOGAJ@group?$AA@ 0000000140165dc4     Fenetre.obj
 0002:00003dcc       ??_C@_04MEMAJGDJ@name?$AA@ 0000000140165dcc     Fenetre.obj
 0002:00003dd4       ??_C@_04MLLLIHIP@null?$AA@ 0000000140165dd4     Fenetre.obj
 0002:00003de0       ??_C@_0BK@JEJJHAEI@?1?$CFs?$DP?$CFs?$DN?$CFs?$CG?$CFs?$DN?$CFs?$CGlangue?$DN?$CFs?$AA@ 0000000140165de0     Fenetre.obj
 0002:00003e00       ??_C@_0CC@KAHNGEKD@?1?$CFs?$DP?$CFs?$DN?$CFs?$CGamp?$DL?$CFs?$DN?$CFs?$CGamp?$DLlangue?$DN?$CF@ 0000000140165e00     Fenetre.obj
 0002:00003e28       ??_C@_0CB@HFMHJANF@?1?$CFs?$DP?$CFs?$DN?$CFs?$CG?$CFs?$DN?$CFs?$CGlangue?$DN?$CFs?$CGdpi?$DN?$CFs@ 0000000140165e28     Fenetre.obj
 0002:00003e50       ??_C@_0CN@KJFFHBNK@?1?$CFs?$DP?$CFs?$DN?$CFs?$CGamp?$DL?$CFs?$DN?$CFs?$CGamp?$DLlangue?$DN?$CF@ 0000000140165e50     Fenetre.obj
 0002:00003e80       ??_C@_0N@IPMHPGLD@?$CFs?$DPlangue?$DN?$CFs?$AA@ 0000000140165e80     Fenetre.obj
 0002:00003e90       ??_C@_0BE@NLGMKIAH@?$CFs?$DPlangue?$DN?$CFs?$CGdpi?$DN?$CFs?$AA@ 0000000140165e90     Fenetre.obj
 0002:00003ea8       ??_C@_0BI@DPOBNHDM@?$CFs?$DPlangue?$DN?$CFs?$CGamp?$DLdpi?$DN?$CFs?$AA@ 0000000140165ea8     Fenetre.obj
 0002:00003ec0       ??_C@_0N@FKHMAMPN@?$CFs?$CGlangue?$DN?$CFs?$AA@ 0000000140165ec0     Fenetre.obj
 0002:00003ed0       ??_C@_0BB@PONLPPJG@?$CFs?$CGamp?$DLlangue?$DN?$CFs?$AA@ 0000000140165ed0     Fenetre.obj
 0002:00003ee8       ??_C@_0BE@NMMOMPC@?$CFs?$CGlangue?$DN?$CFs?$CGdpi?$DN?$CFs?$AA@ 0000000140165ee8     Fenetre.obj
 0002:00003f00       ??_C@_0BM@BODBPPAI@?$CFs?$CGamp?$DLlangue?$DN?$CFs?$CGamp?$DLdpi?$DN?$CFs?$AA@ 0000000140165f00     Fenetre.obj
 0002:00003f20       ??_C@_0BEA@INCNKAMI@?$DMconsole?5id?$DN?$CC?$CFd?$CC?5group?$DN?$CC?$CFs?$CC?5name@ 0000000140165f20     Fenetre.obj
 0002:00004068       ??_7CElement@@6B@          0000000140166068     Fenetre.obj
 0002:000040a8       ??_7CFenetre@@6B@          00000001401660a8     Fenetre.obj
 0002:000040e8       ??_7CGroupeFenetre@@6B@    00000001401660e8     GroupeFenetre.obj
 0002:00004180       ??_C@_08MMCLGCMD@?$CFs?$CFd?4cfg?$AA@ 0000000140166180     ListeGroupeFenetre.obj
 0002:00004198       ??_7CListeGroupeFenetre@@6B@ 0000000140166198     ListeGroupeFenetre.obj
 0002:00004220       ??_C@_0N@NPIDFHAI@SIZE_LARGEUR?$AA@ 0000000140166220     ProprieteFenetre.obj
 0002:00004230       ??_C@_0N@GBIMIEBI@SIZE_HAUTEUR?$AA@ 0000000140166230     ProprieteFenetre.obj
 0002:00004240       ??_C@_07FFBONJKM@B_COLOR?$AA@ 0000000140166240     ProprieteFenetre.obj
 0002:00004248       ??_C@_06LDJCGDIA@M_OPEN?$AA@ 0000000140166248     ProprieteFenetre.obj
 0002:00004250       ??_C@_06LPGLDDG@M_MENU?$AA@ 0000000140166250     ProprieteFenetre.obj
 0002:00004258       ??_C@_08BLKEKNPD@M_BTITLE?$AA@ 0000000140166258     ProprieteFenetre.obj
 0002:00004268       ??_C@_09GNCCJBFJ@M_SCROOLH?$AA@ 0000000140166268     ProprieteFenetre.obj
 0002:00004278       ??_C@_09LJGDKOIG@M_SCROOLV?$AA@ 0000000140166278     ProprieteFenetre.obj
 0002:00004288       ??_C@_09NNPFFEIL@M_SIZABLE?$AA@ 0000000140166288     ProprieteFenetre.obj
 0002:00004298       ??_C@_08BLKKEMFO@M_MODALE?$AA@ 0000000140166298     ProprieteFenetre.obj
 0002:000042a8       ??_C@_07EGPPDLAD@M_UNITE?$AA@ 00000001401662a8     ProprieteFenetre.obj
 0002:000042b0       ??_C@_0P@BDFBBMAN@M_TAILLE_UNITE?$AA@ 00000001401662b0     ProprieteFenetre.obj
 0002:000042c0       ??_C@_05KBAKHJDN@V_ACT?$AA@ 00000001401662c0     ProprieteFenetre.obj
 0002:000042c8       ??_C@_0M@BKPAHGOI@V_ACT_CLOSE?$AA@ 00000001401662c8     ProprieteFenetre.obj
 0002:000042d8       ??_C@_0L@ICMKOBDO@LST_TF_ACT?$AA@ 00000001401662d8     ProprieteFenetre.obj
 0002:000042e4       ??_C@_06FJOIMINP@TF_ACT?$AA@ 00000001401662e4     ProprieteFenetre.obj
 0002:000042f0       ??_C@_0BM@IHEGBHNN@code_tf?$DN?8?$CFd?8?5action_tf?$DN?8?$CFs?8?$AA@ 00000001401662f0     ProprieteFenetre.obj
 0002:0000430c       ??_C@_01DNKMNLPK@?$HM?$AA@ 000000014016630c     ProprieteFenetre.obj
 0002:00004310       ??_C@_09PFNDCAEF@MEM_FOCUS?$AA@ 0000000140166310     ProprieteFenetre.obj
 0002:00004320       ??_C@_08FBJBLGHM@MEM_TIME?$AA@ 0000000140166320     ProprieteFenetre.obj
 0002:0000432c       ??_C@_03BOJFLAKG@ADD?$AA@  000000014016632c     ProprieteFenetre.obj
 0002:00004338       ??_7CProprieteFenetre@@6B@ 0000000140166338     ProprieteFenetre.obj
 0002:00004340       ??_C@_02OLOABKKD@ID?$AA@   0000000140166340     ResultatFenetre.obj
 0002:00004344       ??_C@_04OOEKJIOI@USER?$AA@ 0000000140166344     ResultatFenetre.obj
 0002:0000434c       ??_C@_03OEDLDJBF@STR?$AA@  000000014016634c     ResultatFenetre.obj
 0002:00004350       ??_C@_04KDPJLEDB@TYPE?$AA@ 0000000140166350     ResultatFenetre.obj
 0002:00004358       ??_C@_07JEPONMOK@F_CLOSE?$AA@ 0000000140166358     ResultatFenetre.obj
 0002:00004368       ??_7CResultatFenetre@@6B@  0000000140166368     ResultatFenetre.obj
 0002:00004370       ??_C@_03PEIMBJDE@XML?$AA@  0000000140166370     ActionAffichage.obj
 0002:00004374       ??_C@_05JIIMCFOI@?$CF3?43d?$AA@ 0000000140166374     ActionAffichage.obj
 0002:0000437c       ??_C@_04JLEGLPEK@?$BLNAG?$AA@ 000000014016637c     ActionAffichage.obj
 0002:00004384       ??_C@_05FOAGHCGL@ENREG?$AA@ 0000000140166384     ActionAffichage.obj
 0002:00004390       ??_C@_0BE@JEHDACOI@?$BLNAF?$CF2?42d?$CF2?42d?$CF2?42d?$AA@ 0000000140166390     ActionAffichage.obj
 0002:000043a4       ??_C@_06OELOKLLN@?$BLNAC?$CFs?$AA@ 00000001401663a4     ActionAffichage.obj
 0002:000043b0       ??_C@_0BG@LGOHOICL@?$BLNAPB?$CF2?42d01C?$CF2?42dD?$CFs?$AA@ 00000001401663b0     ActionAffichage.obj
 0002:000043c8       ??_C@_05BIOFCOEJ@MES16?$AA@ 00000001401663c8     ActionAffichage.obj
 0002:000043d0       ??_C@_05EIHEELCE@MES40?$AA@ 00000001401663d0     ActionAffichage.obj
 0002:000043d8       ??_C@_03FAACOBLP@MES?$AA@  00000001401663d8     ActionAffichage.obj
 0002:000043dc       ??_C@_03LPFEMPNP@LST?$AA@  00000001401663dc     ActionAffichage.obj
 0002:000043e0       ??_C@_03OAFAKAKL@DEL?$AA@  00000001401663e0     ActionAffichage.obj
 0002:000043e4       ??_C@_03FIBGOAPP@MOD?$AA@  00000001401663e4     ActionAffichage.obj
 0002:000043e8       ??_C@_03MPAKKIOL@LIG?$AA@  00000001401663e8     ActionAffichage.obj
 0002:000043ec       ??_C@_03HABABNME@COL?$AA@  00000001401663ec     ActionAffichage.obj
 0002:000043f0       ??_C@_04EMFHLKGI@SIZE?$AA@ 00000001401663f0     ActionAffichage.obj
 0002:000043f8       ??_C@_04FDEMHOGD@PREM?$AA@ 00000001401663f8     ActionAffichage.obj
 0002:00004400       ??_C@_02LIPFKLKA@NB?$AA@   0000000140166400     ActionAffichage.obj
 0002:00004404       ??_C@_04DBLPJNAF@HTML?$AA@ 0000000140166404     ActionAffichage.obj
 0002:0000440c       ??_C@_05PEDNJPJH@CANAL?$AA@ 000000014016640c     ActionAffichage.obj
 0002:00004414       ??_C@_03BNEJJHGD@VAL?$AA@  0000000140166414     ActionAffichage.obj
 0002:00004428       ??_7CActionAffichage@@6B@  0000000140166428     ActionAffichage.obj
 0002:00004478       ??_C@_05MAJJAKPI@FALSE?$AA@ 0000000140166478     ActionFaireTantQue.obj
 0002:00004480       ??_C@_04HCDDPBNL@TRUE?$AA@ 0000000140166480     ActionFaireTantQue.obj
 0002:00004488       ??_C@_03CKPJLAKP@TST?$AA@  0000000140166488     ActionFaireTantQue.obj
 0002:0000448c       ??_C@_02MBMDLBEE@OP?$AA@   000000014016648c     ActionFaireTantQue.obj
 0002:00004490       ??_C@_03IEEDNOGA@MEM?$AA@  0000000140166490     ActionFaireTantQue.obj
 0002:000044a8       ??_7CActionFaireTantQue@@6B@ 00000001401664a8     ActionFaireTantQue.obj
 0002:000044f8       ??_C@_04IIEJFGNN@DEST?$AA@ 00000001401664f8     ActionFiltrage.obj
 0002:00004500       ??_C@_07LBPFAJBE@EXTRACT?$AA@ 0000000140166500     ActionFiltrage.obj
 0002:00004508       ??_C@_03KOMPAPBB@CAR?$AA@  0000000140166508     ActionFiltrage.obj
 0002:0000450c       ??_C@_02MGAGILIL@LG?$AA@   000000014016650c     ActionFiltrage.obj
 0002:00004510       ??_C@_04DFNBDBBL@DATA?$AA@ 0000000140166510     ActionFiltrage.obj
 0002:00004528       ??_7CActionFiltrage@@6B@   0000000140166528     ActionFiltrage.obj
 0002:00004588       ??_7CActionFinBoucle@@6B@  0000000140166588     ActionFinBoucle.obj
 0002:000045e8       ??_7CActionFinScenario@@6B@ 00000001401665e8     ActionFinScenario.obj
 0002:00004648       ??_7CActionGroupe@@6B@     0000000140166648     ActionGroupe.obj
 0002:00004698       ??_C@_06NGMIMCKM@DRIVER?$AA@ 0000000140166698     ActionImprimeEtat.obj
 0002:000046a0       ??_C@_06JILIPPGC@ATTEND?$AA@ 00000001401666a0     ActionImprimeEtat.obj
 0002:000046b8       ??_7CActionImprimeEtat@@6B@ 00000001401666b8     ActionImprimeEtat.obj
 0002:00004708       ??_C@_03IKNANCPO@NUM?$AA@  0000000140166708     ActionLibrairie.obj
 0002:00004718       ??_7CActionLibrairie@@6B@  0000000140166718     ActionLibrairie.obj
 0002:00004768       ??_C@_03LDGPGGLH@SRC?$AA@  0000000140166768     ActionOpMem.obj
 0002:00004770       ??_C@_07EEOFHAED@VAL_SRC?$AA@ 0000000140166770     ActionOpMem.obj
 0002:00004778       ??_C@_06OKKKLLEC@MEM_OP?$AA@ 0000000140166778     ActionOpMem.obj
 0002:00004780       ??_C@_06CJICBINA@VAL_OP?$AA@ 0000000140166780     ActionOpMem.obj
 0002:00004790       ??_7COpMem@@6B@            0000000140166790     ActionOpMem.obj
 0002:000047a8       ??_7CActionOpMem@@6B@      00000001401667a8     ActionOpMem.obj
 0002:000047f8       ??_C@_02DPKJAMEF@?$CFd?$AA@ 00000001401667f8     ActionRequete.obj
 0002:000047fc       ??_C@_05NBJHHBHJ@QUERY?$AA@ 00000001401667fc     ActionRequete.obj
 0002:00004804       ??_C@_03PPOGOLCL@POS?$AA@  0000000140166804     ActionRequete.obj
 0002:00004818       ??_7CActionRequete@@6B@    0000000140166818     ActionRequete.obj
 0002:00004868       ??_C@_02HAOIJKIC@?$CFc?$AA@ 0000000140166868     ActionSaisie.obj
 0002:0000486c       ??_C@_04MKBIKCGL@MESS?$AA@ 000000014016686c     ActionSaisie.obj
 0002:00004874       ??_C@_06OOAADCEI@PERIPH?$AA@ 0000000140166874     ActionSaisie.obj
 0002:00004888       ??_7CActionSaisie@@6B@     0000000140166888     ActionSaisie.obj
 0002:000048d8       ??_C@_05HCKLDGME@PARAM?$AA@ 00000001401668d8     ActionSousScenario.obj
 0002:000048e8       ??_7CActionSousScenario@@6B@ 00000001401668e8     ActionSousScenario.obj
 0002:00004948       ??_7CActionTantQue@@6B@    0000000140166948     ActionTantQue.obj
 0002:00004998       ??_C@_03FICNPLNB@TMP?$AA@  0000000140166998     ActionTempo.obj
 0002:000049a8       ??_7CActionTempo@@6B@      00000001401669a8     ActionTempo.obj
 0002:000049f8       ??_C@_04HCGLACHA@TERM?$AA@ 00000001401669f8     ActionTerminal.obj
 0002:00004a08       ??_7CActionTerminal@@6B@   0000000140166a08     ActionTerminal.obj
 0002:00004a68       ??_7CActionTestMem@@6B@    0000000140166a68     ActionTestMem.obj
 0002:00004ab8       ??_C@_06DHJAPAEE@ACTION?$AA@ 0000000140166ab8     baseaction.obj
 0002:00004ac8       ??_7CBaseAction@@6B@       0000000140166ac8     baseaction.obj
 0002:00004c20       ??_C@_0DD@MPLHAJIP@?6Impossible?5d?8initialis?i?5le?5Wind@ 0000000140166c20     BaseSocket.obj
 0002:00004c54       ??_C@_03DLDNIBIK@?$CFlf?$AA@ 0000000140166c54     Comparaison.obj
 0002:00004c58       ??_C@_0BE@PABADLKK@Allocation?5failed?0?5?$AA@ 0000000140166c58     CString.obj
 0002:00004c70       ??_C@_0BJ@MBHNJFKD@?$CFu?5bytes?5not?5available?4?6?$AA@ 0000000140166c70     CString.obj
 0002:00004c8c       ??_C@_02PMCEOIEJ@FR?$AA@   0000000140166c8c     CStringLangue.obj
 0002:00004c90       ??_C@_08PJMLMDGE@NUM_EXEC?$AA@ 0000000140166c90     DataArchive.obj
 0002:00004c9c       ??_C@_03KKGFKKLA@EXP?$AA@  0000000140166c9c     DataArchive.obj
 0002:00004ca0       ??_C@_09MALKGMFF@TYPE_DATA?$AA@ 0000000140166ca0     DataArchive.obj
 0002:00004cb0       ??_C@_0N@KONBKLBO@CONTENU_DATA?$AA@ 0000000140166cb0     DataArchive.obj
 0002:00004cc0       ??_C@_06IGECGLFO@STRING?$AA@ 0000000140166cc0     DataArchive.obj
 0002:00004cc8       ??_C@_04IFJMAKHJ@SVAL?$AA@ 0000000140166cc8     DefEnregXml.obj
 0002:00004cd0       ??_C@_05PMAFOJDE@RIGHT?$AA@ 0000000140166cd0     Droit.obj
 0002:00004ce0       ??_7CDroit@@6B@            0000000140166ce0     Droit.obj
 0002:00004cf8       ??_7CDroitIntegrale@@6B@   0000000140166cf8     DroitIntegrale.obj
 0002:00004d10       ??_C@_02PCIJFNDE@?$AN?6?$AA@ 0000000140166d10     Fichier.obj
 0002:00004d20       ??_7CFichier@@6B@          0000000140166d20     Fichier.obj
 0002:00004d28       ??_C@_03BFLENDAA@osy?$AA@  0000000140166d28     FichierTemp.obj
 0002:00004d2c       ??_C@_04FGEHGIFJ@temp?$AA@ 0000000140166d2c     FichierTemp.obj
 0002:00004d34       ??_C@_03OIPHFEF@cgi?$AA@   0000000140166d34     FichierTemp.obj
 0002:00004d38       ??_C@_05BNJGPPCH@?$CK?4tmp?$AA@ 0000000140166d38     FichierTemp.obj
 0002:00004d48       ??_7CFichierTemp@@6B@      0000000140166d48     FichierTemp.obj
 0002:00004d58       ??_C@_05BKABJGDH@query?$AA@ 0000000140166d58     FichierTempSrv.obj
 0002:00004d60       ??_C@_04IAFLKNP@http?$AA@  0000000140166d60     FichierTempSrv.obj
 0002:00004d68       ??_C@_0M@FGFCOEPL@console_web?$AA@ 0000000140166d68     FichierTempSrv.obj
 0002:00004d80       ??_7CFichierTempSrv@@6B@   0000000140166d80     FichierTempSrv.obj
 0002:00004d90       ??_C@_0DK@KGMCGJOK@Impossible?5d?8obtenir?5le?5jeton?5de@ 0000000140166d90     GestProcess.obj
 0002:00004dd0       ??_C@_0BB@ICFLKOPM@SeDebugPrivilege?$AA@ 0000000140166dd0     GestProcess.obj
 0002:00004df0       ??_C@_0EH@FCCBLHIE@Erreur?5dans?5la?5recherche?5de?5la?5v@ 0000000140166df0     GestProcess.obj
 0002:00004e40       ??_C@_0EL@MHMGEGFB@Impossible?5d?8ajuster?5les?5privil?h@ 0000000140166e40     GestProcess.obj
 0002:00004e90       ??_C@_0EM@OOGIKAAH@Impossible?5d?8obtenir?5le?5handle?5d@ 0000000140166e90     GestProcess.obj
 0002:00004ee0       ??_C@_0DO@OBJLLLND@Impossible?5de?5tuer?5le?5processus?5@ 0000000140166ee0     GestProcess.obj
 0002:00004f20       ??_C@_0CO@NPBFMKFA@Erreur?5CreateToolhelp32Snapshot?5@ 0000000140166f20     GestProcess.obj
 0002:00004f50       ??_C@_0CE@PACIFEPK@Erreur?5Process32First?5?9?5Process?5@ 0000000140166f50     GestProcess.obj
 0002:00004f80       ??_7CGestProcess@@6B@      0000000140166f80     GestProcess.obj
 0002:00004f88       ??_C@_09GFOFNOBO@LST_RIGHT?$AA@ 0000000140166f88     Groupe.obj
 0002:00004f94       ??_C@_03JMECLKOM@ACK?$AA@  0000000140166f94     Groupe.obj
 0002:00004f98       ??_C@_07GBHBKAKP@LST_OBJ?$AA@ 0000000140166f98     Groupe.obj
 0002:00004fa0       ??_C@_07NCHCCDCP@VERSION?$AA@ 0000000140166fa0     Groupe.obj
 0002:00004fa8       ??_C@_03NPLOHON@GRP?$AA@   0000000140166fa8     Groupe.obj
 0002:00004fac       ??_C@_03KOPBEEJA@?$EAID?$AA@ 0000000140166fac     Groupe.obj
 0002:00004fb0       ??_C@_09MPENJJGK@?$CFs_?$CFd?4cfg?$AA@ 0000000140166fb0     Groupe.obj
 0002:00004fbc       ??_C@_02NJNOFBBI@?$CFx?$AA@ 0000000140166fbc     Groupe.obj
 0002:00004fc8       ??_7CGroupe@@6B@           0000000140166fc8     Groupe.obj
 0002:00005060       ??_C@_06OPMGJGJF@SCRIPT?$AA@ 0000000140167060     HtmlXml.obj
 0002:00005068       ??_C@_07DHNOOGHI@?1SCRIPT?$AA@ 0000000140167068     HtmlXml.obj
 0002:00005070       ??_C@_06GMHJANLO@?1TABLE?$AA@ 0000000140167070     HtmlXml.obj
 0002:00005078       ??_C@_05HJCCDKBG@TABLE?$AA@ 0000000140167078     HtmlXml.obj
 0002:00005080       ??_C@_02CAJMKHFJ@?$DP?$FN?$AA@ 0000000140167080     HtmlXml.obj
 0002:00005084       ??_C@_03MFNCCGDB@?1TR?$AA@ 0000000140167084     HtmlXml.obj
 0002:00005088       ??_C@_02ODIGJPFH@TR?$AA@   0000000140167088     HtmlXml.obj
 0002:0000508c       ??_C@_06LCPJPOPK@SELECT?$AA@ 000000014016708c     HtmlXml.obj
 0002:00005094       ??_C@_05PICGMCMM@THEAD?$AA@ 0000000140167094     HtmlXml.obj
 0002:0000509c       ??_C@_05GIPHKDJC@TFOOT?$AA@ 000000014016709c     HtmlXml.obj
 0002:000050a8       ??_C@_07GKOBIOBH@?1SELECT?$AA@ 00000001401670a8     HtmlXml.obj
 0002:000050b0       ??_C@_02JACOKILJ@?$FL?$EA?$AA@ 00000001401670b0     HtmlXml.obj
 0002:000050b4       ??_C@_06ONHNPFGE@?1THEAD?$AA@ 00000001401670b4     HtmlXml.obj
 0002:000050bc       ??_C@_06HNKMJEDK@?1TFOOT?$AA@ 00000001401670bc     HtmlXml.obj
 0002:000050d0       ??_7CHtmlXml@@6B@          00000001401670d0     HtmlXml.obj
 0002:000050d8       ??_C@_01EEMJAFIK@?6?$AA@   00000001401670d8     Imprime.obj
 0002:000050e0       ??_C@_0BI@EFOJAHGJ@Format?5message?5invalide?$AA@ 00000001401670e0     Imprime.obj
 0002:000050f8       ??_C@_01LFCBOECM@?4?$AA@   00000001401670f8     Imprime.obj
 0002:000050fc       ??_C@_02MDDDDAID@0x?$AA@   00000001401670fc     InputArchive.obj
 0002:00005100       ??_C@_02FGLHBECB@0X?$AA@   0000000140167100     InputArchive.obj
 0002:00005104       ??_C@_01EOFPKCAF@?$EA?$AA@ 0000000140167104     InputArchive.obj
 0002:00005108       ??_C@_03OPHMLOFF@?$CFlx?$AA@ 0000000140167108     InputArchive.obj
 0002:0000510c       ??_C@_03JALODAI@?$CFld?$AA@ 000000014016710c     InputArchive.obj
 0002:00005110       ??_C@_02NJPGOMH@?$CFf?$AA@ 0000000140167110     InputArchive.obj
 0002:00005114       ??_C@_04BFAHMMK@?$CFlld?$AA@ 0000000140167114     InputArchive.obj
 0002:0000511c       ??_C@_02JDPG@rb?$AA@       000000014016711c     InputOutputArchive.obj
 0002:00005120       ??_C@_02BOGAIONP@ab?$AA@   0000000140167120     InputOutputArchive.obj
 0002:00005124       ??_C@_03INHDMBGM@BAK?$AA@  0000000140167124     InputOutputArchive.obj
 0002:00005128       ??_C@_02GMLFBBN@wb?$AA@    0000000140167128     InputOutputArchive.obj
 0002:00005138       ??_7CInputOutputArchive@@6B@ 0000000140167138     InputOutputArchive.obj
 0002:00005170       ??_C@_03ILDADBHF@RAM?$AA@  0000000140167170     InputOutputStringArchive.obj
 0002:00005188       ??_7CInputOutputStringArchive@@6B@ 0000000140167188     InputOutputStringArchive.obj
 0002:000051c0       ??_C@_08LBGBIGLK@?$CFs_?$CK?4cfg?$AA@ 00000001401671c0     ListeGroupe.obj
 0002:000051d0       ??_C@_0L@FNNEGJIF@?$CFs_?$CF?$CFd?4cfg?$AA@ 00000001401671d0     ListeGroupe.obj
 0002:000051e0       ??_C@_07IMONBOL@LST_GRP?$AA@ 00000001401671e0     ListeGroupe.obj
 0002:000051e8       ??_C@_05EPPKFOIH@EXIST?$AA@ 00000001401671e8     ListeGroupe.obj
 0002:000051f0       ??_C@_04KHCKLHL@EXEC?$AA@  00000001401671f0     ListeGroupe.obj
 0002:000051f8       ??_C@_0L@KEGHNHAL@EXIST?0EXEC?$AA@ 00000001401671f8     ListeGroupe.obj
 0002:00005208       ??_C@_09BEIACCGI@NAME?0?5NUM?$AA@ 0000000140167208     ListeGroupe.obj
 0002:00005214       ??_C@_03KPIFFHNE@SET?$AA@  0000000140167214     ListeGroupe.obj
 0002:00005218       ??_C@_09GMCALJK@DEL?0?5DATE?$AA@ 0000000140167218     ListeGroupe.obj
 0002:00005224       ??_C@_06DBOIOGHB@SETGRP?$AA@ 0000000140167224     ListeGroupe.obj
 0002:0000522c       ??_C@_06EDCEMKKP@?$CFs?4cfg?$AA@ 000000014016722c     ListeGroupe.obj
 0002:00005248       ??_7CListeGroupe@@6B@      0000000140167248     ListeGroupe.obj
 0002:000052d0       ??_C@_05LDHOCHGG@quot?$DL?$AA@ 00000001401672d0     MemXml.obj
 0002:000052d8       ??_C@_05HNAHLMAI@apos?$DL?$AA@ 00000001401672d8     MemXml.obj
 0002:000052e0       ??_C@_03BHAAMAON@gt?$DL?$AA@ 00000001401672e0     MemXml.obj
 0002:000052e4       ??_C@_04DMIAPOKJ@amp?$DL?$AA@ 00000001401672e4     MemXml.obj
 0002:000052ec       ??_C@_03MAABEHOM@lt?$DL?$AA@ 00000001401672ec     MemXml.obj
 0002:000052f0       ??_C@_06DDLNFFBN@?$CGquot?$DL?$AA@ 00000001401672f0     MemXml.obj
 0002:000052f8       ??_C@_06PNMEMOHD@?$CGapos?$DL?$AA@ 00000001401672f8     MemXml.obj
 0002:00005300       ??_C@_04LOOHDCEI@?$CGgt?$DL?$AA@ 0000000140167300     MemXml.obj
 0002:00005308       ??_C@_05JKJFEODM@?$CGamp?$DL?$AA@ 0000000140167308     MemXml.obj
 0002:00005310       ??_C@_04GJOGLFEJ@?$CGlt?$DL?$AA@ 0000000140167310     MemXml.obj
 0002:00005318       ??_C@_01OGPIMHDM@?$DP?$AA@ 0000000140167318     MemXml.obj
 0002:0000531c       ??_C@_04DNCNJDPH@?5?7?6?$AN?$AA@ 000000014016731c     MemXml.obj
 0002:00005324       ??_C@_06IAIFGOLG@?$DM?$DO?$DN?2?1?$DP?$AA@ 0000000140167324     MemXml.obj
 0002:0000532c       ??_C@_05PJEANKPJ@?$DM?$CG?$DO?8?$CC?$AA@ 000000014016732c     MemXml.obj
 0002:00005334       ??_C@_03BJEDEGNF@?$DM?$CG?$DO?$AA@ 0000000140167334     MemXml.obj
 0002:00005338       ??_C@_07PJNOEDGO@?$DM?$CFs?1?$DO?$AN?6?$AA@ 0000000140167338     MemXml.obj
 0002:00005340       ??_C@_0O@KIODFKEL@?$DM?$CFs?$DO?$CFs?$DM?1?$CFs?$DO?$AN?6?$AA@ 0000000140167340     MemXml.obj
 0002:00005350       ??_C@_02DPNDACHE@?$DM?1?$AA@ 0000000140167350     MemXml.obj
 0002:00005354       ??_C@_03DMHINEKI@?$DO?$AN?6?$AA@ 0000000140167354     MemXml.obj
 0002:00005358       ??_C@_08JCBNGIEE@?5?$CFs?$DN?$CC?$CFs?$CC?$AA@ 0000000140167358     MemXml.obj
 0002:00005364       ??_C@_04GBBGJLMB@?$CF?45f?$AA@ 0000000140167364     OperationMem.obj
 0002:00005370       ??_C@_0BD@BGPFHEHM@ReveilExceCmdShell?$AA@ 0000000140167370     ProcessCmd.obj
 0002:00005384       ??_C@_01CLKCMJKC@?5?$AA@   0000000140167384     ProcessCmd.obj
 0002:00005388       ??_C@_01LIIJDEN@?$AN?$AA@  0000000140167388     ProcessCmd.obj
 0002:0000538c       ??_C@_01KICIPPFI@?2?$AA@   000000014016738c     Repertoire.obj
 0002:00005390       ??_C@_02DPEMFEPD@?3?2?$AA@ 0000000140167390     Repertoire.obj
 0002:00005394       ??_C@_02HDBGODGB@?2?2?$AA@ 0000000140167394     Repertoire.obj
 0002:00005398       ??_C@_04CGJNICGF@?$CFc?3?2?$AA@ 0000000140167398     Repertoire.obj
 0002:000053a8       ??_7CRepertoire@@6B@       00000001401673a8     Repertoire.obj
 0002:000053b0       ??_C@_03FPEIBLKH@tcp?$AA@  00000001401673b0     ServeurArchive.obj
 0002:000053b8       ??_C@_0BG@KJECFHGL@?$CD?$CD?$CD?$CD?$CD?$CD?$CD?$CD?$CD?5Attention?5?6?$AA@ 00000001401673b8     ServeurArchive.obj
 0002:000053d0       ??_C@_0BI@BNPIBACO@?5bind?5?3?5Code?5erreur?5?$CFd?6?$AA@ 00000001401673d0     ServeurArchive.obj
 0002:000053e8       ??_C@_0CI@KEKANFMK@?$CD?$CD?$CD?$CD?$CD?$CD?$CD?$CD?$CD?5?5rebooter?5la?5station?5?$CB@ 00000001401673e8     ServeurArchive.obj
 0002:00005410       ??_C@_0BO@JALLPKFH@Reception?5dde_sock?5?$CIlisten?$CJ?5?3?$AA@ 0000000140167410     ServeurArchive.obj
 0002:00005430       ??_C@_0M@PCENNPGA@?$CFd?4?$CFd?4?$CFd?4?$CFd?$AA@ 0000000140167430     ServeurArchive.obj
 0002:00005440       ??_C@_0CB@ODAFOPN@Erreur?5N?3?$CFd?5?5pendant?5le?5connect?6@ 0000000140167440     ServeurArchive.obj
 0002:00005468       ??_C@_0BG@JPEIDMB@Utilisation?5interdite?$AA@ 0000000140167468     ServeurArchive.obj
 0002:00005488       ??_7CServeurArchive@@6B@   0000000140167488     ServeurArchive.obj
 0002:000054b0       ??_C@_02DKCKIIND@?$CFs?$AA@ 00000001401674b0     ServeurTCP.obj
 0002:000054c0       ??_7CServeurTCP@@6B@       00000001401674c0     ServeurTCP.obj
 0002:000054f0       ??_C@_0BC@FJBOJOOG@Erreur?5socket?5?$CD?$CFd?$AA@ 00000001401674f0     SocketMiniTCP.obj
 0002:00005508       ??_C@_0CK@MIPDCMGO@Le?5serveur?5?$CFs?5n?8est?5pas?5connu?5du@ 0000000140167508     SocketMiniTCP.obj
 0002:00005548       ??_7CSocketMiniTCP@@6B@    0000000140167548     SocketMiniTCP.obj
 0002:00005588       ??_7CSocketServeurArchive@@6B@ 0000000140167588     SocketServeurArchive.obj
 0002:000055d8       ??_C@_0CL@FCHKEGOK@Impossible?5de?5lancer?5le?5thread?5d@ 00000001401675d8     SocketTCP.obj
 0002:00005608       ??_C@_0CB@LJIIOFHP@Erreur?5N?3?$CFd?5?5pendant?5le?5send?5?$CFs?6@ 0000000140167608     SocketTCP.obj
 0002:00005638       ??_7CSocketTCP@@6B@        0000000140167638     SocketTCP.obj
 0002:000056b0       ??_C@_0N@ILCCAOGJ@ReveilThread?$AA@ 00000001401676b0     ThreadOsys.obj
 0002:000056c8       ??_7CThreadOsys@@6B@       00000001401676c8     ThreadOsys.obj
 0002:000056e8       ??_C@_0BL@OMAELLCO@Software?2Osys?2QuartisTools?$AA@ 00000001401676e8     VersionIntegrale.obj
 0002:00005708       ??_C@_0BB@ENIIPBOE@QuartisIntegrale?$AA@ 0000000140167708     VersionIntegrale.obj
 0002:00005720       ??_C@_0CG@OOOFLFFC@Software?2Osys?2QuartisTools?2Compo@ 0000000140167720     VersionIntegrale.obj
 0002:00005748       ??_C@_07FKPCKOED@Quartis?$AA@ 0000000140167748     VersionIntegrale.obj
 0002:00005750       ??_C@_01HIHLOKLC@1?$AA@    0000000140167750     VersionIntegrale.obj
 0002:00005760       ??_7CVersionIntegrale@@6B@ 0000000140167760     VersionIntegrale.obj
 0002:00005768       ??_C@_03GHPOJIDB@TPS?$AA@  0000000140167768     ConfOsysBd.obj
 0002:00005770       ??_C@_07DILKIBEL@CHANNEL?$AA@ 0000000140167770     ConfOsysBd.obj
 0002:00005778       ??_C@_04KHKGAONC@SGBD?$AA@ 0000000140167778     ConfOsysBd.obj
 0002:00005780       ??_C@_01ICJEACDI@?$DL?$AA@ 0000000140167780     ConfOsysBd.obj
 0002:00005788       ??_C@_08KENNMKEI@PASSWORD?$AA@ 0000000140167788     ConfOsysBd.obj
 0002:00005794       ??_C@_06MNPJAMIO@DEFAUT?$AA@ 0000000140167794     ConfOsysBd.obj
 0002:0000579c       ??_C@_05DJAECLDN@SLEEP?$AA@ 000000014016779c     ConfOsysBd.obj
 0002:000057a4       ??_C@_06DHCFAEBN@OsysBD?$AA@ 00000001401677a4     ConfOsysBd.obj
 0002:000057ac       ??_C@_01EKENIIDA@3?$AA@    00000001401677ac     ConnexionBDAdo.obj
 0002:000057b0       ??_C@_01FAMBOPH@4?$AA@     00000001401677b0     ConnexionBDAdo.obj
 0002:000057b4       ??_C@_01FDFGLJHB@2?$AA@    00000001401677b4     ConnexionBDAdo.obj
 0002:000057b8       ??_C@_08KLHKDFEJ@PROVIDER?$AA@ 00000001401677b8     ConnexionBDAdo.obj
 0002:000057c4       ??_C@_05CNPIJCMK@?$DL?$AN?6?7?5?$AA@ 00000001401677c4     ConnexionBDAdo.obj
 0002:000057d0       ??_C@_08DCBFNHNC@SQLOLEDB?$AA@ 00000001401677d0     ConnexionBDAdo.obj
 0002:000057e0       ??_C@_09HOCNOMAC@sp_tables?$AA@ 00000001401677e0     ConnexionBDAdo.obj
 0002:000057ec       ??_C@_04OLDJKBIG@VIEW?$AA@ 00000001401677ec     ConnexionBDAdo.obj
 0002:000057f8       ??_C@_0BL@JCEMDCAO@select?5?$CK?5from?5?$CFs?5where?51?$DN0?$AA@ 00000001401677f8     ConnexionBDAdo.obj
 0002:00005818       ??_C@_0BB@NJNGAAD@Entier?5?$CI1?5octet?$CJ?$AA@ 0000000140167818     ConnexionBDAdo.obj
 0002:00005830       ??_C@_0BI@GJAJJOKI@Entier?5sign?i?5?$CI2?5octets?$CJ?$AA@ 0000000140167830     ConnexionBDAdo.obj
 0002:00005848       ??_C@_06FPDHPIEM@Entier?$AA@ 0000000140167848     ConnexionBDAdo.obj
 0002:00005850       ??_C@_0BI@HOCLAOGB@Entier?5sign?i?5?$CI8?5octets?$CJ?$AA@ 0000000140167850     ConnexionBDAdo.obj
 0002:00005868       ??_C@_0BM@BDHMCKNF@Entier?5non?5sign?i?5?$CI8?5octets?$CJ?$AA@ 0000000140167868     ConnexionBDAdo.obj
 0002:00005888       ??_C@_0BM@EFOLKBM@Entier?5non?5sign?i?5?$CI2?5octets?$CJ?$AA@ 0000000140167888     ConnexionBDAdo.obj
 0002:000058a8       ??_C@_0BM@JEAMKFL@Entier?5non?5sign?i?5?$CI4?5octets?$CJ?$AA@ 00000001401678a8     ConnexionBDAdo.obj
 0002:000058c8       ??_C@_0M@NNFMJFBB@R?iel?5simple?$AA@ 00000001401678c8     ConnexionBDAdo.obj
 0002:000058d8       ??_C@_0M@DPMJHBL@R?iel?5double?$AA@ 00000001401678d8     ConnexionBDAdo.obj
 0002:000058e8       ??_C@_09JKICIONO@Mon?itaire?$AA@ 00000001401678e8     ConnexionBDAdo.obj
 0002:000058f8       ??_C@_0BC@HHJGELIB@Num?irique?5d?icimal?$AA@ 00000001401678f8     ConnexionBDAdo.obj
 0002:00005910       ??_C@_09LABPDLPI@Num?irique?$AA@ 0000000140167910     ConnexionBDAdo.obj
 0002:00005920       ??_C@_07DHOOLPJJ@Bool?ien?$AA@ 0000000140167920     ConnexionBDAdo.obj
 0002:00005928       ??_C@_0M@GIMIPGAA@Code?5erreur?$AA@ 0000000140167928     ConnexionBDAdo.obj
 0002:00005938       ??_C@_0M@GHLJDFNP@Utilisateur?$AA@ 0000000140167938     ConnexionBDAdo.obj
 0002:00005948       ??_C@_07HMBNOOMO@Variant?$AA@ 0000000140167948     ConnexionBDAdo.obj
 0002:00005950       ??_C@_0N@HMLGCGMA@Pointeur?5OLE?$AA@ 0000000140167950     ConnexionBDAdo.obj
 0002:00005960       ??_C@_0O@OAJHBEKG@Num?iro?5unique?$AA@ 0000000140167960     ConnexionBDAdo.obj
 0002:00005970       ??_C@_04FMEGDJGD@Date?$AA@ 0000000140167970     ConnexionBDAdo.obj
 0002:00005978       ??_C@_0BA@CABIIHAB@Date?5?$CIyyyymmdd?$CJ?$AA@ 0000000140167978     ConnexionBDAdo.obj
 0002:00005988       ??_C@_05OPPKFNBC@Heure?$AA@ 0000000140167988     ConnexionBDAdo.obj
 0002:00005990       ??_C@_0L@GBLKDNAN@Date?1Heure?$AA@ 0000000140167990     ConnexionBDAdo.obj
 0002:000059a0       ??_C@_0O@NJIKLCEB@Texte?5Unicode?$AA@ 00000001401679a0     ConnexionBDAdo.obj
 0002:000059b0       ??_C@_05GNAJDLJN@Texte?$AA@ 00000001401679b0     ConnexionBDAdo.obj
 0002:000059b8       ??_C@_0P@KEPGJEKJ@Valeur?5Binaire?$AA@ 00000001401679b8     ConnexionBDAdo.obj
 0002:000059c8       ??_C@_01OHGJGJJP@?$FL?$AA@ 00000001401679c8     ConnexionBDAdo.obj
 0002:000059cc       ??_C@_01LBDDMOBJ@?$FN?$AA@ 00000001401679cc     ConnexionBDAdo.obj
 0002:000059d0       ??_C@_07CDCINJMB@MSDASQL?$AA@ 00000001401679d0     ConnexionBDAdo.obj
 0002:000059d8       ??_C@_07IOAPPBPC@MSDAORA?$AA@ 00000001401679d8     ConnexionBDAdo.obj
 0002:000059e0       ??_C@_09DFBNFEDA@JET?4OLEDB?$AA@ 00000001401679e0     ConnexionBDAdo.obj
 0002:000059ec       ??_C@_03JLJGOMBC@ORA?$AA@  00000001401679ec     ConnexionBDAdo.obj
 0002:000059f0       ??_C@_01JLIPDDHJ@?3?$AA@   00000001401679f0     ConnexionBDAdo.obj
 0002:000059f8       ??_C@_0BD@CEFDICCA@SELECT?51?5FROM?5DUAL?$AA@ 00000001401679f8     ConnexionBDAdo.obj
 0002:00005a10       ??_C@_0O@CEEKMBOA@Module?5OsysBD?$AA@ 0000000140167a10     ConnexionBDAdo.obj
 0002:00005a20       ??_C@_07JJBIELFA@?$CFs?5?8?$CFs?8?$AA@ 0000000140167a20     ConnexionBDAdo.obj
 0002:00005a28       ??_C@_0CM@LHKJCJPO@Reinitialisation?5de?5la?5base?5de?5d@ 0000000140167a28     ConnexionBDAdo.obj
 0002:00005a54       ??_C@_04OPBHEPOC@0x?$CFx?$AA@ 0000000140167a54     ConnexionBDAdo.obj
 0002:00005a5c       ??_C@_05GCOKLJOC@40001?$AA@ 0000000140167a5c     ConnexionBDAdo.obj
 0002:00005a70       ??_7_com_error@@6B@        0000000140167a70     ConnexionBDAdo.obj
 0002:00005a80       ??_7CConnexionBD@@6B@      0000000140167a80     ConnexionBDAdo.obj
 0002:00005a88       _GUID_00000000_0000_0000_c000_000000000046 0000000140167a88     ConnexionBDAdo.obj
 0002:00005a98       _GUID_00000512_0000_0010_8000_00aa006d2ea4 0000000140167a98     ConnexionBDAdo.obj
 0002:00005aa8       _GUID_00000500_0000_0010_8000_00aa006d2ea4 0000000140167aa8     ConnexionBDAdo.obj
 0002:00005ab8       _GUID_00000501_0000_0010_8000_00aa006d2ea4 0000000140167ab8     ConnexionBDAdo.obj
 0002:00005ac8       _GUID_0000054c_0000_0010_8000_00aa006d2ea4 0000000140167ac8     ConnexionBDAdo.obj
 0002:00005ad8       _GUID_00000506_0000_0010_8000_00aa006d2ea4 0000000140167ad8     ConnexionBDAdo.obj
 0002:00005ae8       _GUID_00000508_0000_0010_8000_00aa006d2ea4 0000000140167ae8     ConnexionBDAdo.obj
 0002:00005af8       _GUID_b08400bd_f9d1_4d02_b856_71d5dba123e9 0000000140167af8     ConnexionBDAdo.obj
 0002:00005b08       _GUID_00000515_0000_0010_8000_00aa006d2ea4 0000000140167b08     ConnexionBDAdo.obj
 0002:00005b18       _GUID_00000550_0000_0010_8000_00aa006d2ea4 0000000140167b18     ConnexionBDAdo.obj
 0002:00005b28       _GUID_0000050e_0000_0010_8000_00aa006d2ea4 0000000140167b28     ConnexionBDAdo.obj
 0002:00005b38       _GUID_00000514_0000_0010_8000_00aa006d2ea4 0000000140167b38     ConnexionBDAdo.obj
 0002:00005b48       _GUID_00000507_0000_0010_8000_00aa006d2ea4 0000000140167b48     ConnexionBDAdo.obj
 0002:00005b58       ??_C@_0BI@MMBIFIIO@?$CF2d?1?$CF2d?1?$CF4d?5?$CF2d?3?$CF2d?3?$CF2d?$AA@ 0000000140167b58     ConversionAdo.obj
 0002:00005b70       ??_C@_0CE@ILOEHKHM@?$CF2?42d?1?$CF2?42d?1?$CF4?44d?5?$CF2?42d?3?$CF2?42d?3?$CF2@ 0000000140167b70     ConversionAdo.obj
 0002:00005ba0       ??_7CGestErreurBD@@6B@     0000000140167ba0     GestErreurBD.obj
 0002:00005bb8       ??_7CGroupeRequete@@6B@    0000000140167bb8     GroupeRequete.obj
 0002:00005c50       ??_C@_0L@LHCGJIOF@?$CFsReveil?$CFd?$AA@ 0000000140167c50     ListeConnexionBD.obj
 0002:00005c60       ??_C@_08JHLJAAJE@ORAOLEDB?$AA@ 0000000140167c60     ListeConnexionBD.obj
 0002:00005c6c       ??_C@_03JMDFPPIA@CFG?$AA@  0000000140167c6c     ListeGroupeRequete.obj
 0002:00005c70       ??_C@_04HEDFJGEJ@FREE?$AA@ 0000000140167c70     ListeGroupeRequete.obj
 0002:00005c78       ??_C@_06NCPOLHIK@TYP_BD?$AA@ 0000000140167c78     ListeGroupeRequete.obj
 0002:00005c80       ??_C@_07MABFCCME@DESC_BD?$AA@ 0000000140167c80     ListeGroupeRequete.obj
 0002:00005c88       ??_C@_03FIHIKGHG@RES?$AA@  0000000140167c88     ListeGroupeRequete.obj
 0002:00005c90       ??_C@_0CC@DHHBOLHK@EXEC?5ou?5FREE?5ou?5GET?5ou?5RES?5ou?5SE@ 0000000140167c90     ListeGroupeRequete.obj
 0002:00005cc8       ??_7CListeGroupeRequete@@6B@ 0000000140167cc8     ListeGroupeRequete.obj
 0002:00005d50       ??_C@_0P@LEIMKFGE@ReveilThreadBD?$AA@ 0000000140167d50     PerteConnBD.obj
 0002:00005d60       ??_C@_05OJIEEMJF@DBOFF?$AA@ 0000000140167d60     PerteConnBD.obj
 0002:00005d68       ??_C@_05MPOCIJBL@?$CFs?9?$CFs?$AA@ 0000000140167d68     PerteConnBD.obj
 0002:00005d70       ??_C@_04LAIPMOKL@DBON?$AA@ 0000000140167d70     PerteConnBD.obj
 0002:00005d80       ??_7CPerteConnBD@@6B@      0000000140167d80     PerteConnBD.obj
 0002:00005da8       ??_7CRequete@@6B@          0000000140167da8     Requete.obj
 0002:00005de0       ??_C@_0BB@LPNLPMEG@CResultatRequete?$AA@ 0000000140167de0     ResultatRequete.obj
 0002:00005df4       ??_C@_01NOFIACDB@w?$AA@    0000000140167df4     ResultatRequete.obj
 0002:00005df8       ??_C@_01MCMALHOG@a?$AA@    0000000140167df8     ResultatRequete.obj
 0002:00005dfc       ??_C@_05PHPHADEO@NBCOL?$AA@ 0000000140167dfc     ResultatRequete.obj
 0002:00005e04       ??_C@_05MBDEGLCK@ERROR?$AA@ 0000000140167e04     ResultatRequete.obj
 0002:00005e18       ??_7CResultatRequete@@6B@  0000000140167e18     ResultatRequete.obj
 0002:00005e28       ??_C@_0M@PLNOAAAJ@TYPE_CHAINE?$AA@ 0000000140167e28     StructureDB.obj
 0002:00005e34       ??_C@_06BKCCGLF@TAILLE?$AA@ 0000000140167e34     StructureDB.obj
 0002:00005e3c       ??_C@_04HIBGFPH@NULL?$AA@  0000000140167e3c     StructureDB.obj
 0002:00005e44       ??_C@_05EOCDEJIJ@CHAMP?$AA@ 0000000140167e44     StructureDB.obj
 0002:00005e50       ??_C@_09CONJEKHE@TYPE_BASE?$AA@ 0000000140167e50     StructureDB.obj
 0002:00005e5c       ??_C@_03JFMEENOE@ERR?$AA@  0000000140167e5c     StructureDB.obj
 0002:00005e68       ??_7CStructureDefChamp@@6B@ 0000000140167e68     StructureDB.obj
 0002:00005e70       ??_C@_04OGLMMEN@CONS?$AA@  0000000140167e70     ClientGestConsoleWeb.obj
 0002:00005e78       ??_C@_04OGGDJIHH@FIND?$AA@ 0000000140167e78     ClientGestConsoleWeb.obj
 0002:00005e80       ??_C@_04CJAHKHLK@ECHO?$AA@ 0000000140167e80     ClientGestConsoleWeb.obj
 0002:00005e88       ??_C@_08HCMAIOL@LST_USER?$AA@ 0000000140167e88     ClientGestConsoleWeb.obj
 0002:00005e98       ??_C@_07IBHGOIGG@LST_MEM?$AA@ 0000000140167e98     ClientGestConsoleWeb.obj
 0002:00005ea0       ??_C@_07BEJCAIIM@LST_LPX?$AA@ 0000000140167ea0     ClientGestConsoleWeb.obj
 0002:00005ea8       ??_C@_0M@DGCMENFF@LST_GRP_MEM?$AA@ 0000000140167ea8     ClientGestConsoleWeb.obj
 0002:00005eb8       ??_C@_0M@CFECEJEH@LST_CONSOLE?$AA@ 0000000140167eb8     ClientGestConsoleWeb.obj
 0002:00005ec8       ??_C@_0BB@EFPBKOMG@LST_USER_CONNECT?$AA@ 0000000140167ec8     ClientGestConsoleWeb.obj
 0002:00005edc       ??_C@_04MDHMLCKF@STOP?$AA@ 0000000140167edc     ClientGestConsoleWeb.obj
 0002:00005ee8       ??_C@_0BH@GDBPHNNO@Propriete?5inconnue?5?$CFs?6?$AA@ 0000000140167ee8     ClientGestConsoleWeb.obj
 0002:00005f00       ??_C@_0BG@JJLELLJJ@?$CFp?5Exception?4?4?4n?$LA?5?$CFd?6?$AA@ 0000000140167f00     ClientGestConsoleWeb.obj
 0002:00005f18       ??_C@_0CJ@GOIGGDIE@?$CFp?5ClientConsoleWeb?3?5Pas?5auto?9fe@ 0000000140167f18     ClientGestConsoleWeb.obj
 0002:00005f48       ??_C@_0O@HGMMJCPO@?$DM?1lstusergrp?$DO?$AA@ 0000000140167f48     ClientGestConsoleWeb.obj
 0002:00005f58       ??_C@_0N@CAONLCDG@?$DMlstusergrp?$DO?$AA@ 0000000140167f58     ClientGestConsoleWeb.obj
 0002:00005f68       ??_C@_0N@DEAIHLFG@?$DM?1lstmemgrp?$DO?$AA@ 0000000140167f68     ClientGestConsoleWeb.obj
 0002:00005f78       ??_C@_0M@KGOMJAGD@?$DMlstmemgrp?$DO?$AA@ 0000000140167f78     ClientGestConsoleWeb.obj
 0002:00005f88       ??_C@_0N@JOFPFLIJ@?$DM?1lstlpxgrp?$DO?$AA@ 0000000140167f88     ClientGestConsoleWeb.obj
 0002:00005f98       ??_C@_0M@MLLLALM@?$DMlstlpxgrp?$DO?$AA@ 0000000140167f98     ClientGestConsoleWeb.obj
 0002:00005fa8       ??_C@_0BD@HGLMBAGE@?$DM?1lstmemunseulgrp?$DO?$AA@ 0000000140167fa8     ClientGestConsoleWeb.obj
 0002:00005fc0       ??_C@_0BC@NKIFMKEF@?$DMlstmemunseulgrp?$DO?$AA@ 0000000140167fc0     ClientGestConsoleWeb.obj
 0002:00005fd8       ??_C@_0N@IHCDCAAA@?$DMlstconsole?$DO?$AA@ 0000000140167fd8     ClientGestConsoleWeb.obj
 0002:00005fe8       ??_C@_0O@NBACAAMI@?$DM?1lstconsole?$DO?$AA@ 0000000140167fe8     ClientGestConsoleWeb.obj
 0002:00005ff8       ??_C@_0CJ@NKBHHCGF@?$DMlstuserconnect?5max?$DN?$CC?$CFd?$CC?5connect@ 0000000140167ff8     ClientGestConsoleWeb.obj
 0002:00006038       ??_7CClientGestConsoleWeb@@6B@ 0000000140168038     ClientGestConsoleWeb.obj
 0002:00006088       ??_C@_0CI@DMCCBLJI@Erreur?5de?5creation?5du?5fichier?5XM@ 0000000140168088     FicXML.obj
 0002:000060b0       ??_C@_0BH@DACIKHII@?$DMgrp?5id?$DN?$CC?$CFd?$CC?5nom?$DN?$CC?$CFs?$CC?$DO?$AA@ 00000001401680b0     FicXML.obj
 0002:000060c8       ??_C@_06ELKOICD@?$DM?1grp?$DO?$AA@ 00000001401680c8     FicXML.obj
 0002:000060d0       ??_C@_0BA@MFDKGEHI@?$DMgrp?5id?$DN?$CC?$CFd?$CC?5?1?$DO?$AA@ 00000001401680d0     FicXML.obj
 0002:000060e8       ??_7CFicXML@@6B@           00000001401680e8     FicXML.obj
 0002:000060f0       ??_C@_0FL@DKEGKGFH@?$DMmemoire?5id?$DN?$CC?$CFd?$CC?5nom?$DN?$CC?$CFs?$CC?5type?$DN?$CC@ 00000001401680f0     FicXMLMem.obj
 0002:00006150       ??_C@_0BE@JEFPFEOH@?$DMmemoire?5id?$DN?$CC?$CFd?$CC?5?1?$DO?$AA@ 0000000140168150     FicXMLMem.obj
 0002:00006168       ??_C@_0DA@IHGCJEDK@?$DMconsoleweb?5ancien_nom?$DN?$CC?$CFs?$CC?5nouv@ 0000000140168168     FicXmlPageHtml.obj
 0002:00006198       ??_C@_0BI@LLKKOHLE@?$DMconsoleweb?5nom?$DN?$CC?$CFs?$CC?5?1?$DO?$AA@ 0000000140168198     FicXmlPageHtml.obj
 0002:000061b8       ??_7CFicXmlPageHtml@@6B@   00000001401681b8     FicXmlPageHtml.obj
 0002:000061c0       ??_C@_0BJ@KHDMEOFD@?$DMlpx?5id?$DN?$CC?$CFd?$CC?5nom?$DN?$CC?$CFs?$CC?5?1?$DO?$AA@ 00000001401681c0     FicXMLScenario.obj
 0002:000061e0       ??_C@_0BA@KAKDNFEG@?$DMlpx?5id?$DN?$CC?$CFd?$CC?5?1?$DO?$AA@ 00000001401681e0     FicXMLScenario.obj
 0002:000061f0       ??_C@_0BE@MDMBIJGJ@?$DMmodif?5type?$DN?$CCUSER?$CC?$DO?$AA@ 00000001401681f0     FicXMLUser.obj
 0002:00006208       ??_C@_08MFGFPNCM@?$DM?1modif?$DO?$AA@ 0000000140168208     FicXMLUser.obj
 0002:00006218       ??_C@_0BD@EJNBEGOF@?$DMsupp?5type?$DN?$CCUSER?$CC?$DO?$AA@ 0000000140168218     FicXMLUser.obj
 0002:00006230       ??_C@_07LDMFOMLA@?$DM?1supp?$DO?$AA@ 0000000140168230     FicXMLUser.obj
 0002:00006238       ??_C@_0BB@BCLMDMKJ@?$DMuser?5id?$DN?$CC?$CFd?$CC?5?1?$DO?$AA@ 0000000140168238     FicXMLUser.obj
 0002:00006250       ??_C@_0DJ@HPHHAAJF@CClientGestConsoleWeb?3?3EnvoiClie@ 0000000140168250     SrvGestConsoleWeb.obj
 0002:00006298       ??_7CSrvGestConsoleWeb@@6B@ 0000000140168298     SrvGestConsoleWeb.obj
 0002:000062c8       ??_C@_04NHGEGHIK@SCEN?$AA@ 00000001401682c8     Decl.obj
 0002:000062d0       ??_C@_04FGCJBPPJ@PERD?$AA@ 00000001401682d0     Decl.obj
 0002:000062d8       ??_C@_04FPADMOJ@PERU?$AA@  00000001401682d8     Decl.obj
 0002:000062e8       ??_7CDecl@@6B@             00000001401682e8     Decl.obj
 0002:00006328       ??_7CGroupeDecl@@6B@       0000000140168328     GroupeDecl.obj
 0002:000063c8       ??_7CListeGroupeDecl@@6B@  00000001401683c8     ListeGroupeDecl.obj
 0002:00006458       ??_7CListUser@@6B@         0000000140168458     ListUser.obj
 0002:00006468       ??_7CColRequeteEtat@@6B@   0000000140168468     ColRequeteEtat.obj
 0002:00006470       ??_C@_09MDDIKNEC@etat?$CFd?4?$CFs?$AA@ 0000000140168470     Etat.obj
 0002:0000647c       ??_C@_03LBJFMAGK@lab?$AA@  000000014016847c     Etat.obj
 0002:00006480       ??_C@_03CPJMFG@rpt?$AA@    0000000140168480     Etat.obj
 0002:00006484       ??_C@_03KDLJKADA@inv?$AA@  0000000140168484     Etat.obj
 0002:00006488       ??_C@_03KKAENNGB@let?$AA@  0000000140168488     Etat.obj
 0002:0000648c       ??_C@_03EHNACBOI@frm?$AA@  000000014016848c     Etat.obj
 0002:00006490       ??_C@_07EKBFKLHP@VAR_MEM?$AA@ 0000000140168490     Etat.obj
 0002:00006498       ??_C@_09DMKCDEAC@VAR_QUERY?$AA@ 0000000140168498     Etat.obj
 0002:000064a8       ??_C@_09GLEEGIFF@FIELD_MEM?$AA@ 00000001401684a8     Etat.obj
 0002:000064b8       ??_C@_0M@FBKEEKHB@FIELD_QUERY?$AA@ 00000001401684b8     Etat.obj
 0002:000064d8       ??_7CEtat@@6B@             00000001401684d8     Etat.obj
 0002:00006518       ??_7CGroupeEtat@@6B@       0000000140168518     GroupeEtat.obj
 0002:000065b0       ??_C@_0O@CHDFKHBE@ReveilImpEtat?$AA@ 00000001401685b0     ImpEtat.obj
 0002:000065c8       ??_7CImpEtat@@6B@          00000001401685c8     ImpEtat.obj
 0002:000065e8       ??_C@_0CH@EOFANOJF@Supprime?5premi?hre?5commande?5numEx@ 00000001401685e8     ListCmdImpEtat.obj
 0002:00006618       ??_7CListCmdImpEtat@@6B@   0000000140168618     ListCmdImpEtat.obj
 0002:00006628       ??_7CListeGroupeEtat@@6B@  0000000140168628     ListeGroupeEtat.obj
 0002:000066b8       ??_7CListeMemoireEtat@@6B@ 00000001401686b8     ListeMemoireEtat.obj
 0002:000066c8       ??_7CListeRequeteEtat@@6B@ 00000001401686c8     ListeRequeteEtat.obj
 0002:000066d8       ??_7CMemoireEtat@@6B@      00000001401686d8     MemoireEtat.obj
 0002:000066e8       ??_7CRequeteEtat@@6B@      00000001401686e8     RequeteEtat.obj
 0002:000066f0       ??_C@_09ELOFJJEO@DATE_EXEC?$AA@ 00000001401686f0     EvtPeriodique.obj
 0002:000066fc       ??_C@_05IGNGDDF@ACTIF?$AA@ 00000001401686fc     EvtPeriodique.obj
 0002:00006708       ??_C@_07PEIHMMHN@PERIODE?$AA@ 0000000140168708     EvtPeriodique.obj
 0002:00006710       ??_C@_05JLPDBANI@START?$AA@ 0000000140168710     EvtPeriodique.obj
 0002:00006718       ??_C@_08BBEOGALP@PRIORITE?$AA@ 0000000140168718     EvtPeriodique.obj
 0002:00006738       ??_7CEvtPeriodique@@6B@    0000000140168738     EvtPeriodique.obj
 0002:00006778       ??_7CGroupeEvtPeriodique@@6B@ 0000000140168778     GroupeEvtPeriodique.obj
 0002:00006810       ??_C@_0BC@JJLOFGFB@?$CFd?1?$CFm?1?$CFY?5?$CFH?3?$CFM?3?$CFS?$AA@ 0000000140168810     ListeExecPeriodique.obj
 0002:00006824       ??_C@_03BBKHDOIK@LPX?$AA@  0000000140168824     ListeExecPeriodique.obj
 0002:00006838       ??_7CListeGroupeEvtPeriodique@@6B@ 0000000140168838     ListeGroupeEvtPeriodique.obj
 0002:000068c0       ??_C@_03HDFFPFLF@REP?$AA@  00000001401688c0     FichierLocal.obj
 0002:000068c4       ??_C@_05NIEEMHIM@CACHE?$AA@ 00000001401688c4     FichierLocal.obj
 0002:000068d8       ??_7CFichierLocal@@6B@     00000001401688d8     FichierLocal.obj
 0002:000068e0       ??_C@_06FELGEPIK@etat?$CFd?$AA@ 00000001401688e0     GestionFichier.obj
 0002:000068e8       ??_C@_03MENLINIL@FIC?$AA@  00000001401688e8     GestionFichier.obj
 0002:000068ec       ??_C@_03EMIMMIHL@?$CK?4?$CK?$AA@ 00000001401688ec     GestionFichier.obj
 0002:000068f0       ??_C@_02DJGKEECL@?4?4?$AA@ 00000001401688f0     GestionFichier.obj
 0002:000068f4       ??_C@_04BPGEPMEM@CODE?$AA@ 00000001401688f4     GestionFichier.obj
 0002:000068fc       ??_C@_04IOBENKPB@etat?$AA@ 00000001401688fc     GestionFichier.obj
 0002:00006904       ??_C@_04GCCEABD@mess?$AA@  0000000140168904     GestionFichier.obj
 0002:00006918       ??_7CGestionFichier@@6B@   0000000140168918     GestionFichier.obj
 0002:00006920       ??_C@_03LEMEILIG@TCL?$AA@  0000000140168920     GestLicenceAtel.obj
 0002:00006924       ??_C@_03OGPNNKGK@POR?$AA@  0000000140168924     GestLicenceAtel.obj
 0002:00006928       ??_C@_0P@CPHDIDNK@LIC_USER_TOTAL?$AA@ 0000000140168928     GestLicenceAtel.obj
 0002:00006938       ??_C@_0BB@IIAGLKCB@LIC_USER_CONNECT?$AA@ 0000000140168938     GestLicenceAtel.obj
 0002:00006950       ??_C@_08CHKJDBIO@?$CFd?1?$CFm?1?$CFY?$AA@ 0000000140168950     GestLicenceAtel.obj
 0002:00006968       ??_7CGestLicenceAtel@@6B@  0000000140168968     GestLicenceAtel.obj
 0002:00006970       ??_C@_0BB@ICMKNFIB@traceGestLicence?$AA@ 0000000140168970     LicenceAtelLog.obj
 0002:00006988       ??_C@_07MAINPMFI@gestLic?$AA@ 0000000140168988     LicenceAtelLog.obj
 0002:00006990       ??_C@_0ED@HCMBDEEM@?5Connexion?5Console?5?8?$CFs?8?5DEBUT?5?$CIn@ 0000000140168990     LicenceAtelLog.obj
 0002:000069e0       ??_C@_0EB@HDFHPMEK@?5Connexion?5Console?5?8?$CFs?8?5FIN?5?$CInbU@ 00000001401689e0     LicenceAtelLog.obj
 0002:00006a30       ??_C@_0GD@NIHBPGEG@?5Connexion?5Console?5?8?$CFs?8?5Refus?ie?5@ 0000000140168a30     LicenceAtelLog.obj
 0002:00006aa0       ??_C@_0JO@OIMBGMHH@?5Connexion?5Console?5?8?$CFs?8?5OK?5?3?5Le?5@ 0000000140168aa0     LicenceAtelLog.obj
 0002:00006b40       ??_C@_0JJ@HHHJOKAG@?5Connexion?5Console?5?8?$CFs?8?5OK?5?3?5Le?5@ 0000000140168b40     LicenceAtelLog.obj
 0002:00006be0       ??_C@_0EF@MLNEOHON@?5Deconnexion?5Console?5?8?$CFs?8?5DEBUT?5@ 0000000140168be0     LicenceAtelLog.obj
 0002:00006c30       ??_C@_0ED@KIOJAJMN@?5Deconnexion?5Console?5?8?$CFs?8?5FIN?5?$CIn@ 0000000140168c30     LicenceAtelLog.obj
 0002:00006c80       ??_C@_0EH@NELFHIEP@?5Connexion?5Console?5?8?$CFs?8?5Refus?ie?5@ 0000000140168c80     LicenceAtelLog.obj
 0002:00006cd0       ??_C@_0KJ@CBOJOJHM@?5Deconnexion?5Console?5Atelier?5?8?$CFs@ 0000000140168cd0     LicenceAtelLog.obj
 0002:00006d80       ??_C@_0KD@KPJIHINM@?5Deconnexion?5Console?5Atelier?5?8?$CFs@ 0000000140168d80     LicenceAtelLog.obj
 0002:00006e30       ??_C@_0GD@FGOPKDJH@?5Connexion?5Terminal?5?8?$CFd?8?5DEBUT?5?$CI@ 0000000140168e30     LicenceAtelLog.obj
 0002:00006ea0       ??_C@_0GB@JFNLEIPP@?5Connexion?5Terminal?5?8?$CFd?8?5FIN?5?$CIso@ 0000000140168ea0     LicenceAtelLog.obj
 0002:00006f10       ??_C@_0GE@CBOCHIEJ@?5Connexion?5Terminal?5?8?$CFd?8?5Refus?ie@ 0000000140168f10     LicenceAtelLog.obj
 0002:00006f80       ??_C@_0JP@CFEEAAFE@?5Connexion?5Terminal?5?8?$CFd?8?5OK?5?3?5La@ 0000000140168f80     LicenceAtelLog.obj
 0002:00007020       ??_C@_0JH@LKLMHMFD@?5Connexion?5Terminal?5?8?$CFd?8?5OK?5?3?5Pa@ 0000000140169020     LicenceAtelLog.obj
 0002:000070c0       ??_C@_0GH@HBJJOMBP@?5Connexion?5Terminal?5?8?$CFd?8?5Refus?ie@ 00000001401690c0     LicenceAtelLog.obj
 0002:00007130       ??_C@_0GF@FGKMFCMO@?5Deconnexion?5Terminal?5?8?$CFd?8?5DEBUT@ 0000000140169130     LicenceAtelLog.obj
 0002:000071a0       ??_C@_0GD@NGLCCJH@?5Deconnexion?5Terminal?5?8?$CFd?8?5FIN?5?$CI@ 00000001401691a0     LicenceAtelLog.obj
 0002:00007210       ??_C@_0KK@FPCIFPPJ@?5Deconnexion?5Terminal?5?8?$CFd?8?5OK?5?3?5@ 0000000140169210     LicenceAtelLog.obj
 0002:000072c0       ??_C@_0JJ@KPDGDPIO@?5Deconnexion?5Terminal?5?8?$CFd?8?5OK?5?3?5@ 00000001401692c0     LicenceAtelLog.obj
 0002:00007360       ??_C@_0MN@JGPJHOAJ@?5Terminal?5?8?$CFd?8?3?5Suppression?5de?5l@ 0000000140169360     LicenceAtelLog.obj
 0002:00007430       ??_C@_0GK@OELMHDCM@?5Erreur?5D?iconnexion?5du?5terminal?5@ 0000000140169430     LicenceAtelLog.obj
 0002:000074a0       ??_C@_0JP@KFMOIIOO@?5Erreur?5D?iconnexion?5du?5terminal?5@ 00000001401694a0     LicenceAtelLog.obj
 0002:00007540       ??_C@_0EJ@OBKEPCJN@?5Deconnexion?5DriverScrut?5?8?$CFs?8?5DE@ 0000000140169540     LicenceAtelLog.obj
 0002:00007590       ??_C@_0EH@EMIOJMBO@?5Deconnexion?5DriverScrut?5?8?$CFs?8?5FI@ 0000000140169590     LicenceAtelLog.obj
 0002:000075d8       ??_C@_0DN@PMKLLFBM@?5Reconnexion?5du?5terminal?5?8?$CFd?8?5?$CIs@ 00000001401695d8     LicenceAtelLog.obj
 0002:00007618       ??_C@_0CC@JJJJMNCK@?5LicenceThread?5?9?5Debut?5?9?5url?3?8?$CFs@ 0000000140169618     LicenceAtelLog.obj
 0002:00007640       ??_C@_0DC@GMEOLNPA@?5LicenceThread?5?9?5Connexion?5Quart@ 0000000140169640     LicenceAtelLog.obj
 0002:00007678       ??_C@_0DJ@MKJJJJMG@?5LicenceThread?5?9?5Avant?5Analyse?5f@ 0000000140169678     LicenceAtelLog.obj
 0002:000076c0       ??_C@_0EE@KPKLACI@?5LicenceThread?5?9?5Analyse?5fichier@ 00000001401696c0     LicenceAtelLog.obj
 0002:00007710       ??_C@_0EH@MHKFEPIA@?5LicenceThread?5?9?5Ecrit?5NbUserAte@ 0000000140169710     LicenceAtelLog.obj
 0002:00007758       ??_C@_0BF@GMNHHHFE@?5LicenceThread?5?9?5Fin?$AA@ 0000000140169758     LicenceAtelLog.obj
 0002:00007778       ??_7CLicenceAtelLog@@6B@   0000000140169778     LicenceAtelLog.obj
 0002:00007780       ??_C@_02CJNFDJBF@PM?$AA@   0000000140169780     LicenceAtelThread.obj
 0002:00007784       ??_C@_02DEDBPAFC@AM?$AA@   0000000140169784     LicenceAtelThread.obj
 0002:00007788       ??_C@_0P@LKFKCDGK@?$CFA?0?5?$CFB?0?5?$CFe?0?5?$CFY?$AA@ 0000000140169788     LicenceAtelThread.obj
 0002:00007798       ??_C@_0BC@EPFPJGPI@?$CFa?5?$CFb?5?$CFe?5?$CFT?5?$CFZ?5?$CFY?$AA@ 0000000140169798     LicenceAtelThread.obj
 0002:000077b0       ??_C@_08OAHPJFNN@?$CFH?3?$CFM?3?$CFS?$AA@ 00000001401697b0     LicenceAtelThread.obj
 0002:000077c0       ??_C@_08KAHCGMHG@?$CFm?1?$CFd?1?$CFy?$AA@ 00000001401697c0     LicenceAtelThread.obj
 0002:000077cc       ??_C@_04IOPMHMMA@Sam?4?$AA@ 00000001401697cc     LicenceAtelThread.obj
 0002:000077d4       ??_C@_04MLDINKLO@Ven?4?$AA@ 00000001401697d4     LicenceAtelThread.obj
 0002:000077dc       ??_C@_04HOFLOMKM@Jeu?4?$AA@ 00000001401697dc     LicenceAtelThread.obj
 0002:000077e4       ??_C@_04MJDECGDJ@Mer?4?$AA@ 00000001401697e4     LicenceAtelThread.obj
 0002:000077ec       ??_C@_04EGFGLBGO@Mar?4?$AA@ 00000001401697ec     LicenceAtelThread.obj
 0002:000077f4       ??_C@_04LBHBACAC@Lun?4?$AA@ 00000001401697f4     LicenceAtelThread.obj
 0002:000077fc       ??_C@_04JJIIBPLN@Dim?4?$AA@ 00000001401697fc     LicenceAtelThread.obj
 0002:00007804       ??_C@_06CFLNAIIL@Samedi?$AA@ 0000000140169804     LicenceAtelThread.obj
 0002:00007810       ??_C@_08LMFCAAAK@Vendredi?$AA@ 0000000140169810     LicenceAtelThread.obj
 0002:0000781c       ??_C@_05BGCMGMNH@Jeudi?$AA@ 000000014016981c     LicenceAtelThread.obj
 0002:00007828       ??_C@_08CPLMBKKE@Mercredi?$AA@ 0000000140169828     LicenceAtelThread.obj
 0002:00007834       ??_C@_05GDHOMCBG@Mardi?$AA@ 0000000140169834     LicenceAtelThread.obj
 0002:0000783c       ??_C@_05CHINMING@Lundi?$AA@ 000000014016983c     LicenceAtelThread.obj
 0002:00007848       ??_C@_08CNDKGHKL@Dimanche?$AA@ 0000000140169848     LicenceAtelThread.obj
 0002:00007854       ??_C@_04HOEPIEIM@D?ic?4?$AA@ 0000000140169854     LicenceAtelThread.obj
 0002:0000785c       ??_C@_04OGCABEFB@Nov?4?$AA@ 000000014016985c     LicenceAtelThread.obj
 0002:00007864       ??_C@_04JCBCFGDH@Oct?4?$AA@ 0000000140169864     LicenceAtelThread.obj
 0002:0000786c       ??_C@_05KGDFLFAE@Sept?4?$AA@ 000000014016986c     LicenceAtelThread.obj
 0002:00007874       ??_C@_05NNCIJLAI@Juil?4?$AA@ 0000000140169874     LicenceAtelThread.obj
 0002:0000787c       ??_C@_04EOGIDDEJ@Avr?4?$AA@ 000000014016987c     LicenceAtelThread.obj
 0002:00007884       ??_C@_05KANOFINB@F?ivr?4?$AA@ 0000000140169884     LicenceAtelThread.obj
 0002:0000788c       ??_C@_05MECOLEFF@Janv?4?$AA@ 000000014016988c     LicenceAtelThread.obj
 0002:00007898       ??_C@_08FLACOACJ@D?icembre?$AA@ 0000000140169898     LicenceAtelThread.obj
 0002:000078a8       ??_C@_08GOJOFFID@Novembre?$AA@ 00000001401698a8     LicenceAtelThread.obj
 0002:000078b8       ??_C@_07IFDPBFLA@Octobre?$AA@ 00000001401698b8     LicenceAtelThread.obj
 0002:000078c0       ??_C@_09LJODKMA@Septembre?$AA@ 00000001401698c0     LicenceAtelThread.obj
 0002:000078cc       ??_C@_04MNMJLOIN@Ao?$PLt?$AA@ 00000001401698cc     LicenceAtelThread.obj
 0002:000078d8       ??_C@_07JLFGDIGD@Juillet?$AA@ 00000001401698d8     LicenceAtelThread.obj
 0002:000078e0       ??_C@_04MLAHKOCC@Juin?$AA@ 00000001401698e0     LicenceAtelThread.obj
 0002:000078e8       ??_C@_03EKOPNBPK@Mai?$AA@  00000001401698e8     LicenceAtelThread.obj
 0002:000078ec       ??_C@_05LDNDCOOJ@Avril?$AA@ 00000001401698ec     LicenceAtelThread.obj
 0002:000078f4       ??_C@_04EJEDJCHH@Mars?$AA@ 00000001401698f4     LicenceAtelThread.obj
 0002:00007900       ??_C@_07KIEFPPHN@F?ivrier?$AA@ 0000000140169900     LicenceAtelThread.obj
 0002:00007908       ??_C@_07FOBGGIJB@Janvier?$AA@ 0000000140169908     LicenceAtelThread.obj
 0002:00007910       ??_C@_0BC@NGJBMGIM@ReveilLicenceAtel?$AA@ 0000000140169910     LicenceAtelThread.obj
 0002:00007928       ??_C@_0BD@JDDMMMMO@licence_atel?4xhtml?$AA@ 0000000140169928     LicenceAtelThread.obj
 0002:00007940       ??_C@_09IPAEKDAI@localhost?$AA@ 0000000140169940     LicenceAtelThread.obj
 0002:00007950       ??_C@_0BO@DPMEIGCL@quartis?9licence?9web?1index?4jsp?$AA@ 0000000140169950     LicenceAtelThread.obj
 0002:00007970       ??_C@_0M@IGMHEDNF@maxuseratel?$AA@ 0000000140169970     LicenceAtelThread.obj
 0002:00007980       ??_C@_07IAOJGADF@datefin?$AA@ 0000000140169980     LicenceAtelThread.obj
 0002:00007988       ??_C@_0BA@NGJBFLID@http?3?1?1?$CFs?3?$CFd?1?$CFs?$AA@ 0000000140169988     LicenceAtelThread.obj
 0002:00007998       ??_C@_0P@PPMPJCDE@DATE?5ILLIMITEE?$AA@ 0000000140169998     LicenceAtelThread.obj
 0002:000079a8       ??_C@_06PJOBJGEK@?$CFd?$CFm?$CFY?$AA@ 00000001401699a8     LicenceAtelThread.obj
 0002:000079b0       ??_C@_03BFHAFKOB@wb?$CL?$AA@ 00000001401699b0     LicenceAtelThread.obj
 0002:000079b8       ??_C@_0BF@MLKEIDMH@GET?5?1?$CFs?5HTTP?11?40?$AN?6?$AN?6?$AA@ 00000001401699b8     LicenceAtelThread.obj
 0002:000079d0       ??_C@_0BP@EMDGDEJA@Erreur?5d?8envoie?5sur?5la?5socket?4?$AA@ 00000001401699d0     LicenceAtelThread.obj
 0002:000079f0       ??_C@_0DF@LHPIBKMC@Impossible?5de?5se?5connecter?5au?5se@ 00000001401699f0     LicenceAtelThread.obj
 0002:00007a30       ??_7CLicenceAtelThread@@6B@ 0000000140169a30     LicenceAtelThread.obj
 0002:00007a50       ??_C@_04HGGBINEM@?$CFs?$CFd?$AA@ 0000000140169a50     ListConsoleAtelConnect.obj
 0002:00007a60       ??_7CListConsoleAtelConnect@@6B@ 0000000140169a60     ListConsoleAtelConnect.obj
 0002:00007a70       ??_7CListDriverScrut@@6B@  0000000140169a70     ListDriverScrut.obj
 0002:00007a80       ??_7CListTermConnect@@6B@  0000000140169a80     ListTermConnect.obj
 0002:00007a90       ??_7CTermConnect@@6B@      0000000140169a90     TermConnect.obj
 0002:00007a98       ??_C@_0N@DOHINHCI@Advapi32?4dll?$AA@ 0000000140169a98     LicenceBase.obj
 0002:00007aa8       ??_C@_0BG@FGMNHMFJ@RegOpenKeyTransactedA?$AA@ 0000000140169aa8     LicenceBase.obj
 0002:00007ac0       ??_C@_0BF@OKFOFBAK@Cfg?1QuartisTools?4cfg?$AA@ 0000000140169ac0     LicenceBorneo.obj
 0002:00007ad8       ??_C@_0M@JEKPJLH@REP_BINAIRE?$AA@ 0000000140169ad8     LicenceBorneo.obj
 0002:00007ae8       ??_C@_09JAJIBMMM@PROCEDURE?$AA@ 0000000140169ae8     AnalyseLPX.obj
 0002:00007af4       ??_C@_04GOHEPOP@WITH?$AA@  0000000140169af4     AnalyseLPX.obj
 0002:00007afc       ??_C@_06BMGPECHM@MODULE?$AA@ 0000000140169afc     AnalyseLPX.obj
 0002:00007b04       ??_C@_03BMFMPDPG@lpx?$AA@  0000000140169b04     AnalyseLPX.obj
 0002:00007b08       ??_C@_03PKLGLAJ@lix?$AA@   0000000140169b08     AnalyseLPX.obj
 0002:00007b0c       ??_C@_03JIDPIAJI@err?$AA@  0000000140169b0c     AnalyseLPX.obj
 0002:00007b10       ??_C@_0L@HMGDCCF@PROCEDURE?5?$AA@ 0000000140169b10     AnalyseLPX.obj
 0002:00007b20       ??_C@_07MMCLHGPH@MODULE?5?$AA@ 0000000140169b20     AnalyseLPX.obj
 0002:00007b30       ??_7CAnalyseLPX@@6B@       0000000140169b30     AnalyseLPX.obj
 0002:00007b38       ??_C@_03GKEOMEPE@REQ?$AA@  0000000140169b38     ConfScenAttente.obj
 0002:00007b40       ??_C@_09ODPCLNNN@DUREE_REQ?$AA@ 0000000140169b40     ConfScenAttente.obj
 0002:00007b4c       ??_C@_06MKLEJNBJ@SAISIE?$AA@ 0000000140169b4c     ConfScenAttente.obj
 0002:00007b58       ??_C@_0N@MBACNNOH@DUREE_SAISIE?$AA@ 0000000140169b58     ConfScenAttente.obj
 0002:00007b68       ??_C@_05CFCCOLCP@SHELL?$AA@ 0000000140169b68     ConfScenAttente.obj
 0002:00007b70       ??_C@_0M@EILNDEOA@DUREE_SHELL?$AA@ 0000000140169b70     ConfScenAttente.obj
 0002:00007b80       ??_C@_0L@JFFPEDJP@DUREE_SCEN?$AA@ 0000000140169b80     ConfScenAttente.obj
 0002:00007b90       ??_C@_0L@BFBMJM@DUREE_ETAT?$AA@ 0000000140169b90     ConfScenAttente.obj
 0002:00007ba0       ??_C@_09COFFDAKI@LPX_?$CFd_?$CFd?$AA@ 0000000140169ba0     FicLPX.obj
 0002:00007bac       ??_C@_03JBMODCPM@cfg?$AA@  0000000140169bac     FicLPX.obj
 0002:00007bb0       ??_C@_08DOIHGLNI@VERSION?5?$AA@ 0000000140169bb0     FicLPX.obj
 0002:00007bbc       ??_C@_05NNFHCGPF@?$CFs?4?$CFs?$AA@ 0000000140169bbc     FicLPX.obj
 0002:00007bc4       ??_C@_06FJKEMHGD@global?$AA@ 0000000140169bc4     FicLPX.obj
 0002:00007bcc       ??_C@_05IDKHKMLA@local?$AA@ 0000000140169bcc     FicLPX.obj
 0002:00007bd8       ??_C@_0BA@HDDNIOD@AUCUNE?5ERREUR?4?6?$AA@ 0000000140169bd8     FicLPX.obj
 0002:00007be8       ??_C@_0BH@KIGPHCF@Module?5Inconnu?5?3?5?$CFs?5?$AN?6?$AA@ 0000000140169be8     FicLPX.obj
 0002:00007c00       ??_C@_0BO@NPAECKIB@Erreur?5dans?5le?5module?5?3?5?$CFs?5?$AN?6?$AA@ 0000000140169c00     FicLPX.obj
 0002:00007c20       ??_C@_0CI@JJGPMPBP@Erreur?5de?5re?9entrance?5du?5module?5@ 0000000140169c20     FicLPX.obj
 0002:00007c48       ??_C@_0DG@BIGDLBEA@?$CFd?5erreur?$CIs?$CJ?5dans?5la?5liste?5des?5m@ 0000000140169c48     FicLPX.obj
 0002:00007c80       ??_C@_0DH@JLACMINC@CLPX?4EXE?5?9l?5?$CC?$CFs?2lix?$CC?5?9l?5?$CC?$CFs?2lix?$CC@ 0000000140169c80     FicLPX.obj
 0002:00007cb8       ??_C@_06GMBFHCCJ@PROC?$CFd?$AA@ 0000000140169cb8     FicLPX.obj
 0002:00007cc8       ??_7CFicLPX@@6B@           0000000140169cc8     FicLPX.obj
 0002:00007d08       ??_7CDataFile@@6B@         0000000140169d08     DataFile.obj
 0002:00007d10       ??_C@_0N@ECCEALAP@traceFileLpx?$AA@ 0000000140169d10     FileLpxLog.obj
 0002:00007d20       ??_C@_04DAMGJPCA@file?$AA@ 0000000140169d20     FileLpxLog.obj
 0002:00007d28       ??_C@_0M@KHDOGFAI@Pas?5demande?$AA@ 0000000140169d28     FileLpxLog.obj
 0002:00007d34       ??_C@_06CDLLIBD@Copier?$AA@ 0000000140169d34     FileLpxLog.obj
 0002:00007d40       ??_C@_09PMMLOJHE@Supprimer?$AA@ 0000000140169d40     FileLpxLog.obj
 0002:00007d50       ??_C@_08EPAJBMCA@Deplacer?$AA@ 0000000140169d50     FileLpxLog.obj
 0002:00007d60       ??_C@_0BD@DEOFHDLO@Liste?5des?5fichiers?$AA@ 0000000140169d60     FileLpxLog.obj
 0002:00007d80       ??_C@_0GI@GGDCOFMF@?5Debut?5Traitement?5?9?5Dmd?$DN?$CFs?5?9?5Che@ 0000000140169d80     FileLpxLog.obj
 0002:00007df0       ??_C@_0HE@LONJOGED@?5Fin?5Traitement?5?9?5Dmd?$DN?$CFs?5?9?5res?$DN?$CF@ 0000000140169df0     FileLpxLog.obj
 0002:00007e68       ??_C@_0P@PBCHAMLG@Initialisation?$AA@ 0000000140169e68     FileLpxLog.obj
 0002:00007e78       ??_C@_02GIPFHKNO@OK?$AA@   0000000140169e78     FileLpxLog.obj
 0002:00007e7c       ??_C@_06PCJDNDME@Erreur?$AA@ 0000000140169e7c     FileLpxLog.obj
 0002:00007e88       ??_C@_0BA@KOJDIGNF@Timeout?5depasse?$AA@ 0000000140169e88     FileLpxLog.obj
 0002:00007e98       ??_C@_0P@JPKJEGJ@Liste?5tronquee?$AA@ 0000000140169e98     FileLpxLog.obj
 0002:00007ea8       ??_C@_0BC@IPPLCBLL@Scenario?5supprime?$AA@ 0000000140169ea8     FileLpxLog.obj
 0002:00007ec0       ??_C@_0L@NMJHOBNI@Non?5defini?$AA@ 0000000140169ec0     FileLpxLog.obj
 0002:00007ed0       ??_C@_0EM@JJKGCFNH@?5Envoie?5le?5resultat?5de?5la?5demand@ 0000000140169ed0     FileLpxLog.obj
 0002:00007f20       ??_C@_0FK@HIHBDNGC@?5Erreur?5dans?5l?8envoie?5du?5resulta@ 0000000140169f20     FileLpxLog.obj
 0002:00007f80       ??_C@_0EA@MPHANADM@?5Dmd?$DN?$CFs?5?9?5Erreur?5?9?5NumErreur?$DN?$CFd?5@ 0000000140169f80     FileLpxLog.obj
 0002:00007fc0       ??_C@_0BA@GDCDMDBK@?$CIAcc?hs?5refus?i?$CJ?5?$AA@ 0000000140169fc0     FileLpxLog.obj
 0002:00007fd0       ??_C@_0BH@HJBJGNMI@?$CIFichier?5introuvable?$CJ?5?$AA@ 0000000140169fd0     FileLpxLog.obj
 0002:00007fe8       ??_C@_0BG@KELNAOMD@?$CIChemin?5introuvable?$CJ?5?$AA@ 0000000140169fe8     FileLpxLog.obj
 0002:00008000       ??_C@_0BN@GFFDOHMI@?$CIChemin?5r?iseau?5introuvable?$CJ?5?$AA@ 000000014016a000     FileLpxLog.obj
 0002:00008020       ??_C@_0BK@BFNPMHFD@?$CINom?5r?iseau?5introuvable?$CJ?5?$AA@ 000000014016a020     FileLpxLog.obj
 0002:00008040       ??_C@_0BF@KKAGAIE@?$CIViolation?5Partage?$CJ?5?$AA@ 000000014016a040     FileLpxLog.obj
 0002:00008060       ??_C@_0EI@GJKGBOHB@?5Dmd?$DN?$CFs?5?9?5Debut?5appel?5m?ithode?5Wi@ 000000014016a060     FileLpxLog.obj
 0002:000080a8       ??_C@_0DH@FEDMFCC@?5Dmd?$DN?$CFs?5?9?5Debut?5appel?5m?ithode?5Wi@ 000000014016a0a8     FileLpxLog.obj
 0002:000080e0       ??_C@_0EG@MHENBGNE@?5Dmd?$DN?$CFs?5?9?5Fin?5appel?5m?ithode?5Wind@ 000000014016a0e0     FileLpxLog.obj
 0002:00008128       ??_C@_0DF@EBNKFOBB@?5Dmd?$DN?$CFs?5?9?5Fin?5appel?5m?ithode?5Wind@ 000000014016a128     FileLpxLog.obj
 0002:00008168       ??_7CFileLpxLog@@6B@       000000014016a168     FileLpxLog.obj
 0002:00008170       ??_C@_0DM@OCHFNEN@Erreur?5de?5cr?iation?5du?5thread?5dan@ 000000014016a170     GestFileLPX.obj
 0002:000081b0       ??_C@_0P@EABHCDAB@ReveilThrdFile?$AA@ 000000014016a1b0     GestFileLPX.obj
 0002:000081c0       ??_C@_0EB@NPPDNHFB@Erreur?5de?5cr?iation?5de?5l?8?iv?inemen@ 000000014016a1c0     GestFileLPX.obj
 0002:00008208       ??_C@_0BC@PMCEMADP@FILE?5?$CFd?5?$CFd?5?$FL?$CFs?$FN?$AN?6?$AA@ 000000014016a208     GestFileLPX.obj
 0002:0000821c       ??_C@_05GOJDKKEO@?$CFd?$HM?$CFs?$AA@ 000000014016a21c     GestFileLPX.obj
 0002:00008224       ??_C@_04HDOCAJNK@?$CFs?$CFs?$AA@ 000000014016a224     GestFileLPX.obj
 0002:0000822c       ??_C@_03IFADCKOJ@?$CFd?$HM?$AA@ 000000014016a22c     GestFileLPX.obj
 0002:00008238       ??_7CGestFileLPX@@6B@      000000014016a238     GestFileLPX.obj
 0002:00008248       ??_7CListeDataFile@@6B@    000000014016a248     ListeDataFile.obj
 0002:00008250       ??_C@_0O@FKPOOKIE@CResultatFile?$AA@ 000000014016a250     ResultatFile.obj
 0002:00008268       ??_7CResultatFile@@6B@     000000014016a268     ResultatFile.obj
 0002:00008278       ??_C@_0BG@GNNFBNHB@ReveilThreadFileTimer?$AA@ 000000014016a278     ThreadTimer.obj
 0002:00008298       ??_7CThreadTimer@@6B@      000000014016a298     ThreadTimer.obj
 0002:000082b8       ??_C@_0BD@HPOKEGJK@?$DMmodif?5type?$DN?$CCLPX?$CC?$DO?$AA@ 000000014016a2b8     GroupeFicLPX.obj
 0002:000082d0       ??_C@_0BC@KOMCGIB@?$DMsupp?5type?$DN?$CCLPX?$CC?$DO?$AA@ 000000014016a2d0     GroupeFicLPX.obj
 0002:000082f8       ??_7CGroupeFicLPX@@6B@     000000014016a2f8     GroupeFicLPX.obj
 0002:00008390       ??_C@_0BC@NANAFBP@ReveilGestInstLix?$AA@ 000000014016a390     GestInstLix.obj
 0002:000083b0       ??_7CGestInstLix@@6B@      000000014016a3b0     GestInstLix.obj
 0002:000083d0       ??_C@_09PGIMFNJB@log_tools?$AA@ 000000014016a3d0     TraceLastInstLix.obj
 0002:000083e0       ??_C@_0O@LAAKGJGH@traceLastInst?$AA@ 000000014016a3e0     TraceLastInstLix.obj
 0002:000083f0       ??_C@_04GLOCPHBF@inst?$AA@ 000000014016a3f0     TraceLastInstLix.obj
 0002:000083f8       ??_C@_0CH@LLMNMP@?$CFs_?$CF2?42d?$CF2?42d?$CF2?42d_?$CF2?42d?$CF2?42d?$CF2?4@ 000000014016a3f8     TraceLastInstLix.obj
 0002:00008420       ??_C@_09HFLGCFA@?$CFs?4?$CF3?43hu?$AA@ 000000014016a420     TraceLastInstLix.obj
 0002:00008430       ??_C@_0FD@DDECDLNP@?$CFs?5?9?5Blocage?5du?5moteur?5LPX?5?9?5Ins@ 000000014016a430     TraceLastInstLix.obj
 0002:00008490       ??_7CTraceLastInstLix@@6B@ 000000014016a490     TraceLastInstLix.obj
 0002:00008498       ??_C@_0L@JIJPNCLF@lpx_?$CK_?$CK?4?$CFs?$AA@ 000000014016a498     ListeFicLPXLocal.obj
 0002:000084a8       ??_C@_0P@GEIJDGAN@lpx_?$CF?$CFd_?$CF?$CFd?4?$CFs?$AA@ 000000014016a4a8     ListeFicLPXLocal.obj
 0002:000084b8       ??_C@_0BG@PJDLAKGC@?$DMsupp?5type?$DN?$CCGRP_LPX?$CC?$DO?$AA@ 000000014016a4b8     ListeGroupeFicLPX.obj
 0002:000084d0       ??_C@_06MDENMGNJ@?$CFs?4LPX?$AA@ 000000014016a4d0     ListeGroupeFicLPX.obj
 0002:000084d8       ??_C@_06KBJHNCMA@COMPIL?$AA@ 000000014016a4d8     ListeGroupeFicLPX.obj
 0002:000084e0       ??_C@_09EDCCJMCA@EXEC?0?5ERR?$AA@ 000000014016a4e0     ListeGroupeFicLPX.obj
 0002:000084ec       ??_C@_05GJAHCMMG@GRAPH?$AA@ 000000014016a4ec     ListeGroupeFicLPX.obj
 0002:000084f8       ??_C@_09KFNBBFG@GET?0GRAPH?$AA@ 000000014016a4f8     ListeGroupeFicLPX.obj
 0002:00008504       ??_C@_03NGANFLJH@STP?$AA@  000000014016a504     ListeGroupeFicLPX.obj
 0002:00008508       ??_C@_0L@DEBJLPPA@SET?5ou?5STP?$AA@ 000000014016a508     ListeGroupeFicLPX.obj
 0002:00008514       ??_C@_03MFLGAMFN@PRG?$AA@  000000014016a514     ListeGroupeFicLPX.obj
 0002:00008518       ??_C@_0L@DNBPGBIP@LPX?5ou?5PRG?$AA@ 000000014016a518     ListeGroupeFicLPX.obj
 0002:00008524       ??_C@_04PMPMHNFI@FILE?$AA@ 000000014016a524     ListeGroupeFicLPX.obj
 0002:00008530       ??_C@_08EHKAPGOJ@LST_UTIL?$AA@ 000000014016a530     ListeGroupeFicLPX.obj
 0002:00008548       ??_7CListeGroupeFicLPX@@6B@ 000000014016a548     ListeGroupeFicLPX.obj
 0002:000085d0       ??_C@_05EKBAGPPP@?$CK?4LIX?$AA@ 000000014016a5d0     ListeModuleSXAO.obj
 0002:000085e0       ??_7CListeModuleSXAO@@6B@  000000014016a5e0     ListeModuleSXAO.obj
 0002:000085f0       ??_7CListIdLPX@@6B@        000000014016a5f0     ListIdLPX.obj
 0002:00008600       ??_7CListScenGraphique@@6B@ 000000014016a600     ListScenGraphique.obj
 0002:00008608       ??_C@_0O@PBNOGMNG@CAttenteTempo?$AA@ 000000014016a608     AttenteTempo.obj
 0002:00008620       ??_7CAttenteTempo@@6B@     000000014016a620     AttenteTempo.obj
 0002:00008630       ??_C@_0L@OLCCJIKP@CVerrouLPX?$AA@ 000000014016a630     CanalBD.obj
 0002:00008648       ??_7CCanalBD@@6B@          000000014016a648     CanalBD.obj
 0002:00008658       ??_C@_0P@IIHKKLFO@MESS?5?$FL?$CF4?44d?$CFs?$FN?$AA@ 000000014016a658     FoncExtLPX.obj
 0002:00008668       ??_C@_01JOAMLHOP@?9?$AA@   000000014016a668     FoncExtLPX.obj
 0002:00008670       ??_C@_0EA@FEBBGENH@?$DMform?5action?$DN?$CC?$CFs?$CC?5enctype?$DN?$CCmulti@ 000000014016a670     FoncExtLPX.obj
 0002:000086b0       ??_C@_08HOCFNAFM@?$DM?1form?$DO?6?$AA@ 000000014016a6b0     FoncExtLPX.obj
 0002:000086c0       ??_C@_0CO@CMJCDKDG@?$DMinput?5name?$DN?$CFs?5type?$DNtext?5size?$DN?$CFd@ 000000014016a6c0     FoncExtLPX.obj
 0002:000086f0       ??_C@_0CD@GADLBFML@?$DMinput?5name?$DN?$CFs?5type?$DNtext?5size?$DN?$CFd@ 000000014016a6f0     FoncExtLPX.obj
 0002:00008718       ??_C@_0CG@GDHHICIM@?$DMinput?5name?$DN?$CFs?5type?$DNtext?5value?$DN?$CC@ 000000014016a718     FoncExtLPX.obj
 0002:00008740       ??_C@_0BL@JBBLDFPI@?$DMinput?5name?$DN?$CFs?5type?$DNtext?$DO?6?$AA@ 000000014016a740     FoncExtLPX.obj
 0002:00008760       ??_C@_0DC@HAAEJLPP@?$DMinput?5name?$DN?$CFs?5type?$DNpassword?5siz@ 000000014016a760     FoncExtLPX.obj
 0002:00008798       ??_C@_0CH@KIADOKFJ@?$DMinput?5name?$DN?$CFs?5type?$DNpassword?5siz@ 000000014016a798     FoncExtLPX.obj
 0002:000087c0       ??_C@_0CK@CGMGKLDG@?$DMinput?5name?$DN?$CFs?5type?$DNpassword?5val@ 000000014016a7c0     FoncExtLPX.obj
 0002:000087f0       ??_C@_0BP@BEAIGIOP@?$DMinput?5name?$DN?$CFs?5type?$DNpassword?$DO?6?$AA@ 000000014016a7f0     FoncExtLPX.obj
 0002:00008810       ??_C@_0BC@CKMEGKMM@?$DMtextarea?5name?$DN?$CFs?$AA@ 000000014016a810     FoncExtLPX.obj
 0002:00008828       ??_C@_08JNIPGOKB@?5rows?$DN?$CFd?$AA@ 000000014016a828     FoncExtLPX.obj
 0002:00008838       ??_C@_08EEIPKNEM@?5cols?$DN?$CFd?$AA@ 000000014016a838     FoncExtLPX.obj
 0002:00008848       ??_C@_0BA@GPNJLCAG@?$DO?$CFs?$DM?1textarea?$DO?6?$AA@ 000000014016a848     FoncExtLPX.obj
 0002:00008858       ??_C@_0DC@IMKDHKAB@?$DMinput?5name?$DN?$CFs?5type?$DNcheckbox?5val@ 000000014016a858     FoncExtLPX.obj
 0002:00008890       ??_C@_0CK@EFAGFHEC@?$DMinput?5name?$DN?$CFs?5type?$DNcheckbox?5val@ 000000014016a890     FoncExtLPX.obj
 0002:000088bc       ??_C@_02BFICIOJL@ON?$AA@   000000014016a8bc     FoncExtLPX.obj
 0002:000088c0       ??_C@_0CP@OKDFCJNF@?$DMinput?5name?$DN?$CFs?5type?$DNradio?5value?$DN@ 000000014016a8c0     FoncExtLPX.obj
 0002:000088f0       ??_C@_0CH@EOBJLFGB@?$DMinput?5name?$DN?$CFs?5type?$DNradio?5value?$DN@ 000000014016a8f0     FoncExtLPX.obj
 0002:00008918       ??_C@_0CD@NODOOJIM@?$DMselect?5name?$DN?$CFs?5size?$DN?$CFd?5multiple@ 000000014016a918     FoncExtLPX.obj
 0002:00008940       ??_C@_0BK@BJOOEGGK@?$DMselect?5name?$DN?$CFs?5size?$DN?$CFd?$DO?6?$AA@ 000000014016a940     FoncExtLPX.obj
 0002:00008960       ??_C@_0BL@HNIPNAKB@?$DMselect?5name?$DN?$CFs?5multiple?$DO?6?$AA@ 000000014016a960     FoncExtLPX.obj
 0002:00008980       ??_C@_0BC@JEJBAKBA@?$DMselect?5name?$DN?$CFs?$DO?6?$AA@ 000000014016a980     FoncExtLPX.obj
 0002:00008998       ??_C@_0L@KDIBDMGE@?$DM?1select?$DO?6?$AA@ 000000014016a998     FoncExtLPX.obj
 0002:000089a8       ??_C@_0CA@NKFCMBPN@?$DMoption?5value?$DN?$CC?$CFs?$CC?5selected?$DO?$CFs?6?$AA@ 000000014016a9a8     FoncExtLPX.obj
 0002:000089c8       ??_C@_0BH@DGILGGEA@?$DMoption?5value?$DN?$CC?$CFs?$CC?$DO?$CFs?6?$AA@ 000000014016a9c8     FoncExtLPX.obj
 0002:000089e0       ??_C@_0BF@IDONNFBN@?$DMoption?5selected?$DO?$CFs?6?$AA@ 000000014016a9e0     FoncExtLPX.obj
 0002:000089f8       ??_C@_0M@KICCLJHE@?$DMoption?$DO?$CFs?6?$AA@ 000000014016a9f8     FoncExtLPX.obj
 0002:00008a08       ??_C@_0CK@KKOGFPGF@?$DMinput?5name?$DN?$CC?$CFs?$CC?5type?$DNsubmit?5val@ 000000014016aa08     FoncExtLPX.obj
 0002:00008a38       ??_C@_0CP@GLHIANGE@?$DMinput?5name?$DN?$CFs?5type?$DNfile?5accept?$DN@ 000000014016aa38     FoncExtLPX.obj
 0002:00008a68       ??_C@_0CH@MDFJDHBB@?$DMinput?5name?$DN?$CFs?5type?$DNfile?5accept?$DN@ 000000014016aa68     FoncExtLPX.obj
 0002:00008a90       ??_C@_0CD@EFCJMHOH@?$DMinput?5name?$DN?$CFs?5type?$DNfile?5size?$DN?$CFd@ 000000014016aa90     FoncExtLPX.obj
 0002:00008ab8       ??_C@_0BL@GLFNHJNM@?$DMinput?5name?$DN?$CFs?5type?$DNfile?$DO?6?$AA@ 000000014016aab8     FoncExtLPX.obj
 0002:00008ad8       ??_C@_0BE@EJODEKE@?$DMstrong?$DO?$CFs?$DM?1strong?$DO?$AA@ 000000014016aad8     FoncExtLPX.obj
 0002:00008af0       ??_C@_0M@CHGNHBFH@?$DMem?$DO?$CFs?$DM?1em?$DO?$AA@ 000000014016aaf0     FoncExtLPX.obj
 0002:00008b00       ??_C@_09NLIFAAJH@?$DMu?$DO?$CFs?$DM?1u?$DO?$AA@ 000000014016ab00     FoncExtLPX.obj
 0002:00008b10       ??_C@_0BN@MPGINIC@?$DMdiv?5align?$DN?$CCcenter?$CC?$DO?$CFs?$DM?1div?$DO?$AA@ 000000014016ab10     FoncExtLPX.obj
 0002:00008b30       ??_C@_0BM@KGHJJPLG@?$DMdiv?5align?$DN?$CCright?$CC?$DO?$CFs?$DM?1div?$DO?$AA@ 000000014016ab30     FoncExtLPX.obj
 0002:00008b50       ??_C@_0M@GIPMGIHL@?$DMtt?$DO?$CFs?$DM?1tt?$DO?$AA@ 000000014016ab50     FoncExtLPX.obj
 0002:00008b5c       ??_C@_05EBKIKGOK@?$DMfont?$AA@ 000000014016ab5c     FoncExtLPX.obj
 0002:00008b68       ??_C@_0P@IILLCJDG@?5color?$DN?$CDFFFFFF?$AA@ 000000014016ab68     FoncExtLPX.obj
 0002:00008b78       ??_C@_0P@MLKHACEG@?5color?$DN?$CD000000?$AA@ 000000014016ab78     FoncExtLPX.obj
 0002:00008b88       ??_C@_0P@PIEIEMCB@?5color?$DN?$CD800000?$AA@ 000000014016ab88     FoncExtLPX.obj
 0002:00008b98       ??_C@_0P@JJGEAJIL@?5color?$DN?$CDFF0000?$AA@ 000000014016ab98     FoncExtLPX.obj
 0002:00008ba8       ??_C@_0P@KJBEECEK@?5color?$DN?$CDFF8000?$AA@ 000000014016aba8     FoncExtLPX.obj
 0002:00008bb8       ??_C@_0P@KBKCODKE@?5color?$DN?$CDFFFF00?$AA@ 000000014016abb8     FoncExtLPX.obj
 0002:00008bc8       ??_C@_0P@PDGBOIGJ@?5color?$DN?$CD00FF00?$AA@ 000000014016abc8     FoncExtLPX.obj
 0002:00008bd8       ??_C@_0P@OCLOMINE@?5color?$DN?$CD0000FF?$AA@ 000000014016abd8     FoncExtLPX.obj
 0002:00008be8       ??_C@_0P@PGFLBNJJ@?5color?$DN?$CD800080?$AA@ 000000014016abe8     FoncExtLPX.obj
 0002:00008bf8       ??_C@_0P@MGCLFGFI@?5color?$DN?$CD808080?$AA@ 000000014016abf8     FoncExtLPX.obj
 0002:00008c08       ??_C@_0P@NKHICCPL@?5color?$DN?$CD00FFFF?$AA@ 000000014016ac08     FoncExtLPX.obj
 0002:00008c18       ??_C@_0P@MFLEFDPO@?5color?$DN?$CD000080?$AA@ 000000014016ac18     FoncExtLPX.obj
 0002:00008c28       ??_C@_0P@LAHNMDBJ@?5color?$DN?$CDFF00FF?$AA@ 000000014016ac28     FoncExtLPX.obj
 0002:00008c38       ??_C@_09JEBCBDFA@?5size?$DN?$CC1?$CC?$AA@ 000000014016ac38     FoncExtLPX.obj
 0002:00008c48       ??_C@_09JGFEKNAJ@?5size?$DN?$CC2?$CC?$AA@ 000000014016ac48     FoncExtLPX.obj
 0002:00008c58       ??_C@_09JHJGMHDO@?5size?$DN?$CC3?$CC?$AA@ 000000014016ac58     FoncExtLPX.obj
 0002:00008c68       ??_C@_09JCNJNBLL@?5size?$DN?$CC4?$CC?$AA@ 000000014016ac68     FoncExtLPX.obj
 0002:00008c78       ??_C@_09JDBLLLIM@?5size?$DN?$CC5?$CC?$AA@ 000000014016ac78     FoncExtLPX.obj
 0002:00008c88       ??_C@_09JBFNAFNF@?5size?$DN?$CC6?$CC?$AA@ 000000014016ac88     FoncExtLPX.obj
 0002:00008c98       ??_C@_09JAJPGPOC@?5size?$DN?$CC7?$CC?$AA@ 000000014016ac98     FoncExtLPX.obj
 0002:00008ca8       ??_C@_0M@OELOMOFD@?$CFs?$CFs?$DM?1font?$DO?$AA@ 000000014016aca8     FoncExtLPX.obj
 0002:00008cb8       ??_C@_0P@CNDOICJD@?$DMH?$CFd?$DO?$CFs?$DM?1H?$CFd?$DO?6?$AA@ 000000014016acb8     FoncExtLPX.obj
 0002:00008cc8       ??_C@_0N@EDHHIPPG@?$DMH1?$DO?$CFs?$DM?1H1?$DO?6?$AA@ 000000014016acc8     FoncExtLPX.obj
 0002:00008cd8       ??_C@_04ECBLHCNH@?$DMP?$DO?6?$AA@ 000000014016acd8     FoncExtLPX.obj
 0002:00008ce0       ??_C@_05GBADAOON@?$DM?1P?$DO?6?$AA@ 000000014016ace0     FoncExtLPX.obj
 0002:00008ce8       ??_C@_0BH@BIHONLAD@?$DMcomment?$DO?$CFs?$DM?1comment?$DO?6?$AA@ 000000014016ace8     FoncExtLPX.obj
 0002:00008d00       ??_C@_0P@IAELFECJ@?$DMpre?$DO?$CFs?$DM?1pre?$DO?6?$AA@ 000000014016ad00     FoncExtLPX.obj
 0002:00008d10       ??_C@_05KKKIHFJK@?$DMBR?$DO?6?$AA@ 000000014016ad10     FoncExtLPX.obj
 0002:00008d18       ??_C@_0BF@ICJMIHKB@?$DMA?5HREF?$DN?$CC?$CFs?$CC?$DO?$CFs?$DM?1A?$DO?6?$AA@ 000000014016ad18     FoncExtLPX.obj
 0002:00008d30       ??_C@_0BG@BAFMMDCC@?$DMA?5HREF?$DN?$CC?$CD?$CFs?$CC?$DO?$CFs?$DM?1A?$DO?6?$AA@ 000000014016ad30     FoncExtLPX.obj
 0002:00008d48       ??_C@_0BD@BACBHHFD@?$DMA?5NAME?$DN?$CC?$CFs?$CC?$DO?$DM?1A?$DO?6?$AA@ 000000014016ad48     FoncExtLPX.obj
 0002:00008d60       ??_C@_0BM@HFFONMLI@?$DMIMG?5SRC?$DN?$CC?$CFs?$CC?5?5align?$DNtop?5?$DO?6?$AA@ 000000014016ad60     FoncExtLPX.obj
 0002:00008d80       ??_C@_0BP@ILJLJEON@?$DMIMG?5SRC?$DN?$CC?$CFs?$CC?5?5align?$DNbottom?5?$DO?6?$AA@ 000000014016ad80     FoncExtLPX.obj
 0002:00008da0       ??_C@_0BP@KEALCCGA@?$DMIMG?5SRC?$DN?$CC?$CFs?$CC?5?5align?$DNmiddle?5?$DO?6?$AA@ 000000014016ada0     FoncExtLPX.obj
 0002:00008dc0       ??_C@_0BA@BNABHAIG@?$DMIMG?5SRC?$DN?$CC?$CFs?$CC?$DO?6?$AA@ 000000014016adc0     FoncExtLPX.obj
 0002:00008dd0       ??_C@_0CL@PBBKNOIP@?$DMA?5HREF?$DN?$CC?$CFs?$CC?$DO?$DMIMG?5SRC?$DN?$CC?$CFs?$CC?5align@ 000000014016add0     FoncExtLPX.obj
 0002:00008e00       ??_C@_0CO@KMAPNGJN@?$DMA?5HREF?$DN?$CC?$CFs?$CC?$DO?$DMIMG?5SRC?$DN?$CC?$CFs?$CC?5align@ 000000014016ae00     FoncExtLPX.obj
 0002:00008e30       ??_C@_0CO@HHCMEBL@?$DMA?5HREF?$DN?$CC?$CFs?$CC?$DO?$DMIMG?5SRC?$DN?$CC?$CFs?$CC?5align@ 000000014016ae30     FoncExtLPX.obj
 0002:00008e60       ??_C@_0CB@EAGPFMGH@?$DMA?5HREF?$DN?$CC?$CFs?$CC?$DO?$DMIMG?5SRC?$DN?$CC?$CFs?$CC?$DO?$DM?1A?$DO?6@ 000000014016ae60     FoncExtLPX.obj
 0002:00008e88       ??_C@_0CM@MCHJHONL@?$DMA?5HREF?$DN?$CC?$CD?$CFs?$CC?$DO?$DMIMG?5SRC?$DN?$CC?$CFs?$CC?5alig@ 000000014016ae88     FoncExtLPX.obj
 0002:00008eb8       ??_C@_0CP@LNAGNMMJ@?$DMA?5HREF?$DN?$CC?$CD?$CFs?$CC?$DO?$DMIMG?5SRC?$DN?$CC?$CFs?$CC?5alig@ 000000014016aeb8     FoncExtLPX.obj
 0002:00008ee8       ??_C@_0CP@BGHLMOEP@?$DMA?5HREF?$DN?$CC?$CD?$CFs?$CC?$DO?$DMIMG?5SRC?$DN?$CC?$CFs?$CC?5alig@ 000000014016aee8     FoncExtLPX.obj
 0002:00008f18       ??_C@_0CC@KNHLOPAD@?$DMA?5HREF?$DN?$CC?$CD?$CFs?$CC?$DO?$DMIMG?5SRC?$DN?$CC?$CFs?$CC?$DO?$DM?1A?$DO@ 000000014016af18     FoncExtLPX.obj
 0002:00008f40       ??_C@_0CK@KAGIMJCI@?$DMIMG?5src?$DN?$CC?$CFs?$CC?5dynsrc?$DN?$CC?$CFs?$CC?5start?$DN@ 000000014016af40     FoncExtLPX.obj
 0002:00008f70       ??_C@_0L@PEIFMFPM@?5align?$DNtop?$AA@ 000000014016af70     FoncExtLPX.obj
 0002:00008f80       ??_C@_0O@BBIKHPOM@?5align?$DNbottom?$AA@ 000000014016af80     FoncExtLPX.obj
 0002:00008f90       ??_C@_0O@MLPNBIFE@?5align?$DNmiddle?$AA@ 000000014016af90     FoncExtLPX.obj
 0002:00008fa0       ??_C@_09NBLPKPML@?5controls?$AA@ 000000014016afa0     FoncExtLPX.obj
 0002:00008fac       ??_C@_02NEKEAGPN@?$DO?6?$AA@ 000000014016afac     FoncExtLPX.obj
 0002:00008fb0       ??_C@_07KIAGFPOI@?$CDFFFFFF?$AA@ 000000014016afb0     FoncExtLPX.obj
 0002:00008fb8       ??_C@_07OLBKHEJI@?$CD000000?$AA@ 000000014016afb8     FoncExtLPX.obj
 0002:00008fc0       ??_C@_07NIPFDKPP@?$CD800000?$AA@ 000000014016afc0     FoncExtLPX.obj
 0002:00008fc8       ??_C@_07LJNJHPFF@?$CDFF0000?$AA@ 000000014016afc8     FoncExtLPX.obj
 0002:00008fd0       ??_C@_07IJKJDEJE@?$CDFF8000?$AA@ 000000014016afd0     FoncExtLPX.obj
 0002:00008fd8       ??_C@_07IBBPJFHK@?$CDFFFF00?$AA@ 000000014016afd8     FoncExtLPX.obj
 0002:00008fe0       ??_C@_07NDNMJOLH@?$CD00FF00?$AA@ 000000014016afe0     FoncExtLPX.obj
 0002:00008fe8       ??_C@_07MCADLOAK@?$CD0000FF?$AA@ 000000014016afe8     FoncExtLPX.obj
 0002:00008ff0       ??_C@_07NGOGGLEH@?$CD800080?$AA@ 000000014016aff0     FoncExtLPX.obj
 0002:00008ff8       ??_C@_07OGJGCAIG@?$CD808080?$AA@ 000000014016aff8     FoncExtLPX.obj
 0002:00009000       ??_C@_07PKMFFECF@?$CD00FFFF?$AA@ 000000014016b000     FoncExtLPX.obj
 0002:00009008       ??_C@_07OFAJCFCA@?$CD000080?$AA@ 000000014016b008     FoncExtLPX.obj
 0002:00009010       ??_C@_07JAMALFMH@?$CDFF00FF?$AA@ 000000014016b010     FoncExtLPX.obj
 0002:00009018       ??_C@_07ELAFPFOM@?$DMTABLE?5?$AA@ 000000014016b018     FoncExtLPX.obj
 0002:00009020       ??_C@_0L@DDNNICHF@?5border?$DN?$CFd?$AA@ 000000014016b020     FoncExtLPX.obj
 0002:00009030       ??_C@_0BA@HEBPFIJI@?5bordercolor?$DN?$CFs?$AA@ 000000014016b030     FoncExtLPX.obj
 0002:00009040       ??_C@_0M@MFMOHLBN@?5bgcolor?$DN?$CFs?$AA@ 000000014016b040     FoncExtLPX.obj
 0002:0000904c       ??_C@_05EFAIBHLI@?$DMTR?$DO?6?$AA@ 000000014016b04c     FoncExtLPX.obj
 0002:00009054       ??_C@_06IDCHNGHG@?$DM?1TR?$DO?6?$AA@ 000000014016b054     FoncExtLPX.obj
 0002:0000905c       ??_C@_04PLHEMECO@?$DMTD?5?$AA@ 000000014016b05c     FoncExtLPX.obj
 0002:00009064       ??_C@_01PPODPGHN@?$DO?$AA@ 000000014016b064     FoncExtLPX.obj
 0002:00009068       ??_C@_06PGFFNODF@?$DM?1TD?$DO?6?$AA@ 000000014016b068     FoncExtLPX.obj
 0002:00009070       ??_C@_0BK@PAMDCCAD@?$DMA?5HREF?$DN?$CC?$CFs?$CC?$DO?$CFs?$DM?1A?$DO?$DM?1TD?$DO?6?$AA@ 000000014016b070     FoncExtLPX.obj
 0002:00009090       ??_C@_0DA@HMKCBAAK@?6?$DMhtml?$DO?6?$DMhead?$DO?6?$DMtitle?$DO?$CFs?$DM?1title?$DO@ 000000014016b090     FoncExtLPX.obj
 0002:000090c0       ??_C@_0BB@PLNJAPMH@?5background?$DN?$CC?$CFs?$CC?$AA@ 000000014016b0c0     FoncExtLPX.obj
 0002:000090d8       ??_C@_0BB@ENHCDPFA@?6?$DM?1body?$DO?6?$DM?1html?$DO?$AA@ 000000014016b0d8     FoncExtLPX.obj
 0002:000090f0       ??_C@_09KHKBKNIM@?$DM?1TABLE?$DO?6?$AA@ 000000014016b0f0     FoncExtLPX.obj
 0002:000090fc       ??_C@_05DAHKBPPL@?$DMTD?$DO?6?$AA@ 000000014016b0fc     FoncExtLPX.obj
 0002:00009108       ??_C@_0CI@IKFLMACF@?$DMinput?5name?$DN?$CFs?5type?$DNhidden?5value@ 000000014016b108     FoncExtLPX.obj
 0002:00009130       ??_C@_0BN@BLLINABI@?$DMinput?5name?$DN?$CFs?5type?$DNhidden?$DO?6?$AA@ 000000014016b130     FoncExtLPX.obj
 0002:00009150       ??_C@_0CO@BLJBGKBO@?5DEBUT?5?9?5cmd?$DN?8?$CFs?8?5?9?5nomPrg?$DN?8?$CFs?8?5@ 000000014016b150     FoncExtLPX.obj
 0002:00009180       ??_C@_0EH@OFBBLBNK@?5FIN?5?9?5Erreur?5?9?5g_configuration?$DN@ 000000014016b180     FoncExtLPX.obj
 0002:000091c8       ??_C@_05OOLEAMGB@shell?$AA@ 000000014016b1c8     FoncExtLPX.obj
 0002:000091d0       ??_C@_0GH@IPMNPNLA@?5FIN?5?9?5Erreur?5?9?5Impossible?5de?5se@ 000000014016b1d0     FoncExtLPX.obj
 0002:00009238       ??_C@_0BA@BKOOFFGL@Command?4com?5?1C?5?$AA@ 000000014016b238     FoncExtLPX.obj
 0002:00009248       ??_C@_0M@LNFFDLJ@Cmd?4exe?5?1C?5?$AA@ 000000014016b248     FoncExtLPX.obj
 0002:00009258       ??_C@_0DF@DHMGJFLK@?5FIN?5?9?5cmd?$DN?8?$CFs?8?5?9?5nomPrg?$DN?8?$CFs?8?5?9?5@ 000000014016b258     FoncExtLPX.obj
 0002:00009290       ??_C@_0BG@GOBHHFEM@?$DMdiv?5align?$DN?$CCcenter?$CC?$DO?6?$AA@ 000000014016b290     FoncExtLPX.obj
 0002:000092a8       ??_C@_0BF@KJKFJOLE@?$DMdiv?5align?$DN?$CCright?$CC?$DO?6?$AA@ 000000014016b2a8     FoncExtLPX.obj
 0002:000092c0       ??_C@_0BE@HJEIBHCE@?$DMdiv?5align?$DN?$CCleft?$CC?$DO?6?$AA@ 000000014016b2c0     FoncExtLPX.obj
 0002:000092d8       ??_C@_07OMEDKIPB@?$DM?1div?$DO?6?$AA@ 000000014016b2d8     FoncExtLPX.obj
 0002:000092e0       ??_C@_0EK@MDBJCCOJ@?$DMform?5action?$DN?$CC?$CFs?$CC?5name?$DN?$CC?$CFs?$CC?5enct@ 000000014016b2e0     FoncExtLPX.obj
 0002:00009330       ??_C@_0EM@DNOBDKLG@?$DMscript?5language?$DN?$CCJavaScript?$CC?$DO?$DM?$CB@ 000000014016b330     FoncExtLPX.obj
 0002:00009380       ??_C@_0BM@OBAGNJEH@LPX?5EXEC?5?$CFs?5?$FL?$CFs?$FN?5?$FL?$CFs?$FN?5?$EAID?$CFx?$AA@ 000000014016b380     FoncExtLPX.obj
 0002:0000939c       ??_C@_03JECBPIH@$20?$AA@   000000014016b39c     FoncExtLPX.obj
 0002:000093a0       ??_C@_0DC@HNOPKNII@?$DMTD?5colspan?$DN?$CFd?5width?$DN?$CC?$CFs?$CC?5height@ 000000014016b3a0     FoncExtLPX.obj
 0002:000093d8       ??_C@_0DF@JLHEMMJD@?$DMTD?5colspan?$DN?$CFd?5width?$DN?$CC?$CFs?$CC?5height@ 000000014016b3d8     FoncExtLPX.obj
 0002:00009410       ??_C@_0BN@CPFILNMI@?$DMdiv?5align?$DN?$CCcenter?$CC?$DO?$DMcenter?$DO?$AA@ 000000014016b410     FoncExtLPX.obj
 0002:00009430       ??_C@_0BA@COALPJCM@?$DM?1center?$DO?$DM?1div?$DO?$AA@ 000000014016b430     FoncExtLPX.obj
 0002:00009440       ??_C@_0EH@JHIJKADB@?$DMTABLE?5border?$DN?$CFd?5cellpadding?$DN?$CFd?5@ 000000014016b440     FoncExtLPX.obj
 0002:00009490       ??_C@_0EK@EAIELDMG@?$DMTABLE?5border?$DN?$CFd?5cellpadding?$DN?$CFd?5@ 000000014016b490     FoncExtLPX.obj
 0002:000094e0       ??_C@_0CB@BFLPLDMC@?6?$DMSCRIPT?5LANGUAGE?$DN?$CCJavaScript?$CC?$DO?6@ 000000014016b4e0     FoncExtLPX.obj
 0002:00009508       ??_C@_0M@CKINDMNO@?6?$DM?1SCRIPT?$DO?6?$AA@ 000000014016b508     FoncExtLPX.obj
 0002:00009518       ??_C@_0BI@IDHJEGNG@?$DMA?5HREF?$DN?$CC?$CFs?$CC?5?$CFs?$DO?$CFs?$DM?1A?$DO?6?$AA@ 000000014016b518     FoncExtLPX.obj
 0002:00009530       ??_C@_03BEHELHBE@PRN?$AA@  000000014016b530     FoncExtLPX.obj
 0002:00009534       ??_C@_03JGGPCPEN@PRV?$AA@  000000014016b534     FoncExtLPX.obj
 0002:00009538       ??_C@_03HCCJIJCF@RTF?$AA@  000000014016b538     FoncExtLPX.obj
 0002:0000953c       ??_C@_03MEAGOCNO@PDF?$AA@  000000014016b53c     FoncExtLPX.obj
 0002:00009540       ??_C@_05PFJJNCAJ@MHTML?$AA@ 000000014016b540     FoncExtLPX.obj
 0002:00009548       ??_C@_03CNFPPDJC@BMP?$AA@  000000014016b548     FoncExtLPX.obj
 0002:0000954c       ??_C@_04CJPKNBEB@JPEG?$AA@ 000000014016b54c     FoncExtLPX.obj
 0002:00009554       ??_C@_03KMBAHOPM@EMF?$AA@  000000014016b554     FoncExtLPX.obj
 0002:00009558       ??_C@_03DIBEHNJN@XLS?$AA@  000000014016b558     FoncExtLPX.obj
 0002:0000955c       ??_C@_02CFPCFCEA@LL?$AA@   000000014016b55c     FoncExtLPX.obj
 0002:00009560       ??_C@_03KOHJOHBF@HTM?$AA@  000000014016b560     FoncExtLPX.obj
 0002:00009564       ??_C@_03BHJLOECL@MHT?$AA@  000000014016b564     FoncExtLPX.obj
 0002:00009568       ??_C@_03PJJGGPMI@JPG?$AA@  000000014016b568     FoncExtLPX.obj
 0002:0000956c       ??_C@_03PKFOHEJD@IMP?$AA@  000000014016b56c     FoncExtLPX.obj
 0002:00009570       ??_C@_0BA@GJJKIIHO@MESS?5?$FL?$CFs?$FN?5?$CFd?5?$AN?6?$AA@ 000000014016b570     FoncExtLPX.obj
 0002:00009580       ??_C@_09IAMBMOCP@ARR?5?$CFd?5?$AN?6?$AA@ 000000014016b580     FoncExtLPX.obj
 0002:0000958c       ??_C@_03JJNAMDDM@WIN?$AA@  000000014016b58c     FoncExtLPX.obj
 0002:00009590       ??_C@_04DANIOFHI@OPEN?$AA@ 000000014016b590     FoncExtLPX.obj
 0002:00009598       ??_C@_05HKHBPABE@CLOSE?$AA@ 000000014016b598     FoncExtLPX.obj
 0002:000095a0       ??_C@_01IHBHIGKO@?0?$AA@   000000014016b5a0     FoncExtLPX.obj
 0002:000095a8       ??_C@_09BEHJPJAC@?2DataBase?$AA@ 000000014016b5a8     FoncExtLPX.obj
 0002:000095b8       ??_C@_0O@BOFDKKOG@?2MsgClient?4bd?$AA@ 000000014016b5b8     FoncExtLPX.obj
 0002:000095c8       ??_C@_0CH@GGFPKMG@?$DMnavigation?5url?$DN?$CC?$CFs?$CC?5user_id?$DN?$CC?$CFd@ 000000014016b5c8     FoncExtLPX.obj
 0002:000095f0       ??_C@_0DD@DNBMAJBM@?$DMnavigation?5url?$DN?$CC?$CFs?$CC?5user_id?$DN?$CC?$CFd@ 000000014016b5f0     FoncExtLPX.obj
 0002:00009628       ??_C@_0DE@PKFIBBFO@?$DMnavigation?5url?$DN?$CC?$CFs?$CC?5user_id?$DN?$CC?$CFd@ 000000014016b628     FoncExtLPX.obj
 0002:00009660       ??_C@_0O@NEOFBFHC@OPEN_MINIMISE?$AA@ 000000014016b660     FoncExtLPX.obj
 0002:00009670       ??_C@_0L@JJKKLGNH@CLOSE_BRUT?$AA@ 000000014016b670     FoncExtLPX.obj
 0002:00009680       ??_C@_09IGGGIAEN@init_file?$AA@ 000000014016b680     FoncExtLPX.obj
 0002:0000968c       ??_C@_02KGJNJPLA@1?$HM?$AA@ 000000014016b68c     FoncExtLPX.obj
 0002:00009690       ??_C@_04BINFKMLO@?2LIX?$AA@ 000000014016b690     ExecLix.obj
 0002:00009698       ??_C@_06FDKIONIJ@?$CFs?2LIX?$AA@ 000000014016b698     ExecLix.obj
 0002:000096a0       ??_C@_04JLMHBPBB@?4LIX?$AA@ 000000014016b6a0     ExecLix.obj
 0002:000096a8       ??_C@_0BG@IEGMCJJE@Fin?5procedure?5?$CF8x?5?$CF8x?$AA@ 000000014016b6a8     ExecLix.obj
 0002:000096c0       ??_C@_08ODBEDLHI@LST_EXEC?$AA@ 000000014016b6c0     ExecLix.obj
 0002:000096cc       ??_C@_02BBAHNLBA@?$CFp?$AA@ 000000014016b6cc     ExecLix.obj
 0002:000096d0       ??_C@_0O@NDLPCCFJ@END?5?$CFd?5?$CFd?5?$CFs?5?$AA@ 000000014016b6d0     ExecLix.obj
 0002:000096e0       ??_C@_0BA@HNGPFLEL@E_LPX_Programme?$AA@ 000000014016b6e0     interprete.obj
 0002:000096f0       ??_C@_0BB@DCDCCNB@E_LPX_Contrainte?$AA@ 000000014016b6f0     interprete.obj
 0002:00009708       ??_C@_09BJGMICGC@E_LPX_BDS?$AA@ 000000014016b708     interprete.obj
 0002:00009718       ??_C@_0O@ECJEEBJN@E_LPX_Memoire?$AA@ 000000014016b718     interprete.obj
 0002:00009728       ??_C@_0BB@FDLDGOLC@E_LPX_Suspension?$AA@ 000000014016b728     interprete.obj
 0002:00009740       ??_C@_0BD@HIMFDNJF@E_LPX_ArretDemande?$AA@ 000000014016b740     interprete.obj
 0002:00009758       ??_C@_0BF@JJCJJBHD@E_LPX_MessageAttendu?$AA@ 000000014016b758     interprete.obj
 0002:00009770       ??_C@_0BG@IHLFNNJD@E_LPX_ReponseAttendue?$AA@ 000000014016b770     interprete.obj
 0002:00009788       ??_C@_0BG@CJKCHAEB@E_LPX_MachineInconnue?$AA@ 000000014016b788     interprete.obj
 0002:000097a0       ??_C@_0BI@ONLGHLFI@E_LPX_PointeurMXAttendu?$AA@ 000000014016b7a0     interprete.obj
 0002:000097b8       ??_C@_0BD@GANBKKJH@Evt?5Nouveau?5LIX?5?$CFd?$AA@ 000000014016b7b8     interprete.obj
 0002:000097cc       ??_C@_04LOCMGGPM@?$CFd?$CFs?$AA@ 000000014016b7cc     ITP_AppelC.obj
 0002:000097d4       ??_C@_04BECFKOHH@?$CFf?$CFs?$AA@ 000000014016b7d4     ITP_AppelC.obj
 0002:000097dc       ??_C@_04OEDFLLKD@?$CC?$CFs?$CC?$AA@ 000000014016b7dc     ITP_AppelC.obj
 0002:000097e8       ??_C@_0L@MNFGDJPF@?$CF?940?440s?$CFs?$AA@ 000000014016b7e8     ITP_AppelC.obj
 0002:000097f8       ??_C@_0BA@MPCLICBL@?$CF?940?440s?$CF39?439s?$AA@ 000000014016b7f8     ITP_AppelC.obj
 0002:00009808       ??_C@_0L@JOCDBBCO@?$CF?916?416s?$CFs?$AA@ 000000014016b808     ITP_AppelC.obj
 0002:00009818       ??_C@_0BA@NEGKAPBD@?$CF?916?416s?$CF15?415s?$AA@ 000000014016b818     ITP_AppelC.obj
 0002:00009828       ??_C@_06DFMLFANI@?$CF?$CF?4?$CFif?$AA@ 000000014016b828     ITP_AppelC.obj
 0002:00009830       ??_C@_05PEEMIHDF@?$CFD?5?$CFT?$AA@ 000000014016b830     ITP_AppelC.obj
 0002:00009838       ??_C@_04LLEBNMDN@?$CFs?$AN?6?$AA@ 000000014016b838     ITP_AppelC.obj
 0002:00009840       ??_C@_01KHDNNMEB@?$AB?$AA@ 000000014016b840     ITP_AppelC.obj
 0002:00009844       ??_C@_05BNPGKEDD@?$CF?420s?$AA@ 000000014016b844     ITP_AppelC.obj
 0002:0000984c       ??_C@_06JHPOLPJ@CENTRE?$AA@ 000000014016b84c     ITP_AppelC.obj
 0002:00009854       ??_C@_06EJJFDNBE@DROITE?$AA@ 000000014016b854     ITP_AppelC.obj
 0002:0000985c       ??_C@_06KNOOGCOP@GAUCHE?$AA@ 000000014016b85c     ITP_AppelC.obj
 0002:00009864       ??_C@_05MPFKCFKC@DEBUT?$AA@ 000000014016b864     ITP_AppelC.obj
 0002:0000986c       ??_C@_03HBHFPDMG@FIN?$AA@  000000014016b86c     ITP_AppelC.obj
 0002:00009870       ??_C@_07BGGHOCCF@COURANT?$AA@ 000000014016b870     ITP_AppelC.obj
 0002:00009878       ??_C@_07PLGLPFID@?$CF17s?4?4?4?$AA@ 000000014016b878     ITP_AppelC.obj
 0002:00009880       ??_C@_0BI@IJIJLOIJ@LPX_ChangeTailleMemoire?$AA@ 000000014016b880     ITP_Memoire.obj
 0002:000098a0       ??_7CDonneeLPX@@6B@        000000014016b8a0     ListDonnees.obj
 0002:000098b8       ??_7CVerrou@@6B@           000000014016b8b8     ListVerrou.obj
 0002:000098c8       ??_7CListVerrou@@6B@       000000014016b8c8     ListVerrou.obj
 0002:000098d0       ??_C@_0L@NKACPDBN@CMemXmlLPX?$AA@ 000000014016b8d0     MemXmlLPX.obj
 0002:000098e8       ??_7CMemXmlLPX@@6B@        000000014016b8e8     MemXmlLPX.obj
 0002:00009900       ??_7CScenarioEnCours@@6B@  000000014016b900     ScenarioEnCours.obj
 0002:00009908       ??_C@_05DMCIJNLO@?$CFx?5?$CFX?$AA@ 000000014016b908     strpctime.obj
 0002:00009910       ??_C@_05JFBIHENH@?$CFH?3?$CFM?$AA@ 000000014016b910     strpctime.obj
 0002:00009918       ??_C@_0M@DJNIDJHC@?$CFI?3?$CFM?3?$CFS?5?$CFp?$AA@ 000000014016b918     strpctime.obj
 0002:00009930       ??_7CVerrouLPX@@6B@        000000014016b930     VerrouLPX.obj
 0002:00009948       ??_7CScenarioAttente@@6B@  000000014016b948     ScenarioAttente.obj
 0002:00009958       ??_7CCmdShell@@6B@         000000014016b958     CmdShell.obj
 0002:00009960       ??_C@_0BD@ICIEADDI@ReveilGestCmdShell?$AA@ 000000014016b960     GestCmdShell.obj
 0002:00009980       ??_7CGestCmdShell@@6B@     000000014016b980     GestCmdShell.obj
 0002:000099a8       ??_7CListeCmdShell@@6B@    000000014016b9a8     ListeCmdShell.obj
 0002:000099b0       ??_C@_0BG@BKHAFLNE@ReveilSuppScenAttente?$AA@ 000000014016b9b0     SuppScenAttente.obj
 0002:000099d0       ??_7CSuppScenAttente@@6B@  000000014016b9d0     SuppScenAttente.obj
 0002:000099f0       ??_C@_0L@IPMGMKEC@ReveilEtat?$AA@ 000000014016b9f0     SurveilMoteurLPX.obj
 0002:000099fc       ??_C@_05IMBNNINJ@trace?$AA@ 000000014016b9fc     TraceInstLPX.obj
 0002:00009a04       ??_C@_03PFMOLPFC@CLC?$AA@  000000014016ba04     ClientMemoire.obj
 0002:00009a08       ??_C@_04EBCKFKIK@CONT?$AA@ 000000014016ba08     ClientMemoire.obj
 0002:00009a10       ??_C@_07KGJOJLMJ@CONTBAS?$AA@ 000000014016ba10     ClientMemoire.obj
 0002:00009a18       ??_C@_0M@GCMNCOGK@ADD_BY_NAME?$AA@ 000000014016ba18     ClientMemoire.obj
 0002:00009a28       ??_C@_0M@CIDHMGEO@DEL_BY_NAME?$AA@ 000000014016ba28     ClientMemoire.obj
 0002:00009a34       ??_C@_03NIFPGLBG@ALL?$AA@  000000014016ba34     ClientMemoire.obj
 0002:00009a38       ??_C@_03IOLDLFOD@RAZ?$AA@  000000014016ba38     ClientMemoire.obj
 0002:00009a3c       ??_C@_04IAPJGLOD@SAVE?$AA@ 000000014016ba3c     ClientMemoire.obj
 0002:00009a44       ??_C@_05JBOMLEMN@INDEX?$AA@ 000000014016ba44     ClientMemoire.obj
 0002:00009a4c       ??_C@_04OIKJMBFP@TEST?$AA@ 000000014016ba4c     ClientMemoire.obj
 0002:00009a54       ??_C@_06DJAFDEIK@ERREUR?$AA@ 000000014016ba54     ClientMemoire.obj
 0002:00009a60       ??_C@_0BF@EIMFIHDH@Propri?it?i?5inconnue?5?3?$AA@ 000000014016ba60     ClientMemoire.obj
 0002:00009a78       ??_C@_07HDMJMIJE@VAL_MEM?$AA@ 000000014016ba78     ClientMemoire.obj
 0002:00009a80       ??_C@_0N@BCKEGFDJ@VAL_MEM_BASE?$AA@ 000000014016ba80     ClientMemoire.obj
 0002:00009a90       ??_C@_09IFAGDDPL@LIST_CALC?$AA@ 000000014016ba90     ClientMemoire.obj
 0002:00009aa0       ??_C@_09MKFNIPOF@LIST_TEST?$AA@ 000000014016baa0     ClientMemoire.obj
 0002:00009ab8       ??_7CClientMemoire@@6B@    000000014016bab8     ClientMemoire.obj
 0002:00009b08       ??_C@_0CO@LHPNMMFL@La?5structure?5de?5la?5m?imoire?5a?5?it?i@ 000000014016bb08     Contenu.obj
 0002:00009b48       ??_7CListContenu@@6B@      000000014016bb48     Contenu.obj
 0002:00009bc8       ??_7CRamMemoire@@6B@       000000014016bbc8     Contenu.obj
 0002:00009c48       ??_7CTypeArchiveMemoire@@6B@ 000000014016bc48     Contenu.obj
 0002:00009cc0       ??_C@_0P@HHHHAIGA@?$CF02d?1?$CF02d?1?$CF02d?$AA@ 000000014016bcc0     DecodeType.obj
 0002:00009cd0       ??_C@_0P@PLMNPDMB@?$CF02d?3?$CF02d?3?$CF02d?$AA@ 000000014016bcd0     DecodeType.obj
 0002:00009ce0       ??_C@_0BO@CCOMDNNG@?$CF02d?1?$CF02d?1?$CF02d?5?$CF02d?3?$CF02d?3?$CF02d?$AA@ 000000014016bce0     DecodeType.obj
 0002:00009d00       ??_C@_03IJLIBDBM@mem?$AA@  000000014016bd00     FichierMemoire.obj
 0002:00009d08       ??_C@_0N@FLIEJLKB@mem?$CFd_?$CFd?4ctx?$AA@ 000000014016bd08     FichierMemoire.obj
 0002:00009d18       ??_C@_03HMFOOINA@r?$CLb?$AA@ 000000014016bd18     FichierMemoire.obj
 0002:00009d28       ??_7CFichierMemoire@@6B@   000000014016bd28     FichierMemoire.obj
 0002:00009da0       ??_C@_0BH@JHFMHJDN@?$DMmodif?5type?$DN?$CCMEMOIRE?$CC?$DO?$AA@ 000000014016bda0     GoupeMemoire.obj
 0002:00009db8       ??_C@_0BG@COKGEALG@?$DMsupp?5type?$DN?$CCMEMOIRE?$CC?$DO?$AA@ 000000014016bdb8     GoupeMemoire.obj
 0002:00009dd8       ??_7CGroupeMemoire@@6B@    000000014016bdd8     GoupeMemoire.obj
 0002:00009e70       ??_C@_0DG@MJHKPHNC@CListClientMemoire?3?3EnvoiClient?5@ 000000014016be70     ListClientMem.obj
 0002:00009ea8       ??_C@_0BK@DBPGOBJK@?$DMsupp?5type?$DN?$CCGRP_MEMOIRE?$CC?$DO?$AA@ 000000014016bea8     ListeGroupeMemoire.obj
 0002:00009ed8       ??_7CListeGroupeMemoire@@6B@ 000000014016bed8     ListeGroupeMemoire.obj
 0002:00009f60       ??_C@_0M@DAKOEOLG@TYPE_DONNEE?$AA@ 000000014016bf60     Memoire.obj
 0002:00009f70       ??_C@_09MGBCNPEL@MODE_GEST?$AA@ 000000014016bf70     Memoire.obj
 0002:00009f80       ??_C@_0L@OOGKOJDB@NB_MAX_VAL?$AA@ 000000014016bf80     Memoire.obj
 0002:00009f90       ??_C@_0L@HNLGHBEM@VISIBILITE?$AA@ 000000014016bf90     Memoire.obj
 0002:00009fa0       ??_C@_0M@HDGLLJKL@SVG_CONTEXT?$AA@ 000000014016bfa0     Memoire.obj
 0002:00009fb0       ??_C@_0L@GOMBAIJM@VAL_DEFAUT?$AA@ 000000014016bfb0     Memoire.obj
 0002:00009fc0       ??_C@_0P@BGIIANDK@FORMULE_CALCUL?$AA@ 000000014016bfc0     Memoire.obj
 0002:00009fd0       ??_C@_0N@ILBIDGCL@VAL_MEM_FICH?$AA@ 000000014016bfd0     Memoire.obj
 0002:00009fe0       ??_C@_0P@DPKMAPGG@TAILLE_MAX_VAL?$AA@ 000000014016bfe0     Memoire.obj
 0002:00009ff8       ??_7CMemoire@@6B@          000000014016bff8     Memoire.obj
 0002:0000a030       ??_C@_05MAIDMCEP@NO?5OP?$AA@ 000000014016c030     OperationMemoire.obj
 0002:0000a038       ??_C@_0L@HFDCOMHL@DATE_HEURE?$AA@ 000000014016c038     OperationMemoire.obj
 0002:0000a044       ??_C@_05CDMALPGK@HEURE?$AA@ 000000014016c044     OperationMemoire.obj
 0002:0000a04c       ??_C@_03IBHOEMFB@MUL?$AA@  000000014016c04c     OperationMemoire.obj
 0002:0000a050       ??_C@_03FJGHKDBE@DIV?$AA@  000000014016c050     OperationMemoire.obj
 0002:0000a054       ??_C@_03CIKDFNLM@SUM?$AA@  000000014016c054     OperationMemoire.obj
 0002:0000a058       ??_C@_0DA@FLFBFMGG@Erreur?5dans?5la?5syntaxe?5de?5l?8id?5d@ 000000014016c058     OperationMemoire.obj
 0002:0000a088       ??_C@_0CA@FOKAPKOM@Numero?5d?8operation?5?$CFd?5inconnu?4?6?$AA@ 000000014016c088     OperationMemoire.obj
 0002:0000a0a8       ??_C@_09COBGLBMG@OPERATION?$AA@ 000000014016c0a8     OperationMemoire.obj
 0002:0000a0c0       ??_7CServeurMemoire@@6B@   000000014016c0c0     ServeurMemoire.obj
 0002:0000a0e8       ??_C@_02GMAKCBGE@?$DM?$DO?$AA@ 000000014016c0e8     TestMemoire.obj
 0002:0000a0ec       ??_C@_02EHCHHCKH@?$DM?$DN?$AA@ 000000014016c0ec     TestMemoire.obj
 0002:0000a0f0       ??_C@_02EEKDKGMJ@?$DO?$DN?$AA@ 000000014016c0f0     TestMemoire.obj
 0002:0000a0f4       ??_C@_01NEMOKFLO@?$DN?$AA@ 000000014016c0f4     TestMemoire.obj
 0002:0000a0f8       ??_C@_01MNNFJEPP@?$DM?$AA@ 000000014016c0f8     TestMemoire.obj
 0002:0000a100       ??_C@_07HHHOFFNK@MOD_VAL?$AA@ 000000014016c100     ValMemoire.obj
 0002:0000a108       ??_C@_09ODLEJHHE@INDEX_MAX?$AA@ 000000014016c108     ValMemoire.obj
 0002:0000a114       ??_C@_04KAFEECCN@MODE?$AA@ 000000014016c114     ValMemoire.obj
 0002:0000a120       ??_C@_0O@EJECDECI@NB_MAX_VALEUR?$AA@ 000000014016c120     ValMemoire.obj
 0002:0000a130       ??_C@_0M@DFDFHEPP@VAL_DEFAULT?$AA@ 000000014016c130     ValMemoire.obj
 0002:0000a140       ??_C@_0L@KNMEKEPP@MEMV?$CFd?4CTX?$AA@ 000000014016c140     ValMemoire.obj
 0002:0000a14c       ??_C@_05NAIABEH@GROUP?$AA@ 000000014016c14c     ValMemoire.obj
 0002:0000a158       ??_C@_09FJBJEHLG@MEMV?$CK?4CTX?$AA@ 000000014016c158     ValMemoire.obj
 0002:0000a170       ??_7CFicProperties@@6B@    000000014016c170     FicProperties.obj
 0002:0000a178       ??_C@_05KIONOCB@?2mess?$AA@ 000000014016c178     GestMessLang.obj
 0002:0000a180       ??_C@_05BFLJOFEJ@?$CK?4mes?$AA@ 000000014016c180     GestMessLang.obj
 0002:0000a188       ??_C@_0N@DEKIFGAL@?$CK?4properties?$AA@ 000000014016c188     GestMessLang.obj
 0002:0000a198       ??_C@_04BJBPLFHE@?4bak?$AA@ 000000014016c198     GestMessLang.obj
 0002:0000a1a0       ??_C@_04MEGOJFKH@?4mes?$AA@ 000000014016c1a0     GestMessLang.obj
 0002:0000a1a8       ??_C@_05OALCLBHC@?$CFs?7?$CFs?$AA@ 000000014016c1a8     GestMessLang.obj
 0002:0000a1b8       ??_7CGestMessLang@@6B@     000000014016c1b8     GestMessLang.obj
 0002:0000a1c0       ??_C@_0CB@INKHJMJO@Erreur?5de?5lecture?5du?5fichier?5MES@ 000000014016c1c0     ListeAppliMessage.obj
 0002:0000a1e8       ??_C@_0CI@PGEIAFLN@La?5version?5du?5fichier?5MES?5est?5ma@ 000000014016c1e8     ListeAppliMessage.obj
 0002:0000a210       ??_C@_0CL@LMCGJIA@Impossible?5d?8ouvrir?5les?5fichiers@ 000000014016c210     ListeAppliMessage.obj
 0002:0000a23c       ??_C@_03CLBEGMFP@APP?$AA@  000000014016c23c     ListeAppliMessage.obj
 0002:0000a240       ??_C@_04HHIPIBIP@DICO?$AA@ 000000014016c240     ListeFichierMessage.obj
 0002:0000a248       ??_C@_04LGGJDDML@INIT?$AA@ 000000014016c248     ListeFichierMessage.obj
 0002:0000a250       ??_C@_0BL@BDOIBIOH@?$DMmodif?5type?$DN?$CCCONSOLE_WEB?$CC?$DO?$AA@ 000000014016c250     GroupePageHTML.obj
 0002:0000a270       ??_C@_0BK@FOOEPFNN@?$DMsupp?5type?$DN?$CCCONSOLE_WEB?$CC?$DO?$AA@ 000000014016c270     GroupePageHTML.obj
 0002:0000a298       ??_7CGroupePageHTML@@6B@   000000014016c298     GroupePageHTML.obj
 0002:0000a338       ??_7CListeGroupePageHTML@@6B@ 000000014016c338     ListeGroupePageHTML.obj
 0002:0000a3c8       ??_7CPageHTML@@6B@         000000014016c3c8     PageHTML.obj
 0002:0000a400       ??_C@_04PBAHKAFB@CONN?$AA@ 000000014016c400     CfgServiceProfile.obj
 0002:0000a408       ??_C@_04HDFGONMM@PORT?$AA@ 000000014016c408     CfgServiceProfile.obj
 0002:0000a410       ??_C@_0P@BCLCHJEL@STOP_QUARTIS?$AN?6?$AA@ 000000014016c410     ClientProfileTCP.obj
 0002:0000a428       ??_7CClientProfileTCP@@6B@ 000000014016c428     ClientProfileTCP.obj
 0002:0000a4a0       ??_C@_0P@MIOOAECE@ShMemClProfile?$AA@ 000000014016c4a0     ComClientProfile.obj
 0002:0000a4b0       ??_C@_0O@MNFHAEEI@FreeClProfile?$AA@ 000000014016c4b0     ComClientProfile.obj
 0002:0000a4c0       ??_C@_0O@GDNMINPG@ExecClProfile?$AA@ 000000014016c4c0     ComClientProfile.obj
 0002:0000a4d0       ??_C@_0O@KOIAKCEP@DoneClProfile?$AA@ 000000014016c4d0     ComClientProfile.obj
 0002:0000a4e8       ??_7CComClientProfile@@6B@ 000000014016c4e8     ComClientProfile.obj
 0002:0000a4f0       ??_C@_0DF@MLHDGJAO@SYSTEM?2CurrentControlSet?2Service@ 000000014016c4f0     CpuUsage.obj
 0002:0000a528       ??_C@_0BN@NJFIJJHK@Disable?5Performance?5Counters?$AA@ 000000014016c528     CpuUsage.obj
 0002:0000a548       ??_C@_0DH@GLCBMFHM@SYSTEM?2CurrentControlSet?2Service@ 000000014016c548     CpuUsage.obj
 0002:0000a580       ??_C@_06FPHDKBNF@_Total?$AA@ 000000014016c580     CpuUsage.obj
 0002:0000a590       ??_7CCpuUsage@@6B@         000000014016c590     CpuUsage.obj
 0002:0000a598       ??_C@_0N@HPDANDCE@EventInfoCpu?$AA@ 000000014016c598     InfoCpuMem.obj
 0002:0000a5b0       ??_7CInfoCpuMem@@6B@       000000014016c5b0     InfoCpuMem.obj
 0002:0000a5c0       ??_7CNumIDAuto@@6B@        000000014016c5c0     NumIDAuto.obj
 0002:0000a5c8       ??_C@_0BN@EGAOADCJ@DEC?$CFs?$DL?$CFs?$DL?$CFc?$DL?$CFs?$DL?$CFs?$DL?$CFd?$DL?$CFd?$DL?$CFd?$AN?6?$AA@ 000000014016c5c8     ProfileQuartis.obj
 0002:0000a5e8       ??_C@_0CD@DPGBBEGK@SCE?$CFs?$DL?$CFs?$DL?$CFd?$DL?$CFs?$DL?$CFs?$DL?$CFd?$DL?$CFd?$DL?$CFd?$DL?$CFd?$DL?$CFd@ 000000014016c5e8     ProfileQuartis.obj
 0002:0000a60c       ??_C@_01BJJEKLCA@?$CC?$AA@ 000000014016c60c     ProfileQuartis.obj
 0002:0000a610       ??_C@_01GEODFPGF@?8?$AA@   000000014016c610     ProfileQuartis.obj
 0002:0000a618       ??_C@_0CG@NCCMFDFJ@BDD?$CFs?$DL?$CFs?$DL?$CFd?$DL?$CFs?$DL?$CFs?$DL?$CFd?$DL?$CFd?$DL?$CFd?$DL?$CFd?$DL?$CFd@ 000000014016c618     ProfileQuartis.obj
 0002:0000a640       ??_C@_06CLONMKIH@?$CFY?$CFm?$CFd?$AA@ 000000014016c640     ProfileQuartis.obj
 0002:0000a648       ??_C@_06CLKABJPE@?4?$CF3?43d?$AA@ 000000014016c648     ProfileQuartis.obj
 0002:0000a650       ??_C@_04EMCKLCEF@?4000?$AA@ 000000014016c650     ProfileQuartis.obj
 0002:0000a658       ??_C@_05DIALNFFA@?$CFs?5?$CFd?$AA@ 000000014016c658     ProfileQuartis.obj
 0002:0000a668       ??_7CProfileQuartis@@6B@   000000014016c668     ProfileQuartis.obj
 0002:0000a670       ??_C@_09GJLEIIOO@DELAI_MIN?$AA@ 000000014016c670     ParamSPC.obj
 0002:0000a680       ??_C@_07NCBAKKBI@NOM_LPX?$AA@ 000000014016c680     ParamSPC.obj
 0002:0000a688       ??_C@_04ECEKPLPK@LANG?$AA@ 000000014016c688     ParamSPC.obj
 0002:0000a690       ??_C@_0L@OCFBDCBN@AUTO_CLOSE?$AA@ 000000014016c690     ParamSPC.obj
 0002:0000a6a0       ??_C@_07HCCGGGJM@ATELIER?$AA@ 000000014016c6a0     ParamSPC.obj
 0002:0000a6a8       ??_C@_07DKGAOOBA@MACHINE?$AA@ 000000014016c6a8     ParamSPC.obj
 0002:0000a6b0       ??_C@_07HFIDLMHB@PRODUIT?$AA@ 000000014016c6b0     ParamSPC.obj
 0002:0000a6b8       ??_C@_05KFMBDAEC@GAMME?$AA@ 000000014016c6b8     ParamSPC.obj
 0002:0000a6c0       ??_C@_02NNFLAEJD@OF?$AA@   000000014016c6c0     ParamSPC.obj
 0002:0000a6c8       ??_C@_09JDAGHFIF@OPERATEUR?$AA@ 000000014016c6c8     ParamSPC.obj
 0002:0000a6e0       ??_7CParamSPC@@6B@         000000014016c6e0     ParamSPC.obj
 0002:0000a6e8       ??_C@_03DBIELICI@web?$AA@  000000014016c6e8     ConfSrvHTTP.obj
 0002:0000a6f0       ??_C@_0M@CCMBNIBA@default?4htm?$AA@ 000000014016c6f0     ConfSrvHTTP.obj
 0002:0000a700       ??_C@_0DI@GDCLODKJ@http?3?1?1localhost?38383?1webconsole@ 000000014016c700     ConfSrvHTTP.obj
 0002:0000a738       ??_C@_0N@PPAFOGAA@OsysHTTP?4cfg?$AA@ 000000014016c738     ConfSrvHTTP.obj
 0002:0000a748       ??_C@_07DCAMKALL@ATTENTE?$AA@ 000000014016c748     ConfSrvHTTP.obj
 0002:0000a750       ??_C@_03CGJKHLBL@DMD?$AA@  000000014016c750     ConfSrvHTTP.obj
 0002:0000a754       ??_C@_03KDJEBINE@CLE?$AA@  000000014016c754     ConfSrvHTTP.obj
 0002:0000a758       ??_C@_03DHELIDJ@CGI?$AA@   000000014016c758     ConfSrvHTTP.obj
 0002:0000a760       ??_C@_0N@IHPKFCNI@URL_EDIT_WEB?$AA@ 000000014016c760     ConfSrvHTTP.obj
 0002:0000a770       ??_C@_0L@OKFCBLEE@SRV_TOMCAT?$AA@ 000000014016c770     ConfSrvHTTP.obj
 0002:0000a780       ??_C@_0M@EMGBEIEB@PORT_TOMCAT?$AA@ 000000014016c780     ConfSrvHTTP.obj
 0002:0000a790       ??_C@_08LKHCELBI@GEST_WIN?$AA@ 000000014016c790     ConfSrvHTTP.obj
 0002:0000a7a0       ??_C@_07FKPHMOBC@DIR_WIN?$AA@ 000000014016c7a0     ConfSrvHTTP.obj
 0002:0000a7a8       ??_C@_07LGODFEHI@URL_WIN?$AA@ 000000014016c7a8     ConfSrvHTTP.obj
 0002:0000a7b0       ??_C@_09EDDCAKFF@PARAM_GRP?$AA@ 000000014016c7b0     ConfSrvHTTP.obj
 0002:0000a7c0       ??_C@_0L@MNAOIGBC@PARAM_NAME?$AA@ 000000014016c7c0     ConfSrvHTTP.obj
 0002:0000a7d0       ??_C@_0M@BLCKPGME@URL_LICENCE?$AA@ 000000014016c7d0     ConfSrvHTTP.obj
 0002:0000a7e0       ??_C@_0BD@PMGJGCEA@ATTR_MAX_USER_ATEL?$AA@ 000000014016c7e0     ConfSrvHTTP.obj
 0002:0000a7f8       ??_C@_0O@JHLKFIDH@ATTR_DATE_FIN?$AA@ 000000014016c7f8     ConfSrvHTTP.obj
 0002:0000a808       ??_C@_05MJCPGPO@?4mime?$AA@ 000000014016c808     ConfSrvHTTP.obj
 0002:0000a810       ??_C@_08ILJNEIGG@www?1mime?$AA@ 000000014016c810     ConfSrvHTTP.obj
 0002:0000a81c       ??_C@_03PDOMKJON@bin?$AA@  000000014016c81c     ConfSrvHTTP.obj
 0002:0000a820       ??_C@_0BJ@JDCJMJCJ@application?1octet?9stream?$AA@ 000000014016c820     ConfSrvHTTP.obj
 0002:0000a83c       ??_C@_03IOMGPOKM@oda?$AA@  000000014016c83c     ConfSrvHTTP.obj
 0002:0000a840       ??_C@_0BA@IAPIHGOL@application?1oda?$AA@ 000000014016c840     ConfSrvHTTP.obj
 0002:0000a850       ??_C@_03MJPNCPKC@pdf?$AA@  000000014016c850     ConfSrvHTTP.obj
 0002:0000a858       ??_C@_0BA@MHMDKHOF@application?1pdf?$AA@ 000000014016c858     ConfSrvHTTP.obj
