 Console

 Timestamp is 595e06a7 (Thu Jul 06 11:45:11 2017)

 Preferred load address is 00400000

 Start         Length     Name                   Class
 0001:00000000 00075529H .text                   CODE
 0001:00075530 000098e7H .text$x                 CODE
 0002:00000000 00004219H .rdata                  DATA
 0002:00004220 00000151H .rdata$r                DATA
 0002:00004378 0000e5edH .xdata$x                DATA
 0002:00012965 00000000H .edata                  DATA
 0003:00000000 00000104H .CRT$XCA                DATA
 0003:00000104 00000104H .CRT$XCL                DATA
 0003:00000208 00000109H .CRT$XCU                DATA
 0003:00000314 00000104H .CRT$XCZ                DATA
 0003:00000418 00000104H .CRT$XIA                DATA
 0003:0000051c 00000104H .CRT$XIZ                DATA
 0003:00000620 00002338H .data                   DATA
 0003:00002958 00000258H .bss                    DATA
 0004:00000000 000000dcH .idata$2                DATA
 0004:000000dc 00000014H .idata$3                DATA
 0004:000000f0 00000e54H .idata$4                DATA
 0004:00000f44 00000e54H .idata$5                DATA
 0004:00001d98 00000ef4H .idata$6                DATA
 0005:00000000 000008f3H .rsrc$01                DATA
 0005:00000900 0001d7bcH .rsrc$02                DATA

  Address         Publics by Value              Rva+Base     Lib:Object

 0001:00004cc0       ?CreateObject@CGridCtrl@@SGPAVCObject@@XZ 00405cc0 f   GridCtrl.obj
 0001:00004d50       ?_GetBaseClass@CGridCtrl@@KGPAUCRuntimeClass@@XZ 00405d50 f   GridCtrl.obj
 0001:00004d70       ?GetRuntimeClass@CGridCtrl@@UBEPAUCRuntimeClass@@XZ 00405d70 f   GridCtrl.obj
 0001:00004d90       ?DDX_GridControl@@YGXPAVCDataExchange@@HAAVCGridCtrl@@@Z 00405d90 f   GridCtrl.obj
 0001:00004e20       ?GetMouseScrollLines@@YAIXZ 00405e20 f   GridCtrl.obj
 0001:00004ec0       ??0CGridCtrl@@QAE@HHHH@Z   00405ec0 f   GridCtrl.obj
 0001:000053b0       ?Serialize@CObject@@UAEXAAVCArchive@@@Z 004063b0 f i GridCtrl.obj
 0001:000053d0       ??3CObject@@SGXPAX@Z       004063d0 f i GridCtrl.obj
 0001:000053f0       ?AssertValid@CObject@@UBEXXZ 004063f0 f i GridCtrl.obj
 0001:00005410       ?Dump@CObject@@UBEXAAVCDumpContext@@@Z 00406410 f i GridCtrl.obj
 0001:00005430       ??_GCGridCtrl@@UAEPAXI@Z   00406430 f i GridCtrl.obj
 0001:00005430       ??_ECGridCtrl@@UAEPAXI@Z   00406430 f i GridCtrl.obj
 0001:00005460       ??1?$CTypedPtrArray@VCObArray@@PAV?$CTypedPtrArray@VCObArray@@PAVCGridCell@@@@@@UAE@XZ 00406460 f i GridCtrl.obj
 0001:00005480       ??_E?$CTypedPtrArray@VCObArray@@PAV?$CTypedPtrArray@VCObArray@@PAVCGridCell@@@@@@UAEPAXI@Z 00406480 f i GridCtrl.obj
 0001:00005480       ??_G?$CTypedPtrArray@VCObArray@@PAV?$CTypedPtrArray@VCObArray@@PAVCGridCell@@@@@@UAEPAXI@Z 00406480 f i GridCtrl.obj
 0001:000054b0       ??1CGridCtrl@@UAE@XZ       004064b0 f   GridCtrl.obj
 0001:00005700       ??_GCObject@@UAEPAXI@Z     00406700 f i GridCtrl.obj
 0001:00005700       ??_ECObject@@UAEPAXI@Z     00406700 f i GridCtrl.obj
 0001:00005730       ??1CObject@@UAE@XZ         00406730 f i GridCtrl.obj
 0001:00005750       ?RegisterWindowClass@CGridCtrl@@IAEHXZ 00406750 f   GridCtrl.obj
 0001:00005820       ?Create@CGridCtrl@@QAEHABUtagRECT@@PAVCWnd@@IK@Z 00406820 f   GridCtrl.obj
 0001:000059d0       ?PreSubclassWindow@CGridCtrl@@MAEXXZ 004069d0 f   GridCtrl.obj
 0001:00005a20       ?SubclassWindow@CGridCtrl@@QAEHPAUHWND__@@@Z 00406a20 f   GridCtrl.obj
 0001:00005aa0       ?SendMessageToParent@CGridCtrl@@IAEJHHH@Z 00406aa0 f   GridCtrl.obj
 0001:00005b60       ?_GetBaseMessageMap@CGridCtrl@@KGPBUAFX_MSGMAP@@XZ 00406b60 f   GridCtrl.obj
 0001:00005b80       ?GetMessageMap@CGridCtrl@@MBEPBUAFX_MSGMAP@@XZ 00406b80 f   GridCtrl.obj
 0001:00005ba0       ?OnPaint@CGridCtrl@@IAEXXZ 00406ba0 f   GridCtrl.obj
 0001:00005e90       ??1CMemDC@@UAE@XZ          00406e90 f i GridCtrl.obj
 0001:00005fb0       ??_ECMemDC@@UAEPAXI@Z      00406fb0 f i GridCtrl.obj
 0001:00005fb0       ??_GCMemDC@@UAEPAXI@Z      00406fb0 f i GridCtrl.obj
 0001:00005fe0       ?OnEraseBkgnd@CGridCtrl@@IAEHPAVCDC@@@Z 00406fe0 f   GridCtrl.obj
 0001:00006000       ?EraseBkgnd@CGridCtrl@@IAEXPAVCDC@@@Z 00407000 f   GridCtrl.obj
 0001:00006360       ?OnSize@CGridCtrl@@IAEXIHH@Z 00407360 f   GridCtrl.obj
 0001:000063d0       ?OnGetDlgCode@CGridCtrl@@IAEIXZ 004073d0 f   GridCtrl.obj
 0001:00006410       ?OnSysColorChange@CGridCtrl@@IAEXXZ 00407410 f   GridCtrl.obj
 0001:000064d0       ?OnCaptureChanged@CGridCtrl@@IAEXPAVCWnd@@@Z 004074d0 f   GridCtrl.obj
 0001:00006550       ?OnSettingChange@CGridCtrl@@IAEXIPBD@Z 00407550 f   GridCtrl.obj
 0001:00006620       ?OnTimer@CGridCtrl@@IAEXI@Z 00407620 f   GridCtrl.obj
 0001:00006820       ?OnKeyDown@CGridCtrl@@IAEXIII@Z 00407820 f   GridCtrl.obj
 0001:00006fa0       ?OnChar@CGridCtrl@@IAEXIII@Z 00407fa0 f   GridCtrl.obj
 0001:00007020       ?OnEndInPlaceEdit@CGridCtrl@@IAEXPAUtagNMHDR@@PAJ@Z 00408020 f   GridCtrl.obj
 0001:00007100       ?OnHScroll@CGridCtrl@@IAEXIIPAVCScrollBar@@@Z 00408100 f   GridCtrl.obj
 0001:000074a0       ?OnVScroll@CGridCtrl@@IAEXIIPAVCScrollBar@@@Z 004084a0 f   GridCtrl.obj
 0001:00007830       ?OnDraw@CGridCtrl@@MAEXPAVCDC@@@Z 00408830 f   GridCtrl.obj
 0001:00007e50       ?IsValid@CGridCtrl@@QBEHHH@Z 00408e50 f   GridCtrl.obj
 0001:00007e90       ?IsValid@CGridCtrl@@QBEHABVCCellID@@@Z 00408e90 f   GridCtrl.obj
 0001:00007ec0       ?IsValid@CGridCtrl@@QBEHABVCCellRange@@@Z 00408ec0 f   GridCtrl.obj
 0001:00007f30       ?SetRedraw@CGridCtrl@@QAEXHH@Z 00408f30 f   GridCtrl.obj
 0001:00007f80       ?RedrawCell@CGridCtrl@@QAEHABVCCellID@@PAVCDC@@@Z 00408f80 f   GridCtrl.obj
 0001:00007fb0       ?RedrawCell@CGridCtrl@@QAEHHHPAVCDC@@@Z 00408fb0 f   GridCtrl.obj
 0001:00008280       ?RedrawRow@CGridCtrl@@QAEHH@Z 00409280 f   GridCtrl.obj
 0001:00008310       ?RedrawColumn@CGridCtrl@@QAEHH@Z 00409310 f   GridCtrl.obj
 0001:000083a0       ?SetFocusCell@CGridCtrl@@IAE?AVCCellID@@HH@Z 004093a0 f   GridCtrl.obj
 0001:000083e0       ?SetFocusCell@CGridCtrl@@IAE?AVCCellID@@V2@@Z 004093e0 f   GridCtrl.obj
 0001:00008640       ?SetSelectedRange@CGridCtrl@@QAEXABVCCellRange@@H@Z 00409640 f   GridCtrl.obj
 0001:00008670       ?SetSelectedRange@CGridCtrl@@QAEXHHHHH@Z 00409670 f   GridCtrl.obj
 0001:00008a30       ?SelectAllCells@CGridCtrl@@IAEXXZ 00409a30 f   GridCtrl.obj
 0001:00008a70       ?SelectColumns@CGridCtrl@@IAEXVCCellID@@@Z 00409a70 f   GridCtrl.obj
 0001:00008b00       ?SelectRows@CGridCtrl@@IAEXVCCellID@@@Z 00409b00 f   GridCtrl.obj
 0001:00008bd0       ?SelectCells@CGridCtrl@@IAEXVCCellID@@@Z 00409bd0 f   GridCtrl.obj
 0001:00008c70       ??0CGdiObject@@QAE@XZ      00409c70 f i GridCtrl.obj
 0001:00008c90       ??_GCGdiObject@@UAEPAXI@Z  00409c90 f i GridCtrl.obj
 0001:00008c90       ??_ECGdiObject@@UAEPAXI@Z  00409c90 f i GridCtrl.obj
 0001:00008cc0       ??1CGdiObject@@UAE@XZ      00409cc0 f i GridCtrl.obj
 0001:00008d30       ?OnSelecting@CGridCtrl@@IAEXABVCCellID@@@Z 00409d30 f   GridCtrl.obj
 0001:00008dc0       ?CutSelectedText@CGridCtrl@@UAEXXZ 00409dc0 f   GridCtrl.obj
 0001:00008f50       ?CopyTextFromGrid@CGridCtrl@@UAEPAVCOleDataSource@@XZ 00409f50 f   GridCtrl.obj
 0001:00009240       ??_GCPen@@UAEPAXI@Z        0040a240 f i GridCtrl.obj
 0001:00009240       ??_ECPen@@UAEPAXI@Z        0040a240 f i GridCtrl.obj
 0001:00009270       ??1CPen@@UAE@XZ            0040a270 f i GridCtrl.obj
 0001:000092e0       ??_ECBrush@@UAEPAXI@Z      0040a2e0 f i GridCtrl.obj
 0001:000092e0       ??_GCBrush@@UAEPAXI@Z      0040a2e0 f i GridCtrl.obj
 0001:00009310       ??1CBrush@@UAE@XZ          0040a310 f i GridCtrl.obj
 0001:00009380       ?PasteTextToGrid@CGridCtrl@@UAEHVCCellID@@PAVCOleDataObject@@@Z 0040a380 f   GridCtrl.obj
 0001:00009800       ??_GCFont@@UAEPAXI@Z       0040a800 f i GridCtrl.obj
 0001:00009800       ??_ECFont@@UAEPAXI@Z       0040a800 f i GridCtrl.obj
 0001:00009830       ??1CFont@@UAE@XZ           0040a830 f i GridCtrl.obj
 0001:000098a0       ?OnBeginDrag@CGridCtrl@@UAEXXZ 0040a8a0 f   GridCtrl.obj
 0001:00009940       ??_ECBitmap@@UAEPAXI@Z     0040a940 f i GridCtrl.obj
 0001:00009940       ??_GCBitmap@@UAEPAXI@Z     0040a940 f i GridCtrl.obj
 0001:00009970       ?OnDragOver@CGridCtrl@@UAEKPAVCOleDataObject@@KVCPoint@@@Z 0040a970 f   GridCtrl.obj
 0001:00009b20       ??1CBitmap@@UAE@XZ         0040ab20 f i GridCtrl.obj
 0001:00009b90       ?OnDragEnter@CGridCtrl@@UAEKPAVCOleDataObject@@KVCPoint@@@Z 0040ab90 f   GridCtrl.obj
 0001:00009c80       ?OnDragLeave@CGridCtrl@@UAEXXZ 0040ac80 f   GridCtrl.obj
 0001:00009cf0       ?OnDrop@CGridCtrl@@UAEHPAVCOleDataObject@@KVCPoint@@@Z 0040acf0 f   GridCtrl.obj
 0001:00009d70       ?OnEditCut@CGridCtrl@@UAEXXZ 0040ad70 f   GridCtrl.obj
 0001:00009db0       ?OnEditCopy@CGridCtrl@@UAEXXZ 0040adb0 f   GridCtrl.obj
 0001:00009de0       ?OnEditPaste@CGridCtrl@@UAEXXZ 0040ade0 f   GridCtrl.obj
 0001:00009ef0       ??1COleDataObject@@QAE@XZ  0040aef0 f i GridCtrl.obj
 0001:00009f10       ?OnEditSelectAll@CGridCtrl@@UAEXXZ 0040af10 f   GridCtrl.obj
 0001:00009f30       ?OnUpdateEditCopy@CGridCtrl@@IAEXPAVCCmdUI@@@Z 0040af30 f   GridCtrl.obj
 0001:00009fd0       ?OnUpdateEditCut@CGridCtrl@@IAEXPAVCCmdUI@@@Z 0040afd0 f   GridCtrl.obj
 0001:0000a070       ?OnUpdateEditPaste@CGridCtrl@@IAEXPAVCCmdUI@@@Z 0040b070 f   GridCtrl.obj
 0001:0000a100       ?OnUpdateEditSelectAll@CGridCtrl@@IAEXPAVCCmdUI@@@Z 0040b100 f   GridCtrl.obj
 0001:0000a130       ?MouseOverRowResizeArea@CGridCtrl@@IBEHAAVCPoint@@@Z 0040b130 f   GridCtrl.obj
 0001:0000a200       ?MouseOverColumnResizeArea@CGridCtrl@@IBEHAAVCPoint@@@Z 0040b200 f   GridCtrl.obj
 0001:0000a2d0       ?GetCellFromPt@CGridCtrl@@IBE?AVCCellID@@VCPoint@@H@Z 0040b2d0 f   GridCtrl.obj
 0001:0000a460       ?GetTopleftNonFixedCell@CGridCtrl@@IBE?AVCCellID@@XZ 0040b460 f   GridCtrl.obj
 0001:0000a520       ?GetVisibleNonFixedCellRange@CGridCtrl@@IBE?AVCCellRange@@PAUtagRECT@@@Z 0040b520 f   GridCtrl.obj
 0001:0000a680       ?GetUnobstructedNonFixedCellRange@CGridCtrl@@IBE?AVCCellRange@@XZ 0040b680 f   GridCtrl.obj
 0001:0000a7b0       ?GetSelectedCellRange@CGridCtrl@@QBE?AVCCellRange@@XZ 0040b7b0 f   GridCtrl.obj
 0001:0000a8f0       ?GetCellRange@CGridCtrl@@QBE?AVCCellRange@@XZ 0040b8f0 f   GridCtrl.obj
 0001:0000a930       ?ResetSelectedRange@CGridCtrl@@IAEXXZ 0040b930 f   GridCtrl.obj
 0001:0000a970       ?GetScrollPos32@CGridCtrl@@IAEHHH@Z 0040b970 f   GridCtrl.obj
 0001:0000a9f0       ?SetScrollPos32@CGridCtrl@@IAEHHHH@Z 0040b9f0 f   GridCtrl.obj
 0001:0000aa40       ?ResetScrollBars@CGridCtrl@@IAEXXZ 0040ba40 f   GridCtrl.obj
 0001:0000ac70       ?GetCellOrigin@CGridCtrl@@QBEHHHPAUtagPOINT@@@Z 0040bc70 f   GridCtrl.obj
 0001:0000ae50       ?PtVisible@CDC@@UBEHHH@Z   0040be50 f i GridCtrl.obj
 0001:0000ae80       ?RectVisible@CDC@@UBEHPBUtagRECT@@@Z 0040be80 f i GridCtrl.obj
 0001:0000aeb0       ?GetCellOrigin@CGridCtrl@@QBEHABVCCellID@@PAUtagPOINT@@@Z 0040beb0 f   GridCtrl.obj
 0001:0000aee0       ?GetCellRect@CGridCtrl@@QBEHABVCCellID@@PAUtagRECT@@@Z 0040bee0 f   GridCtrl.obj
 0001:0000af10       ?GetCellRect@CGridCtrl@@QBEHHHPAUtagRECT@@@Z 0040bf10 f   GridCtrl.obj
 0001:0000afa0       ?GetTextRect@CGridCtrl@@QAEHABVCCellID@@PAUtagRECT@@@Z 0040bfa0 f   GridCtrl.obj
 0001:0000afd0       ?GetTextRect@CGridCtrl@@QAEHHHPAUtagRECT@@@Z 0040bfd0 f   GridCtrl.obj
 0001:0000b140       ??1_GV_ITEM@@QAE@XZ        0040c140 f i GridCtrl.obj
 0001:0000b160       ?GetCellRangeRect@CGridCtrl@@IBEHABVCCellRange@@PAUtagRECT@@@Z 0040c160 f   GridCtrl.obj
 0001:0000b230       ?OnSetFont@CGridCtrl@@IAEJIJ@Z 0040c230 f   GridCtrl.obj
 0001:0000b410       ?OnGetFont@CGridCtrl@@IAEJIJ@Z 0040c410 f   GridCtrl.obj
 0001:0000b440       ?OnSetCursor@CGridCtrl@@IAEHPAVCWnd@@II@Z 0040c440 f   GridCtrl.obj
 0001:0000b4c0       ?SetFixedRowCount@CGridCtrl@@QAEHH@Z 0040c4c0 f   GridCtrl.obj
 0001:0000b550       ?SetFixedColumnCount@CGridCtrl@@QAEHH@Z 0040c550 f   GridCtrl.obj
 0001:0000b5e0       ?SetRowCount@CGridCtrl@@QAEHH@Z 0040c5e0 f   GridCtrl.obj
 0001:0000b890       ??_G?$CTypedPtrArray@VCObArray@@PAVCGridCell@@@@UAEPAXI@Z 0040c890 f i GridCtrl.obj
 0001:0000b890       ??_E?$CTypedPtrArray@VCObArray@@PAVCGridCell@@@@UAEPAXI@Z 0040c890 f i GridCtrl.obj
 0001:0000b8c0       ??1?$CTypedPtrArray@VCObArray@@PAVCGridCell@@@@UAE@XZ 0040c8c0 f i GridCtrl.obj
 0001:0000b8e0       ?SetColumnCount@CGridCtrl@@QAEHH@Z 0040c8e0 f   GridCtrl.obj
 0001:0000bb10       ?TextOutA@CDC@@UAEHHHPBDH@Z 0040cb10 f i GridCtrl.obj
 0001:0000bb50       ?ExtTextOutA@CDC@@UAEHHHIPBUtagRECT@@PBDIPAH@Z 0040cb50 f i GridCtrl.obj
 0001:0000bb90       ?TabbedTextOutA@CDC@@UAE?AVCSize@@HHPBDHHPAHH@Z 0040cb90 f i GridCtrl.obj
 0001:0000bc00       ?InsertColumn@CGridCtrl@@QAEHPBDIH@Z 0040cc00 f   GridCtrl.obj
 0001:0000bde0       ?DrawTextA@CDC@@UAEHPBDHPAUtagRECT@@I@Z 0040cde0 f i GridCtrl.obj
 0001:0000be20       ?InsertRow@CGridCtrl@@QAEHPBDH@Z 0040ce20 f   GridCtrl.obj
 0001:0000c070       ?GrayStringA@CDC@@UAEHPAVCBrush@@P6GHPAUHDC__@@JH@ZJHHHHH@Z 0040d070 f i GridCtrl.obj
 0001:0000c0c0       ?CreateCell@CGridCtrl@@MAEPAVCGridCell@@HH@Z 0040d0c0 f   GridCtrl.obj
 0001:0000c1f0       ??_GCGridCell@@UAEPAXI@Z   0040d1f0 f i GridCtrl.obj
 0001:0000c1f0       ??_ECGridCell@@UAEPAXI@Z   0040d1f0 f i GridCtrl.obj
 0001:0000c220       ??1CGridCell@@UAE@XZ       0040d220 f i GridCtrl.obj
 0001:0000c290       ?EmptyCell@CGridCtrl@@MAEXPAVCGridCell@@HH@Z 0040d290 f   GridCtrl.obj
 0001:0000c2c0       ?DeleteColumn@CGridCtrl@@QAEHH@Z 0040d2c0 f   GridCtrl.obj
 0001:0000c400       ?Escape@CDC@@UAEHHHPBDPAX@Z 0040d400 f i GridCtrl.obj
 0001:0000c440       ?DeleteRow@CGridCtrl@@QAEHH@Z 0040d440 f   GridCtrl.obj
 0001:0000c570       ?DeleteNonFixedRows@CGridCtrl@@QAEHXZ 0040d570 f   GridCtrl.obj
 0001:0000c5b0       ?DeleteAllItems@CGridCtrl@@QAEHXZ 0040d5b0 f   GridCtrl.obj
 0001:0000c6d0       ?GetNextItem@CGridCtrl@@QBE?AVCCellID@@AAV2@H@Z 0040d6d0 f   GridCtrl.obj
 0001:0000cb30       ?SortTextItems@CGridCtrl@@QAEHHH@Z 0040db30 f   GridCtrl.obj
 0001:0000cb80       ?SortTextItems@CGridCtrl@@IAEHHHHH@Z 0040db80 f   GridCtrl.obj
 0001:0000d010       ?SortItems@CGridCtrl@@QAEHP6GHJJJ@ZHHJ@Z 0040e010 f   GridCtrl.obj
 0001:0000d080       ?SortItems@CGridCtrl@@IAEHP6GHJJJ@ZHHJHH@Z 0040e080 f   GridCtrl.obj
 0001:0000d3d0       ?SetItem@CGridCtrl@@QAEHPBU_GV_ITEM@@@Z 0040e3d0 f   GridCtrl.obj
 0001:0000d4f0       ?GetItem@CGridCtrl@@QAEHPAU_GV_ITEM@@@Z 0040e4f0 f   GridCtrl.obj
 0001:0000d650       ?SetItemText@CGridCtrl@@QAEHHHPBD@Z 0040e650 f   GridCtrl.obj
 0001:0000d6d0       ?SetItemData@CGridCtrl@@QAEHHHJ@Z 0040e6d0 f   GridCtrl.obj
 0001:0000d740       ?GetItemData@CGridCtrl@@QBEJHH@Z 0040e740 f   GridCtrl.obj
 0001:0000d7b0       ?SetItemImage@CGridCtrl@@QAEHHHH@Z 0040e7b0 f   GridCtrl.obj
 0001:0000d820       ?GetItemImage@CGridCtrl@@QBEHHH@Z 0040e820 f   GridCtrl.obj
 0001:0000d890       ?SetItemState@CGridCtrl@@QAEHHHI@Z 0040e890 f   GridCtrl.obj
 0001:0000db00       ?GetItemState@CGridCtrl@@QBEIHH@Z 0040eb00 f   GridCtrl.obj
 0001:0000db70       ?SetItemFormat@CGridCtrl@@QAEHHHI@Z 0040eb70 f   GridCtrl.obj
 0001:0000dbe0       ?GetItemFormat@CGridCtrl@@QBEIHH@Z 0040ebe0 f   GridCtrl.obj
 0001:0000dc50       ?SetItemBkColour@CGridCtrl@@QAEHHHK@Z 0040ec50 f   GridCtrl.obj
 0001:0000dcc0       ?GetItemBkColour@CGridCtrl@@QBEKHH@Z 0040ecc0 f   GridCtrl.obj
 0001:0000dd30       ?SetItemFgColour@CGridCtrl@@QAEHHHK@Z 0040ed30 f   GridCtrl.obj
 0001:0000dda0       ?GetItemFgColour@CGridCtrl@@QBEKHH@Z 0040eda0 f   GridCtrl.obj
 0001:0000de10       ?SetItemFont@CGridCtrl@@QAEHHHPAUtagLOGFONTA@@@Z 0040ee10 f   GridCtrl.obj
 0001:0000de90       ?GetItemFont@CGridCtrl@@QAEPAUtagLOGFONTA@@HH@Z 0040ee90 f   GridCtrl.obj
 0001:0000df00       ?GetVirtualWidth@CGridCtrl@@QBEJXZ 0040ef00 f   GridCtrl.obj
 0001:0000df30       ?GetVirtualHeight@CGridCtrl@@QBEJXZ 0040ef30 f   GridCtrl.obj
 0001:0000df60       ?GetRowHeight@CGridCtrl@@QBEHH@Z 0040ef60 f   GridCtrl.obj
 0001:0000dfa0       ?GetColumnWidth@CGridCtrl@@QBEHH@Z 0040efa0 f   GridCtrl.obj
 0001:0000dfe0       ?SetRowHeight@CGridCtrl@@QAEHHH@Z 0040efe0 f   GridCtrl.obj
 0001:0000e020       ?SetColumnWidth@CGridCtrl@@QAEHHH@Z 0040f020 f   GridCtrl.obj
 0001:0000e060       ?GetFixedRowHeight@CGridCtrl@@QBEHXZ 0040f060 f   GridCtrl.obj
 0001:0000e0a0       ?GetFixedColumnWidth@CGridCtrl@@QBEHXZ 0040f0a0 f   GridCtrl.obj
 0001:0000e0e0       ?AutoSizeColumn@CGridCtrl@@QAEHH@Z 0040f0e0 f   GridCtrl.obj
 0001:0000e1d0       ?AutoSizeRow@CGridCtrl@@QAEHH@Z 0040f1d0 f   GridCtrl.obj
 0001:0000e2c0       ?AutoSizeColumns@CGridCtrl@@QAEXXZ 0040f2c0 f   GridCtrl.obj
 0001:0000e300       ?AutoSizeRows@CGridCtrl@@QAEXXZ 0040f300 f   GridCtrl.obj
 0001:0000e340       ?AutoSize@CGridCtrl@@QAEXXZ 0040f340 f   GridCtrl.obj
 0001:0000e4a0       ?ExpandColumnsToFit@CGridCtrl@@QAEXXZ 0040f4a0 f   GridCtrl.obj
 0001:0000e5b0       ?ExpandRowsToFit@CGridCtrl@@QAEXXZ 0040f5b0 f   GridCtrl.obj
 0001:0000e6c0       ?ExpandToFit@CGridCtrl@@QAEXXZ 0040f6c0 f   GridCtrl.obj
 0001:0000e6f0       ?IsCellFixed@CGridCtrl@@QAEHHH@Z 0040f6f0 f   GridCtrl.obj
 0001:0000e730       ?SetModified@CGridCtrl@@QAEXHHH@Z 0040f730 f   GridCtrl.obj
 0001:0000e810       ?GetModified@CGridCtrl@@QAEHHH@Z 0040f810 f   GridCtrl.obj
 0001:0000e850       ?EnsureVisible@CGridCtrl@@QAEXHH@Z 0040f850 f   GridCtrl.obj
 0001:0000e9b0       ?IsCellEditable@CGridCtrl@@QBEHAAVCCellID@@@Z 0040f9b0 f   GridCtrl.obj
 0001:0000e9e0       ?IsCellEditable@CGridCtrl@@QBEHHH@Z 0040f9e0 f   GridCtrl.obj
 0001:0000ea20       ?IsCellVisible@CGridCtrl@@QBEHVCCellID@@@Z 0040fa20 f   GridCtrl.obj
 0001:0000ea50       ?IsCellVisible@CGridCtrl@@QBEHHH@Z 0040fa50 f   GridCtrl.obj
 0001:0000ec30       ?InvalidateCellRect@CGridCtrl@@IAEHABVCCellID@@@Z 0040fc30 f   GridCtrl.obj
 0001:0000ecf0       ?InvalidateCellRect@CGridCtrl@@IAEHABVCCellRange@@@Z 0040fcf0 f   GridCtrl.obj
 0001:0000ee10       ?OnMouseWheel@CGridCtrl@@IAEHIFVCPoint@@@Z 0040fe10 f   GridCtrl.obj
 0001:0000ef40       ?OnMouseMove@CGridCtrl@@IAEXIVCPoint@@@Z 0040ff40 f   GridCtrl.obj
 0001:0000f4c0       ?OnLButtonDblClk@CGridCtrl@@IAEXIVCPoint@@@Z 004104c0 f   GridCtrl.obj
 0001:0000f720       ?DoDataExchange@CWnd@@MAEXPAVCDataExchange@@@Z 00410720 f i GridCtrl.obj
 0001:0000f740       ?BeginModalState@CWnd@@UAEXXZ 00410740 f i GridCtrl.obj
 0001:0000f760       ?EndModalState@CWnd@@UAEXXZ 00410760 f i GridCtrl.obj
 0001:0000f780       ?OnLButtonDown@CGridCtrl@@IAEXIVCPoint@@@Z 00410780 f   GridCtrl.obj
 0001:0000ff00       ?OnLButtonUp@CGridCtrl@@IAEXIVCPoint@@@Z 00410f00 f   GridCtrl.obj
 0001:00010290       ?Print@CGridCtrl@@QAEXXZ   00411290 f   GridCtrl.obj
 0001:00010550       ??1CPrintDialog@@UAE@XZ    00411550 f i GridCtrl.obj
 0001:00010570       ?OnBeginPrinting@CGridCtrl@@UAEXPAVCDC@@PAUCPrintInfo@@@Z 00411570 f   GridCtrl.obj
 0001:00010860       ?OnPrint@CGridCtrl@@UAEXPAVCDC@@PAUCPrintInfo@@@Z 00411860 f   GridCtrl.obj
 0001:00010cf0       ?PrintColumnHeadings@CGridCtrl@@MAEXPAVCDC@@PAUCPrintInfo@@@Z 00411cf0 f   GridCtrl.obj
 0001:00010f20       ?PrintHeader@CGridCtrl@@MAEXPAVCDC@@PAUCPrintInfo@@@Z 00411f20 f   GridCtrl.obj
 0001:00011180       ?PrintFooter@CGridCtrl@@MAEXPAVCDC@@PAUCPrintInfo@@@Z 00412180 f   GridCtrl.obj
 0001:00011400       ?OnEndPrinting@CGridCtrl@@UAEXPAVCDC@@PAUCPrintInfo@@@Z 00412400 f   GridCtrl.obj
 0001:00011420       ?Save@CGridCtrl@@QAEHPBD@Z 00412420 f   GridCtrl.obj
 0001:000116c0       ??1CException@@UAE@XZ      004126c0 f i GridCtrl.obj
 0001:000116e0       ??_GCFileException@@UAEPAXI@Z 004126e0 f i GridCtrl.obj
 0001:000116e0       ??_ECFileException@@UAEPAXI@Z 004126e0 f i GridCtrl.obj
 0001:00011710       ??1CFileException@@UAE@XZ  00412710 f i GridCtrl.obj
 0001:00011780       ?Load@CGridCtrl@@QAEHPBD@Z 00412780 f   GridCtrl.obj
 0001:00011a80       ?CreateDragImage@CGridCtrl@@MAEPAVCImageList@@PAVCPoint@@@Z 00412a80 f   GridCtrl.obj
 0001:00011d90       ?OnFixedRowClick@CGridCtrl@@MAEXAAVCCellID@@@Z 00412d90 f   GridCtrl.obj
 0001:00011f00       ?OnFixedColumnClick@CGridCtrl@@MAEXAAVCCellID@@@Z 00412f00 f   GridCtrl.obj
 0001:00011f70       ?GetTextExtent@CGridCtrl@@QAE?AVCSize@@PBDH@Z 00412f70 f   GridCtrl.obj
 0001:00012120       ?GetCellExtent@CGridCtrl@@MAE?AVCSize@@HHPAVCDC@@@Z 00413120 f   GridCtrl.obj
 0001:00012350       ?DrawFixedCell@CGridCtrl@@MAEHPAVCDC@@HHVCRect@@H@Z 00413350 f   GridCtrl.obj
 0001:00012910       ?DrawCell@CGridCtrl@@MAEHPAVCDC@@HHVCRect@@H@Z 00413910 f   GridCtrl.obj
 0001:00012eb0       ??1CWaitCursor@@QAE@XZ     00413eb0 f i GridCtrl.obj
 0001:00012ed0       ?OnEditCell@CGridCtrl@@MAEXHHI@Z 00413ed0 f   GridCtrl.obj
 0001:00013060       ?CreateInPlaceEditControl@CGridCtrl@@MAEXAAVCRect@@KIHHPBDH@Z 00414060 f   GridCtrl.obj
 0001:00013100       ?OnEndEditCell@CGridCtrl@@MAEXPAU_GV_ITEM@@@Z 00414100 f   GridCtrl.obj
 0001:00013140       ?OnEndEditCell@CGridCtrl@@MAEXHHVCString@@@Z 00414140 f   GridCtrl.obj
 0001:00013220       ?GetItemText@CGridCtrl@@UAE?AVCString@@HH@Z 00414220 f   GridCtrl.obj
 0001:000132b0       ?RemoveAll@?$CMap@KKVCCellID@@AAV1@@@QAEXXZ 004142b0 f i GridCtrl.obj
 0001:00013320       ??1?$CMap@KKVCCellID@@AAV1@@@UAE@XZ 00414320 f i GridCtrl.obj
 0001:000133e0       ?Serialize@?$CMap@KKVCCellID@@AAV1@@@UAEXAAVCArchive@@@Z 004143e0 f i GridCtrl.obj
 0001:00013690       ??_E?$CMap@KKVCCellID@@AAV1@@@UAEPAXI@Z 00414690 f i GridCtrl.obj
 0001:00013690       ??_G?$CMap@KKVCCellID@@AAV1@@@UAEPAXI@Z 00414690 f i GridCtrl.obj
 0001:000136c0       ?NewAssoc@?$CMap@KKVCCellID@@AAV1@@@IAEPAUCAssoc@1@XZ 004146c0 f i GridCtrl.obj
 0001:00013750       ?ConstructElements@@YGXPAVCCellID@@H@Z 00414750 f i GridCtrl.obj
 0001:000137c0       ??_9@$BOE@AE               004147c0 f i GridCtrl.obj
 0001:000137d0       ??_9@$BOI@AE               004147d0 f i GridCtrl.obj
 0001:000137e0       ??_9@$BOM@AE               004147e0 f i GridCtrl.obj
 0001:000137f0       ??_9@$BPA@AE               004147f0 f i GridCtrl.obj
 0001:00013800       ??0CGridDropTarget@@QAE@XZ 00414800 f   GridDropTarget.obj
 0001:00013830       ??_GCGridDropTarget@@UAEPAXI@Z 00414830 f i GridDropTarget.obj
 0001:00013830       ??_ECGridDropTarget@@UAEPAXI@Z 00414830 f i GridDropTarget.obj
 0001:00013860       ??1CGridDropTarget@@UAE@XZ 00414860 f   GridDropTarget.obj
 0001:00013880       ?Register@CGridDropTarget@@QAEHPAVCGridCtrl@@@Z 00414880 f   GridDropTarget.obj
 0001:000138d0       ?Revoke@CGridDropTarget@@UAEXXZ 004148d0 f   GridDropTarget.obj
 0001:000138f0       ?_GetBaseMessageMap@CGridDropTarget@@KGPBUAFX_MSGMAP@@XZ 004148f0 f   GridDropTarget.obj
 0001:00013910       ?GetMessageMap@CGridDropTarget@@MBEPBUAFX_MSGMAP@@XZ 00414910 f   GridDropTarget.obj
 0001:00013930       ?OnDragScroll@CGridDropTarget@@UAEKPAVCWnd@@KVCPoint@@@Z 00414930 f   GridDropTarget.obj
 0001:00013980       ?OnDragEnter@CGridDropTarget@@UAEKPAVCWnd@@PAVCOleDataObject@@KVCPoint@@@Z 00414980 f   GridDropTarget.obj
 0001:000139f0       ?OnDragLeave@CGridDropTarget@@UAEXPAVCWnd@@@Z 004149f0 f   GridDropTarget.obj
 0001:00013a30       ?OnDragOver@CGridDropTarget@@UAEKPAVCWnd@@PAVCOleDataObject@@KVCPoint@@@Z 00414a30 f   GridDropTarget.obj
 0001:00013aa0       ?OnDrop@CGridDropTarget@@UAEHPAVCWnd@@PAVCOleDataObject@@KVCPoint@@@Z 00414aa0 f   GridDropTarget.obj
 0001:00013b10       ??0CInPlaceEdit@@QAE@PAVCWnd@@AAVCRect@@KIHHVCString@@I@Z 00414b10 f   InPlaceEdit.obj
 0001:00013db0       ??_GCInPlaceEdit@@UAEPAXI@Z 00414db0 f i InPlaceEdit.obj
 0001:00013db0       ??_ECInPlaceEdit@@UAEPAXI@Z 00414db0 f i InPlaceEdit.obj
 0001:00013de0       ??1CInPlaceEdit@@UAE@XZ    00414de0 f   InPlaceEdit.obj
 0001:00013e60       ?_GetBaseMessageMap@CInPlaceEdit@@KGPBUAFX_MSGMAP@@XZ 00414e60 f   InPlaceEdit.obj
 0001:00013e80       ?GetMessageMap@CInPlaceEdit@@MBEPBUAFX_MSGMAP@@XZ 00414e80 f   InPlaceEdit.obj
 0001:00013ea0       ?OnKeyDown@CInPlaceEdit@@IAEXIII@Z 00414ea0 f   InPlaceEdit.obj
 0001:00013f30       ?OnKillFocus@CInPlaceEdit@@IAEXPAVCWnd@@@Z 00414f30 f   InPlaceEdit.obj
 0001:00013f60       ?OnChar@CInPlaceEdit@@IAEXIII@Z 00414f60 f   InPlaceEdit.obj
 0001:00014170       ?OnGetDlgCode@CInPlaceEdit@@IAEIXZ 00415170 f   InPlaceEdit.obj
 0001:00014190       ?PreTranslateMessage@CInPlaceEdit@@UAEHPAUtagMSG@@@Z 00415190 f   InPlaceEdit.obj
 0001:000141c0       ?PostNcDestroy@CInPlaceEdit@@MAEXXZ 004151c0 f   InPlaceEdit.obj
 0001:000141f0       ?EndEdit@CInPlaceEdit@@QAEXXZ 004151f0 f   InPlaceEdit.obj
 0001:00014360       ??1tagGV_DISPINFO@@QAE@XZ  00415360 f i InPlaceEdit.obj
 0001:00014380       ?OnCreate@CWnd@@IAEHPAUtagCREATESTRUCTA@@@Z 00415380 f i InPlaceEdit.obj
 0001:000143a0       ??_ECEdit@@UAEPAXI@Z       004153a0 f i InPlaceEdit.obj
 0001:000143a0       ??_GCEdit@@UAEPAXI@Z       004153a0 f i InPlaceEdit.obj
 0001:000143d0       ??0CTitleTip@@QAE@XZ       004153d0 f   TitleTip.obj
 0001:000144c0       ??_ECTitleTip@@UAEPAXI@Z   004154c0 f i TitleTip.obj
 0001:000144c0       ??_GCTitleTip@@UAEPAXI@Z   004154c0 f i TitleTip.obj
 0001:000144f0       ??1CTitleTip@@UAE@XZ       004154f0 f   TitleTip.obj
 0001:00014510       ?_GetBaseMessageMap@CTitleTip@@KGPBUAFX_MSGMAP@@XZ 00415510 f   TitleTip.obj
 0001:00014530       ?GetMessageMap@CTitleTip@@MBEPBUAFX_MSGMAP@@XZ 00415530 f   TitleTip.obj
 0001:00014550       ?Create@CTitleTip@@UAEHPAVCWnd@@@Z 00415550 f   TitleTip.obj
 0001:000145a0       ?Show@CTitleTip@@QAEXVCRect@@PBDHPAUtagRECT@@PAUtagLOGFONTA@@@Z 004155a0 f   TitleTip.obj
 0001:00014930       ?Hide@CTitleTip@@QAEXXZ    00415930 f   TitleTip.obj
 0001:000149a0       ?OnMouseMove@CTitleTip@@IAEXIVCPoint@@@Z 004159a0 f   TitleTip.obj
 0001:00014ae0       ?PreTranslateMessage@CTitleTip@@UAEHPAUtagMSG@@@Z 00415ae0 f   TitleTip.obj
 0001:00014d00       ??0C3DMeterCtrl@@QAE@XZ    00415d00 f   3DMeterCtrl.obj
 0001:00014e90       ??_EC3DMeterCtrl@@UAEPAXI@Z 00415e90 f i 3DMeterCtrl.obj
 0001:00014e90       ??_GC3DMeterCtrl@@UAEPAXI@Z 00415e90 f i 3DMeterCtrl.obj
 0001:00014ec0       ??_H@YGXPAXIHP6EX0@Z@Z     00415ec0 f i 3DMeterCtrl.obj
 0001:00014f00       ??1C3DMeterCtrl@@UAE@XZ    00415f00 f   3DMeterCtrl.obj
 0001:00015070       ?_GetBaseMessageMap@C3DMeterCtrl@@KGPBUAFX_MSGMAP@@XZ 00416070 f   3DMeterCtrl.obj
 0001:00015090       ?GetMessageMap@C3DMeterCtrl@@MBEPBUAFX_MSGMAP@@XZ 00416090 f   3DMeterCtrl.obj
 0001:000150b0       ?OnPaint@C3DMeterCtrl@@IAEXXZ 004160b0 f   3DMeterCtrl.obj
 0001:000154f0       ??1CMemDC1@@UAE@XZ         004164f0 f i 3DMeterCtrl.obj
 0001:00015610       ??_ECMemDC1@@UAEPAXI@Z     00416610 f i 3DMeterCtrl.obj
 0001:00015610       ??_GCMemDC1@@UAEPAXI@Z     00416610 f i 3DMeterCtrl.obj
 0001:00015640       ?DrawValue@C3DMeterCtrl@@QAEXPAVCDC@@@Z 00416640 f   3DMeterCtrl.obj
 0001:00015770       ?UpdateNeedle@C3DMeterCtrl@@QAEXN@Z 00416770 f   3DMeterCtrl.obj
 0001:000157b0       ?DrawNeedle@C3DMeterCtrl@@QAEXPAVCDC@@@Z 004167b0 f   3DMeterCtrl.obj
 0001:00015a50       ?DrawMeterBackground@C3DMeterCtrl@@QAEXPAVCDC@@AAVCRect@@@Z 00416a50 f   3DMeterCtrl.obj
 0001:00016810       ?OnSize@C3DMeterCtrl@@IAEXIHH@Z 00417810 f   3DMeterCtrl.obj
 0001:00016840       ?ReconstructControl@C3DMeterCtrl@@QAEXXZ 00417840 f   3DMeterCtrl.obj
 0001:000168d0       ?SetRange@C3DMeterCtrl@@QAEXNN@Z 004178d0 f   3DMeterCtrl.obj
 0001:00016910       ?SetScaleDecimals@C3DMeterCtrl@@QAEXH@Z 00417910 f   3DMeterCtrl.obj
 0001:00016940       ?SetValueDecimals@C3DMeterCtrl@@QAEXH@Z 00417940 f   3DMeterCtrl.obj
 0001:00016970       ?SetUnits@C3DMeterCtrl@@QAEXAAVCString@@@Z 00417970 f   3DMeterCtrl.obj
 0001:000169a0       ?SetNeedleColor@C3DMeterCtrl@@QAEXK@Z 004179a0 f   3DMeterCtrl.obj
 0001:000169d0       ??0CBitmap@@QAE@XZ         004179d0 f i 3DMeterCtrl.obj
 0001:000169f0       ??_ECRgn@@UAEPAXI@Z        004179f0 f i 3DMeterCtrl.obj
 0001:000169f0       ??_GCRgn@@UAEPAXI@Z        004179f0 f i 3DMeterCtrl.obj
 0001:00016a20       ??1CRgn@@UAE@XZ            00417a20 f i 3DMeterCtrl.obj
 0001:00016a90       ?SelectObject@CDC@@QAEPAVCBitmap@@PAV2@@Z 00417a90 f i 3DMeterCtrl.obj
 0001:00016ad0       ??_GCStatic@@UAEPAXI@Z     00417ad0 f i 3DMeterCtrl.obj
 0001:00016ad0       ??_ECStatic@@UAEPAXI@Z     00417ad0 f i 3DMeterCtrl.obj
 0001:00016b00       ?CreateObject@CBoutonEx@@SGPAVCObject@@XZ 00417b00 f   boutonex.obj
 0001:00016b80       ?_GetBaseClass@CBoutonEx@@KGPAUCRuntimeClass@@XZ 00417b80 f   boutonex.obj
 0001:00016ba0       ?GetRuntimeClass@CBoutonEx@@UBEPAUCRuntimeClass@@XZ 00417ba0 f   boutonex.obj
 0001:00016bc0       ??0CBoutonEx@@QAE@PAVCOsysBouton@@@Z 00417bc0 f   boutonex.obj
 0001:00016bf0       ??_GCBoutonEx@@UAEPAXI@Z   00417bf0 f i boutonex.obj
 0001:00016bf0       ??_ECBoutonEx@@UAEPAXI@Z   00417bf0 f i boutonex.obj
 0001:00016c20       ??0CBoutonEx@@QAE@XZ       00417c20 f   boutonex.obj
 0001:00016c50       ??1CBoutonEx@@UAE@XZ       00417c50 f   boutonex.obj
 0001:00016c70       ?_GetBaseMessageMap@CBoutonEx@@KGPBUAFX_MSGMAP@@XZ 00417c70 f   boutonex.obj
 0001:00016c90       ?GetMessageMap@CBoutonEx@@MBEPBUAFX_MSGMAP@@XZ 00417c90 f   boutonex.obj
 0001:00016d40       ?OnCtlColor@CBoutonEx@@IAEPAUHBRUSH__@@PAVCDC@@PAVCWnd@@I@Z 00417d40 f   boutonex.obj
 0001:00016db0       ?CtlColor@CBoutonEx@@IAEPAUHBRUSH__@@PAVCDC@@I@Z 00417db0 f   boutonex.obj
 0001:00016e00       ?OnClicked@CBoutonEx@@IAEXXZ 00417e00 f   boutonex.obj
 0001:00016e30       ?OnCreate@CBoutonEx@@IAEHPAUtagCREATESTRUCTA@@@Z 00417e30 f   boutonex.obj
 0001:00016e50       ?OnEraseBkgnd@CBoutonEx@@IAEHPAVCDC@@@Z 00417e50 f   boutonex.obj
 0001:00016e70       ?OnChar@CBoutonEx@@IAEXIII@Z 00417e70 f   boutonex.obj
 0001:000170c0       ?OnSetFocus@CBoutonEx@@IAEXPAVCWnd@@@Z 004180c0 f   boutonex.obj
 0001:000170f0       ?OnKeyDown@CBoutonEx@@IAEXIII@Z 004180f0 f   boutonex.obj
 0001:00017170       ?OnLButtonDown@CBoutonEx@@IAEXIVCPoint@@@Z 00418170 f   boutonex.obj
 0001:000171e0       ?DrawItem@CBoutonEx@@UAEXPAUtagDRAWITEMSTRUCT@@@Z 004181e0 f   boutonex.obj
 0001:00017520       ?OnLButtonUp@CBoutonEx@@IAEXIVCPoint@@@Z 00418520 f   boutonex.obj
 0001:00017560       ??0CBrush@@QAE@XZ          00418560 f i boutonex.obj
 0001:00017580       ?CreateObject@CBrowser@@SGPAVCObject@@XZ 00418580 f   browser.obj
 0001:00017600       ?_GetBaseClass@CBrowser@@KGPAUCRuntimeClass@@XZ 00418600 f   browser.obj
 0001:00017620       ?GetRuntimeClass@CBrowser@@UBEPAUCRuntimeClass@@XZ 00418620 f   browser.obj
 0001:00017640       ?_GetBaseMessageMap@CBrowser@@KGPBUAFX_MSGMAP@@XZ 00418640 f   browser.obj
 0001:00017660       ?GetMessageMap@CBrowser@@MBEPBUAFX_MSGMAP@@XZ 00418660 f   browser.obj
 0001:00017680       ??0CBrowser@@QAE@XZ        00418680 f   browser.obj
 0001:000176b0       ??_GCBrowser@@UAEPAXI@Z    004186b0 f i browser.obj
 0001:000176b0       ??_ECBrowser@@UAEPAXI@Z    004186b0 f i browser.obj
 0001:000176e0       ??1CBrowser@@UAE@XZ        004186e0 f   browser.obj
 0001:00017780       ?Init@CBrowser@@QAEXVCRect@@PAVCWnd@@@Z 00418780 f   browser.obj
 0001:00017810       ?InitBrowserSink@CBrowser@@QAEXXZ 00418810 f   browser.obj
 0001:000178a0       ?Navigate@CBrowser@@QAEXVCString@@@Z 004188a0 f   browser.obj
 0001:000179c0       ?OnSize@CBrowser@@IAEXIHH@Z 004189c0 f   browser.obj
 0001:000179e0       ?OnMove@CBrowser@@IAEXHH@Z 004189e0 f   browser.obj
 0001:00017a00       ??1COleVariant@@QAE@XZ     00418a00 f i browser.obj
 0001:00017a20       ??0CBrowserAction@@QAE@PAUIWebBrowser2@@PAVCWebBrowserEx@@@Z 00418a20 f   browseraction.obj
 0001:00017a50       ??_GCBrowserAction@@UAEPAXI@Z 00418a50 f i browseraction.obj
 0001:00017a50       ??_ECBrowserAction@@UAEPAXI@Z 00418a50 f i browseraction.obj
 0001:00017a80       ??1CBrowserAction@@UAE@XZ  00418a80 f   browseraction.obj
 0001:00017aa0       ?TraiteCommande@CBrowserAction@@QAEHVCString@@@Z 00418aa0 f   browseraction.obj
 0001:000184c0       ??BCString@@QBEPBDXZ       004194c0 f i browseraction.obj
 0001:000184e0       ?AnalyseCommande@CBrowserAction@@QAEHVCString@@AAV2@AAVCStringList@@@Z 004194e0 f   browseraction.obj
 0001:00018690       ?ExecuteFonctionJavaScript@CBrowserAction@@QAEHVCString@@AAVCStringArray@@@Z 00419690 f   browseraction.obj
 0001:00018a80       ?A2WBSTR@@YAPAGPBDH@Z      00419a80 f i browseraction.obj
 0001:00018af0       ?GetAt@CStringArray@@QBE?AVCString@@H@Z 00419af0 f i browseraction.obj
 0001:00018b30       ??1CComBSTR@ATL@@QAE@XZ    00419b30 f i browseraction.obj
 0001:00018b50       ??1CComVariant@ATL@@QAE@XZ 00419b50 f i browseraction.obj
 0001:00018b70       ?GetJScript@CBrowserAction@@QAEHAAV?$CComPtr@UIDispatch@@@ATL@@@Z 00419b70 f   browseraction.obj
 0001:00018ca0       ?InitArrayParam@CBrowserAction@@QAEHAAVCStringArray@@AAVCStringList@@@Z 00419ca0 f   browseraction.obj
 0001:00018d60       ?InitArrayParamJVS_updateMemory@CBrowserAction@@QAEHAAVCStringArray@@AAVCStringList@@@Z 00419d60 f   browseraction.obj
 0001:00018ee0       ?InitArrayParamJVS_updateMemoryIndex@CBrowserAction@@QAEHAAVCStringArray@@AAVCStringList@@@Z 00419ee0 f   browseraction.obj
 0001:000190a0       ?LitValMemoire@CBrowserAction@@QAEHVCString@@AAVCStringArray@@@Z 0041a0a0 f   browseraction.obj
 0001:000192b0       ?EcritValMemoire@CBrowserAction@@QAEHVCString@@AAVCStringArray@@@Z 0041a2b0 f   browseraction.obj
 0001:00019410       ??ACStringArray@@QAEAAVCString@@H@Z 0041a410 f i browseraction.obj
 0001:00019430       ?AfxGetApp@@YGPAVCWinApp@@XZ 0041a430 f i browseraction.obj
 0001:00019450       ?LitValMemoireIndex@CBrowserAction@@QAE?AVCString@@V2@H@Z 0041a450 f   browseraction.obj
 0001:000195e0       ?EcritValMemoireIndex@CBrowserAction@@QAEHVCString@@H0@Z 0041a5e0 f   browseraction.obj
 0001:00019720       ?FormateValMemoire@CBrowserAction@@QAE?AVCString@@AAVCStringArray@@@Z 0041a720 f   browseraction.obj
 0001:00019830       ?ExecuteLpx@CBrowserAction@@QAEHVCString@@AAVCStringArray@@@Z 0041a830 f   browseraction.obj
 0001:000199a0       ?OpenWindow@CBrowserAction@@QAEHVCString@@@Z 0041a9a0 f   browseraction.obj
 0001:00019a80       ?CloseWindow@CBrowserAction@@QAEHVCString@@@Z 0041aa80 f   browseraction.obj
 0001:00019bf0       ?InitListenMemory@CBrowserAction@@QAEHVCString@@@Z 0041abf0 f   browseraction.obj
 0001:00019e40       ?InitListenMemories@CBrowserAction@@QAEHVCString@@@Z 0041ae40 f   browseraction.obj
 0001:0001a0c0       ?OnModifValMem@CBrowserAction@@QAEHJ@Z 0041b0c0 f   browseraction.obj
 0001:0001a4f0       ??1?$CComPtr@UIDispatch@@@ATL@@QAE@XZ 0041b4f0 f i browseraction.obj
 0001:0001a510       ??1?$CComPtr@UIHTMLDocument2@@@ATL@@QAE@XZ 0041b510 f i browseraction.obj
 0001:0001a530       ?CreateObject@CBrowserSink@@SGPAVCObject@@XZ 0041b530 f   browsersink.obj
 0001:0001a5b0       ?_GetBaseClass@CBrowserSink@@KGPAUCRuntimeClass@@XZ 0041b5b0 f   browsersink.obj
 0001:0001a5d0       ?GetRuntimeClass@CBrowserSink@@UBEPAUCRuntimeClass@@XZ 0041b5d0 f   browsersink.obj
 0001:0001a5f0       ??0CBrowserSink@@QAE@XZ    0041b5f0 f   browsersink.obj
 0001:0001a670       ??_ECBrowserSink@@UAEPAXI@Z 0041b670 f i browsersink.obj
 0001:0001a670       ??_GCBrowserSink@@UAEPAXI@Z 0041b670 f i browsersink.obj
 0001:0001a6a0       ??0CBrowserSink@@QAE@PAUIWebBrowser2@@PAVCWebBrowserEx@@@Z 0041b6a0 f   browsersink.obj
 0001:0001a730       ??1CBrowserSink@@UAE@XZ    0041b730 f   browsersink.obj
 0001:0001a760       ?_GetBaseMessageMap@CBrowserSink@@KGPBUAFX_MSGMAP@@XZ 0041b760 f   browsersink.obj
 0001:0001a780       ?GetMessageMap@CBrowserSink@@MBEPBUAFX_MSGMAP@@XZ 0041b780 f   browsersink.obj
 0001:0001a7a0       ?_GetBaseDispatchMap@CBrowserSink@@KGPBUAFX_DISPMAP@@XZ 0041b7a0 f   browsersink.obj
 0001:0001a7c0       ?GetDispatchMap@CBrowserSink@@MBEPBUAFX_DISPMAP@@XZ 0041b7c0 f   browsersink.obj
 0001:0001a7e0       ?StartAdviseSink@CBrowserSink@@QAEHXZ 0041b7e0 f   browsersink.obj
 0001:0001a820       ?StopAdviseSink@CBrowserSink@@QAEHXZ 0041b820 f   browsersink.obj
 0001:0001a870       ?BeforeNavigate2@CBrowserSink@@IAEXPAUIDispatch@@PAUtagVARIANT@@1111PAF@Z 0041b870 f   browsersink.obj
 0001:0001ac30       ?GetLength@CString@@QBEHXZ 0041bc30 f i browsersink.obj
 0001:0001ac50       ??0CCheckBoxEx@@QAE@PAVCOsysCheckBox@@@Z 0041bc50 f   checkboxex.obj
 0001:0001acd0       ??_ECCheckBoxEx@@UAEPAXI@Z 0041bcd0 f i checkboxex.obj
 0001:0001acd0       ??_GCCheckBoxEx@@UAEPAXI@Z 0041bcd0 f i checkboxex.obj
 0001:0001ad00       ??1CCheckBoxEx@@UAE@XZ     0041bd00 f   checkboxex.obj
 0001:0001ad90       ?_GetBaseMessageMap@CCheckBoxEx@@KGPBUAFX_MSGMAP@@XZ 0041bd90 f   checkboxex.obj
 0001:0001adb0       ?GetMessageMap@CCheckBoxEx@@MBEPBUAFX_MSGMAP@@XZ 0041bdb0 f   checkboxex.obj
 0001:0001add0       ?CtlColor@CCheckBoxEx@@IAEPAUHBRUSH__@@PAVCDC@@I@Z 0041bdd0 f   checkboxex.obj
 0001:0001aeb0       ?OnClicked@CCheckBoxEx@@IAEXXZ 0041beb0 f   checkboxex.obj
 0001:0001af30       ?OnChar@CCheckBoxEx@@IAEXIII@Z 0041bf30 f   checkboxex.obj
 0001:0001b1b0       ?OnSetFocus@CCheckBoxEx@@IAEXPAVCWnd@@@Z 0041c1b0 f   checkboxex.obj
 0001:0001b1e0       ?OnKeyDown@CCheckBoxEx@@IAEXIII@Z 0041c1e0 f   checkboxex.obj
 0001:0001b260       ?OnLButtonDown@CCheckBoxEx@@IAEXIVCPoint@@@Z 0041c260 f   checkboxex.obj
 0001:0001b2b0       ??_GCButton@@UAEPAXI@Z     0041c2b0 f i checkboxex.obj
 0001:0001b2b0       ??_ECButton@@UAEPAXI@Z     0041c2b0 f i checkboxex.obj
 0001:0001b2e0       ??0CComboEx@@QAE@PAVCOsysCombo@@@Z 0041c2e0 f   comboex.obj
 0001:0001b370       ??_ECComboEx@@UAEPAXI@Z    0041c370 f i comboex.obj
 0001:0001b370       ??_GCComboEx@@UAEPAXI@Z    0041c370 f i comboex.obj
 0001:0001b3a0       ??1CComboEx@@UAE@XZ        0041c3a0 f   comboex.obj
 0001:0001b430       ?_GetBaseMessageMap@CComboEx@@KGPBUAFX_MSGMAP@@XZ 0041c430 f   comboex.obj
 0001:0001b450       ?GetMessageMap@CComboEx@@MBEPBUAFX_MSGMAP@@XZ 0041c450 f   comboex.obj
 0001:0001b470       ?CtlColor@CComboEx@@IAEPAUHBRUSH__@@PAVCDC@@I@Z 0041c470 f   comboex.obj
 0001:0001b550       ?OnCtlColor@CComboEx@@IAEPAUHBRUSH__@@PAVCDC@@PAVCWnd@@I@Z 0041c550 f   comboex.obj
 0001:0001b630       ?OnSelchange@CComboEx@@IAEXXZ 0041c630 f   comboex.obj
 0001:0001b650       ?OnChar@CComboEx@@IAEXIII@Z 0041c650 f   comboex.obj
 0001:0001b910       ?OnSetFocus@CComboEx@@IAEXPAVCWnd@@@Z 0041c910 f   comboex.obj
 0001:0001b940       ?OnKeyDown@CComboEx@@IAEXIII@Z 0041c940 f   comboex.obj
 0001:0001ba10       ?OnLButtonDown@CComboEx@@IAEXIVCPoint@@@Z 0041ca10 f   comboex.obj
 0001:0001ba60       ?OnSelendok@CComboEx@@IAEXXZ 0041ca60 f   comboex.obj
 0001:0001bae0       ?OnDropdown@CComboEx@@IAEXXZ 0041cae0 f   comboex.obj
 0001:0001bb10       ?OnKillfocus@CComboEx@@IAEXXZ 0041cb10 f   comboex.obj
 0001:0001bb60       ??_GCComboBox@@UAEPAXI@Z   0041cb60 f i comboex.obj
 0001:0001bb60       ??_ECComboBox@@UAEPAXI@Z   0041cb60 f i comboex.obj
 0001:0001bb90       ??0CEditEx@@QAE@PAVCOsysEdit@@@Z 0041cb90 f   editex.obj
 0001:0001bc20       ??_ECEditEx@@UAEPAXI@Z     0041cc20 f i editex.obj
 0001:0001bc20       ??_GCEditEx@@UAEPAXI@Z     0041cc20 f i editex.obj
 0001:0001bc50       ??1CEditEx@@UAE@XZ         0041cc50 f   editex.obj
 0001:0001bcf0       ?_GetBaseMessageMap@CEditEx@@KGPBUAFX_MSGMAP@@XZ 0041ccf0 f   editex.obj
 0001:0001bd10       ?GetMessageMap@CEditEx@@MBEPBUAFX_MSGMAP@@XZ 0041cd10 f   editex.obj
 0001:0001bd30       ?OnChar@CEditEx@@IAEXIII@Z 0041cd30 f   editex.obj
 0001:0001c040       ?CtlColor@CEditEx@@IAEPAUHBRUSH__@@PAVCDC@@I@Z 0041d040 f   editex.obj
 0001:0001c120       ?OnKillfocus@CEditEx@@IAEXXZ 0041d120 f   editex.obj
 0001:0001c1a0       ?OnSetfocus@CEditEx@@IAEXXZ 0041d1a0 f   editex.obj
 0001:0001c210       ?OnKeyDown@CEditEx@@IAEXIII@Z 0041d210 f   editex.obj
 0001:0001c290       ?OnLButtonDown@CEditEx@@IAEXIVCPoint@@@Z 0041d290 f   editex.obj
 0001:0001c2e0       ??0CEditMultiEx@@QAE@PAVCOsysEditMulti@@@Z 0041d2e0 f   editmultiex.obj
 0001:0001c360       ??_ECEditMultiEx@@UAEPAXI@Z 0041d360 f i editmultiex.obj
 0001:0001c360       ??_GCEditMultiEx@@UAEPAXI@Z 0041d360 f i editmultiex.obj
 0001:0001c390       ??1CEditMultiEx@@UAE@XZ    0041d390 f   editmultiex.obj
 0001:0001c420       ?_GetBaseMessageMap@CEditMultiEx@@KGPBUAFX_MSGMAP@@XZ 0041d420 f   editmultiex.obj
 0001:0001c440       ?GetMessageMap@CEditMultiEx@@MBEPBUAFX_MSGMAP@@XZ 0041d440 f   editmultiex.obj
 0001:0001c460       ?CtlColor@CEditMultiEx@@IAEPAUHBRUSH__@@PAVCDC@@I@Z 0041d460 f   editmultiex.obj
 0001:0001c540       ?OnChar@CEditMultiEx@@IAEXIII@Z 0041d540 f   editmultiex.obj
 0001:0001c790       ?OnKillfocus@CEditMultiEx@@IAEXXZ 0041d790 f   editmultiex.obj
 0001:0001c7d0       ?OnSetFocus@CEditMultiEx@@IAEXPAVCWnd@@@Z 0041d7d0 f   editmultiex.obj
 0001:0001c800       ?OnKeyDown@CEditMultiEx@@IAEXIII@Z 0041d800 f   editmultiex.obj
 0001:0001c880       ?OnLButtonDown@CEditMultiEx@@IAEXIVCPoint@@@Z 0041d880 f   editmultiex.obj
 0001:0001c8d0       ?OnSetfocus@CEditMultiEx@@IAEXXZ 0041d8d0 f   editmultiex.obj
 0001:0001c8f0       ??0CGestMemoire@@QAE@XZ    0041d8f0 f   GestMemoire.obj
 0001:0001c960       ?FermeArchive@CInputOutputArchive@@UAEHXZ 0041d960 f i GestMemoire.obj
 0001:0001c980       ??_ECGestMemoire@@UAEPAXI@Z 0041d980 f i GestMemoire.obj
 0001:0001c980       ??_GCGestMemoire@@UAEPAXI@Z 0041d980 f i GestMemoire.obj
 0001:0001c9b0       ??1CGestMemoire@@UAE@XZ    0041d9b0 f   GestMemoire.obj
 0001:0001ca30       ?NoticeModMem@CGestMemoire@@UAEXHPAVCMemoireRecu@@H@Z 0041da30 f   GestMemoire.obj
 0001:0001ca70       ??0CGestOsys@@QAE@XZ       0041da70 f   GestOsys.obj
 0001:0001cb60       ??_GCGestOsys@@UAEPAXI@Z   0041db60 f i GestOsys.obj
 0001:0001cb60       ??_ECGestOsys@@UAEPAXI@Z   0041db60 f i GestOsys.obj
 0001:0001cb90       ??1CGestOsys@@UAE@XZ       0041db90 f   GestOsys.obj
 0001:0001cd00       ?ConnexionServeur@CGestOsys@@QAEHXZ 0041dd00 f   GestOsys.obj
 0001:0001cee0       ?Connexion@CGestOsys@@QAEXXZ 0041dee0 f   GestOsys.obj
 0001:0001d9d0       ?LitUtilisateur@CDconnexionServeur@@QAE?AVCString@@XZ 0041e9d0 f i GestOsys.obj
 0001:0001da10       ?LitMotPasse@CDconnexionServeur@@QAE?AVCString@@XZ 0041ea10 f i GestOsys.obj
 0001:0001da50       ??1CDconnexionServeur@@UAE@XZ 0041ea50 f i GestOsys.obj
 0001:0001db20       ?LitMessageErreur@CGestOsys@@QAE?AVCString@@H@Z 0041eb20 f   GestOsys.obj
 0001:0001df80       ?TraiteAction@CGestOsys@@QAEXAAVCInputArchive@@H@Z 0041ef80 f   GestOsys.obj
 0001:0001e470       ?OuvreFenetre@CGestOsys@@QAEHHPAVCWnd@@@Z 0041f470 f   GestOsys.obj
 0001:0001e6f0       ?ReConnectSrv@CGestOsys@@QAEHXZ 0041f6f0 f   GestOsys.obj
 0001:0001e820       ?ReAfficheFenIdent@CGestOsys@@QAEHXZ 0041f820 f   GestOsys.obj
 0001:0001e930       ?AfficheFenIdent@CGestOsys@@QAEHXZ 0041f930 f   GestOsys.obj
 0001:0001eb90       ?ReConnexion@CGestOsys@@QAEHPAUHWND__@@@Z 0041fb90 f   GestOsys.obj
 0001:0001f4d0       ?ReConnexionBis@CGestOsys@@QAEHXZ 004204d0 f   GestOsys.obj
 0001:0001fcc0       ??0CListActTf@@QAE@XZ      00420cc0 f   listacttf.obj
 0001:0001fcf0       ??_GCListActTf@@UAEPAXI@Z  00420cf0 f i listacttf.obj
 0001:0001fcf0       ??_ECListActTf@@UAEPAXI@Z  00420cf0 f i listacttf.obj
 0001:0001fd20       ??1CListActTf@@UAE@XZ      00420d20 f   listacttf.obj
 0001:0001fd90       ?SupprimeTout@CListActTf@@QAEXXZ 00420d90 f   listacttf.obj
 0001:0001fe20       ?AjouteModifie@CListActTf@@QAEHGPBD@Z 00420e20 f   listacttf.obj
 0001:0001ff00       ?AjouteModifie@CListActTf@@QAEHGVCString@@@Z 00420f00 f   listacttf.obj
 0001:0001fff0       ?RechercheAction@CListActTf@@QAEHGAAPAVCString@@@Z 00420ff0 f   listacttf.obj
 0001:00020040       ?LitPremier@CListActTf@@QAEHAAGAAVCString@@@Z 00421040 f   listacttf.obj
 0001:00020080       ?LitSuivant@CListActTf@@QAEHAAGAAVCString@@@Z 00421080 f   listacttf.obj
 0001:000200f0       ?LitArchive@CListActTf@@QAEXAAVCInputArchive@@@Z 004210f0 f   listacttf.obj
 0001:000202b0       ?EcritArchive@CListActTf@@QAEXAAVCOutputArchive@@@Z 004212b0 f   listacttf.obj
 0001:00020380       ?StringListeTouche@CListActTf@@QAE?AVCString@@XZ 00421380 f   listacttf.obj
 0001:00020510       ??0CListEx@@QAE@PAVCOsysListe@@@Z 00421510 f   listex.obj
 0001:000205a0       ??_GCListEx@@UAEPAXI@Z     004215a0 f i listex.obj
 0001:000205a0       ??_ECListEx@@UAEPAXI@Z     004215a0 f i listex.obj
 0001:000205d0       ??1CListEx@@UAE@XZ         004215d0 f   listex.obj
 0001:00020660       ?_GetBaseMessageMap@CListEx@@KGPBUAFX_MSGMAP@@XZ 00421660 f   listex.obj
 0001:00020680       ?GetMessageMap@CListEx@@MBEPBUAFX_MSGMAP@@XZ 00421680 f   listex.obj
 0001:000206a0       ?CtlColor@CListEx@@IAEPAUHBRUSH__@@PAVCDC@@I@Z 004216a0 f   listex.obj
 0001:00020780       ?OnSelchange@CListEx@@IAEXXZ 00421780 f   listex.obj
 0001:00020800       ?OnChar@CListEx@@IAEXIII@Z 00421800 f   listex.obj
 0001:00020ab0       ?OnSetFocus@CListEx@@IAEXPAVCWnd@@@Z 00421ab0 f   listex.obj
 0001:00020ae0       ?OnKeyDown@CListEx@@IAEXIII@Z 00421ae0 f   listex.obj
 0001:00020b80       ?OnLButtonDown@CListEx@@IAEXIVCPoint@@@Z 00421b80 f   listex.obj
 0001:00020bd0       ?DrawItem@CListEx@@MAEXPAUtagDRAWITEMSTRUCT@@@Z 00421bd0 f   listex.obj
 0001:00020bf0       ?OnSelcancel@CListEx@@IAEXXZ 00421bf0 f   listex.obj
 0001:00020c10       ?OnKillfocus@CListEx@@IAEXXZ 00421c10 f   listex.obj
 0001:00020c50       ?OnSetfocus@CListEx@@IAEXXZ 00421c50 f   listex.obj
 0001:00020c80       ??_9@$BMA@AE               00421c80 f i listex.obj
 0001:00020c90       ??_ECListBox@@UAEPAXI@Z    00421c90 f i listex.obj
 0001:00020c90       ??_GCListBox@@UAEPAXI@Z    00421c90 f i listex.obj
 0001:00020cc0       ??0CListFrame@@QAE@XZ      00421cc0 f   ListFrame.obj
 0001:00020d00       ??_GCListFrame@@UAEPAXI@Z  00421d00 f i ListFrame.obj
 0001:00020d00       ??_ECListFrame@@UAEPAXI@Z  00421d00 f i ListFrame.obj
 0001:00020d30       ??1CListFrame@@UAE@XZ      00421d30 f   ListFrame.obj
 0001:00020db0       ?AjouteFrame@CListFrame@@QAEXPAVCOsysFrame@@@Z 00421db0 f   ListFrame.obj
 0001:00020e40       ?SupprimeTout@CListFrame@@QAEXXZ 00421e40 f   ListFrame.obj
 0001:00020e90       ?SupprimeToutFrame@CListFrame@@QAEXXZ 00421e90 f   ListFrame.obj
 0001:00020f10       ?SupprimeFrame@CListFrame@@QAEHPAVCOsysFrame@@@Z 00421f10 f   ListFrame.obj
 0001:00020fb0       ?RechercheFrame@CListFrame@@QAEPAVCOsysFrame@@H@Z 00421fb0 f   ListFrame.obj
 0001:00021000       ?EnvoiFrameModifMem@CListFrame@@QAEXPAVCMemoireRecu@@@Z 00422000 f   ListFrame.obj
 0001:00021110       ?OuvreFenetreLpx@CListFrame@@QAEXHH@Z 00422110 f   ListFrame.obj
 0001:000211e0       ?FermeFenetreLpx@CListFrame@@QAEXH@Z 004221e0 f   ListFrame.obj
 0001:00021270       ?SupprimeLstFrame@CListFrame@@QAEXXZ 00422270 f   ListFrame.obj
 0001:000212c0       ?FermeFenetre@CListFrame@@AAEXPAVCOsysFrame@@@Z 004222c0 f   ListFrame.obj
 0001:000212f0       ?TestUneSeuleFenetre@CListFrame@@QAEHXZ 004222f0 f   ListFrame.obj
 0001:00021340       ??0CListIDObjet@@QAE@XZ    00422340 f   ListIDObjet.obj
 0001:00021370       ??_ECListIDObjet@@UAEPAXI@Z 00422370 f i ListIDObjet.obj
 0001:00021370       ??_GCListIDObjet@@UAEPAXI@Z 00422370 f i ListIDObjet.obj
 0001:000213a0       ??1CListIDObjet@@UAE@XZ    004223a0 f   ListIDObjet.obj
 0001:00021410       ?Ajoute@CListIDObjet@@QAEXHPAVCOsysObjet@@@Z 00422410 f   ListIDObjet.obj
 0001:000214b0       ?Ajoute@CListIDObjet@@QAEHPAVCOsysObjet@@@Z 004224b0 f   ListIDObjet.obj
 0001:000214e0       ?Supprime@CListIDObjet@@QAEXH@Z 004224e0 f   ListIDObjet.obj
 0001:00021530       ?RechercheIdObjet@CListIDObjet@@IAEPAU__POSITION@@H@Z 00422530 f   ListIDObjet.obj
 0001:00021570       ?Supprime@CListIDObjet@@QAEXPAVCOsysObjet@@@Z 00422570 f   ListIDObjet.obj
 0001:000215c0       ?RechercheIdObjet@CListIDObjet@@IAEPAU__POSITION@@PAVCOsysObjet@@@Z 004225c0 f   ListIDObjet.obj
 0001:00021600       ?SupprimeTout@CListIDObjet@@QAEXXZ 00422600 f   ListIDObjet.obj
 0001:00021650       ?Recherche@CListIDObjet@@QAEPAVCOsysObjet@@H@Z 00422650 f   ListIDObjet.obj
 0001:00021690       ?Recherche@CListIDObjet@@QAEHPAVCOsysObjet@@@Z 00422690 f   ListIDObjet.obj
 0001:000216d0       ?LitPremier@CListIDObjet@@QAEPAVCOsysObjet@@XZ 004226d0 f   ListIDObjet.obj
 0001:00021700       ?LitSuivant@CListIDObjet@@QAEPAVCOsysObjet@@XZ 00422700 f   ListIDObjet.obj
 0001:00021730       ??0CIdOsysObjet@@QAE@HPAVCOsysObjet@@@Z 00422730 f   ListIDObjet.obj
 0001:00021760       ??_GCIdOsysObjet@@UAEPAXI@Z 00422760 f i ListIDObjet.obj
 0001:00021760       ??_ECIdOsysObjet@@UAEPAXI@Z 00422760 f i ListIDObjet.obj
 0001:00021790       ??1CIdOsysObjet@@UAE@XZ    00422790 f   ListIDObjet.obj
 0001:000217b0       ??0CMemObj@@QAE@HHHH@Z     004227b0 f   ListMemObj.obj
 0001:000217f0       ??_GCMemObj@@UAEPAXI@Z     004227f0 f i ListMemObj.obj
 0001:000217f0       ??_ECMemObj@@UAEPAXI@Z     004227f0 f i ListMemObj.obj
 0001:00021820       ??1CMemObj@@UAE@XZ         00422820 f   ListMemObj.obj
 0001:00021840       ??0CListMemObj@@QAE@XZ     00422840 f   ListMemObj.obj
 0001:00021880       ??_ECListMemObj@@UAEPAXI@Z 00422880 f i ListMemObj.obj
 0001:00021880       ??_GCListMemObj@@UAEPAXI@Z 00422880 f i ListMemObj.obj
 0001:000218b0       ??1CListMemObj@@UAE@XZ     004228b0 f   ListMemObj.obj
 0001:00021930       ?AjouteMemObj@CListMemObj@@QAEXHHHH@Z 00422930 f   ListMemObj.obj
 0001:000219b0       ?SupprimeTout@CListMemObj@@QAEXXZ 004229b0 f   ListMemObj.obj
 0001:00021a20       ?SupprimeMemObj@CListMemObj@@QAEHHH@Z 00422a20 f   ListMemObj.obj
 0001:00021ab0       ?SupprimeAllMemFrame@CListMemObj@@QAEHHAAVCPtrList@@@Z 00422ab0 f   ListMemObj.obj
 0001:00021b40       ?RechercheMemObj@CListMemObj@@QAEHHHAAH0@Z 00422b40 f   ListMemObj.obj
 0001:00021bd0       ?RechercheMemObjPremier@CListMemObj@@QAEHHHHAAH0@Z 00422bd0 f   ListMemObj.obj
 0001:00021cb0       ?RechercheMemObjSuivant@CListMemObj@@QAEHHHHAAH0@Z 00422cb0 f   ListMemObj.obj
 0001:00021d90       ??0CListOsysObjet@@QAE@XZ  00422d90 f   listosysobjet.obj
 0001:00021dc0       ??_GCListOsysObjet@@UAEPAXI@Z 00422dc0 f i listosysobjet.obj
 0001:00021dc0       ??_ECListOsysObjet@@UAEPAXI@Z 00422dc0 f i listosysobjet.obj
 0001:00021df0       ??1CListOsysObjet@@UAE@XZ  00422df0 f   listosysobjet.obj
 0001:00021e60       ?AjouteObjet@CListOsysObjet@@QAEXPAVCOsysObjet@@@Z 00422e60 f   listosysobjet.obj
 0001:00021e80       ?AjouteObjetDebut@CListOsysObjet@@QAEXPAVCOsysObjet@@@Z 00422e80 f   listosysobjet.obj
 0001:00021ea0       ?SupprimeObjet@CListOsysObjet@@QAEHPAVCOsysObjet@@@Z 00422ea0 f   listosysobjet.obj
 0001:00021ee0       ?RechercheObjet@CListOsysObjet@@QAEPAU__POSITION@@PAVCOsysObjet@@@Z 00422ee0 f   listosysobjet.obj
 0001:00021f20       ?SupprimeTout@CListOsysObjet@@QAEXXZ 00422f20 f   listosysobjet.obj
 0001:00021f70       ?LitPremier@CListOsysObjet@@QAEPAVCOsysObjet@@XZ 00422f70 f   listosysobjet.obj
 0001:00021fa0       ?LitSuivant@CListOsysObjet@@QAEPAVCOsysObjet@@XZ 00422fa0 f   listosysobjet.obj
 0001:00021fd0       ?LitDernier@CListOsysObjet@@QAEPAVCOsysObjet@@XZ 00422fd0 f   listosysobjet.obj
 0001:00022000       ?LitPrecedent@CListOsysObjet@@QAEPAVCOsysObjet@@XZ 00423000 f   listosysobjet.obj
 0001:00022030       ?PositionObjetSuivant@CListOsysObjet@@QAEPAU__POSITION@@PAVCOsysObjet@@@Z 00423030 f   listosysobjet.obj
 0001:00022050       ?PositionObjetPrecedent@CListOsysObjet@@QAEPAU__POSITION@@PAVCOsysObjet@@@Z 00423050 f   listosysobjet.obj
 0001:00022070       ?AjouteObjetPositionApres@CListOsysObjet@@QAEPAU__POSITION@@PAVCOsysObjet@@PAU2@@Z 00423070 f   listosysobjet.obj
 0001:000220b0       ?AjouteObjetPositionAvant@CListOsysObjet@@QAEPAU__POSITION@@PAVCOsysObjet@@PAU2@@Z 004230b0 f   listosysobjet.obj
 0001:000220f0       ?LitObjetPosition@CListOsysObjet@@QAEPAVCOsysObjet@@PAU__POSITION@@@Z 004230f0 f   listosysobjet.obj
 0001:00022110       ?LitNbOsysObjet@CListOsysObjet@@QAEHXZ 00423110 f   listosysobjet.obj
 0001:00022130       ??0CListPropMem@@QAE@XZ    00423130 f   ListPropMem.obj
 0001:00022160       ??_GCListPropMem@@UAEPAXI@Z 00423160 f i ListPropMem.obj
 0001:00022160       ??_ECListPropMem@@UAEPAXI@Z 00423160 f i ListPropMem.obj
 0001:00022190       ??1CListPropMem@@UAE@XZ    00423190 f   ListPropMem.obj
 0001:00022200       ?AjouteModifie@CListPropMem@@QAEXPBDHH@Z 00423200 f   ListPropMem.obj
 0001:000222f0       ?SupprimeTout@CListPropMem@@QAEXXZ 004232f0 f   ListPropMem.obj
 0001:00022340       ?RecherchePropriete@CListPropMem@@QAEHHHHAAVCString@@@Z 00423340 f   ListPropMem.obj
 0001:00022410       ?RechercheProprieteSuivant@CListPropMem@@QAEHHHHAAVCString@@@Z 00423410 f   ListPropMem.obj
 0001:000224d0       ?RechercheId@CListPropMem@@QAEHPBDAAH1@Z 004234d0 f   ListPropMem.obj
 0001:00022550       ?Supprime@CListPropMem@@QAEXPBD@Z 00423550 f   ListPropMem.obj
 0001:000225d0       ?LitPremier@CListPropMem@@QAEHAAVCString@@AAH1@Z 004235d0 f   ListPropMem.obj
 0001:00022610       ?LitSuivant@CListPropMem@@QAEHAAVCString@@AAH1@Z 00423610 f   ListPropMem.obj
 0001:00022660       ?LitArchive@CListPropMem@@QAEXAAVCInputArchive@@@Z 00423660 f   ListPropMem.obj
 0001:00022820       ?EcritArchive@CListPropMem@@QAEXAAVCOutputArchive@@@Z 00423820 f   ListPropMem.obj
 0001:00022930       ??0CAssPropMem@@QAE@PBDHH@Z 00423930 f   ListPropMem.obj
 0001:000229c0       ??_GCAssPropMem@@UAEPAXI@Z 004239c0 f i ListPropMem.obj
 0001:000229c0       ??_ECAssPropMem@@UAEPAXI@Z 004239c0 f i ListPropMem.obj
 0001:000229f0       ??1CAssPropMem@@UAE@XZ     004239f0 f   ListPropMem.obj
 0001:00022a10       ??0COsys3DMeterCtrl@@QAE@PAVCOsysFrame@@PAVCOsysObjet@@H@Z 00423a10 f   Osys3DMeterCtrl.obj
 0001:00022c10       ?LitTypeObjet@COsys3DMeterCtrl@@UAEPBDXZ 00423c10 f i Osys3DMeterCtrl.obj
 0001:00022c30       ?LitNomDefaut@COsys3DMeterCtrl@@UAEPBDXZ 00423c30 f i Osys3DMeterCtrl.obj
 0001:00022c50       ??_GCOsys3DMeterCtrl@@UAEPAXI@Z 00423c50 f i Osys3DMeterCtrl.obj
 0001:00022c50       ??_ECOsys3DMeterCtrl@@UAEPAXI@Z 00423c50 f i Osys3DMeterCtrl.obj
 0001:00022c80       ??1COsys3DMeterCtrl@@UAE@XZ 00423c80 f   Osys3DMeterCtrl.obj
 0001:00022d10       ?LitArchiveEx@COsys3DMeterCtrl@@UAEXPBDAAVCInputArchive@@@Z 00423d10 f   Osys3DMeterCtrl.obj
 0001:00023080       ?EcritArchiveEx@COsys3DMeterCtrl@@UAEXAAVCOutputArchive@@@Z 00424080 f   Osys3DMeterCtrl.obj
 0001:000231c0       ?Draw@COsys3DMeterCtrl@@UAEXPAVCDC@@@Z 004241c0 f   Osys3DMeterCtrl.obj
 0001:000231e0       ?LitTailleDefaut@COsys3DMeterCtrl@@UAEXAAVCRect@@@Z 004241e0 f   Osys3DMeterCtrl.obj
 0001:00023220       ?OnChangePositionTaille@COsys3DMeterCtrl@@UAEXXZ 00424220 f   Osys3DMeterCtrl.obj
 0001:000232f0       ?OnChangeZoom@COsys3DMeterCtrl@@UAEXXZ 004242f0 f   Osys3DMeterCtrl.obj
 0001:000233d0       ?OnChangeUnite@COsys3DMeterCtrl@@UAEXXZ 004243d0 f   Osys3DMeterCtrl.obj
 0001:000234b0       ?InitMemoireValeurEx@COsys3DMeterCtrl@@UAEXPBD@Z 004244b0 f   Osys3DMeterCtrl.obj
 0001:00023bd0       ??0COsysBouton@@QAE@PAVCOsysFrame@@PAVCOsysObjet@@H@Z 00424bd0 f   OsysBouton.obj
 0001:00023d60       ?LitTypeObjet@COsysBouton@@UAEPBDXZ 00424d60 f i OsysBouton.obj
 0001:00023d80       ?LitNomDefaut@COsysBouton@@UAEPBDXZ 00424d80 f i OsysBouton.obj
 0001:00023da0       ??_ECOsysBouton@@UAEPAXI@Z 00424da0 f i OsysBouton.obj
 0001:00023da0       ??_GCOsysBouton@@UAEPAXI@Z 00424da0 f i OsysBouton.obj
 0001:00023dd0       ??1COsysBouton@@UAE@XZ     00424dd0 f   OsysBouton.obj
 0001:00023ea0       ?LitArchiveEx@COsysBouton@@UAEXPBDAAVCInputArchive@@@Z 00424ea0 f   OsysBouton.obj
 0001:00024390       ?EcritArchiveEx@COsysBouton@@UAEXAAVCOutputArchive@@@Z 00425390 f   OsysBouton.obj
 0001:000244f0       ?Draw@COsysBouton@@UAEXPAVCDC@@@Z 004254f0 f   OsysBouton.obj
 0001:00024580       ?LitTailleDefaut@COsysBouton@@UAEXAAVCRect@@@Z 00425580 f   OsysBouton.obj
 0001:000245c0       ?OnChangePositionTaille@COsysBouton@@UAEXXZ 004255c0 f   OsysBouton.obj
 0001:000246d0       ?OnChangeZoom@COsysBouton@@UAEXXZ 004256d0 f   OsysBouton.obj
 0001:00024810       ?OnChangeUnite@COsysBouton@@UAEXXZ 00425810 f   OsysBouton.obj
 0001:000248f0       ?RectangleCroise@COsysBouton@@QAEXPAVCDC@@AAVCRect@@@Z 004258f0 f   OsysBouton.obj
 0001:000249b0       ?InitMemoireValeurEx@COsysBouton@@UAEXPBD@Z 004259b0 f   OsysBouton.obj
 0001:00024d90       ??0COsysChaineMulti@@QAE@PAVCOsysFrame@@PAVCOsysObjet@@H@Z 00425d90 f   OsysChaineMulti.obj
 0001:00024e80       ?LitTypeObjet@COsysChaineMulti@@UAEPBDXZ 00425e80 f i OsysChaineMulti.obj
 0001:00024ea0       ?LitNomDefaut@COsysChaineMulti@@UAEPBDXZ 00425ea0 f i OsysChaineMulti.obj
 0001:00024ec0       ??_ECOsysChaineMulti@@UAEPAXI@Z 00425ec0 f i OsysChaineMulti.obj
 0001:00024ec0       ??_GCOsysChaineMulti@@UAEPAXI@Z 00425ec0 f i OsysChaineMulti.obj
 0001:00024ef0       ??1COsysChaineMulti@@UAE@XZ 00425ef0 f   OsysChaineMulti.obj
 0001:00024f80       ?LitArchiveEx@COsysChaineMulti@@UAEXPBDAAVCInputArchive@@@Z 00425f80 f   OsysChaineMulti.obj
 0001:000250c0       ?EcritArchiveEx@COsysChaineMulti@@UAEXAAVCOutputArchive@@@Z 004260c0 f   OsysChaineMulti.obj
 0001:000251a0       ?Draw@COsysChaineMulti@@UAEXPAVCDC@@@Z 004261a0 f   OsysChaineMulti.obj
 0001:00025530       ?LitTailleDefaut@COsysChaineMulti@@UAEXAAVCRect@@@Z 00426530 f   OsysChaineMulti.obj
 0001:00025570       ?OnModifMemoireEx@COsysChaineMulti@@UAEXPBDPAVCMemoireRecu@@@Z 00426570 f   OsysChaineMulti.obj
 0001:000257e0       ?LitValMemoire@COsysChaineMulti@@QAEHPAVCMemoireRecu@@AAVCString@@@Z 004267e0 f   OsysChaineMulti.obj
 0001:00025900       ?InitMemoireValeurEx@COsysChaineMulti@@UAEXPBD@Z 00426900 f   OsysChaineMulti.obj
 0001:00025e20       ??0COsysChaineSimple@@QAE@PAVCOsysFrame@@PAVCOsysObjet@@H@Z 00426e20 f   OsysChaineSimple.obj
 0001:00025f10       ?LitTypeObjet@COsysChaineSimple@@UAEPBDXZ 00426f10 f i OsysChaineSimple.obj
 0001:00025f30       ?LitNomDefaut@COsysChaineSimple@@UAEPBDXZ 00426f30 f i OsysChaineSimple.obj
 0001:00025f50       ??_ECOsysChaineSimple@@UAEPAXI@Z 00426f50 f i OsysChaineSimple.obj
 0001:00025f50       ??_GCOsysChaineSimple@@UAEPAXI@Z 00426f50 f i OsysChaineSimple.obj
 0001:00025f80       ??1COsysChaineSimple@@UAE@XZ 00426f80 f   OsysChaineSimple.obj
 0001:00026010       ?LitArchiveEx@COsysChaineSimple@@UAEXPBDAAVCInputArchive@@@Z 00427010 f   OsysChaineSimple.obj
 0001:00026180       ?EcritArchiveEx@COsysChaineSimple@@UAEXAAVCOutputArchive@@@Z 00427180 f   OsysChaineSimple.obj
 0001:00026270       ?Draw@COsysChaineSimple@@UAEXPAVCDC@@@Z 00427270 f   OsysChaineSimple.obj
 0001:000265e0       ?LitTailleDefaut@COsysChaineSimple@@UAEXAAVCRect@@@Z 004275e0 f   OsysChaineSimple.obj
 0001:00026620       ?InitMemoireValeurEx@COsysChaineSimple@@UAEXPBD@Z 00427620 f   OsysChaineSimple.obj
 0001:00026a10       ??0COsysCheckBox@@QAE@PAVCOsysFrame@@PAVCOsysObjet@@H@Z 00427a10 f   OsysCheckBox.obj
 0001:00026ba0       ?LitTypeObjet@COsysCheckBox@@UAEPBDXZ 00427ba0 f i OsysCheckBox.obj
 0001:00026bc0       ?LitNomDefaut@COsysCheckBox@@UAEPBDXZ 00427bc0 f i OsysCheckBox.obj
 0001:00026be0       ??_ECOsysCheckBox@@UAEPAXI@Z 00427be0 f i OsysCheckBox.obj
 0001:00026be0       ??_GCOsysCheckBox@@UAEPAXI@Z 00427be0 f i OsysCheckBox.obj
 0001:00026c10       ??1COsysCheckBox@@UAE@XZ   00427c10 f   OsysCheckBox.obj
 0001:00026ce0       ?LitArchiveEx@COsysCheckBox@@UAEXPBDAAVCInputArchive@@@Z 00427ce0 f   OsysCheckBox.obj
 0001:000271b0       ?EcritArchiveEx@COsysCheckBox@@UAEXAAVCOutputArchive@@@Z 004281b0 f   OsysCheckBox.obj
 0001:00027310       ?Draw@COsysCheckBox@@UAEXPAVCDC@@@Z 00428310 f   OsysCheckBox.obj
 0001:000273a0       ?LitTailleDefaut@COsysCheckBox@@UAEXAAVCRect@@@Z 004283a0 f   OsysCheckBox.obj
 0001:000273e0       ?OnChangePositionTaille@COsysCheckBox@@UAEXXZ 004283e0 f   OsysCheckBox.obj
 0001:000274f0       ?OnChangeZoom@COsysCheckBox@@UAEXXZ 004284f0 f   OsysCheckBox.obj
 0001:00027630       ?OnChangeUnite@COsysCheckBox@@UAEXXZ 00428630 f   OsysCheckBox.obj
 0001:00027710       ?RectangleCroise@COsysCheckBox@@QAEXPAVCDC@@AAVCRect@@@Z 00428710 f   OsysCheckBox.obj
 0001:000277d0       ?OnModify@COsysCheckBox@@QAEXXZ 004287d0 f   OsysCheckBox.obj
 0001:00027900       ?InitMemoireValeurEx@COsysCheckBox@@UAEXPBD@Z 00428900 f   OsysCheckBox.obj
 0001:00027da0       ??0COsysCirc@@QAE@PAVCOsysFrame@@PAVCOsysObjet@@H@Z 00428da0 f   OsysCirc.obj
 0001:00027df0       ?LitTypeObjet@COsysCirc@@UAEPBDXZ 00428df0 f i OsysCirc.obj
 0001:00027e10       ?LitNomDefaut@COsysCirc@@UAEPBDXZ 00428e10 f i OsysCirc.obj
 0001:00027e30       ??_ECOsysCirc@@UAEPAXI@Z   00428e30 f i OsysCirc.obj
 0001:00027e30       ??_GCOsysCirc@@UAEPAXI@Z   00428e30 f i OsysCirc.obj
 0001:00027e60       ??1COsysCirc@@UAE@XZ       00428e60 f   OsysCirc.obj
 0001:00027e80       ?LitArchiveEx@COsysCirc@@UAEXPBDAAVCInputArchive@@@Z 00428e80 f   OsysCirc.obj
 0001:00027f70       ?EcritArchiveEx@COsysCirc@@UAEXAAVCOutputArchive@@@Z 00428f70 f   OsysCirc.obj
 0001:00027ff0       ?Draw@COsysCirc@@UAEXPAVCDC@@@Z 00428ff0 f   OsysCirc.obj
 0001:00028250       ?LitTailleDefaut@COsysCirc@@UAEXAAVCRect@@@Z 00429250 f   OsysCirc.obj
 0001:00028290       ?DessineEllipse@COsysCirc@@QAEXPAVCDC@@VCPoint@@1@Z 00429290 f   OsysCirc.obj
 0001:00028310       ?InitMemoireValeurEx@COsysCirc@@UAEXPBD@Z 00429310 f   OsysCirc.obj
 0001:000285c0       ??0COsysCircPlein@@QAE@PAVCOsysFrame@@PAVCOsysObjet@@H@Z 004295c0 f   OsysCircPlein.obj
 0001:00028630       ?LitTypeObjet@COsysCircPlein@@UAEPBDXZ 00429630 f i OsysCircPlein.obj
 0001:00028650       ?LitNomDefaut@COsysCircPlein@@UAEPBDXZ 00429650 f i OsysCircPlein.obj
 0001:00028670       ??_ECOsysCircPlein@@UAEPAXI@Z 00429670 f i OsysCircPlein.obj
 0001:00028670       ??_GCOsysCircPlein@@UAEPAXI@Z 00429670 f i OsysCircPlein.obj
 0001:000286a0       ??1COsysCircPlein@@UAE@XZ  004296a0 f   OsysCircPlein.obj
 0001:000286c0       ?LitArchiveEx@COsysCircPlein@@UAEXPBDAAVCInputArchive@@@Z 004296c0 f   OsysCircPlein.obj
 0001:000287e0       ?EcritArchiveEx@COsysCircPlein@@UAEXAAVCOutputArchive@@@Z 004297e0 f   OsysCircPlein.obj
 0001:00028870       ?Draw@COsysCircPlein@@UAEXPAVCDC@@@Z 00429870 f   OsysCircPlein.obj
 0001:000288e0       ?LitTailleDefaut@COsysCircPlein@@UAEXAAVCRect@@@Z 004298e0 f   OsysCircPlein.obj
 0001:00028920       ?DessineEllipsePlein@COsysCircPlein@@QAEXPAVCDC@@VCPoint@@1@Z 00429920 f   OsysCircPlein.obj
 0001:00028be0       ?InitMemoireValeurEx@COsysCircPlein@@UAEXPBD@Z 00429be0 f   OsysCircPlein.obj
 0001:00028f30       ??0COsysCombo@@QAE@PAVCOsysFrame@@PAVCOsysObjet@@H@Z 00429f30 f   OsysCombo.obj
 0001:000290b0       ?LitTypeObjet@COsysCombo@@UAEPBDXZ 0042a0b0 f i OsysCombo.obj
 0001:000290d0       ?LitNomDefaut@COsysCombo@@UAEPBDXZ 0042a0d0 f i OsysCombo.obj
 0001:000290f0       ??_ECOsysCombo@@UAEPAXI@Z  0042a0f0 f i OsysCombo.obj
 0001:000290f0       ??_GCOsysCombo@@UAEPAXI@Z  0042a0f0 f i OsysCombo.obj
 0001:00029120       ??1COsysCombo@@UAE@XZ      0042a120 f   OsysCombo.obj
 0001:00029200       ?LitArchiveEx@COsysCombo@@UAEXPBDAAVCInputArchive@@@Z 0042a200 f   OsysCombo.obj
 0001:000298d0       ?EcritArchiveEx@COsysCombo@@UAEXAAVCOutputArchive@@@Z 0042a8d0 f   OsysCombo.obj
 0001:00029a50       ?Draw@COsysCombo@@UAEXPAVCDC@@@Z 0042aa50 f   OsysCombo.obj
 0001:00029ae0       ?LitTailleDefaut@COsysCombo@@UAEXAAVCRect@@@Z 0042aae0 f   OsysCombo.obj
 0001:00029b20       ?OnChangePositionTaille@COsysCombo@@UAEXXZ 0042ab20 f   OsysCombo.obj
 0001:00029c30       ?OnChangeZoom@COsysCombo@@UAEXXZ 0042ac30 f   OsysCombo.obj
 0001:00029d70       ?OnChangeUnite@COsysCombo@@UAEXXZ 0042ad70 f   OsysCombo.obj
 0001:00029e50       ?RectangleCroise@COsysCombo@@QAEXPAVCDC@@AAVCRect@@@Z 0042ae50 f   OsysCombo.obj
 0001:00029f10       ?InitListeValeur@COsysCombo@@QAEXXZ 0042af10 f   OsysCombo.obj
 0001:0002a160       ?SelectElement@COsysCombo@@QAEHPBDAAH@Z 0042b160 f   OsysCombo.obj
 0001:0002a1b0       ?SelectNumElement@COsysCombo@@QAEHHAAVCString@@@Z 0042b1b0 f   OsysCombo.obj
 0001:0002a250       ?OnModify@COsysCombo@@QAEXXZ 0042b250 f   OsysCombo.obj
 0001:0002a470       ?InitMemoireValeurEx@COsysCombo@@UAEXPBD@Z 0042b470 f   OsysCombo.obj
 0001:0002aae0       ?OnModifMemoireEx@COsysCombo@@UAEXPBDPAVCMemoireRecu@@@Z 0042bae0 f   OsysCombo.obj
 0001:0002ae50       ?LitValMemoire@COsysCombo@@QAEHPAVCMemoireRecu@@AAVCString@@@Z 0042be50 f   OsysCombo.obj
 0001:0002af70       ??0COsysEdit@@QAE@PAVCOsysFrame@@PAVCOsysObjet@@H@Z 0042bf70 f   OsysEdit.obj
 0001:0002b0e0       ?LitTypeObjet@COsysEdit@@UAEPBDXZ 0042c0e0 f i OsysEdit.obj
 0001:0002b100       ?LitNomDefaut@COsysEdit@@UAEPBDXZ 0042c100 f i OsysEdit.obj
 0001:0002b120       ??_ECOsysEdit@@UAEPAXI@Z   0042c120 f i OsysEdit.obj
 0001:0002b120       ??_GCOsysEdit@@UAEPAXI@Z   0042c120 f i OsysEdit.obj
 0001:0002b150       ??1COsysEdit@@UAE@XZ       0042c150 f   OsysEdit.obj
 0001:0002b220       ?LitArchiveEx@COsysEdit@@UAEXPBDAAVCInputArchive@@@Z 0042c220 f   OsysEdit.obj
 0001:0002b710       ?EcritArchiveEx@COsysEdit@@UAEXAAVCOutputArchive@@@Z 0042c710 f   OsysEdit.obj
 0001:0002b890       ?Draw@COsysEdit@@UAEXPAVCDC@@@Z 0042c890 f   OsysEdit.obj
 0001:0002b920       ?LitTailleDefaut@COsysEdit@@UAEXAAVCRect@@@Z 0042c920 f   OsysEdit.obj
 0001:0002b960       ?OnChangePositionTaille@COsysEdit@@UAEXXZ 0042c960 f   OsysEdit.obj
 0001:0002ba70       ?OnChangeZoom@COsysEdit@@UAEXXZ 0042ca70 f   OsysEdit.obj
 0001:0002bbb0       ?OnChangeUnite@COsysEdit@@UAEXXZ 0042cbb0 f   OsysEdit.obj
 0001:0002bc90       ?RectangleCroise@COsysEdit@@QAEXPAVCDC@@AAVCRect@@@Z 0042cc90 f   OsysEdit.obj
 0001:0002bd50       ?OnModify@COsysEdit@@QAEXXZ 0042cd50 f   OsysEdit.obj
 0001:0002be40       ?InitMemoireValeurEx@COsysEdit@@UAEXPBD@Z 0042ce40 f   OsysEdit.obj
 0001:0002c370       ??0COsysEditMulti@@QAE@PAVCOsysFrame@@PAVCOsysObjet@@H@Z 0042d370 f   OsysEditMulti.obj
 0001:0002c4e0       ?LitTypeObjet@COsysEditMulti@@UAEPBDXZ 0042d4e0 f i OsysEditMulti.obj
 0001:0002c500       ?LitNomDefaut@COsysEditMulti@@UAEPBDXZ 0042d500 f i OsysEditMulti.obj
 0001:0002c520       ??_GCOsysEditMulti@@UAEPAXI@Z 0042d520 f i OsysEditMulti.obj
 0001:0002c520       ??_ECOsysEditMulti@@UAEPAXI@Z 0042d520 f i OsysEditMulti.obj
 0001:0002c550       ??1COsysEditMulti@@UAE@XZ  0042d550 f   OsysEditMulti.obj
 0001:0002c610       ?LitArchiveEx@COsysEditMulti@@UAEXPBDAAVCInputArchive@@@Z 0042d610 f   OsysEditMulti.obj
 0001:0002cb90       ?EcritArchiveEx@COsysEditMulti@@UAEXAAVCOutputArchive@@@Z 0042db90 f   OsysEditMulti.obj
 0001:0002ccd0       ?Draw@COsysEditMulti@@UAEXPAVCDC@@@Z 0042dcd0 f   OsysEditMulti.obj
 0001:0002cd60       ?LitTailleDefaut@COsysEditMulti@@UAEXAAVCRect@@@Z 0042dd60 f   OsysEditMulti.obj
 0001:0002cda0       ?OnChangePositionTaille@COsysEditMulti@@UAEXXZ 0042dda0 f   OsysEditMulti.obj
 0001:0002ceb0       ?OnChangeZoom@COsysEditMulti@@UAEXXZ 0042deb0 f   OsysEditMulti.obj
 0001:0002cff0       ?OnChangeUnite@COsysEditMulti@@UAEXXZ 0042dff0 f   OsysEditMulti.obj
 0001:0002d0d0       ?RectangleCroise@COsysEditMulti@@QAEXPAVCDC@@AAVCRect@@@Z 0042e0d0 f   OsysEditMulti.obj
 0001:0002d190       ?InitMemoireValeurEx@COsysEditMulti@@UAEXPBD@Z 0042e190 f   OsysEditMulti.obj
 0001:0002d810       ?OnModify@COsysEditMulti@@QAEXXZ 0042e810 f   OsysEditMulti.obj
 0001:0002dab0       ?OnModifMemoireEx@COsysEditMulti@@UAEXPBDPAVCMemoireRecu@@@Z 0042eab0 f   OsysEditMulti.obj
 0001:0002dd20       ?LitValMemoire@COsysEditMulti@@QAEHPAVCMemoireRecu@@AAVCString@@@Z 0042ed20 f   OsysEditMulti.obj
 0001:0002de40       ??0COsysLine@@QAE@PAVCOsysFrame@@PAVCOsysObjet@@H@Z 0042ee40 f   OsysLine.obj
 0001:0002de90       ?LitTypeObjet@COsysLine@@UAEPBDXZ 0042ee90 f i OsysLine.obj
 0001:0002deb0       ?LitNomDefaut@COsysLine@@UAEPBDXZ 0042eeb0 f i OsysLine.obj
 0001:0002ded0       ??_GCOsysLine@@UAEPAXI@Z   0042eed0 f i OsysLine.obj
 0001:0002ded0       ??_ECOsysLine@@UAEPAXI@Z   0042eed0 f i OsysLine.obj
 0001:0002df00       ??1COsysLine@@UAE@XZ       0042ef00 f   OsysLine.obj
 0001:0002df20       ?LitArchiveEx@COsysLine@@UAEXPBDAAVCInputArchive@@@Z 0042ef20 f   OsysLine.obj
 0001:0002e010       ?EcritArchiveEx@COsysLine@@UAEXAAVCOutputArchive@@@Z 0042f010 f   OsysLine.obj
 0001:0002e090       ?Draw@COsysLine@@UAEXPAVCDC@@@Z 0042f090 f   OsysLine.obj
 0001:0002e2e0       ?LitTailleDefaut@COsysLine@@UAEXAAVCRect@@@Z 0042f2e0 f   OsysLine.obj
 0001:0002e320       ?InitMemoireValeurEx@COsysLine@@UAEXPBD@Z 0042f320 f   OsysLine.obj
 0001:0002e5d0       ??0COsysListe@@QAE@PAVCOsysFrame@@PAVCOsysObjet@@H@Z 0042f5d0 f   OsysListe.obj
 0001:0002e750       ?LitTypeObjet@COsysListe@@UAEPBDXZ 0042f750 f i OsysListe.obj
 0001:0002e770       ?LitNomDefaut@COsysListe@@UAEPBDXZ 0042f770 f i OsysListe.obj
 0001:0002e790       ??_GCOsysListe@@UAEPAXI@Z  0042f790 f i OsysListe.obj
 0001:0002e790       ??_ECOsysListe@@UAEPAXI@Z  0042f790 f i OsysListe.obj
 0001:0002e7c0       ??1COsysListe@@UAE@XZ      0042f7c0 f   OsysListe.obj
 0001:0002e8a0       ?LitArchiveEx@COsysListe@@UAEXPBDAAVCInputArchive@@@Z 0042f8a0 f   OsysListe.obj
 0001:0002ef70       ?EcritArchiveEx@COsysListe@@UAEXAAVCOutputArchive@@@Z 0042ff70 f   OsysListe.obj
 0001:0002f0f0       ?Draw@COsysListe@@UAEXPAVCDC@@@Z 004300f0 f   OsysListe.obj
 0001:0002f180       ?LitTailleDefaut@COsysListe@@UAEXAAVCRect@@@Z 00430180 f   OsysListe.obj
 0001:0002f1c0       ?OnChangePositionTaille@COsysListe@@UAEXXZ 004301c0 f   OsysListe.obj
 0001:0002f2d0       ?OnChangeZoom@COsysListe@@UAEXXZ 004302d0 f   OsysListe.obj
 0001:0002f410       ?OnChangeUnite@COsysListe@@UAEXXZ 00430410 f   OsysListe.obj
 0001:0002f4f0       ?RectangleCroise@COsysListe@@QAEXPAVCDC@@AAVCRect@@@Z 004304f0 f   OsysListe.obj
 0001:0002f5b0       ?InitListeValeur@COsysListe@@QAEXXZ 004305b0 f   OsysListe.obj
 0001:0002f800       ?SelectElement@COsysListe@@QAEHPBDAAH@Z 00430800 f   OsysListe.obj
 0001:0002f850       ?SelectNumElement@COsysListe@@QAEHHAAVCString@@@Z 00430850 f   OsysListe.obj
 0001:0002f8f0       ?OnModify@COsysListe@@QAEXXZ 004308f0 f   OsysListe.obj
 0001:0002fb10       ?InitMemoireValeurEx@COsysListe@@UAEXPBD@Z 00430b10 f   OsysListe.obj
 0001:000301a0       ?OnModifMemoireEx@COsysListe@@UAEXPBDPAVCMemoireRecu@@@Z 004311a0 f   OsysListe.obj
 0001:00030510       ?LitValMemoire@COsysListe@@QAEHPAVCMemoireRecu@@AAVCString@@@Z 00431510 f   OsysListe.obj
 0001:00030630       ??0COsysObjet@@QAE@PAVCOsysFrame@@PAV0@H@Z 00431630 f   OsysObjet.obj
 0001:00030750       ??_ECOsysObjet@@UAEPAXI@Z  00431750 f i OsysObjet.obj
 0001:00030750       ??_GCOsysObjet@@UAEPAXI@Z  00431750 f i OsysObjet.obj
 0001:00030780       ??1COsysObjet@@UAE@XZ      00431780 f   OsysObjet.obj
 0001:00030820       ?LitTypeObjet@COsysObjet@@UAEPBDXZ 00431820 f   OsysObjet.obj
 0001:00030840       ?LitNomDefaut@COsysObjet@@UAEPBDXZ 00431840 f   OsysObjet.obj
 0001:00030860       ?Draw@COsysObjet@@UAEXPAVCDC@@@Z 00431860 f   OsysObjet.obj
 0001:000308b0       ?LitArchive@COsysObjet@@QAEXAAVCInputArchive@@@Z 004318b0 f   OsysObjet.obj
 0001:00030c40       ?EcritArchive@COsysObjet@@QAEXAAVCOutputArchive@@@Z 00431c40 f   OsysObjet.obj
 0001:00030d80       ?LitArchiveEx@COsysObjet@@UAEXPBDAAVCInputArchive@@@Z 00431d80 f   OsysObjet.obj
 0001:00030da0       ?EcritArchiveEx@COsysObjet@@UAEXAAVCOutputArchive@@@Z 00431da0 f   OsysObjet.obj
 0001:00030dc0       ?AjouteObjetFils@COsysObjet@@QAEXPAV1@@Z 00431dc0 f   OsysObjet.obj
 0001:00030e50       ?SupprimeObjetFils@COsysObjet@@QAEXPAV1@@Z 00431e50 f   OsysObjet.obj
 0001:00030e80       ?LitTailleDefaut@COsysObjet@@UAEXAAVCRect@@@Z 00431e80 f   OsysObjet.obj
 0001:00030ea0       ?EcritTaillePosition@COsysObjet@@QAEXPBUtagRECT@@@Z 00431ea0 f   OsysObjet.obj
 0001:00030f60       ?OnChangePositionTaille@COsysObjet@@UAEXXZ 00431f60 f   OsysObjet.obj
 0001:00030ff0       ?OnChangeParentPositionTaille@COsysObjet@@UAEXAAVCRect@@0@Z 00431ff0 f   OsysObjet.obj
 0001:00031120       ?AjusteCoordonneesFrame@COsysObjet@@QAE?AVCRect@@PBUtagRECT@@@Z 00432120 f   OsysObjet.obj
 0001:000311f0       ?OnChangeZoom@COsysObjet@@UAEXXZ 004321f0 f   OsysObjet.obj
 0001:00031230       ?OnChangeUnite@COsysObjet@@UAEXXZ 00432230 f   OsysObjet.obj
 0001:00031270       ?InitDemandeContenuMemoire@COsysObjet@@QAEXXZ 00432270 f   OsysObjet.obj
 0001:00031450       ?SupprimeDemandeContenuMemoire@COsysObjet@@QAEXXZ 00432450 f   OsysObjet.obj
 0001:000315b0       ?OnModifMemoire@COsysObjet@@UAEXPBDPAVCMemoireRecu@@@Z 004325b0 f   OsysObjet.obj
 0001:00031940       ?OnModifMemoireEx@COsysObjet@@UAEXPBDPAVCMemoireRecu@@@Z 00432940 f   OsysObjet.obj
 0001:00031b20       ?InitMemoireValeur@COsysObjet@@QAEXPBD@Z 00432b20 f   OsysObjet.obj
 0001:00031de0       ?InitMemoireValeurEx@COsysObjet@@UAEXPBD@Z 00432de0 f   OsysObjet.obj
 0001:00031e00       ??0COsysRadioGroup@@QAE@PAVCOsysFrame@@PAVCOsysObjet@@H@Z 00432e00 f   OsysRadioGroup.obj
 0001:00031fc0       ?LitTypeObjet@COsysRadioGroup@@UAEPBDXZ 00432fc0 f i OsysRadioGroup.obj
 0001:00031fe0       ?LitNomDefaut@COsysRadioGroup@@UAEPBDXZ 00432fe0 f i OsysRadioGroup.obj
 0001:00032000       ??_GCOsysRadioGroup@@UAEPAXI@Z 00433000 f i OsysRadioGroup.obj
 0001:00032000       ??_ECOsysRadioGroup@@UAEPAXI@Z 00433000 f i OsysRadioGroup.obj
 0001:00032030       ??1COsysRadioGroup@@UAE@XZ 00433030 f   OsysRadioGroup.obj
 0001:00032140       ?LitArchiveEx@COsysRadioGroup@@UAEXPBDAAVCInputArchive@@@Z 00433140 f   OsysRadioGroup.obj
 0001:000327d0       ?EcritArchiveEx@COsysRadioGroup@@UAEXAAVCOutputArchive@@@Z 004337d0 f   OsysRadioGroup.obj
 0001:000329b0       ?Draw@COsysRadioGroup@@UAEXPAVCDC@@@Z 004339b0 f   OsysRadioGroup.obj
 0001:00032a40       ?LitTailleDefaut@COsysRadioGroup@@UAEXAAVCRect@@@Z 00433a40 f   OsysRadioGroup.obj
 0001:00032a80       ?OnChangePositionTaille@COsysRadioGroup@@UAEXXZ 00433a80 f   OsysRadioGroup.obj
 0001:00032b70       ?OnChangeZoom@COsysRadioGroup@@UAEXXZ 00433b70 f   OsysRadioGroup.obj
 0001:00032cb0       ?OnChangeUnite@COsysRadioGroup@@UAEXXZ 00433cb0 f   OsysRadioGroup.obj
 0001:00032ce0       ?RectangleCroise@COsysRadioGroup@@QAEXPAVCDC@@AAVCRect@@@Z 00433ce0 f   OsysRadioGroup.obj
 0001:00032da0       ?InitListe@COsysRadioGroup@@QAEXXZ 00433da0 f   OsysRadioGroup.obj
 0001:00032f30       ?RazListe@COsysRadioGroup@@QAEXXZ 00433f30 f   OsysRadioGroup.obj
 0001:00032f80       ?AjoutListe@COsysRadioGroup@@QAEXPAVCRadioEx@@@Z 00433f80 f   OsysRadioGroup.obj
 0001:00032fa0       ?InitTexteRadio@COsysRadioGroup@@QAEXXZ 00433fa0 f   OsysRadioGroup.obj
 0001:00033200       ?AligneRadio@COsysRadioGroup@@QAEXXZ 00434200 f   OsysRadioGroup.obj
 0001:000334a0       ?SelectRadio@COsysRadioGroup@@QAEXXZ 004344a0 f   OsysRadioGroup.obj
 0001:00033540       ?LitRadioSelect@COsysRadioGroup@@QAEHAAVCString@@@Z 00434540 f   OsysRadioGroup.obj
 0001:000335c0       ?OnModify@COsysRadioGroup@@QAEXXZ 004345c0 f   OsysRadioGroup.obj
 0001:000337c0       ?InitMemoireValeurEx@COsysRadioGroup@@UAEXPBD@Z 004347c0 f   OsysRadioGroup.obj
 0001:00033fd0       ?IndexValeurRadio@COsysRadioGroup@@QAEHPBD@Z 00434fd0 f   OsysRadioGroup.obj
 0001:000340b0       ?OnModifMemoireEx@COsysRadioGroup@@UAEXPBDPAVCMemoireRecu@@@Z 004350b0 f   OsysRadioGroup.obj
 0001:00034320       ?LitValMemoire@COsysRadioGroup@@QAEHPAVCMemoireRecu@@AAVCString@@@Z 00435320 f   OsysRadioGroup.obj
 0001:00034440       ?FocusRadio@COsysRadioGroup@@QAEXXZ 00435440 f   OsysRadioGroup.obj
 0001:00034480       ??0COsysRect@@QAE@PAVCOsysFrame@@PAVCOsysObjet@@H@Z 00435480 f   OsysRect.obj
 0001:000344d0       ?LitTypeObjet@COsysRect@@UAEPBDXZ 004354d0 f i OsysRect.obj
 0001:000344f0       ?LitNomDefaut@COsysRect@@UAEPBDXZ 004354f0 f i OsysRect.obj
 0001:00034510       ??_ECOsysRect@@UAEPAXI@Z   00435510 f i OsysRect.obj
 0001:00034510       ??_GCOsysRect@@UAEPAXI@Z   00435510 f i OsysRect.obj
 0001:00034540       ??1COsysRect@@UAE@XZ       00435540 f   OsysRect.obj
 0001:00034560       ?LitArchiveEx@COsysRect@@UAEXPBDAAVCInputArchive@@@Z 00435560 f   OsysRect.obj
 0001:00034650       ?EcritArchiveEx@COsysRect@@UAEXAAVCOutputArchive@@@Z 00435650 f   OsysRect.obj
 0001:000346d0       ?Draw@COsysRect@@UAEXPAVCDC@@@Z 004356d0 f   OsysRect.obj
 0001:00034930       ?LitTailleDefaut@COsysRect@@UAEXAAVCRect@@@Z 00435930 f   OsysRect.obj
 0001:00034970       ?DessineRectangle@COsysRect@@QAEXPAVCDC@@VCPoint@@1@Z 00435970 f   OsysRect.obj
 0001:00034a90       ?InitMemoireValeurEx@COsysRect@@UAEXPBD@Z 00435a90 f   OsysRect.obj
 0001:00034d40       ??0COsysRectPlein@@QAE@PAVCOsysFrame@@PAVCOsysObjet@@H@Z 00435d40 f   OsysRectPlein.obj
 0001:00034d90       ?LitTypeObjet@COsysRectPlein@@UAEPBDXZ 00435d90 f i OsysRectPlein.obj
 0001:00034db0       ?LitNomDefaut@COsysRectPlein@@UAEPBDXZ 00435db0 f i OsysRectPlein.obj
 0001:00034dd0       ??_ECOsysRectPlein@@UAEPAXI@Z 00435dd0 f i OsysRectPlein.obj
 0001:00034dd0       ??_GCOsysRectPlein@@UAEPAXI@Z 00435dd0 f i OsysRectPlein.obj
 0001:00034e00       ??1COsysRectPlein@@UAE@XZ  00435e00 f   OsysRectPlein.obj
 0001:00034e20       ?LitArchiveEx@COsysRectPlein@@UAEXPBDAAVCInputArchive@@@Z 00435e20 f   OsysRectPlein.obj
 0001:00034f40       ?EcritArchiveEx@COsysRectPlein@@UAEXAAVCOutputArchive@@@Z 00435f40 f   OsysRectPlein.obj
 0001:00034fd0       ?Draw@COsysRectPlein@@UAEXPAVCDC@@@Z 00435fd0 f   OsysRectPlein.obj
 0001:00035040       ?LitTailleDefaut@COsysRectPlein@@UAEXAAVCRect@@@Z 00436040 f   OsysRectPlein.obj
 0001:00035080       ?DessineRectanglePlein@COsysRectPlein@@QAEXPAVCDC@@VCPoint@@1@Z 00436080 f   OsysRectPlein.obj
 0001:000353f0       ?InitMemoireValeurEx@COsysRectPlein@@UAEXPBD@Z 004363f0 f   OsysRectPlein.obj
 0001:00035740       ??0COsysTableau@@QAE@PAVCOsysFrame@@PAVCOsysObjet@@H@Z 00436740 f   OsysTableau.obj
 0001:00035a80       ?LitTypeObjet@COsysTableau@@UAEPBDXZ 00436a80 f i OsysTableau.obj
 0001:00035aa0       ?LitNomDefaut@COsysTableau@@UAEPBDXZ 00436aa0 f i OsysTableau.obj
 0001:00035ac0       ??_GCOsysTableau@@UAEPAXI@Z 00436ac0 f i OsysTableau.obj
 0001:00035ac0       ??_ECOsysTableau@@UAEPAXI@Z 00436ac0 f i OsysTableau.obj
 0001:00035af0       ??1COsysTableau@@UAE@XZ    00436af0 f   OsysTableau.obj
 0001:00035c00       ?LitArchiveEx@COsysTableau@@UAEXPBDAAVCInputArchive@@@Z 00436c00 f   OsysTableau.obj
 0001:00036220       ?EcritArchiveEx@COsysTableau@@UAEXAAVCOutputArchive@@@Z 00437220 f   OsysTableau.obj
 0001:00036520       ?Draw@COsysTableau@@UAEXPAVCDC@@@Z 00437520 f   OsysTableau.obj
 0001:000365b0       ?LitTailleDefaut@COsysTableau@@UAEXAAVCRect@@@Z 004375b0 f   OsysTableau.obj
 0001:000365f0       ?OnChangePositionTaille@COsysTableau@@UAEXXZ 004375f0 f   OsysTableau.obj
 0001:00036700       ?OnChangeZoom@COsysTableau@@UAEXXZ 00437700 f   OsysTableau.obj
 0001:00036840       ?OnChangeUnite@COsysTableau@@UAEXXZ 00437840 f   OsysTableau.obj
 0001:00036920       ?RectangleCroise@COsysTableau@@QAEXPAVCDC@@AAVCRect@@@Z 00437920 f   OsysTableau.obj
 0001:000369e0       ?InitEntete@COsysTableau@@QAEXXZ 004379e0 f   OsysTableau.obj
 0001:00036bc0       ?RazEntete@COsysTableau@@QAEXXZ 00437bc0 f   OsysTableau.obj
 0001:00036c00       ?OnModify@COsysTableau@@QAEXXZ 00437c00 f   OsysTableau.obj
 0001:00036f40       ?MajTailleColonnes@COsysTableau@@QAEHXZ 00437f40 f   OsysTableau.obj
 0001:000370d0       ?MajListeStatutColonnes@COsysTableau@@QAEHXZ 004380d0 f   OsysTableau.obj
 0001:000372e0       ?LitStatutColonne@COsysTableau@@QAEHH@Z 004382e0 f   OsysTableau.obj
 0001:00037320       ?InitContenuTableau@COsysTableau@@QAEXXZ 00438320 f   OsysTableau.obj
 0001:000376b0       ?OnModifMemoireEx@COsysTableau@@UAEXPBDPAVCMemoireRecu@@@Z 004386b0 f   OsysTableau.obj
 0001:00037920       ?LitValMemoire@COsysTableau@@QAEHPAVCMemoireRecu@@AAVCString@@@Z 00438920 f   OsysTableau.obj
 0001:00037a40       ?InitMemoireValeurEx@COsysTableau@@UAEXPBD@Z 00438a40 f   OsysTableau.obj
 0001:00038710       ?OnModifySelection@COsysTableau@@QAEXHH@Z 00439710 f   OsysTableau.obj
 0001:00038a00       ??0COsysWebBrowser@@QAE@PAVCOsysFrame@@PAVCOsysObjet@@H@Z 00439a00 f   OsysWebBrowser.obj
 0001:00038b10       ?LitTypeObjet@COsysWebBrowser@@UAEPBDXZ 00439b10 f i OsysWebBrowser.obj
 0001:00038b30       ?LitNomDefaut@COsysWebBrowser@@UAEPBDXZ 00439b30 f i OsysWebBrowser.obj
 0001:00038b50       ??_ECOsysWebBrowser@@UAEPAXI@Z 00439b50 f i OsysWebBrowser.obj
 0001:00038b50       ??_GCOsysWebBrowser@@UAEPAXI@Z 00439b50 f i OsysWebBrowser.obj
 0001:00038b80       ??1COsysWebBrowser@@UAE@XZ 00439b80 f   OsysWebBrowser.obj
 0001:00038c10       ?LitArchiveEx@COsysWebBrowser@@UAEXPBDAAVCInputArchive@@@Z 00439c10 f   OsysWebBrowser.obj
 0001:00038d40       ?EcritArchiveEx@COsysWebBrowser@@UAEXAAVCOutputArchive@@@Z 00439d40 f   OsysWebBrowser.obj
 0001:00038db0       ?Draw@COsysWebBrowser@@UAEXPAVCDC@@@Z 00439db0 f   OsysWebBrowser.obj
 0001:00038e40       ?LitTailleDefaut@COsysWebBrowser@@UAEXAAVCRect@@@Z 00439e40 f   OsysWebBrowser.obj
 0001:00038e80       ?OnChangePositionTaille@COsysWebBrowser@@UAEXXZ 00439e80 f   OsysWebBrowser.obj
 0001:00038f90       ?OnChangeZoom@COsysWebBrowser@@UAEXXZ 00439f90 f   OsysWebBrowser.obj
 0001:000390d0       ?OnChangeUnite@COsysWebBrowser@@UAEXXZ 0043a0d0 f   OsysWebBrowser.obj
 0001:000391b0       ?RectangleCroise@COsysWebBrowser@@QAEXPAVCDC@@AAVCRect@@@Z 0043a1b0 f   OsysWebBrowser.obj
 0001:00039270       ?InitMemoireValeurEx@COsysWebBrowser@@UAEXPBD@Z 0043a270 f   OsysWebBrowser.obj
 0001:00039470       ??0COsysZoneDraw@@QAE@PAVCOsysFrame@@PAVCOsysObjet@@H@Z 0043a470 f   OsysZoneDraw.obj
 0001:00039560       ?LitTypeObjet@COsysZoneDraw@@UAEPBDXZ 0043a560 f i OsysZoneDraw.obj
 0001:00039580       ?LitNomDefaut@COsysZoneDraw@@UAEPBDXZ 0043a580 f i OsysZoneDraw.obj
 0001:000395a0       ??_ECOsysZoneDraw@@UAEPAXI@Z 0043a5a0 f i OsysZoneDraw.obj
 0001:000395a0       ??_GCOsysZoneDraw@@UAEPAXI@Z 0043a5a0 f i OsysZoneDraw.obj
 0001:000395d0       ??1COsysZoneDraw@@UAE@XZ   0043a5d0 f   OsysZoneDraw.obj
 0001:00039660       ?LitArchiveEx@COsysZoneDraw@@UAEXPBDAAVCInputArchive@@@Z 0043a660 f   OsysZoneDraw.obj
 0001:000399f0       ?EcritArchiveEx@COsysZoneDraw@@UAEXAAVCOutputArchive@@@Z 0043a9f0 f   OsysZoneDraw.obj
 0001:00039a40       ?Draw@COsysZoneDraw@@UAEXPAVCDC@@@Z 0043aa40 f   OsysZoneDraw.obj
 0001:00039c00       ?LitTailleDefaut@COsysZoneDraw@@UAEXAAVCRect@@@Z 0043ac00 f   OsysZoneDraw.obj
 0001:00039c40       ?OnChangePositionTaille@COsysZoneDraw@@UAEXXZ 0043ac40 f   OsysZoneDraw.obj
 0001:00039d60       ?OnChangeZoom@COsysZoneDraw@@UAEXXZ 0043ad60 f   OsysZoneDraw.obj
 0001:00039ea0       ?OnChangeUnite@COsysZoneDraw@@UAEXXZ 0043aea0 f   OsysZoneDraw.obj
 0001:00039f80       ?RectangleCroise@COsysZoneDraw@@QAEXPAVCDC@@AAVCRect@@@Z 0043af80 f   OsysZoneDraw.obj
 0001:0003a040       ?AjoutListe@COsysZoneDraw@@QAEXPAVCDefGraphique@@@Z 0043b040 f   OsysZoneDraw.obj
 0001:0003a060       ?RazListe@COsysZoneDraw@@QAEXXZ 0043b060 f   OsysZoneDraw.obj
 0001:0003a0b0       ?DefGraphiqueArchive@COsysZoneDraw@@QAEXPAVCDefGraphique@@PAVCOsysObjet@@@Z 0043b0b0 f   OsysZoneDraw.obj
 0001:0003a270       ?InitMemoireValeurEx@COsysZoneDraw@@UAEXPBD@Z 0043b270 f   OsysZoneDraw.obj
 0001:0003a480       ??0CDefGraphique@@QAE@XZ   0043b480 f   OsysZoneDraw.obj
 0001:0003a4d0       ??_ECDefGraphique@@UAEPAXI@Z 0043b4d0 f i OsysZoneDraw.obj
 0001:0003a4d0       ??_GCDefGraphique@@UAEPAXI@Z 0043b4d0 f i OsysZoneDraw.obj
 0001:0003a500       ??1CDefGraphique@@UAE@XZ   0043b500 f   OsysZoneDraw.obj
 0001:0003a520       ??0CRadioEx@@QAE@PAVCOsysRadioGroup@@@Z 0043b520 f   radioex.obj
 0001:0003a560       ??_GCRadioEx@@UAEPAXI@Z    0043b560 f i radioex.obj
 0001:0003a560       ??_ECRadioEx@@UAEPAXI@Z    0043b560 f i radioex.obj
 0001:0003a590       ??1CRadioEx@@UAE@XZ        0043b590 f   radioex.obj
 0001:0003a610       ?_GetBaseMessageMap@CRadioEx@@KGPBUAFX_MSGMAP@@XZ 0043b610 f   radioex.obj
 0001:0003a630       ?GetMessageMap@CRadioEx@@MBEPBUAFX_MSGMAP@@XZ 0043b630 f   radioex.obj
 0001:0003a650       ?CtlColor@CRadioEx@@IAEPAUHBRUSH__@@PAVCDC@@I@Z 0043b650 f   radioex.obj
 0001:0003a730       ?OnClicked@CRadioEx@@IAEXXZ 0043b730 f   radioex.obj
 0001:0003a7f0       ?OnChar@CRadioEx@@IAEXIII@Z 0043b7f0 f   radioex.obj
 0001:0003aac0       ?OnSetFocus@CRadioEx@@IAEXPAVCWnd@@@Z 0043bac0 f   radioex.obj
 0001:0003aaf0       ?OnKeyDown@CRadioEx@@IAEXIII@Z 0043baf0 f   radioex.obj
 0001:0003abe0       ?OnLButtonDown@CRadioEx@@IAEXIVCPoint@@@Z 0043bbe0 f   radioex.obj
 0001:0003ac30       ?OnKillFocus@CRadioEx@@IAEXPAVCWnd@@@Z 0043bc30 f   radioex.obj
 0001:0003ac50       ?_GetBaseClass@CTableauEx@@KGPAUCRuntimeClass@@XZ 0043bc50 f   TableauEx.obj
 0001:0003ac70       ?GetRuntimeClass@CTableauEx@@UBEPAUCRuntimeClass@@XZ 0043bc70 f   TableauEx.obj
 0001:0003ac90       ??0CTableauEx@@QAE@PAVCOsysTableau@@@Z 0043bc90 f   TableauEx.obj
 0001:0003ad30       ??_ECTableauEx@@UAEPAXI@Z  0043bd30 f i TableauEx.obj
 0001:0003ad30       ??_GCTableauEx@@UAEPAXI@Z  0043bd30 f i TableauEx.obj
 0001:0003ad60       ??1CTableauEx@@UAE@XZ      0043bd60 f   TableauEx.obj
 0001:0003ade0       ?_GetBaseMessageMap@CTableauEx@@KGPBUAFX_MSGMAP@@XZ 0043bde0 f   TableauEx.obj
 0001:0003ae00       ?GetMessageMap@CTableauEx@@MBEPBUAFX_MSGMAP@@XZ 0043be00 f   TableauEx.obj
 0001:0003ae20       ?OnEndEditCell@CTableauEx@@UAEXHHVCString@@@Z 0043be20 f   TableauEx.obj
 0001:0003b020       ?OnCreate@CTableauEx@@IAEHPAUtagCREATESTRUCTA@@@Z 0043c020 f   TableauEx.obj
 0001:0003b040       ?OnEditCell@CTableauEx@@UAEXHHI@Z 0043c040 f   TableauEx.obj
 0001:0003b2c0       ?OnSetFocus@CTableauEx@@IAEXPAVCWnd@@@Z 0043c2c0 f   TableauEx.obj
 0001:0003b2f0       ?OnKeyDown@CTableauEx@@IAEXIII@Z 0043c2f0 f   TableauEx.obj
 0001:0003b380       ?OnLButtonDown@CTableauEx@@IAEXIVCPoint@@@Z 0043c380 f   TableauEx.obj
 0001:0003b3b0       ?OnChar@CTableauEx@@IAEXIII@Z 0043c3b0 f   TableauEx.obj
 0001:0003b5e0       ?CreateObject@CWebBrowser2@@SGPAVCObject@@XZ 0043c5e0 f   webbrowser2.obj
 0001:0003b650       ?Create@CWebBrowser2@@UAEHPBD0KABUtagRECT@@PAVCWnd@@IPAUCCreateContext@@@Z 0043c650 f i webbrowser2.obj
 0001:0003b690       ??_ECWebBrowser2@@UAEPAXI@Z 0043c690 f i webbrowser2.obj
 0001:0003b690       ??_GCWebBrowser2@@UAEPAXI@Z 0043c690 f i webbrowser2.obj
 0001:0003b6c0       ??1CWebBrowser2@@UAE@XZ    0043c6c0 f i webbrowser2.obj
 0001:0003b6e0       ?_GetBaseClass@CWebBrowser2@@KGPAUCRuntimeClass@@XZ 0043c6e0 f   webbrowser2.obj
 0001:0003b700       ?GetRuntimeClass@CWebBrowser2@@UBEPAUCRuntimeClass@@XZ 0043c700 f   webbrowser2.obj
 0001:0003b720       ?GoBack@CWebBrowser2@@QAEXXZ 0043c720 f   webbrowser2.obj
 0001:0003b750       ?GoForward@CWebBrowser2@@QAEXXZ 0043c750 f   webbrowser2.obj
 0001:0003b780       ?GoHome@CWebBrowser2@@QAEXXZ 0043c780 f   webbrowser2.obj
 0001:0003b7b0       ?GoSearch@CWebBrowser2@@QAEXXZ 0043c7b0 f   webbrowser2.obj
 0001:0003b7e0       ?Navigate@CWebBrowser2@@QAEXPBDPAUtagVARIANT@@111@Z 0043c7e0 f   webbrowser2.obj
 0001:0003b830       ?Refresh@CWebBrowser2@@QAEXXZ 0043c830 f   webbrowser2.obj
 0001:0003b860       ?Refresh2@CWebBrowser2@@QAEXPAUtagVARIANT@@@Z 0043c860 f   webbrowser2.obj
 0001:0003b890       ?Stop@CWebBrowser2@@QAEXXZ 0043c890 f   webbrowser2.obj
 0001:0003b8c0       ?GetApplication@CWebBrowser2@@QAEPAUIDispatch@@XZ 0043c8c0 f   webbrowser2.obj
 0001:0003b8f0       ?GetParent@CWebBrowser2@@QAEPAUIDispatch@@XZ 0043c8f0 f   webbrowser2.obj
 0001:0003b920       ?GetContainer@CWebBrowser2@@QAEPAUIDispatch@@XZ 0043c920 f   webbrowser2.obj
 0001:0003b950       ?GetDocument@CWebBrowser2@@QAEPAUIDispatch@@XZ 0043c950 f   webbrowser2.obj
 0001:0003b980       ?GetTopLevelContainer@CWebBrowser2@@QAEHXZ 0043c980 f   webbrowser2.obj
 0001:0003b9b0       ?GetType@CWebBrowser2@@QAE?AVCString@@XZ 0043c9b0 f   webbrowser2.obj
 0001:0003ba70       ?GetLeft@CWebBrowser2@@QAEJXZ 0043ca70 f   webbrowser2.obj
 0001:0003baa0       ?SetLeft@CWebBrowser2@@QAEXJ@Z 0043caa0 f   webbrowser2.obj
 0001:0003bae0       ?GetTop@CWebBrowser2@@QAEJXZ 0043cae0 f   webbrowser2.obj
 0001:0003bb10       ?SetTop@CWebBrowser2@@QAEXJ@Z 0043cb10 f   webbrowser2.obj
 0001:0003bb50       ?GetWidth@CWebBrowser2@@QAEJXZ 0043cb50 f   webbrowser2.obj
 0001:0003bb80       ?SetWidth@CWebBrowser2@@QAEXJ@Z 0043cb80 f   webbrowser2.obj
 0001:0003bbc0       ?GetHeight@CWebBrowser2@@QAEJXZ 0043cbc0 f   webbrowser2.obj
 0001:0003bbf0       ?SetHeight@CWebBrowser2@@QAEXJ@Z 0043cbf0 f   webbrowser2.obj
 0001:0003bc30       ?GetLocationName@CWebBrowser2@@QAE?AVCString@@XZ 0043cc30 f   webbrowser2.obj
 0001:0003bcf0       ?GetLocationURL@CWebBrowser2@@QAE?AVCString@@XZ 0043ccf0 f   webbrowser2.obj
 0001:0003bdb0       ?GetBusy@CWebBrowser2@@QAEHXZ 0043cdb0 f   webbrowser2.obj
 0001:0003bde0       ?Quit@CWebBrowser2@@QAEXXZ 0043cde0 f   webbrowser2.obj
 0001:0003be10       ?ClientToWindow@CWebBrowser2@@QAEXPAJ0@Z 0043ce10 f   webbrowser2.obj
 0001:0003be50       ?PutProperty@CWebBrowser2@@QAEXPBDABUtagVARIANT@@@Z 0043ce50 f   webbrowser2.obj
 0001:0003be90       ?GetProperty_@CWebBrowser2@@QAE?AUtagVARIANT@@PBD@Z 0043ce90 f   webbrowser2.obj
 0001:0003bf00       ?GetName@CWebBrowser2@@QAE?AVCString@@XZ 0043cf00 f   webbrowser2.obj
 0001:0003bfc0       ?GetHwnd@CWebBrowser2@@QAEJXZ 0043cfc0 f   webbrowser2.obj
 0001:0003bff0       ?GetFullName@CWebBrowser2@@QAE?AVCString@@XZ 0043cff0 f   webbrowser2.obj
 0001:0003c0b0       ?GetPath@CWebBrowser2@@QAE?AVCString@@XZ 0043d0b0 f   webbrowser2.obj
 0001:0003c170       ?GetVisible@CWebBrowser2@@QAEHXZ 0043d170 f   webbrowser2.obj
 0001:0003c1a0       ?SetVisible@CWebBrowser2@@QAEXH@Z 0043d1a0 f   webbrowser2.obj
 0001:0003c1e0       ?GetStatusBar@CWebBrowser2@@QAEHXZ 0043d1e0 f   webbrowser2.obj
 0001:0003c210       ?SetStatusBar@CWebBrowser2@@QAEXH@Z 0043d210 f   webbrowser2.obj
 0001:0003c250       ?GetStatusText@CWebBrowser2@@QAE?AVCString@@XZ 0043d250 f   webbrowser2.obj
 0001:0003c310       ?SetStatusText@CWebBrowser2@@QAEXPBD@Z 0043d310 f   webbrowser2.obj
 0001:0003c350       ?GetToolBar@CWebBrowser2@@QAEJXZ 0043d350 f   webbrowser2.obj
 0001:0003c380       ?SetToolBar@CWebBrowser2@@QAEXJ@Z 0043d380 f   webbrowser2.obj
 0001:0003c3c0       ?GetMenuBar@CWebBrowser2@@QAEHXZ 0043d3c0 f   webbrowser2.obj
 0001:0003c3f0       ?SetMenuBar@CWebBrowser2@@QAEXH@Z 0043d3f0 f   webbrowser2.obj
 0001:0003c430       ?GetFullScreen@CWebBrowser2@@QAEHXZ 0043d430 f   webbrowser2.obj
 0001:0003c460       ?SetFullScreen@CWebBrowser2@@QAEXH@Z 0043d460 f   webbrowser2.obj
 0001:0003c4a0       ?Navigate2@CWebBrowser2@@QAEXPAUtagVARIANT@@0000@Z 0043d4a0 f   webbrowser2.obj
 0001:0003c4f0       ?QueryStatusWB@CWebBrowser2@@QAEJJ@Z 0043d4f0 f   webbrowser2.obj
 0001:0003c530       ?ExecWB@CWebBrowser2@@QAEXJJPAUtagVARIANT@@0@Z 0043d530 f   webbrowser2.obj
 0001:0003c570       ?ShowBrowserBar@CWebBrowser2@@QAEXPAUtagVARIANT@@00@Z 0043d570 f   webbrowser2.obj
 0001:0003c5b0       ?GetReadyState@CWebBrowser2@@QAEJXZ 0043d5b0 f   webbrowser2.obj
 0001:0003c5e0       ?GetOffline@CWebBrowser2@@QAEHXZ 0043d5e0 f   webbrowser2.obj
 0001:0003c610       ?SetOffline@CWebBrowser2@@QAEXH@Z 0043d610 f   webbrowser2.obj
 0001:0003c650       ?GetSilent@CWebBrowser2@@QAEHXZ 0043d650 f   webbrowser2.obj
 0001:0003c680       ?SetSilent@CWebBrowser2@@QAEXH@Z 0043d680 f   webbrowser2.obj
 0001:0003c6c0       ?GetRegisterAsBrowser@CWebBrowser2@@QAEHXZ 0043d6c0 f   webbrowser2.obj
 0001:0003c6f0       ?SetRegisterAsBrowser@CWebBrowser2@@QAEXH@Z 0043d6f0 f   webbrowser2.obj
 0001:0003c730       ?GetRegisterAsDropTarget@CWebBrowser2@@QAEHXZ 0043d730 f   webbrowser2.obj
 0001:0003c760       ?SetRegisterAsDropTarget@CWebBrowser2@@QAEXH@Z 0043d760 f   webbrowser2.obj
 0001:0003c7a0       ?GetTheaterMode@CWebBrowser2@@QAEHXZ 0043d7a0 f   webbrowser2.obj
 0001:0003c7d0       ?SetTheaterMode@CWebBrowser2@@QAEXH@Z 0043d7d0 f   webbrowser2.obj
 0001:0003c810       ?GetAddressBar@CWebBrowser2@@QAEHXZ 0043d810 f   webbrowser2.obj
 0001:0003c840       ?SetAddressBar@CWebBrowser2@@QAEXH@Z 0043d840 f   webbrowser2.obj
 0001:0003c880       ?GetResizable@CWebBrowser2@@QAEHXZ 0043d880 f   webbrowser2.obj
 0001:0003c8b0       ?SetResizable@CWebBrowser2@@QAEXH@Z 0043d8b0 f   webbrowser2.obj
 0001:0003c8f0       ?_GetBaseMessageMap@CWebBrowserEx@@KGPBUAFX_MSGMAP@@XZ 0043d8f0 f   WebBrowserEx.obj
 0001:0003c910       ?GetMessageMap@CWebBrowserEx@@MBEPBUAFX_MSGMAP@@XZ 0043d910 f   WebBrowserEx.obj
 0001:0003c930       ??0CWebBrowserEx@@QAE@PAVCOsysWebBrowser@@@Z 0043d930 f   WebBrowserEx.obj
 0001:0003c960       ??_GCWebBrowserEx@@UAEPAXI@Z 0043d960 f i WebBrowserEx.obj
 0001:0003c960       ??_ECWebBrowserEx@@UAEPAXI@Z 0043d960 f i WebBrowserEx.obj
 0001:0003c990       ??1CWebBrowserEx@@UAE@XZ   0043d990 f   WebBrowserEx.obj
 0001:0003c9b0       ?OnPaint@CWebBrowserEx@@IAEXXZ 0043d9b0 f   WebBrowserEx.obj
 0001:0003c9e0       ?OnSetFocus@CWebBrowserEx@@IAEXPAVCWnd@@@Z 0043d9e0 f   WebBrowserEx.obj
 0001:0003ca10       ?OnLButtonDown@CWebBrowserEx@@IAEXIVCPoint@@@Z 0043da10 f   WebBrowserEx.obj
 0001:0003ca60       ?OnSize@CWebBrowserEx@@IAEXIHH@Z 0043da60 f   WebBrowserEx.obj
 0001:0003ca80       ?OnMove@CWebBrowserEx@@IAEXHH@Z 0043da80 f   WebBrowserEx.obj
 0001:0003caa0       ?OnChar@CWebBrowserEx@@IAEXIII@Z 0043daa0 f   WebBrowserEx.obj
 0001:0003cac0       ??0CZoneDrawEx@@QAE@PAVCOsysZoneDraw@@@Z 0043dac0 f   zonedrawex.obj
 0001:0003caf0       ??_ECZoneDrawEx@@UAEPAXI@Z 0043daf0 f i zonedrawex.obj
 0001:0003caf0       ??_GCZoneDrawEx@@UAEPAXI@Z 0043daf0 f i zonedrawex.obj
 0001:0003cb20       ??1CZoneDrawEx@@UAE@XZ     0043db20 f   zonedrawex.obj
 0001:0003cb40       ?_GetBaseMessageMap@CZoneDrawEx@@KGPBUAFX_MSGMAP@@XZ 0043db40 f   zonedrawex.obj
 0001:0003cb60       ?GetMessageMap@CZoneDrawEx@@MBEPBUAFX_MSGMAP@@XZ 0043db60 f   zonedrawex.obj
 0001:0003cb80       ?OnEraseBkgnd@CZoneDrawEx@@IAEHPAVCDC@@@Z 0043db80 f   zonedrawex.obj
 0001:0003cc70       ?OnCtlColor@CZoneDrawEx@@IAEPAUHBRUSH__@@PAVCDC@@PAVCWnd@@I@Z 0043dc70 f   zonedrawex.obj
 0001:0003cca0       ?OnSetFocus@CZoneDrawEx@@IAEXPAVCWnd@@@Z 0043dca0 f   zonedrawex.obj
 0001:0003ccd0       ?OnChar@CZoneDrawEx@@IAEXIII@Z 0043dcd0 f   zonedrawex.obj
 0001:0003cf00       ?OnKeyDown@CZoneDrawEx@@IAEXIII@Z 0043df00 f   zonedrawex.obj
 0001:0003cf80       ?OnLButtonDown@CZoneDrawEx@@IAEXIVCPoint@@@Z 0043df80 f   zonedrawex.obj
 0001:0003cfd0       ?Base64Code@CBase64@@SAHPADH0H@Z 0043dfd0 f   Base64.obj
 0001:0003d150       ?Base64Decode@CBase64@@SAHPADH0H@Z 0043e150 f   Base64.obj
 0001:0003d2e0       ?TailleExactChaineCodee@CBase64@@SAHH@Z 0043e2e0 f   Base64.obj
 0001:0003d320       ?CalculLongMiniChaineCode@CBase64@@SAHH@Z 0043e320 f   Base64.obj
 0001:0003d360       ?CalculLongMiniChaineDeCode@CBase64@@SAHH@Z 0043e360 f   Base64.obj
 0001:0003d390       ??0CBaseSocket@@QAE@XZ     0043e390 f   BaseSocket.obj
 0001:0003d400       ?RendNumService@CBaseSocket@@QAEHPAD0@Z 0043e400 f   BaseSocket.obj
 0001:0003d450       ?RendNumService@CBaseSocket@@QAEHPAD@Z 0043e450 f   BaseSocket.obj
 0001:0003d480       ?StartupSocket@CBaseSocket@@SAXXZ 0043e480 f   BaseSocket.obj
 0001:0003d4c0       ?CleanupSocket@CBaseSocket@@SAXXZ 0043e4c0 f   BaseSocket.obj
 0001:0003d4e0       ??0CChaineTransfert@@QAE@XZ 0043e4e0 f   ChaineTransfert.obj
 0001:0003d500       ?Code@CChaineTransfert@@SAXPADAAVCString@@@Z 0043e500 f   ChaineTransfert.obj
 0001:0003d690       ?CodePourAffichage@CChaineTransfert@@SAXPADAAVCString@@@Z 0043e690 f   ChaineTransfert.obj
 0001:0003d800       ?Decode@CChaineTransfert@@SAXPAD@Z 0043e800 f   ChaineTransfert.obj
 0001:0003d920       ??0CMapIntToPtr@@QAE@H@Z   0043e920 f   CMapIntToPtr.obj
 0001:0003d950       ?InitHashTable@CMapIntToPtr@@QAEXIH@Z 0043e950 f   CMapIntToPtr.obj
 0001:0003d9e0       ?RemoveAll@CMapIntToPtr@@QAEXXZ 0043e9e0 f   CMapIntToPtr.obj
 0001:0003da30       ??1CMapIntToPtr@@QAE@XZ    0043ea30 f   CMapIntToPtr.obj
 0001:0003da50       ?NewAssoc@CMapIntToPtr@@IAEPAUCAssoc@1@XZ 0043ea50 f   CMapIntToPtr.obj
 0001:0003dad0       ?FreeAssoc@CMapIntToPtr@@IAEXPAUCAssoc@1@@Z 0043ead0 f   CMapIntToPtr.obj
 0001:0003db00       ?GetAssocAt@CMapIntToPtr@@IBEPAUCAssoc@1@HAAI@Z 0043eb00 f   CMapIntToPtr.obj
 0001:0003db50       ?Lookup@CMapIntToPtr@@QBEHHAAPAX@Z 0043eb50 f   CMapIntToPtr.obj
 0001:0003db90       ??ACMapIntToPtr@@QAEAAPAXH@Z 0043eb90 f   CMapIntToPtr.obj
 0001:0003dc00       ?RemoveKey@CMapIntToPtr@@QAEHH@Z 0043ec00 f   CMapIntToPtr.obj
 0001:0003dc70       ?GetNextAssoc@CMapIntToPtr@@QBEXAAPAU__POSITION@@AAHAAPAX@Z 0043ec70 f   CMapIntToPtr.obj
 0001:0003dd00       ??0CStringLangue@@QAE@XZ   0043ed00 f   CStringLangue.obj
 0001:0003dd30       ??1CStringLangue@@QAE@XZ   0043ed30 f   CStringLangue.obj
 0001:0003ddb0       ?LitMessage@CStringLangue@@QAEXAAVCString@@PAD1@Z 0043edb0 f   CStringLangue.obj
 0001:0003df30       ?EcritMessage@CStringLangue@@QAEXAAVCString@@PAD@Z 0043ef30 f   CStringLangue.obj
 0001:0003e040       ?Recherche@CStringLangue@@QAEPAVCString@@PAD@Z 0043f040 f   CStringLangue.obj
 0001:0003e130       ?SupprimeTous@CStringLangue@@QAEXXZ 0043f130 f   CStringLangue.obj
 0001:0003e1a0       ?LitArchive@CStringLangue@@QAEHAAVCInputArchive@@@Z 0043f1a0 f   CStringLangue.obj
 0001:0003e2c0       ?EcritArchive@CStringLangue@@QAEHAAVCOutputArchive@@PAD@Z 0043f2c0 f   CStringLangue.obj
 0001:0003e490       ?LitPremier@CStringLangue@@QAEHAAVCString@@0@Z 0043f490 f   CStringLangue.obj
 0001:0003e610       ?LitSuivant@CStringLangue@@QAEHAAVCString@@0@Z 0043f610 f   CStringLangue.obj
 0001:0003e780       ??YCStringLangue@@QAEAAV0@AAV0@@Z 0043f780 f   CStringLangue.obj
 0001:0003e890       ??0CDataArchive@@QAE@XZ    0043f890 f   DataArchive.obj
 0001:0003e8b0       ??1CDataArchive@@QAE@XZ    0043f8b0 f   DataArchive.obj
 0001:0003e8d0       ?LitType@CDataArchive@@QAEHXZ 0043f8d0 f   DataArchive.obj
 0001:0003e8f0       ?EcritType@CDataArchive@@QAEXH@Z 0043f8f0 f   DataArchive.obj
 0001:0003e920       ?EcritTypeSansEffacerDonnee@CDataArchive@@QAEXH@Z 0043f920 f   DataArchive.obj
 0001:0003e940       ?LitNumExec@CDataArchive@@QAEHXZ 0043f940 f   DataArchive.obj
 0001:0003e960       ?EcritNumExec@CDataArchive@@QAEXH@Z 0043f960 f   DataArchive.obj
 0001:0003e980       ?LitNumIdExp@CDataArchive@@QAEHXZ 0043f980 f   DataArchive.obj
 0001:0003e9a0       ?EcritNumIdExp@CDataArchive@@QAEXH@Z 0043f9a0 f   DataArchive.obj
 0001:0003e9c0       ?LitData@CDataArchive@@QAEPAXXZ 0043f9c0 f   DataArchive.obj
 0001:0003e9e0       ?NewDataRequete@CDataArchive@@QAEXXZ 0043f9e0 f   DataArchive.obj
 0001:0003ea60       ?NewCString@CDataArchive@@QAEXXZ 0043fa60 f   DataArchive.obj
 0001:0003eae0       ?NewStructureBD@CDataArchive@@QAEXXZ 0043fae0 f   DataArchive.obj
 0001:0003eb60       ?NewFenetre@CDataArchive@@QAEXXZ 0043fb60 f   DataArchive.obj
 0001:0003ebe0       ?NewParamSPC@CDataArchive@@QAEXXZ 0043fbe0 f   DataArchive.obj
 0001:0003ec60       ?DeleteData@CDataArchive@@QAEXXZ 0043fc60 f   DataArchive.obj
 0001:0003ed50       ?UtiliseId@CDataArchive@@QAEHH@Z 0043fd50 f   DataArchive.obj
 0001:0003ee70       ?EcritArchive@CDataArchive@@QAEHAAVCOutputArchive@@@Z 0043fe70 f   DataArchive.obj
 0001:0003f1e0       ?LitArchive@CDataArchive@@QAEHAAVCInputArchive@@@Z 004401e0 f   DataArchive.obj
 0001:0003f570       ??4CDataArchive@@QAEAAV0@ABV0@@Z 00440570 f   DataArchive.obj
 0001:0003f650       ??0CFichier@@QAE@XZ        00440650 f   Fichier.obj
 0001:0003f680       ??_GCFichier@@UAEPAXI@Z    00440680 f i Fichier.obj
 0001:0003f680       ??_ECFichier@@UAEPAXI@Z    00440680 f i Fichier.obj
 0001:0003f6b0       ??1CFichier@@UAE@XZ        004406b0 f   Fichier.obj
 0001:0003f6f0       ?Create@CFichier@@QAEHPADHH@Z 004406f0 f   Fichier.obj
 0001:0003f760       ?Create@CFichier@@QAEHPADHHPAU_SECURITY_ATTRIBUTES@@KKPAX@Z 00440760 f   Fichier.obj
 0001:0003f7e0       ?Open@CFichier@@QAEHPADHH@Z 004407e0 f   Fichier.obj
 0001:0003f880       ?Close@CFichier@@QAEHXZ    00440880 f   Fichier.obj
 0001:0003f8d0       ?DecodeModeAcces@CFichier@@AAEHH@Z 004408d0 f   Fichier.obj
 0001:0003f910       ?DecodeModePartage@CFichier@@AAEHH@Z 00440910 f   Fichier.obj
 0001:0003f960       ?Size@CFichier@@QAEHXZ     00440960 f   Fichier.obj
 0001:0003f990       ?Seek@CFichier@@QAEHHH@Z   00440990 f   Fichier.obj
 0001:0003f9e0       ?DecodePosPointeur@CFichier@@AAEHH@Z 004409e0 f   Fichier.obj
 0001:0003fa20       ?Read@CFichier@@QAEHPADH@Z 00440a20 f   Fichier.obj
 0001:0003fa60       ?ReadCar@CFichier@@QAEHPAD@Z 00440a60 f   Fichier.obj
 0001:0003faa0       ?ReadLigne@CFichier@@QAEHAAVCString@@H@Z 00440aa0 f   Fichier.obj
 0001:0003fb60       ?Write@CFichier@@QAEHPADH@Z 00440b60 f   Fichier.obj
 0001:0003fba0       ?Write@CFichier@@QAEHAAVCString@@@Z 00440ba0 f   Fichier.obj
 0001:0003fbf0       ?WriteCar@CFichier@@QAEHD@Z 00440bf0 f   Fichier.obj
 0001:0003fc30       ?WriteLigne@CFichier@@QAEHPAD@Z 00440c30 f   Fichier.obj
 0001:0003fd20       ?LitHandleFic@CFichier@@QAEPAXXZ 00440d20 f   Fichier.obj
 0001:0003fd40       ??0CFichierTemp@@QAE@XZ    00440d40 f   FichierTemp.obj
 0001:0003fd60       ??_GCFichierTemp@@UAEPAXI@Z 00440d60 f i FichierTemp.obj
 0001:0003fd60       ??_ECFichierTemp@@UAEPAXI@Z 00440d60 f i FichierTemp.obj
 0001:0003fd90       ??1CFichierTemp@@UAE@XZ    00440d90 f   FichierTemp.obj
 0001:0003fdb0       ?LitNomFicTemp@CFichierTemp@@QAEXAAVCString@@@Z 00440db0 f   FichierTemp.obj
 0001:0003fe70       ?LitNomFicTemp@CFichierTemp@@QAEXPADAAVCString@@@Z 00440e70 f   FichierTemp.obj
 0001:0003ff50       ?LitNomRepTemp@CFichierTemp@@QAEXAAVCString@@@Z 00440f50 f   FichierTemp.obj
 0001:00040030       ?LitCheminRepTemp@CFichierTemp@@MAEXAAVCString@@@Z 00441030 f   FichierTemp.obj
 0001:00040110       ?ConstruitNomFicTemp@CFichierTemp@@IAEXPADAAVCString@@@Z 00441110 f   FichierTemp.obj
 0001:00040240       ?RepertoireExiste@CRepertoire@@SAHVCString@@@Z 00441240 f i FichierTemp.obj
 0001:000402c0       ?Mkdir@CRepertoire@@SAHVCString@@@Z 004412c0 f i FichierTemp.obj
 0001:00040340       ??0CImprime@@QAE@PAD00@Z   00441340 f   Imprime.obj
 0001:00040460       ?WriteUnMot@CImprime@@UAEHPADH@Z 00441460 f i Imprime.obj
 0001:00040480       ?WriteTitre@CImprime@@UAEHPADH@Z 00441480 f i Imprime.obj
 0001:000404a0       ?AjouteAntiSlash@CImprime@@MAEXPADAAVCString@@@Z 004414a0 f i Imprime.obj
 0001:000404d0       ??_ECImprime@@UAEPAXI@Z    004414d0 f i Imprime.obj
 0001:000404d0       ??_GCImprime@@UAEPAXI@Z    004414d0 f i Imprime.obj
 0001:00040500       ??1CImprime@@UAE@XZ        00441500 f   Imprime.obj
 0001:000405a0       ?NiveauTitrePlus@CImprime@@QAEHXZ 004415a0 f   Imprime.obj
 0001:000405c0       ?NiveauTitreMoins@CImprime@@QAEHXZ 004415c0 f   Imprime.obj
 0001:000405e0       ?NiveauTitre@CImprime@@QAEHH@Z 004415e0 f   Imprime.obj
 0001:00040610       ?IndentPlus@CImprime@@QAEHXZ 00441610 f   Imprime.obj
 0001:00040630       ?IndentMoins@CImprime@@QAEHXZ 00441630 f   Imprime.obj
 0001:00040650       ?Indent@CImprime@@QAEHH@Z  00441650 f   Imprime.obj
 0001:00040680       ?Style@CImprime@@QAEHH@Z   00441680 f   Imprime.obj
 0001:000406a0       ?CouleurFond@CImprime@@QAEHH@Z 004416a0 f   Imprime.obj
 0001:000406c0       ?CouleurTexte@CImprime@@QAEHH@Z 004416c0 f   Imprime.obj
 0001:000406e0       ?LitNumPolice@CImprime@@UAEHXZ 004416e0 f   Imprime.obj
 0001:00040700       ?EcritNumPolice@CImprime@@QAEHH@Z 00441700 f   Imprime.obj
 0001:00040730       ?IncrementeNumPolice@CImprime@@QAEHXZ 00441730 f   Imprime.obj
 0001:00040750       ?DecrementeNumPolice@CImprime@@QAEHXZ 00441750 f   Imprime.obj
 0001:00040770       ?LitIndTaillePolice@CImprime@@UAEHXZ 00441770 f   Imprime.obj
 0001:00040790       ?EcritIndTaillePolice@CImprime@@QAEHH@Z 00441790 f   Imprime.obj
 0001:000407c0       ?IncrementeIndTaillePolice@CImprime@@QAEHXZ 004417c0 f   Imprime.obj
 0001:000407e0       ?DecrementeIndTaillePolice@CImprime@@QAEHXZ 004417e0 f   Imprime.obj
 0001:00040800       ?WriteLigne@CImprime@@QAEHPADH@Z 00441800 f   Imprime.obj
 0001:000408d0       ?WriteLignePrintf@CImprime@@QAAHHPADZZ 004418d0 f   Imprime.obj
 0001:00040950       ?WriteChainePrintf@CImprime@@QAAHHPADZZ 00441950 f   Imprime.obj
 0001:000409d0       ?WriteChaine@CImprime@@QAEHPADH@Z 004419d0 f   Imprime.obj
 0001:00040b00       ?LitTitreAppli@CImprime@@QAEXAAVCString@@@Z 00441b00 f   Imprime.obj
 0001:00040b20       ?EcritTitreAppli@CImprime@@QAEXPAD@Z 00441b20 f   Imprime.obj
 0001:00040b40       ?LitVersionAppli@CImprime@@QAEXAAVCString@@@Z 00441b40 f   Imprime.obj
 0001:00040b60       ?EcritVersionAppli@CImprime@@QAEXPAD@Z 00441b60 f   Imprime.obj
 0001:00040b80       ?LitNomFicDest@CImprime@@QAEXAAVCString@@@Z 00441b80 f   Imprime.obj
 0001:00040ba0       ?LitTitre@CImprime@@QAEXPADAAVCString@@@Z 00441ba0 f   Imprime.obj
 0001:00040c60       ?LitNumTitre@CImprime@@IAEXAAVCString@@@Z 00441c60 f   Imprime.obj
 0001:00040e40       ?ModifChaine@CImprime@@IAEXPADAAVCString@@@Z 00441e40 f   Imprime.obj
 0001:00040fa0       ?LitUnMot@CImprime@@IAEPADPADAAVCString@@@Z 00441fa0 f   Imprime.obj
 0001:00041070       ??0CInputArchive@@QAE@PAVCInputOutputArchive@@@Z 00442070 f   InputArchive.obj
 0001:000410b0       ??1CInputArchive@@QAE@XZ   004420b0 f   InputArchive.obj
 0001:000410f0       ?FinLigne@CInputArchive@@QAEHXZ 004420f0 f   InputArchive.obj
 0001:00041160       ?ReadParamBase@CInputArchive@@IAEHPADH@Z 00442160 f   InputArchive.obj
 0001:00041230       ?ReadParamBase@CInputArchive@@IAEHPAVCString@@@Z 00442230 f   InputArchive.obj
 0001:000413c0       ?ReadNomPropriete@CInputArchive@@QAEHPADH@Z 004423c0 f   InputArchive.obj
 0001:00041490       ?ReadNomPropriete@CInputArchive@@QAEHPAVCString@@@Z 00442490 f   InputArchive.obj
 0001:000414e0       ?ReadString@CInputArchive@@QAEHPADH@Z 004424e0 f   InputArchive.obj
 0001:00041550       ?ReadString@CInputArchive@@QAEHPAVCString@@@Z 00442550 f   InputArchive.obj
 0001:000415e0       ?ReadLigneBrut@CInputArchive@@QAEHPADH@Z 004425e0 f   InputArchive.obj
 0001:00041630       ?ReadLigneBrut@CInputArchive@@QAEHPAVCString@@@Z 00442630 f   InputArchive.obj
 0001:00041680       ?ReadLigne@CInputArchive@@QAEHPAVCString@@@Z 00442680 f   InputArchive.obj
 0001:000416c0       ?ReadValeur@CInputArchive@@QAEHPAH@Z 004426c0 f   InputArchive.obj
 0001:000418a0       ?ReadId@CInputArchive@@QAEHPAH@Z 004428a0 f   InputArchive.obj
 0001:00041a10       ?ReadValeur@CInputArchive@@QAEHPAJ@Z 00442a10 f   InputArchive.obj
 0001:00041bf0       ?ReadValeur@CInputArchive@@QAEHPAF@Z 00442bf0 f   InputArchive.obj
 0001:00041dd0       ?ReadValeur@CInputArchive@@QAEHPAM@Z 00442dd0 f   InputArchive.obj
 0001:00041ec0       ?ReadValeur@CInputArchive@@QAEHPAN@Z 00442ec0 f   InputArchive.obj
 0001:00041fb0       ?ReadValeur@CInputArchive@@QAEHPADD@Z 00442fb0 f   InputArchive.obj
 0001:00042000       ?ReadValeur@CInputArchive@@QAEHPAVCString@@@Z 00443000 f   InputArchive.obj
 0001:00042050       ?ReadValeur@CInputArchive@@QAEHPAVCListPeriph@@@Z 00443050 f   InputArchive.obj
 0001:00042140       ?ReadValeur@CInputArchive@@QAEHPAVCRect@@@Z 00443140 f   InputArchive.obj
 0001:00042210       ?ReadValeur@CInputArchive@@QAEHPAKK@Z 00443210 f   InputArchive.obj
 0001:00042460       ?ReadValeur@CInputArchive@@QAEHPAVCStringArray@@@Z 00443460 f   InputArchive.obj
 0001:000425f0       ?LitCarSuivant@CInputArchive@@IAEHPAH@Z 004435f0 f   InputArchive.obj
 0001:00042730       ?LitPremierCarValide@CInputArchive@@IAEHPAH@Z 00443730 f   InputArchive.obj
 0001:00042810       ?ReadDescPropriete@CInputArchive@@QAEXAAVCString@@@Z 00443810 f   InputArchive.obj
 0001:00042a10       ?ReadSousPropriete@CInputArchive@@QAEHPADH@Z 00443a10 f   InputArchive.obj
 0001:00042ae0       ?ReadSousPropriete@CInputArchive@@QAEHPAVCString@@@Z 00443ae0 f   InputArchive.obj
 0001:00042b30       ?AttenteFin@CInputArchive@@QAEXXZ 00443b30 f   InputArchive.obj
 0001:00042c00       ?ReadFichier@CInputArchive@@QAEHAAVCString@@@Z 00443c00 f   InputArchive.obj
 0001:00042e60       ?ReadFichier@CInputArchive@@QAEHPAD@Z 00443e60 f   InputArchive.obj
 0001:00043060       ??0CInputOutputArchive@@QAE@H@Z 00444060 f   InputOutputArchive.obj
 0001:00043140       ?LitCar@CInputOutputArchive@@UAEHXZ 00444140 f i InputOutputArchive.obj
 0001:000431d0       ?EcritCar@CInputOutputArchive@@UAEHH@Z 004441d0 f i InputOutputArchive.obj
 0001:00043260       ?EcritChaine@CInputOutputArchive@@UAEHPAD@Z 00444260 f i InputOutputArchive.obj
 0001:000432a0       ?EcritTrameBrut@CInputOutputArchive@@UAEHPADH@Z 004442a0 f i InputOutputArchive.obj
 0001:000432e0       ?LitUneTrame@CInputOutputArchive@@UAEHPADH@Z 004442e0 f i InputOutputArchive.obj
 0001:00043320       ?EcritFormater@CInputOutputArchive@@UAAHPBDZZ 00444320 f i InputOutputArchive.obj
 0001:00043390       ??0CInputOutputArchive@@QAE@PADHHH@Z 00444390 f   InputOutputArchive.obj
 0001:000435e0       ?FichierExiste@CRepertoire@@SAHVCString@@@Z 004445e0 f i InputOutputArchive.obj
 0001:00043660       ?EffaceFichier@CRepertoire@@SAHVCString@@@Z 00444660 f i InputOutputArchive.obj
 0001:000436e0       ??1CInputOutputArchive@@QAE@XZ 004446e0 f   InputOutputArchive.obj
 0001:00043780       ??0CInputOutputStringArchive@@QAE@PADH@Z 00444780 f   InputOutputStringArchive.obj
 0001:00043850       ??0CInputOutputStringArchive@@QAE@AAVCString@@H@Z 00444850 f   InputOutputStringArchive.obj
 0001:00043930       ??1CInputOutputStringArchive@@QAE@XZ 00444930 f   InputOutputStringArchive.obj
 0001:00043960       ?GetStringArchive@CInputOutputStringArchive@@QAEPADXZ 00444960 f   InputOutputStringArchive.obj
 0001:00043980       ?FermeArchive@CInputOutputStringArchive@@UAEHXZ 00444980 f   InputOutputStringArchive.obj
 0001:000439a0       ?LitCar@CInputOutputStringArchive@@UAEHXZ 004449a0 f   InputOutputStringArchive.obj
 0001:00043a30       ?EcritCar@CInputOutputStringArchive@@UAEHH@Z 00444a30 f   InputOutputStringArchive.obj
 0001:00043b10       ?EcritChaine@CInputOutputStringArchive@@UAEHPAD@Z 00444b10 f   InputOutputStringArchive.obj
 0001:00043b50       ?EcritTrameBrut@CInputOutputStringArchive@@UAEHPADH@Z 00444b50 f   InputOutputStringArchive.obj
 0001:00043ba0       ?LitUneTrame@CInputOutputStringArchive@@UAEHPADH@Z 00444ba0 f   InputOutputStringArchive.obj
 0001:00043be0       ?EcritFormater@CInputOutputStringArchive@@UAAHPBDZZ 00444be0 f   InputOutputStringArchive.obj
 0001:00043c50       ?Raz@CInputOutputStringArchive@@QAEXXZ 00444c50 f   InputOutputStringArchive.obj
 0001:00043c90       ??0COutputArchive@@QAE@PAVCInputOutputArchive@@@Z 00444c90 f   OutputArchive.obj
 0001:00043cc0       ??1COutputArchive@@QAE@XZ  00444cc0 f   OutputArchive.obj
 0001:00043ce0       ?WriteEspace@COutputArchive@@QAEHXZ 00444ce0 f   OutputArchive.obj
 0001:00043d30       ?WriteFinDeLigne@COutputArchive@@QAEHXZ 00444d30 f   OutputArchive.obj
 0001:00043d80       ?WriteFinPropriete@COutputArchive@@QAEHXZ 00444d80 f   OutputArchive.obj
 0001:00043df0       ?WriteDebutPropriete@COutputArchive@@QAEHXZ 00444df0 f   OutputArchive.obj
 0001:00043e40       ?WriteNomPropriete@COutputArchive@@QAEHPAD@Z 00444e40 f   OutputArchive.obj
 0001:00043f20       ?WriteValeur@COutputArchive@@QAEHH@Z 00444f20 f   OutputArchive.obj
 0001:00043f90       ?WriteValeur@COutputArchive@@QAEHJ@Z 00444f90 f   OutputArchive.obj
 0001:00044000       ?WriteValeur@COutputArchive@@QAEHF@Z 00445000 f   OutputArchive.obj
 0001:00044070       ?WriteValeur@COutputArchive@@QAEHM@Z 00445070 f   OutputArchive.obj
 0001:000440e0       ?WriteValeur@COutputArchive@@QAEHN@Z 004450e0 f   OutputArchive.obj
 0001:00044150       ?WriteValeur@COutputArchive@@QAEHPAD@Z 00445150 f   OutputArchive.obj
 0001:000441e0       ?WriteValeur@COutputArchive@@QAEHVCString@@@Z 004451e0 f   OutputArchive.obj
 0001:00044320       ?WriteValeur@COutputArchive@@QAEHPADH@Z 00445320 f   OutputArchive.obj
 0001:000443c0       ?WriteValeur@COutputArchive@@QAEHVCString@@H@Z 004453c0 f   OutputArchive.obj
 0001:00044530       ?WriteValeur@COutputArchive@@QAEHVCListPeriph@@@Z 00445530 f   OutputArchive.obj
 0001:000445d0       ?WriteValeur@COutputArchive@@QAEHVCRect@@@Z 004455d0 f   OutputArchive.obj
 0001:00044660       ?WriteValeur@COutputArchive@@QAEHK@Z 00445660 f   OutputArchive.obj
 0001:000446f0       ?WriteValeur@COutputArchive@@QAEHVCStringArray@@@Z 004456f0 f   OutputArchive.obj
 0001:000447e0       ?WriteString@COutputArchive@@QAEHPAD@Z 004457e0 f   OutputArchive.obj
 0001:00044870       ?WriteString@COutputArchive@@QAEHVCString@@@Z 00445870 f   OutputArchive.obj
 0001:00044960       ?WriteLigneBrut@COutputArchive@@QAEHPAD@Z 00445960 f   OutputArchive.obj
 0001:000449f0       ?WriteLigneBrut@COutputArchive@@QAEHVCString@@@Z 004459f0 f   OutputArchive.obj
 0001:00044ad0       ?WriteId@COutputArchive@@QAEHH@Z 00445ad0 f   OutputArchive.obj
 0001:00044b40       ?WriteCouleur@COutputArchive@@QAEHJ@Z 00445b40 f   OutputArchive.obj
 0001:00044bb0       ?WriteDescPropriete@COutputArchive@@QAEHVCString@@@Z 00445bb0 f   OutputArchive.obj
 0001:00044cc0       ?WriteBrut@COutputArchive@@QAEHVCString@@@Z 00445cc0 f   OutputArchive.obj
 0001:00044db0       ?WriteFichier@COutputArchive@@QAEHPAD@Z 00445db0 f   OutputArchive.obj
 0001:00044f70       ??0CListPeriph@@QAE@XZ     00445f70 f   PERIPH.OBJ
 0001:00044f90       ?Ajoute@CListPeriph@@QAEXH@Z 00445f90 f   PERIPH.OBJ
 0001:00044fe0       ?SupprimeTout@CListPeriph@@QAEXXZ 00445fe0 f   PERIPH.OBJ
 0001:00045000       ?Teste@CListPeriph@@QAEHH@Z 00446000 f   PERIPH.OBJ
 0001:00045050       ??HCListPeriph@@QAE?AV0@ABV0@@Z 00446050 f   PERIPH.OBJ
 0001:000450c0       ??4CListPeriph@@QAEAAV0@ABV0@@Z 004460c0 f   PERIPH.OBJ
 0001:000450f0       ??YCListPeriph@@QAEAAV0@ABV0@@Z 004460f0 f   PERIPH.OBJ
 0001:00045140       ?EstVide@CListPeriph@@QAEHXZ 00446140 f   PERIPH.OBJ
 0001:00045160       ??8CListPeriph@@QAEHABV0@@Z 00446160 f   PERIPH.OBJ
 0001:000451a0       ??0CRepertoire@@QAE@XZ     004461a0 f   Repertoire.obj
 0001:000451d0       ??_ECRepertoire@@UAEPAXI@Z 004461d0 f i Repertoire.obj
 0001:000451d0       ??_GCRepertoire@@UAEPAXI@Z 004461d0 f i Repertoire.obj
 0001:00045200       ??1CRepertoire@@UAE@XZ     00446200 f   Repertoire.obj
 0001:00045230       ?RepertoireExiste@CRepertoire@@SAHPAD@Z 00446230 f   Repertoire.obj
 0001:00045280       ?FichierExiste@CRepertoire@@SAHPAD@Z 00446280 f   Repertoire.obj
 0001:000452d0       ?Mkdir@CRepertoire@@SAHPAD@Z 004462d0 f   Repertoire.obj
 0001:00045310       ?DetruitRep@CRepertoire@@SAHPAD@Z 00446310 f   Repertoire.obj
 0001:00045350       ?EffaceFichier@CRepertoire@@SAHPAD@Z 00446350 f   Repertoire.obj
 0001:00045390       ?Construire@CRepertoire@@SAHPAVCString@@PAD1@Z 00446390 f   Repertoire.obj
 0001:00045470       ?Construire@CRepertoire@@SAHPAVCString@@V2@PAD@Z 00446470 f   Repertoire.obj
 0001:00045540       ?Construire@CRepertoire@@SAHPAVCString@@V2@1@Z 00446540 f   Repertoire.obj
 0001:000456f0       ?CherchePremier@CRepertoire@@QAEHPAVCString@@PAD1H@Z 004466f0 f   Repertoire.obj
 0001:00045880       ?ChercheSuivant@CRepertoire@@QAEHPAVCString@@@Z 00446880 f   Repertoire.obj
 0001:00045960       ?ChangeExtension@CRepertoire@@SAHPAVCString@@V2@PAD@Z 00446960 f   Repertoire.obj
 0001:00045a80       ?RenomeFichier@CRepertoire@@SAHVCString@@0@Z 00446a80 f   Repertoire.obj
 0001:00045b20       ?TailleFichier@CRepertoire@@SAJPAD@Z 00446b20 f   Repertoire.obj
 0001:00045b60       ?LitDateFic@CRepertoire@@SAJPAD@Z 00446b60 f   Repertoire.obj
 0001:00045ba0       ?CopieFichier@CRepertoire@@SAHPAD0@Z 00446ba0 f   Repertoire.obj
 0001:00045be0       ?CreerNomFicTemp@CRepertoire@@SAXAAVCString@@@Z 00446be0 f   Repertoire.obj
 0001:00045cc0       ?RepRelatif@CRepertoire@@SAHPAD@Z 00446cc0 f   Repertoire.obj
 0001:00045e20       ?TestCreeRep@CRepertoire@@SAHPAD@Z 00446e20 f   Repertoire.obj
 0001:000461d0       ?TestRepFicSansEspace@CRepertoire@@SAHPAD@Z 004471d0 f   Repertoire.obj
 0001:00046270       ?FonctionDeLancementDUnThreadCServeurArchive@@YAHPAX@Z 00447270 f   ServeurArchive.obj
 0001:00046290       ??0CServeurArchive@@QAE@XZ 00447290 f   ServeurArchive.obj
 0001:00046350       ??1CBaseSocket@@QAE@XZ     00447350 f i ServeurArchive.obj
 0001:00046370       ??1CServeurArchive@@QAE@XZ 00447370 f   ServeurArchive.obj
 0001:00046400       ?Create@CServeurArchive@@QAEHHPAD@Z 00447400 f   ServeurArchive.obj
 0001:000464a0       ?Close@CServeurArchive@@QAEHXZ 004474a0 f   ServeurArchive.obj
 0001:00046580       ?osysPrintf@@YAXPBDZZ      00447580 f i ServeurArchive.obj
 0001:000465a0       ?BoucleDAttente@CServeurArchive@@QAEHXZ 004475a0 f   ServeurArchive.obj
 0001:000468e0       ?NewClient@CServeurArchive@@UAEPAVCSocketServeurArchive@@XZ 004478e0 f   ServeurArchive.obj
 0001:00046960       ?AnnonceMortSocketEchange@CServeurArchive@@QAEHPAVCSocketServeurArchive@@@Z 00447960 f   ServeurArchive.obj
 0001:000469f0       ?GestMessageErreur@CServeurArchive@@UAAXHPBDZZ 004479f0 f   ServeurArchive.obj
 0001:00046a30       ?SendAll@CServeurArchive@@UAEHPAD@Z 00447a30 f   ServeurArchive.obj
 0001:00046a60       ?SendAllBrut@CServeurArchive@@UAEHPAD@Z 00447a60 f   ServeurArchive.obj
 0001:00046a90       ?SendAllBrut@CServeurArchive@@UAEHPADH@Z 00447a90 f   ServeurArchive.obj
 0001:00046ac0       ?FonctionDeLancementDUnThreadCServeurTCP@@YAHPAX@Z 00447ac0 f   ServeurTCP.obj
 0001:00046ae0       ??0CServeurTCP@@QAE@XZ     00447ae0 f   ServeurTCP.obj
 0001:00046ba0       ??_GCServeurTCP@@UAEPAXI@Z 00447ba0 f i ServeurTCP.obj
 0001:00046ba0       ??_ECServeurTCP@@UAEPAXI@Z 00447ba0 f i ServeurTCP.obj
 0001:00046bd0       ??1CServeurTCP@@UAE@XZ     00447bd0 f   ServeurTCP.obj
 0001:00046c60       ?Create@CServeurTCP@@QAEHHPAD@Z 00447c60 f   ServeurTCP.obj
 0001:00046d40       ?Close@CServeurTCP@@QAEHXZ 00447d40 f   ServeurTCP.obj
 0001:00046e60       ?SendAll@CServeurTCP@@UAEHPAD@Z 00447e60 f   ServeurTCP.obj
 0001:00046f30       ?SendAllBrut@CServeurTCP@@UAEHPAD@Z 00447f30 f   ServeurTCP.obj
 0001:00047000       ?SendAllBrut@CServeurTCP@@UAEHPADH@Z 00448000 f   ServeurTCP.obj
 0001:000470e0       ?BoucleDAttente@CServeurTCP@@QAEHXZ 004480e0 f   ServeurTCP.obj
 0001:000473d0       ?NewClient@CServeurTCP@@UAEPAVCSocketTCP@@XZ 004483d0 f   ServeurTCP.obj
 0001:00047450       ?AnnonceMortSocketEchange@CServeurTCP@@QAEHPAVCSocketTCP@@@Z 00448450 f   ServeurTCP.obj
 0001:000474e0       ?GestMessageErreur@CServeurTCP@@UAAXHPBDZZ 004484e0 f   ServeurTCP.obj
 0001:00047520       ??0CSocketArchive@@QAE@XZ  00448520 f   SocketArchive.obj
 0001:00047650       ??_GCSocketArchive@@UAEPAXI@Z 00448650 f i SocketArchive.obj
 0001:00047650       ??_ECSocketArchive@@UAEPAXI@Z 00448650 f i SocketArchive.obj
 0001:00047680       ??0CSocketArchive@@QAE@H@Z 00448680 f   SocketArchive.obj
 0001:00047770       ??0CSocketArchive@@QAE@PADH0@Z 00448770 f   SocketArchive.obj
 0001:00047860       ??1CSocketArchive@@UAE@XZ  00448860 f   SocketArchive.obj
 0001:00047940       ?Close@CSocketArchive@@QAEXXZ 00448940 f   SocketArchive.obj
 0001:00047a30       ?Reception@CSocketArchive@@UAEXXZ 00448a30 f   SocketArchive.obj
 0001:00047a50       ?OuvreArchive@CSocketArchive@@QAEHPADH0@Z 00448a50 f   SocketArchive.obj
 0001:00047c80       ?Reconnecte@CSocketArchive@@QAEHXZ 00448c80 f   SocketArchive.obj
 0001:00047da0       ?LitCar@CSocketArchive@@UAEHXZ 00448da0 f   SocketArchive.obj
 0001:00047dc0       ?EcritCar@CSocketArchive@@UAEHH@Z 00448dc0 f   SocketArchive.obj
 0001:00047e10       ?EcritChaine@CSocketArchive@@UAEHPAD@Z 00448e10 f   SocketArchive.obj
 0001:00047e80       ?EcritTrameBrut@CSocketArchive@@UAEHPADH@Z 00448e80 f   SocketArchive.obj
 0001:00047ec0       ?LitUneTrame@CSocketArchive@@UAEHPADH@Z 00448ec0 f   SocketArchive.obj
 0001:00047f00       ?EcritFormater@CSocketArchive@@UAAHPBDZZ 00448f00 f   SocketArchive.obj
 0001:00047fc0       ?AttentReconnexion@CSocketArchive@@UAEXXZ 00448fc0 f   SocketArchive.obj
 0001:00048000       ?AttentEvtOuException@CSocketArchive@@QAEXH@Z 00449000 f   SocketArchive.obj
 0001:000480d0       ?ReEtablirConnexion@CSocketArchive@@QAEHPADH0@Z 004490d0 f   SocketArchive.obj
 0001:00048250       ?ReconnecteBis@CSocketArchive@@QAEHXZ 00449250 f   SocketArchive.obj
 0001:00048310       ??0CGestErreurSocket@@QAE@XZ 00449310 f   SocketMiniTCP.obj
 0001:00048330       ??0CGestErreurSocket@@QAE@H@Z 00449330 f   SocketMiniTCP.obj
 0001:00048350       ?RendCodeErreur@CGestErreurSocket@@QAEHAAVCString@@@Z 00449350 f   SocketMiniTCP.obj
 0001:000483a0       ?Delete@CGestErreurSocket@@QAEXXZ 004493a0 f   SocketMiniTCP.obj
 0001:000483c0       ??0CSocketMiniTCP@@QAE@XZ  004493c0 f   SocketMiniTCP.obj
 0001:000484a0       ??0CSocketMiniTCP@@QAE@H@Z 004494a0 f   SocketMiniTCP.obj
 0001:000485b0       ??1CSocketMiniTCP@@QAE@XZ  004495b0 f   SocketMiniTCP.obj
 0001:00048670       ?Create@CSocketMiniTCP@@UAEHPADH0@Z 00449670 f   SocketMiniTCP.obj
 0001:00048890       ?Create@CSocketMiniTCP@@UAEHH@Z 00449890 f   SocketMiniTCP.obj
 0001:000488e0       ?Close@CSocketMiniTCP@@UAEHXZ 004498e0 f   SocketMiniTCP.obj
 0001:00048970       ?EnvoiBuffer@CSocketMiniTCP@@QAEHXZ 00449970 f   SocketMiniTCP.obj
 0001:00048a90       ?SendBrut@CSocketMiniTCP@@UAEHPADH@Z 00449a90 f   SocketMiniTCP.obj
 0001:00048b70       ?SendTrameBrut@CSocketMiniTCP@@UAEHPADH@Z 00449b70 f   SocketMiniTCP.obj
 0001:00048c50       ?LitCar@CSocketMiniTCP@@QAEHXZ 00449c50 f   SocketMiniTCP.obj
 0001:00048d40       ?LitUneTrame@CSocketMiniTCP@@UAEHPADH@Z 00449d40 f   SocketMiniTCP.obj
 0001:00048e30       ?InitAdresseServeur@CSocketMiniTCP@@QAEHPADPAUin_addr@@@Z 00449e30 f   SocketMiniTCP.obj
 0001:00048f50       ?GestMessageErreur@CSocketMiniTCP@@UAAXHPBDZZ 00449f50 f   SocketMiniTCP.obj
 0001:00048f80       ?FonctionDeLancementDUnThreadCSocketServeurArchive@@YAHPAX@Z 00449f80 f   SocketServeurArchive.obj
 0001:00049020       ??0CSocketServeurArchive@@QAE@XZ 0044a020 f   SocketServeurArchive.obj
 0001:000490f0       ??_ECSocketServeurArchive@@UAEPAXI@Z 0044a0f0 f i SocketServeurArchive.obj
 0001:000490f0       ??_GCSocketServeurArchive@@UAEPAXI@Z 0044a0f0 f i SocketServeurArchive.obj
 0001:00049120       ??0CSocketServeurArchive@@QAE@HPAVCServeurArchive@@@Z 0044a120 f   SocketServeurArchive.obj
 0001:00049200       ??1CSocketServeurArchive@@UAE@XZ 0044a200 f   SocketServeurArchive.obj
 0001:00049320       ?Create@CSocketServeurArchive@@QAEHHPAVCServeurArchive@@@Z 0044a320 f   SocketServeurArchive.obj
 0001:00049480       ?Close@CSocketServeurArchive@@UAEXXZ 0044a480 f   SocketServeurArchive.obj
 0001:000494c0       ?LitCar@CSocketServeurArchive@@UAEHXZ 0044a4c0 f   SocketServeurArchive.obj
 0001:000494e0       ?EcritCar@CSocketServeurArchive@@UAEHH@Z 0044a4e0 f   SocketServeurArchive.obj
 0001:00049530       ?EcritChaine@CSocketServeurArchive@@UAEHPAD@Z 0044a530 f   SocketServeurArchive.obj
 0001:000495a0       ?EcritTrameBrut@CSocketServeurArchive@@UAEHPADH@Z 0044a5a0 f   SocketServeurArchive.obj
 0001:000495f0       ?LitUneTrame@CSocketServeurArchive@@UAEHPADH@Z 0044a5f0 f   SocketServeurArchive.obj
 0001:00049640       ?EcritFormater@CSocketServeurArchive@@UAAHPBDZZ 0044a640 f   SocketServeurArchive.obj
 0001:00049700       ?BoucleDAttente@CSocketServeurArchive@@UAEXXZ 0044a700 f   SocketServeurArchive.obj
 0001:00049720       ?PositionneEvenementFin@CSocketServeurArchive@@QAEXXZ 0044a720 f   SocketServeurArchive.obj
 0001:00049740       ?CloseConnexion@CSocketServeurArchive@@QAEXXZ 0044a740 f   SocketServeurArchive.obj
 0001:00049760       ??0CSocketTCP@@QAE@XZ      0044a760 f   SocketTCP.obj
 0001:00049830       ?Send@CSocketTCP@@UAEHPAVCString@@@Z 0044a830 f i SocketTCP.obj
 0001:00049860       ?SendBrut@CSocketTCP@@UAEHVCString@@@Z 0044a860 f i SocketTCP.obj
 0001:000498e0       ?Receive@CSocketTCP@@UAEHPAVCString@@@Z 0044a8e0 f i SocketTCP.obj
 0001:00049910       ??1CSocketTCP@@QAE@XZ      0044a910 f   SocketTCP.obj
 0001:000499a0       ?Create@CSocketTCP@@UAEHPADH0@Z 0044a9a0 f   SocketTCP.obj
 0001:00049b50       ?Create@CSocketTCP@@UAEHHPAVCServeurTCP@@@Z 0044ab50 f   SocketTCP.obj
 0001:00049c10       ?Create@CSocketTCP@@UAEHH@Z 0044ac10 f   SocketTCP.obj
 0001:00049c30       ?Close@CSocketTCP@@UAEHXZ  0044ac30 f   SocketTCP.obj
 0001:00049cc0       ?Reception@CSocketTCP@@QAEHXZ 0044acc0 f   SocketTCP.obj
 0001:00049f10       ?Send@CSocketTCP@@UAEHPAD@Z 0044af10 f   SocketTCP.obj
 0001:0004a0d0       ?SendBrut@CSocketTCP@@UAEHPAD@Z 0044b0d0 f   SocketTCP.obj
 0001:0004a260       ?SendBrut@CSocketTCP@@UAEHPADH@Z 0044b260 f   SocketTCP.obj
 0001:0004a370       ?InitAdresseServeur@CSocketTCP@@QAEHPADPAUin_addr@@@Z 0044b370 f   SocketTCP.obj
 0001:0004a490       ?ServeurDeconnecte@CSocketTCP@@UAEXXZ 0044b490 f   SocketTCP.obj
 0001:0004a4b0       ?Receive@CSocketTCP@@UAEHPAD@Z 0044b4b0 f   SocketTCP.obj
 0001:0004a4e0       ?GestMessageErreur@CSocketTCP@@UAAXHPBDZZ 0044b4e0 f   SocketTCP.obj
 0001:0004a520       ?MajErreurSendInfoSocketTcp@CSocketTCP@@UAEXXZ 0044b520 f   SocketTCP.obj
 0001:0004a540       ??0CTabPtr@@QAE@H@Z        0044b540 f   TabPtr.obj
 0001:0004a570       ??1CTabPtr@@QAE@XZ         0044b570 f   TabPtr.obj
 0001:0004a590       ?LitIndiceMax@CTabPtr@@QAEHXZ 0044b590 f   TabPtr.obj
 0001:0004a5b0       ?EcritIndiceMax@CTabPtr@@QAEXH@Z 0044b5b0 f   TabPtr.obj
 0001:0004a5d0       ?LitTailleAgrandissement@CTabPtr@@QAEHXZ 0044b5d0 f   TabPtr.obj
 0001:0004a5f0       ?NouvDimTab@CTabPtr@@QAEXH@Z 0044b5f0 f   TabPtr.obj
 0001:0004a6b0       ?SetAt@CTabPtr@@QAEXHH@Z   0044b6b0 f   TabPtr.obj
 0001:0004a720       ?GetAt@CTabPtr@@QAEHH@Z    0044b720 f   TabPtr.obj
 0001:0004a750       ?DeplaceValVersGauche@CTabPtr@@QAEHH@Z 0044b750 f   TabPtr.obj
 0001:0004a790       ?DeplaceValVersDroite@CTabPtr@@QAEHH@Z 0044b790 f   TabPtr.obj
 0001:0004a800       ?OteBlanc@CTexte@@QAEXXZ   0044b800 f   Texte.obj
 0001:0004a840       ?OteBlancDebut@CTexte@@QAEXXZ 0044b840 f   Texte.obj
 0001:0004a8c0       ?OteBlancDebutFin@CTexte@@QAEXXZ 0044b8c0 f   Texte.obj
 0001:0004a8f0       ??4CTexte@@QAEAAV0@ABVCString@@@Z 0044b8f0 f   Texte.obj
 0001:0004a9c0       ??4CTexte@@QAEAAV0@ABV0@@Z 0044b9c0 f   Texte.obj
 0001:0004aa80       ??4CTexte@@QAEAAV0@PBD@Z   0044ba80 f   Texte.obj
 0001:0004aaf0       ?VFormatMessage@CTexte@@QAAXPBDZZ 0044baf0 f   Texte.obj
 0001:0004ae80       ?PFormatMessage@CTexte@@QAEXPBDPAPAD@Z 0044be80 f   Texte.obj
 0001:0004b230       ?Filtre@CTexte@@QAEXAAVCString@@@Z 0044c230 f   Texte.obj
 0001:0004b2d0       ?MFormatMessage@CTexte@@SAXPADPAVCTabPtr@@AAVCString@@@Z 0044c2d0 f   Texte.obj
 0001:0004b390       ??0CLigneRequete@@QAE@XZ   0044c390 f   LigneRequete.obj
 0001:0004b3b0       ??1CLigneRequete@@QAE@XZ   0044c3b0 f   LigneRequete.obj
 0001:0004b420       ?AjouteElement@CLigneRequete@@QAEXPAD@Z 0044c420 f   LigneRequete.obj
 0001:0004b4b0       ?SupprimeTout@CLigneRequete@@QAEXXZ 0044c4b0 f   LigneRequete.obj
 0001:0004b500       ?SupprimeUnElement@CLigneRequete@@QAEHH@Z 0044c500 f   LigneRequete.obj
 0001:0004b550       ?NombreLigne@CLigneRequete@@QAEHXZ 0044c550 f   LigneRequete.obj
 0001:0004b570       ?LitElement@CLigneRequete@@QAEHHAAVCString@@@Z 0044c570 f   LigneRequete.obj
 0001:0004b5b0       ??0CResultatRequete@@QAE@XZ 0044c5b0 f   ResultatRequete.obj
 0001:0004b690       ?RendNomTypeDonnee@CResultatRequete@@UAEPADXZ 0044c690 f i ResultatRequete.obj
 0001:0004b6b0       ??1CResultatRequete@@QAE@XZ 0044c6b0 f   ResultatRequete.obj
 0001:0004b790       ?DestructionFicTemp@CResultatRequete@@AAEXXZ 0044c790 f   ResultatRequete.obj
 0001:0004b7e0       ?AjouteElement@CResultatRequete@@QAEXHPAD@Z 0044c7e0 f   ResultatRequete.obj
 0001:0004bb20       ?SupprimeTout@CResultatRequete@@QAEXXZ 0044cb20 f   ResultatRequete.obj
 0001:0004bbb0       ?NombreLigne@CResultatRequete@@QAEHXZ 0044cbb0 f   ResultatRequete.obj
 0001:0004bbd0       ?NombreColonne@CResultatRequete@@QAEHXZ 0044cbd0 f   ResultatRequete.obj
 0001:0004bbf0       ?LitNbEnregistrement@CResultatRequete@@QAEHXZ 0044cbf0 f   ResultatRequete.obj
 0001:0004bc10       ?LitElement@CResultatRequete@@QAEHHHAAVCString@@@Z 0044cc10 f   ResultatRequete.obj
 0001:0004bee0       ?LitElement@CResultatRequete@@QAEHHHPADH@Z 0044cee0 f   ResultatRequete.obj
 0001:0004c230       ?EcritSourceErreur@CResultatRequete@@QAEXPAD@Z 0044d230 f   ResultatRequete.obj
 0001:0004c250       ?LitSourceErreur@CResultatRequete@@QAEXAAVCString@@@Z 0044d250 f   ResultatRequete.obj
 0001:0004c270       ?EcritDescriptionErreur@CResultatRequete@@QAEXPAD@Z 0044d270 f   ResultatRequete.obj
 0001:0004c290       ?LitDescriptionErreur@CResultatRequete@@QAEXAAVCString@@@Z 0044d290 f   ResultatRequete.obj
 0001:0004c2b0       ?DeclareErreurExecution@CResultatRequete@@QAEXXZ 0044d2b0 f   ResultatRequete.obj
 0001:0004c2d0       ?ErreurExecution@CResultatRequete@@QAEHXZ 0044d2d0 f   ResultatRequete.obj
 0001:0004c2f0       ?LitNumErreur@CResultatRequete@@QAEHXZ 0044d2f0 f   ResultatRequete.obj
 0001:0004c310       ?EcritNumErreur@CResultatRequete@@QAEXH@Z 0044d310 f   ResultatRequete.obj
 0001:0004c330       ?EcritNumCanal@CResultatRequete@@QAEXH@Z 0044d330 f   ResultatRequete.obj
 0001:0004c350       ?LitNumCanal@CResultatRequete@@QAEHXZ 0044d350 f   ResultatRequete.obj
 0001:0004c370       ?LitArchive@CResultatRequete@@QAEHAAVCInputArchive@@@Z 0044d370 f   ResultatRequete.obj
 0001:0004c750       ?EcritArchive@CResultatRequete@@QAEHAAVCOutputArchive@@@Z 0044d750 f   ResultatRequete.obj
 0001:0004cc00       ?CreerFicTemp@CResultatRequete@@AAEXXZ 0044dc00 f   ResultatRequete.obj
 0001:0004cc80       ?AjoutDansIndexFic@CResultatRequete@@AAEXHPAU_iobuf@@@Z 0044dc80 f   ResultatRequete.obj
 0001:0004ccf0       ?TransfertDonnees@CResultatRequete@@AAEXPAU_iobuf@@@Z 0044dcf0 f   ResultatRequete.obj
 0001:0004ce20       ?SupprimeUnElement@CResultatRequete@@QAEHHH@Z 0044de20 f   ResultatRequete.obj
 0001:0004ce60       ?LitNomColonne@CResultatRequete@@QAEHHAAVCString@@@Z 0044de60 f   ResultatRequete.obj
 0001:0004ce90       ?LitTypeColonne@CResultatRequete@@QAEHHAAVCString@@@Z 0044de90 f   ResultatRequete.obj
 0001:0004cec0       ?LitElementEnMemoire@CResultatRequete@@AAEHHHAAVCString@@@Z 0044dec0 f   ResultatRequete.obj
 0001:0004cf40       ?LitSupprimeElementPourTransfert@CResultatRequete@@AAEHHHAAVCString@@@Z 0044df40 f   ResultatRequete.obj
 0001:0004cfd0       ?LitNomFicTemp@CResultatRequete@@QAEXAAVCString@@@Z 0044dfd0 f   ResultatRequete.obj
 0001:0004cff0       ?LitFic@CResultatRequete@@QAEHAAVCOutputArchive@@@Z 0044dff0 f   ResultatRequete.obj
 0001:0004d1a0       ?EcritFic@CResultatRequete@@QAEHAAVCInputArchive@@@Z 0044e1a0 f   ResultatRequete.obj
 0001:0004d490       ??4CResultatRequete@@QAEAAV0@AAV0@@Z 0044e490 f   ResultatRequete.obj
 0001:0004d660       ?CopyTabDyn@CResultatRequete@@AAEXAAV1@@Z 0044e660 f   ResultatRequete.obj
 0001:0004d740       ?LitLigneElement@CResultatRequete@@QAEHHAAVCString@@@Z 0044e740 f   ResultatRequete.obj
 0001:0004d870       ?EcritListeEnregArchive@CResultatRequete@@QAEHAAVCOutputArchive@@@Z 0044e870 f   ResultatRequete.obj
 0001:0004d9b0       ?FermeFicTemp@CResultatRequete@@QAEXXZ 0044e9b0 f   ResultatRequete.obj
 0001:0004d9e0       ?DeclarePerteConnexion@CResultatRequete@@QAEXXZ 0044e9e0 f   ResultatRequete.obj
 0001:0004da00       ?LitPerteConnexion@CResultatRequete@@QAEHXZ 0044ea00 f   ResultatRequete.obj
 0001:0004da20       ??0CStructureDefChamp@@QAE@XZ 0044ea20 f   StructureDB.obj
 0001:0004daf0       ??_GCStructureDefChamp@@UAEPAXI@Z 0044eaf0 f i StructureDB.obj
 0001:0004daf0       ??_ECStructureDefChamp@@UAEPAXI@Z 0044eaf0 f i StructureDB.obj
 0001:0004db20       ??1CStructureDefChamp@@UAE@XZ 0044eb20 f   StructureDB.obj
 0001:0004dba0       ?EcritDefChamp@CStructureDefChamp@@QAEHPADH0H@Z 0044eba0 f   StructureDB.obj
 0001:0004dbe0       ?TypeChamp@CStructureDefChamp@@QAEHXZ 0044ebe0 f   StructureDB.obj
 0001:0004dc00       ?LitArchive@CStructureDefChamp@@QAEHAAVCInputArchive@@@Z 0044ec00 f   StructureDB.obj
 0001:0004de30       ?EcritArchive@CStructureDefChamp@@QAEHAAVCOutputArchive@@@Z 0044ee30 f   StructureDB.obj
 0001:0004dfa0       ??0CListCStructureChamp@@QAE@XZ 0044efa0 f   StructureDB.obj
 0001:0004e020       ??1CListCStructureChamp@@QAE@XZ 0044f020 f   StructureDB.obj
 0001:0004e0a0       ?AjouteChamp@CListCStructureChamp@@QAEHPADPAVCStructureDefChamp@@@Z 0044f0a0 f   StructureDB.obj
 0001:0004e0d0       ?RechercheChamp@CListCStructureChamp@@QAEPAVCStructureDefChamp@@VCString@@@Z 0044f0d0 f   StructureDB.obj
 0001:0004e160       ?SupprimeTous@CListCStructureChamp@@QAEXXZ 0044f160 f   StructureDB.obj
 0001:0004e240       ?LitPremier@CListCStructureChamp@@QAEPAVCStructureDefChamp@@XZ 0044f240 f   StructureDB.obj
 0001:0004e2e0       ?LitSuivant@CListCStructureChamp@@QAEPAVCStructureDefChamp@@XZ 0044f2e0 f   StructureDB.obj
 0001:0004e380       ?LitArchive@CListCStructureChamp@@QAEHAAVCInputArchive@@@Z 0044f380 f   StructureDB.obj
 0001:0004e530       ?EcritArchive@CListCStructureChamp@@QAEHAAVCOutputArchive@@@Z 0044f530 f   StructureDB.obj
 0001:0004e5c0       ??0CListCStructureTable@@QAE@XZ 0044f5c0 f   StructureDB.obj
 0001:0004e640       ??1CListCStructureTable@@QAE@XZ 0044f640 f   StructureDB.obj
 0001:0004e6c0       ?AjouteTable@CListCStructureTable@@QAEHPADPAVCListCStructureChamp@@@Z 0044f6c0 f   StructureDB.obj
 0001:0004e6f0       ?RechercheTable@CListCStructureTable@@QAEPAVCListCStructureChamp@@VCString@@@Z 0044f6f0 f   StructureDB.obj
 0001:0004e780       ?SupprimeTous@CListCStructureTable@@QAEXXZ 0044f780 f   StructureDB.obj
 0001:0004e870       ?LitPremier@CListCStructureTable@@QAEPAVCListCStructureChamp@@XZ 0044f870 f   StructureDB.obj
 0001:0004e910       ?LitSuivant@CListCStructureTable@@QAEPAVCListCStructureChamp@@XZ 0044f910 f   StructureDB.obj
 0001:0004e9b0       ?RechercheChampFonctionTable@CListCStructureTable@@QAEPAVCStructureDefChamp@@VCString@@0@Z 0044f9b0 f   StructureDB.obj
 0001:0004eaa0       ?RechercheTableFonctionChamp@CListCStructureTable@@QAEPAVCListCStructureChamp@@VCString@@@Z 0044faa0 f   StructureDB.obj
 0001:0004eb40       ?LitArchive@CListCStructureTable@@QAEHAAVCInputArchive@@@Z 0044fb40 f   StructureDB.obj
 0001:0004ed60       ?EcritArchive@CListCStructureTable@@QAEHAAVCOutputArchive@@@Z 0044fd60 f   StructureDB.obj
 0001:0004eed0       ??4CListCStructureTable@@QAEAAV0@AAV0@@Z 0044fed0 f   StructureDB.obj
 0001:0004f0a0       ??0CListStructureBase@@QAE@XZ 004500a0 f   StructureDB.obj
 0001:0004f0c0       ??1CListStructureBase@@QAE@XZ 004500c0 f   StructureDB.obj
 0001:0004f130       ?Ajout@CListStructureBase@@QAEXPADPAVCListCStructureTable@@@Z 00450130 f   StructureDB.obj
 0001:0004f220       ?SupprimeTous@CListStructureBase@@QAEXXZ 00450220 f   StructureDB.obj
 0001:0004f310       ?RechercheStructureBase@CListStructureBase@@QAEPAVCListCStructureTable@@PAD@Z 00450310 f   StructureDB.obj
 0001:0004f3f0       ?NouveauGroupe@ClientInterfaceOsys@@QAEHPAD0H@Z 004503f0 f   CInterfaceOsys.obj
 0001:0004f570       ?SupprimeGroupe@ClientInterfaceOsys@@QAEHHH@Z 00450570 f   CInterfaceOsys.obj
 0001:0004f6e0       ?ModifierNomGroupe@ClientInterfaceOsys@@QAEHHPAD0H@Z 004506e0 f   CInterfaceOsys.obj
 0001:0004f870       ?LitNomGroupe@ClientInterfaceOsys@@QAEHAAVCString@@HPADH@Z 00450870 f   CInterfaceOsys.obj
 0001:0004fa50       ?ReceptionMessage@ClientOsysSrv@@QAE?AVCString@@XZ 00450a50 f i CInterfaceOsys.obj
 0001:0004fa90       ?RechercheNomGroupe@ClientInterfaceOsys@@QAEHPAD0H@Z 00450a90 f   CInterfaceOsys.obj
 0001:0004fc20       ?LitListeGroupe@ClientInterfaceOsys@@QAEHAAVCString@@PADH@Z 00450c20 f   CInterfaceOsys.obj
 0001:0004fdf0       ?LitModifNomgroupe@ClientInterfaceOsys@@QAEHAAVCString@@HH@Z 00450df0 f   CInterfaceOsys.obj
 0001:0004ffc0       ?LitDateCreationGrp@ClientInterfaceOsys@@QAEHHH@Z 00450fc0 f   CInterfaceOsys.obj
 0001:00050130       ?AjouteElement@ClientInterfaceOsys@@QAEHPADH000H@Z 00451130 f   CInterfaceOsys.obj
 0001:00050310       ?SupprimeElement@ClientInterfaceOsys@@QAEHAAVCString@@HH@Z 00451310 f   CInterfaceOsys.obj
 0001:000504c0       ?ModifierElement@ClientInterfaceOsys@@QAEHPADHHH@Z 004514c0 f   CInterfaceOsys.obj
 0001:00050690       ?ModifierNomElement@ClientInterfaceOsys@@QAEHHPAD0H@Z 00451690 f   CInterfaceOsys.obj
 0001:00050850       ?LitDefElement@ClientInterfaceOsys@@QAEHAAVCString@@HPADH@Z 00451850 f   CInterfaceOsys.obj
 0001:00050a30       ?LitDefExecElement@ClientInterfaceOsys@@QAEHAAVCString@@HPADH@Z 00451a30 f   CInterfaceOsys.obj
 0001:00050c10       ?LitNomElement@ClientInterfaceOsys@@QAEHAAVCString@@HPADH@Z 00451c10 f   CInterfaceOsys.obj
 0001:00050df0       ?LitListeElement@ClientInterfaceOsys@@QAEHAAVCString@@HPADH@Z 00451df0 f   CInterfaceOsys.obj
 0001:00050fd0       ?LitModifElement@ClientInterfaceOsys@@QAEHAAVCString@@HH@Z 00451fd0 f   CInterfaceOsys.obj
 0001:000511a0       ?ModifierDroit@ClientInterfaceOsys@@QAEHPADHH@Z 004521a0 f   CInterfaceOsys.obj
 0001:00051360       ?LitDroit@ClientInterfaceOsys@@QAEHAAVCString@@HH@Z 00452360 f   CInterfaceOsys.obj
 0001:00051530       ?RechercheIDCreation@ClientInterfaceOsys@@QAEHHJH@Z 00452530 f   CInterfaceOsys.obj
 0001:000516b0       ?RechercheNomElement@ClientInterfaceOsys@@QAEHPAD0H@Z 004526b0 f   CInterfaceOsys.obj
 0001:00051840       ?RechercheIdElement@ClientInterfaceOsys@@QAEHPAD0H@Z 00452840 f   CInterfaceOsys.obj
 0001:000519d0       ?ModifierDroitTousGroupe@ClientInterfaceOsys@@QAEHPADHHH@Z 004529d0 f   CInterfaceOsys.obj
 0001:00051ba0       ??0ClientInterfaceOsys@@QAE@PAVClientOsysSrv@@@Z 00452ba0 f   CInterfaceOsys.obj
 0001:00051bc0       ??1ClientInterfaceOsys@@QAE@XZ 00452bc0 f   CInterfaceOsys.obj
 0001:00051be0       ??0CMemoireRecu@@QAE@XZ    00452be0 f   ClMemoire.obj
 0001:00051ca0       ??1CMemoireRecu@@QAE@XZ    00452ca0 f   ClMemoire.obj
 0001:00051d30       ?BloqueAccessMemoire@CMemoireRecu@@QAEXXZ 00452d30 f   ClMemoire.obj
 0001:00051d50       ?LibereAccessMemoire@CMemoireRecu@@QAEXXZ 00452d50 f   ClMemoire.obj
 0001:00051d70       ?EcritIndexMaxMemoire@CMemoireRecu@@QAEXH@Z 00452d70 f   ClMemoire.obj
 0001:00051db0       ?LitIndexMaxMemoire@CMemoireRecu@@QAEHXZ 00452db0 f   ClMemoire.obj
 0001:00051de0       ?EcritNbMaxValeur@CMemoireRecu@@QAEXH@Z 00452de0 f   ClMemoire.obj
 0001:00051e20       ?LitNbMaxValeur@CMemoireRecu@@QAEHXZ 00452e20 f   ClMemoire.obj
 0001:00051e50       ?EcritNumMemoire@CMemoireRecu@@QAEXH@Z 00452e50 f   ClMemoire.obj
 0001:00051e80       ?LitNumMemoire@CMemoireRecu@@QAEHXZ 00452e80 f   ClMemoire.obj
 0001:00051eb0       ?EcritNumMemoireUser@CMemoireRecu@@QAEXH@Z 00452eb0 f   ClMemoire.obj
 0001:00051ef0       ?LitNumMemoireUser@CMemoireRecu@@QAEHXZ 00452ef0 f   ClMemoire.obj
 0001:00051f20       ?EcritVisibiliteMem@CMemoireRecu@@QAEXH@Z 00452f20 f   ClMemoire.obj
 0001:00051f60       ?LitVisibiliteMem@CMemoireRecu@@QAEHXZ 00452f60 f   ClMemoire.obj
 0001:00051f90       ?NbValeur@CMemoireRecu@@QAEHXZ 00452f90 f   ClMemoire.obj
 0001:00051fc0       ?TypeDonnee@CMemoireRecu@@QAEHXZ 00452fc0 f   ClMemoire.obj
 0001:00051ff0       ?ModeGestion@CMemoireRecu@@QAEHXZ 00452ff0 f   ClMemoire.obj
 0001:00052020       ?NbDemande@CMemoireRecu@@QAEHXZ 00453020 f   ClMemoire.obj
 0001:00052050       ?AjouteDemande@CMemoireRecu@@QAEXXZ 00453050 f   ClMemoire.obj
 0001:00052080       ?SupprimeDemande@CMemoireRecu@@QAEXXZ 00453080 f   ClMemoire.obj
 0001:000520b0       ?EffaceTout@CMemoireRecu@@QAEXXZ 004530b0 f   ClMemoire.obj
 0001:00052180       ??1t_valeur@@QAE@XZ        00453180 f i ClMemoire.obj
 0001:000521a0       ?Reception@CMemoireRecu@@QAEHAAVCString@@@Z 004531a0 f   ClMemoire.obj
 0001:00052870       ?CodageArchive@CMemoireRecu@@QAEHAAVCString@@@Z 00453870 f   ClMemoire.obj
 0001:00052b60       ?LitValeurMemoire@CMemoireRecu@@QAEHHAAHAAVCString@@AAJ@Z 00453b60 f   ClMemoire.obj
 0001:00052cc0       ?LitValeur@CMemoireRecu@@QAEHHAAHAAVCString@@AAJ@Z 00453cc0 f   ClMemoire.obj
 0001:00052d10       ??4CMemoireRecu@@QAEAAV0@AAV0@@Z 00453d10 f   ClMemoire.obj
 0001:00052ed0       ??0CListMemoireRecu@@QAE@XZ 00453ed0 f   ClMemoire.obj
 0001:00052f50       ??1CListMemoireRecu@@QAE@XZ 00453f50 f   ClMemoire.obj
 0001:00052fd0       ?EffaceTout@CListMemoireRecu@@QAEXXZ 00453fd0 f   ClMemoire.obj
 0001:000530c0       ?AjouteValeurMemoire@CListMemoireRecu@@QAEXHAAVCString@@H@Z 004540c0 f   ClMemoire.obj
 0001:00053160       ?AjouteMemoire@CListMemoireRecu@@QAEXHAAVCString@@HH@Z 00454160 f   ClMemoire.obj
 0001:00053320       ?SupprimeMemoire@CListMemoireRecu@@QAEXHH@Z 00454320 f   ClMemoire.obj
 0001:00053410       ?TestMemoire@CListMemoireRecu@@QAEHHH@Z 00454410 f   ClMemoire.obj
 0001:000534d0       ?AjouteDemande@CListMemoireRecu@@QAEXHH@Z 004544d0 f   ClMemoire.obj
 0001:00053570       ?SupprimeDemande@CListMemoireRecu@@QAEXHH@Z 00454570 f   ClMemoire.obj
 0001:00053610       ?CopieMemoireRecu@CListMemoireRecu@@QAEPAVCMemoireRecu@@HH@Z 00454610 f   ClMemoire.obj
 0001:00053730       ??0ClientMemoire@@QAE@PADH0@Z 00454730 f   ClMemoire.obj
 0001:00053850       ??_GClientMemoire@@UAEPAXI@Z 00454850 f i ClMemoire.obj
 0001:00053850       ??_EClientMemoire@@UAEPAXI@Z 00454850 f i ClMemoire.obj
 0001:00053880       ??0ClientMemoire@@QAE@XZ   00454880 f   ClMemoire.obj
 0001:00053960       ?InitConnexion@ClientMemoire@@QAEXPADH0@Z 00454960 f   ClMemoire.obj
 0001:000539f0       ?InitConnexion@ClientMemoire@@QAEXHPAD0@Z 004549f0 f   ClMemoire.obj
 0001:00053a60       ??1ClientMemoire@@UAE@XZ   00454a60 f   ClMemoire.obj
 0001:00053b50       ?Reception@ClientMemoire@@UAEXXZ 00454b50 f   ClMemoire.obj
 0001:00054250       ?NoticeModMem@ClientMemoire@@UAEXHPAVCMemoireRecu@@H@Z 00455250 f   ClMemoire.obj
 0001:000543c0       ?DeclareUtilisateur@ClientMemoire@@QAEHHPAD0@Z 004553c0 f   ClMemoire.obj
 0001:00054530       ?LitMemoire@ClientMemoire@@QAEHHAAVCString@@HH@Z 00455530 f   ClMemoire.obj
 0001:00054760       ?DemandeMemoire@ClientMemoire@@QAEHHAAVCString@@HH@Z 00455760 f   ClMemoire.obj
 0001:000549b0       ?SupprimeDemandeMemoire@ClientMemoire@@QAEHHHH@Z 004559b0 f   ClMemoire.obj
 0001:00054bc0       ?EcritMemoire@ClientMemoire@@QAEHHPADHH@Z 00455bc0 f   ClMemoire.obj
 0001:00054d50       ?LitUneMemoire@ClientMemoire@@QAEHHAAVCString@@PAJHHH@Z 00455d50 f   ClMemoire.obj
 0001:00054fa0       ?EcritUneMemoire@ClientMemoire@@QAEHHVCString@@JHHH@Z 00455fa0 f   ClMemoire.obj
 0001:00055170       ?EffaceUneMemoire@ClientMemoire@@QAEHHHH@Z 00456170 f   ClMemoire.obj
 0001:000552f0       ?EffaceUneMemoireIndex@ClientMemoire@@QAEHHHHHH@Z 004562f0 f   ClMemoire.obj
 0001:000554a0       ?LitIndexMaxMemoire@ClientMemoire@@QAEHHHH@Z 004564a0 f   ClMemoire.obj
 0001:00055680       ?OperationMemoire@ClientMemoire@@QAEHVCString@@H@Z 00456680 f   ClMemoire.obj
 0001:00055800       ?TestMemoire@ClientMemoire@@QAEHVCString@@H@Z 00456800 f   ClMemoire.obj
 0001:00055980       ?Imprime@ClientMemoire@@QAEHPADH0H@Z 00456980 f   ClMemoire.obj
 0001:00055b00       ?Enregistre@ClientMemoire@@QAEHH@Z 00456b00 f   ClMemoire.obj
 0001:00055c30       ?ArreteMemoire@ClientMemoire@@QAEHH@Z 00456c30 f   ClMemoire.obj
 0001:00055d60       ?ListeOperationMemoire@ClientMemoire@@QAEHAAVCString@@H@Z 00456d60 f   ClMemoire.obj
 0001:00055ed0       ?ListeTestMemoire@ClientMemoire@@QAEHAAVCString@@H@Z 00456ed0 f   ClMemoire.obj
 0001:00056040       ?AttentReconnexion@ClientMemoire@@UAEXXZ 00457040 f   ClMemoire.obj
 0001:000560c0       ?NouveauGroupe@ClientOsysBd@@QAEHPAD0H@Z 004570c0 f   COsysBd.obj
 0001:00056240       ?SupprimeGroupe@ClientOsysBd@@QAEHHH@Z 00457240 f   COsysBd.obj
 0001:000563b0       ?ModifierNomGroupe@ClientOsysBd@@QAEHHPAD0H@Z 004573b0 f   COsysBd.obj
 0001:00056540       ?LitNomGroupe@ClientOsysBd@@QAEHAAVCString@@HPADH@Z 00457540 f   COsysBd.obj
 0001:00056720       ?RechercheNomGroupe@ClientOsysBd@@QAEHPAD0H@Z 00457720 f   COsysBd.obj
 0001:000568b0       ?LitListeGroupe@ClientOsysBd@@QAEHAAVCString@@PADH@Z 004578b0 f   COsysBd.obj
 0001:00056a80       ?LitModifNomgroupe@ClientOsysBd@@QAEHAAVCString@@HH@Z 00457a80 f   COsysBd.obj
 0001:00056c50       ?LitDateCreationGrp@ClientOsysBd@@QAEHHH@Z 00457c50 f   COsysBd.obj
 0001:00056dc0       ?AjouteElement@ClientOsysBd@@QAEHPADH000H@Z 00457dc0 f   COsysBd.obj
 0001:00056fa0       ?SupprimeElement@ClientOsysBd@@QAEHAAVCString@@HH@Z 00457fa0 f   COsysBd.obj
 0001:00057150       ?ModifierElement@ClientOsysBd@@QAEHPADHHH@Z 00458150 f   COsysBd.obj
 0001:00057320       ?ModifierNomElement@ClientOsysBd@@QAEHHPAD0H@Z 00458320 f   COsysBd.obj
 0001:000574e0       ?LitDefElement@ClientOsysBd@@QAEHAAVCString@@HPADH@Z 004584e0 f   COsysBd.obj
 0001:000576c0       ?LitDefExecElement@ClientOsysBd@@QAEHAAVCString@@HPADH@Z 004586c0 f   COsysBd.obj
 0001:000578a0       ?LitNomElement@ClientOsysBd@@QAEHAAVCString@@HPADH@Z 004588a0 f   COsysBd.obj
 0001:00057a80       ?LitListeElement@ClientOsysBd@@QAEHAAVCString@@HPADH@Z 00458a80 f   COsysBd.obj
 0001:00057c60       ?LitModifElement@ClientOsysBd@@QAEHAAVCString@@HH@Z 00458c60 f   COsysBd.obj
 0001:00057e30       ?ModifierDroit@ClientOsysBd@@QAEHPADHH@Z 00458e30 f   COsysBd.obj
 0001:00057ff0       ?LitDroit@ClientOsysBd@@QAEHAAVCString@@HH@Z 00458ff0 f   COsysBd.obj
 0001:000581c0       ?RechercheIDCreation@ClientOsysBd@@QAEHHJH@Z 004591c0 f   COsysBd.obj
 0001:00058340       ?RechercheNomElement@ClientOsysBd@@QAEHPAD0H@Z 00459340 f   COsysBd.obj
 0001:000584d0       ?RechercheIdElement@ClientOsysBd@@QAEHPAD0H@Z 004594d0 f   COsysBd.obj
 0001:00058660       ?ModifierDroitTousGroupe@ClientOsysBd@@QAEHPADHHH@Z 00459660 f   COsysBd.obj
 0001:00058830       ??0ClientOsysBd@@QAE@PAVClientOsysSrv@@@Z 00459830 f   COsysBd.obj
 0001:00058850       ??1ClientOsysBd@@QAE@XZ    00459850 f   COsysBd.obj
 0001:00058870       ?ReserveCanal@ClientOsysBd@@QAEHH@Z 00459870 f   COsysBd.obj
 0001:000589d0       ?LibereCanal@ClientOsysBd@@QAEHHH@Z 004599d0 f   COsysBd.obj
 0001:00058b40       ?ExecuteRequete@ClientOsysBd@@QAEHHPADHHH0@Z 00459b40 f   COsysBd.obj
 0001:00058d00       ?LitConfigBd@ClientOsysBd@@QAEHAAVCString@@H@Z 00459d00 f   COsysBd.obj
 0001:00058ec0       ?EcritConfigBd@ClientOsysBd@@QAEHPADH@Z 00459ec0 f   COsysBd.obj
 0001:00059070       ?LitTypeBd@ClientOsysBd@@QAEHPADH@Z 0045a070 f   COsysBd.obj
 0001:000591e0       ?LitStructureBd@ClientOsysBd@@QAEHPADH@Z 0045a1e0 f   COsysBd.obj
 0001:00059390       ?LitListeNomSGBD@ClientOsysBd@@QAEHAAVCString@@H@Z 0045a390 f   COsysBd.obj
 0001:00059550       ?NouveauGroupe@ClientOsysLPX@@QAEHPAD0H@Z 0045a550 f   COsysLPX.obj
 0001:000596d0       ?SupprimeGroupe@ClientOsysLPX@@QAEHHH@Z 0045a6d0 f   COsysLPX.obj
 0001:00059840       ?ModifierNomGroupe@ClientOsysLPX@@QAEHHPAD0H@Z 0045a840 f   COsysLPX.obj
 0001:000599d0       ?LitNomGroupe@ClientOsysLPX@@QAEHAAVCString@@HPADH@Z 0045a9d0 f   COsysLPX.obj
 0001:00059bb0       ?RechercheNomGroupe@ClientOsysLPX@@QAEHPAD0H@Z 0045abb0 f   COsysLPX.obj
 0001:00059d40       ?LitListeGroupe@ClientOsysLPX@@QAEHAAVCString@@PADH@Z 0045ad40 f   COsysLPX.obj
 0001:00059f10       ?LitModifNomgroupe@ClientOsysLPX@@QAEHAAVCString@@HH@Z 0045af10 f   COsysLPX.obj
 0001:0005a0e0       ?LitDateCreationGrp@ClientOsysLPX@@QAEHHH@Z 0045b0e0 f   COsysLPX.obj
 0001:0005a250       ?AjouteElement@ClientOsysLPX@@QAEHPADH000H@Z 0045b250 f   COsysLPX.obj
 0001:0005a430       ?SupprimeElement@ClientOsysLPX@@QAEHAAVCString@@HH@Z 0045b430 f   COsysLPX.obj
 0001:0005a5e0       ?ModifierElement@ClientOsysLPX@@QAEHPADHHH@Z 0045b5e0 f   COsysLPX.obj
 0001:0005a7b0       ?ModifierNomElement@ClientOsysLPX@@QAEHHPAD0H@Z 0045b7b0 f   COsysLPX.obj
 0001:0005a970       ?LitDefElement@ClientOsysLPX@@QAEHAAVCString@@HPADH@Z 0045b970 f   COsysLPX.obj
 0001:0005ab50       ?LitDefExecElement@ClientOsysLPX@@QAEHAAVCString@@HPADH@Z 0045bb50 f   COsysLPX.obj
 0001:0005ad30       ?LitNomElement@ClientOsysLPX@@QAEHAAVCString@@HPADH@Z 0045bd30 f   COsysLPX.obj
 0001:0005af10       ?LitListeElement@ClientOsysLPX@@QAEHAAVCString@@HPADH@Z 0045bf10 f   COsysLPX.obj
 0001:0005b0f0       ?LitModifElement@ClientOsysLPX@@QAEHAAVCString@@HH@Z 0045c0f0 f   COsysLPX.obj
 0001:0005b2c0       ?ModifierDroit@ClientOsysLPX@@QAEHPADHH@Z 0045c2c0 f   COsysLPX.obj
 0001:0005b480       ?LitDroit@ClientOsysLPX@@QAEHAAVCString@@HH@Z 0045c480 f   COsysLPX.obj
 0001:0005b650       ?RechercheIDCreation@ClientOsysLPX@@QAEHHJH@Z 0045c650 f   COsysLPX.obj
 0001:0005b7d0       ?RechercheNomElement@ClientOsysLPX@@QAEHPAD0H@Z 0045c7d0 f   COsysLPX.obj
 0001:0005b960       ?RechercheIdElement@ClientOsysLPX@@QAEHPAD0H@Z 0045c960 f   COsysLPX.obj
 0001:0005baf0       ?ModifierDroitTousGroupe@ClientOsysLPX@@QAEHPADHHH@Z 0045caf0 f   COsysLPX.obj
 0001:0005bcc0       ??0ClientOsysLPX@@QAE@PAVClientOsysSrv@@@Z 0045ccc0 f   COsysLPX.obj
 0001:0005bce0       ??1ClientOsysLPX@@QAE@XZ   0045cce0 f   COsysLPX.obj
 0001:0005bd00       ?CompileFic@ClientOsysLPX@@QAEHHHH@Z 0045cd00 f   COsysLPX.obj
 0001:0005be80       ?CompileUnFicLPX@ClientOsysLPX@@QAEHAAVCString@@HHH@Z 0045ce80 f   COsysLPX.obj
 0001:0005c060       ?AjouteLpxLocal@ClientOsysLPX@@QAEHPADHH@Z 0045d060 f   COsysLPX.obj
 0001:0005c220       ?SupprimeLpxLocal@ClientOsysLPX@@QAEHHHH@Z 0045d220 f   COsysLPX.obj
 0001:0005c3a0       ?ModifierLpxLocal@ClientOsysLPX@@QAEHPADHHH@Z 0045d3a0 f   COsysLPX.obj
 0001:0005c570       ?LitLpxLocal@ClientOsysLPX@@QAEHAAVCString@@HHPADH@Z 0045d570 f   COsysLPX.obj
 0001:0005c750       ?LitErreurLpxLocal@ClientOsysLPX@@QAEHAAVCString@@HHH@Z 0045d750 f   COsysLPX.obj
 0001:0005c930       ?LitListeLpxLocal@ClientOsysLPX@@QAEHAAVCString@@HPADH@Z 0045d930 f   COsysLPX.obj
 0001:0005cb10       ?ExecuteLpx@ClientOsysLPX@@QAEHHPAD0VCListPeriph@@H@Z 0045db10 f   COsysLPX.obj
 0001:0005ccd0       ?LitListeScenEncours@ClientOsysLPX@@QAEHAAVCString@@H@Z 0045dcd0 f   COsysLPX.obj
 0001:0005ce90       ?ArretScenario@ClientOsysLPX@@QAEHHH@Z 0045de90 f   COsysLPX.obj
 0001:0005d000       ?LitFicLPXErreur@ClientOsysLPX@@QAEHAAVCString@@HH@Z 0045e000 f   COsysLPX.obj
 0001:0005d1d0       ?UtiliseAction@ClientOsysLPX@@QAEHAAVCString@@HHPADH@Z 0045e1d0 f   COsysLPX.obj
 0001:0005d3b0       ?LitConfigScenAttente@ClientOsysLPX@@QAEHAAVCString@@H@Z 0045e3b0 f   COsysLPX.obj
 0001:0005d570       ?EcritConfigScenAttente@ClientOsysLPX@@QAEHPADH@Z 0045e570 f   COsysLPX.obj
 0001:0005d720       ?NouveauGroupe@ClientOsysMem@@QAEHPAD0H@Z 0045e720 f   COsysMem.obj
 0001:0005d8a0       ?SupprimeGroupe@ClientOsysMem@@QAEHHH@Z 0045e8a0 f   COsysMem.obj
 0001:0005da10       ?ModifierNomGroupe@ClientOsysMem@@QAEHHPAD0H@Z 0045ea10 f   COsysMem.obj
 0001:0005dba0       ?LitNomGroupe@ClientOsysMem@@QAEHAAVCString@@HPADH@Z 0045eba0 f   COsysMem.obj
 0001:0005dd80       ?RechercheNomGroupe@ClientOsysMem@@QAEHPAD0H@Z 0045ed80 f   COsysMem.obj
 0001:0005df10       ?LitListeGroupe@ClientOsysMem@@QAEHAAVCString@@PADH@Z 0045ef10 f   COsysMem.obj
 0001:0005e0e0       ?LitModifNomgroupe@ClientOsysMem@@QAEHAAVCString@@HH@Z 0045f0e0 f   COsysMem.obj
 0001:0005e2b0       ?LitDateCreationGrp@ClientOsysMem@@QAEHHH@Z 0045f2b0 f   COsysMem.obj
 0001:0005e420       ?AjouteElement@ClientOsysMem@@QAEHPADH000H@Z 0045f420 f   COsysMem.obj
 0001:0005e600       ?SupprimeElement@ClientOsysMem@@QAEHAAVCString@@HH@Z 0045f600 f   COsysMem.obj
 0001:0005e7b0       ?ModifierElement@ClientOsysMem@@QAEHPADHHH@Z 0045f7b0 f   COsysMem.obj
 0001:0005e980       ?ModifierNomElement@ClientOsysMem@@QAEHHPAD0H@Z 0045f980 f   COsysMem.obj
 0001:0005eb40       ?LitDefElement@ClientOsysMem@@QAEHAAVCString@@HPADH@Z 0045fb40 f   COsysMem.obj
 0001:0005ed20       ?LitDefExecElement@ClientOsysMem@@QAEHAAVCString@@HPADH@Z 0045fd20 f   COsysMem.obj
 0001:0005ef00       ?LitNomElement@ClientOsysMem@@QAEHAAVCString@@HPADH@Z 0045ff00 f   COsysMem.obj
 0001:0005f0e0       ?LitListeElement@ClientOsysMem@@QAEHAAVCString@@HPADH@Z 004600e0 f   COsysMem.obj
 0001:0005f2c0       ?LitModifElement@ClientOsysMem@@QAEHAAVCString@@HH@Z 004602c0 f   COsysMem.obj
 0001:0005f490       ?ModifierDroit@ClientOsysMem@@QAEHPADHH@Z 00460490 f   COsysMem.obj
 0001:0005f650       ?LitDroit@ClientOsysMem@@QAEHAAVCString@@HH@Z 00460650 f   COsysMem.obj
 0001:0005f820       ?RechercheIDCreation@ClientOsysMem@@QAEHHJH@Z 00460820 f   COsysMem.obj
 0001:0005f9a0       ?RechercheNomElement@ClientOsysMem@@QAEHPAD0H@Z 004609a0 f   COsysMem.obj
 0001:0005fb30       ?RechercheIdElement@ClientOsysMem@@QAEHPAD0H@Z 00460b30 f   COsysMem.obj
 0001:0005fcc0       ?ModifierDroitTousGroupe@ClientOsysMem@@QAEHPADHHH@Z 00460cc0 f   COsysMem.obj
 0001:0005fe90       ??0ClientOsysMem@@QAE@PAVClientOsysSrv@@@Z 00460e90 f   COsysMem.obj
 0001:0005feb0       ??1ClientOsysMem@@QAE@XZ   00460eb0 f   COsysMem.obj
 0001:0005fed0       ??0ClientOsysSrv@@QAE@PADH0@Z 00460ed0 f   COsysSrv.obj
 0001:00060010       ??_GClientOsysSrv@@UAEPAXI@Z 00461010 f i COsysSrv.obj
 0001:00060010       ??_EClientOsysSrv@@UAEPAXI@Z 00461010 f i COsysSrv.obj
 0001:00060040       ??0ClientOsysSrv@@QAE@HPAD0@Z 00461040 f   COsysSrv.obj
 0001:00060150       ??1ClientOsysSrv@@UAE@XZ   00461150 f   COsysSrv.obj
 0001:00060240       ?Reception@ClientOsysSrv@@UAEXXZ 00461240 f   COsysSrv.obj
 0001:00060910       ?DeclareUtilisateur@ClientOsysSrv@@QAEHHPAD000@Z 00461910 f   COsysSrv.obj
 0001:00060aa0       ?LectureConfiguration@ClientOsysSrv@@QAEHHAAVCString@@@Z 00461aa0 f   COsysSrv.obj
 0001:00060c50       ?EcritureConfiguration@ClientOsysSrv@@QAEHHVCString@@@Z 00461c50 f   COsysSrv.obj
 0001:00060de0       ?LitMessage@ClientOsysSrv@@QAEHAAVCString@@HPADH@Z 00461de0 f   COsysSrv.obj
 0001:00060f90       ?LitMessageDictionnaire@ClientOsysSrv@@QAEHAAVCString@@PAD1H@Z 00461f90 f   COsysSrv.obj
 0001:00061140       ?EventData@ClientOsysSrv@@UAEXPAVCDataArchive@@@Z 00462140 f   COsysSrv.obj
 0001:000614b0       ?LitResultatRequete@ClientOsysSrv@@QAEXAAVCResultatRequete@@@Z 004624b0 f   COsysSrv.obj
 0001:000614f0       ?EcritResultatRequete@ClientOsysSrv@@QAEXAAVCResultatRequete@@@Z 004624f0 f   COsysSrv.obj
 0001:000615c0       ?AttentReconnexion@ClientOsysSrv@@UAEXXZ 004625c0 f   COsysSrv.obj
 0001:00061640       ?ArretServeur@ClientOsysSrv@@QAEHHHH@Z 00462640 f   COsysSrv.obj
 0001:000617c0       ?LectureLstUserConnecte@ClientOsysSrv@@QAEHAAVCString@@PADH@Z 004627c0 f   COsysSrv.obj
 0001:00061980       ?SupprimeConnexion@ClientOsysSrv@@QAEHHJH@Z 00462980 f   COsysSrv.obj
 0001:00061b10       ?LitVersionInterneMoteur@ClientOsysSrv@@QAEHH@Z 00462b10 f   COsysSrv.obj
 0001:00061c70       ?LitVersionMoteur@ClientOsysSrv@@QAEHAAVCString@@H@Z 00462c70 f   COsysSrv.obj
 0001:00061e00       ?LitNbLicence@ClientOsysSrv@@QAEHAAVCString@@H@Z 00462e00 f   COsysSrv.obj
 0001:00061f90       ?EnvoiInitOK@ClientOsysSrv@@QAEHH@Z 00462f90 f   COsysSrv.obj
 0001:000620f0       ?ActualiseLstFicLangue@ClientOsysSrv@@QAEHH@Z 004630f0 f   COsysSrv.obj
 0001:00062210       ??0ClientOsysSrvWeb@@QAE@PAVClientOsysSrv@@@Z 00463210 f   COsysSrvWeb.obj
 0001:00062230       ??1ClientOsysSrvWeb@@QAE@XZ 00463230 f   COsysSrvWeb.obj
 0001:00062250       ?LitConfSrvHTTP@ClientOsysSrvWeb@@QAEHAAVCString@@H@Z 00463250 f   COsysSrvWeb.obj
 0001:00062410       ?ModifierConfSrvWEB@ClientOsysSrvWeb@@QAEHPADH@Z 00463410 f   COsysSrvWeb.obj
 0001:000625c0       ?PortSrvWeb@ClientOsysSrvWeb@@QAEHH@Z 004635c0 f   COsysSrvWeb.obj
 0001:00062740       ?NouveauGroupe@ClientOsysUser@@QAEHPAD0H@Z 00463740 f   COsysUser.obj
 0001:000628c0       ?SupprimeGroupe@ClientOsysUser@@QAEHHH@Z 004638c0 f   COsysUser.obj
 0001:00062a30       ?ModifierNomGroupe@ClientOsysUser@@QAEHHPAD0H@Z 00463a30 f   COsysUser.obj
 0001:00062bc0       ?LitNomGroupe@ClientOsysUser@@QAEHAAVCString@@HPADH@Z 00463bc0 f   COsysUser.obj
 0001:00062da0       ?RechercheNomGroupe@ClientOsysUser@@QAEHPAD0H@Z 00463da0 f   COsysUser.obj
 0001:00062f30       ?LitListeGroupe@ClientOsysUser@@QAEHAAVCString@@PADH@Z 00463f30 f   COsysUser.obj
 0001:00063100       ?LitModifNomgroupe@ClientOsysUser@@QAEHAAVCString@@HH@Z 00464100 f   COsysUser.obj
 0001:000632d0       ?LitDateCreationGrp@ClientOsysUser@@QAEHHH@Z 004642d0 f   COsysUser.obj
 0001:00063440       ?AjouteElement@ClientOsysUser@@QAEHPADH000H@Z 00464440 f   COsysUser.obj
 0001:00063620       ?SupprimeElement@ClientOsysUser@@QAEHAAVCString@@HH@Z 00464620 f   COsysUser.obj
 0001:000637d0       ?ModifierElement@ClientOsysUser@@QAEHPADHHH@Z 004647d0 f   COsysUser.obj
 0001:000639a0       ?ModifierNomElement@ClientOsysUser@@QAEHHPAD0H@Z 004649a0 f   COsysUser.obj
 0001:00063b60       ?LitDefElement@ClientOsysUser@@QAEHAAVCString@@HPADH@Z 00464b60 f   COsysUser.obj
 0001:00063d40       ?LitDefExecElement@ClientOsysUser@@QAEHAAVCString@@HPADH@Z 00464d40 f   COsysUser.obj
 0001:00063f20       ?LitNomElement@ClientOsysUser@@QAEHAAVCString@@HPADH@Z 00464f20 f   COsysUser.obj
 0001:00064100       ?LitListeElement@ClientOsysUser@@QAEHAAVCString@@HPADH@Z 00465100 f   COsysUser.obj
 0001:000642e0       ?LitModifElement@ClientOsysUser@@QAEHAAVCString@@HH@Z 004652e0 f   COsysUser.obj
 0001:000644b0       ?ModifierDroit@ClientOsysUser@@QAEHPADHH@Z 004654b0 f   COsysUser.obj
 0001:00064670       ?LitDroit@ClientOsysUser@@QAEHAAVCString@@HH@Z 00465670 f   COsysUser.obj
 0001:00064840       ?RechercheIDCreation@ClientOsysUser@@QAEHHJH@Z 00465840 f   COsysUser.obj
 0001:000649c0       ?RechercheNomElement@ClientOsysUser@@QAEHPAD0H@Z 004659c0 f   COsysUser.obj
 0001:00064b50       ?RechercheIdElement@ClientOsysUser@@QAEHPAD0H@Z 00465b50 f   COsysUser.obj
 0001:00064ce0       ?ModifierDroitTousGroupe@ClientOsysUser@@QAEHPADHHH@Z 00465ce0 f   COsysUser.obj
 0001:00064eb0       ??0ClientOsysUser@@QAE@PAVClientOsysSrv@@@Z 00465eb0 f   COsysUser.obj
 0001:00064ed0       ??1ClientOsysUser@@QAE@XZ  00465ed0 f   COsysUser.obj
 0001:00064ef0       ?LitListeIP@ClientOsysUser@@QAEHAAVCString@@H@Z 00465ef0 f   COsysUser.obj
 0001:000650b0       ?AjoutMasqueIP@ClientOsysUser@@QAEHPADH@Z 004660b0 f   COsysUser.obj
 0001:00065220       ?SupprimeMasqueIp@ClientOsysUser@@QAEHPADH@Z 00466220 f   COsysUser.obj
 0001:00065390       ?LitDescUser@ClientOsysUser@@QAEHAAVCString@@HPADH@Z 00466390 f   COsysUser.obj
 0001:00065570       ?LitIdFenetreDefaut@ClientOsysUser@@QAEHH@Z 00466570 f   COsysUser.obj
 0001:000656f0       ?LitLangueUser@ClientOsysUser@@QAEHAAVCString@@H@Z 004666f0 f   COsysUser.obj
 0001:000658b0       ?LitDroitAdministration@ClientOsysUser@@QAEHAAVCString@@H@Z 004668b0 f   COsysUser.obj
 0001:00065a70       ?ModifierDroitAdm@ClientOsysUser@@QAEHPADH@Z 00466a70 f   COsysUser.obj
 0001:00065c20       ?EnvoiMessageDriver@ClientOsysUser@@QAEHHPADJHH@Z 00466c20 f   COsysUser.obj
 0001:00065e00       ?LitListeDrivers@ClientOsysUser@@QAEHAAVCString@@PADH@Z 00466e00 f   COsysUser.obj
 0001:00065fd0       ?LitPropDriver@ClientOsysUser@@QAEHAAVCString@@PADH@Z 00466fd0 f   COsysUser.obj
 0001:000661a0       ?LitCfgDriver@ClientOsysUser@@QAEHAAVCString@@H@Z 004671a0 f   COsysUser.obj
 0001:00066360       ?ArretDriver@ClientOsysUser@@QAEHH@Z 00467360 f   COsysUser.obj
 0001:000664c0       ?UtiliseNomMachine@ClientOsysUser@@QAEHPADHH@Z 004674c0 f   COsysUser.obj
 0001:00066640       ?ModifierUser@ClientOsysUser@@QAEHPAD0HH@Z 00467640 f   COsysUser.obj
 0001:00066690       ?LitLancDriver@ClientOsysUser@@QAEHH@Z 00467690 f   COsysUser.obj
 0001:000667f0       ?LitTimeoutFenetreDefaut@ClientOsysUser@@QAEHH@Z 004677f0 f   COsysUser.obj
 0001:00066970       ?LitTypeLancementDriver@ClientOsysUser@@QAEHH@Z 00467970 f   COsysUser.obj
 0001:00066ad0       ?FiltreLangue@CGestionLangue@@SAXPADAAVCString@@@Z 00467ad0 f   GestionLangue.obj
 0001:00066c00       ??0CListDateFormat@@QAE@XZ 00467c00 f   ListDateFormat.obj
 0001:00066c80       ??1CListDateFormat@@QAE@XZ 00467c80 f   ListDateFormat.obj
 0001:00066cc0       ?FormateDateAvecFormat@CListDateFormat@@SAXPADJAAVCString@@@Z 00467cc0 f   ListDateFormat.obj
 0001:00066de0       ?Ajoute@CListDateFormat@@QAEXPAD0@Z 00467de0 f   ListDateFormat.obj
 0001:00066f60       ?SupprimeTout@CListDateFormat@@QAEXXZ 00467f60 f   ListDateFormat.obj
 0001:00067040       ?FormateDate@CListDateFormat@@QAEXPADJAAVCString@@@Z 00468040 f   ListDateFormat.obj
 0001:00067170       ?FormateDateHeure@CListDateFormat@@QAEXPADJAAVCString@@@Z 00468170 f   ListDateFormat.obj
 0001:00067200       ?FormateDateMemoire@CListDateFormat@@SAXJAAVCString@@PAD@Z 00468200 f   ListDateFormat.obj
 0001:00067230       ?FormateDateHeureMemoire@CListDateFormat@@SAXJAAVCString@@PAD@Z 00468230 f   ListDateFormat.obj
 0001:000672f0       ?FormateHeureMemoire@CListDateFormat@@SAXJAAVCString@@PAD@Z 004682f0 f   ListDateFormat.obj
 0001:00067370       ?FormateDureeMemoire@CListDateFormat@@SAXJAAVCString@@PAD@Z 00468370 f   ListDateFormat.obj
 0001:00067410       ?EcritArchive@CListDateFormat@@QAEXAAVCOutputArchive@@@Z 00468410 f   ListDateFormat.obj
 0001:00067550       ?LitArchive@CListDateFormat@@QAEXAAVCInputArchive@@@Z 00468550 f   ListDateFormat.obj
 0001:000676d0       ?Imprime@CListDateFormat@@QAEXAAVCImprime@@@Z 004686d0 f   ListDateFormat.obj
 0001:00067810       ??0CDconnexionServeur@@QAE@PAVCWnd@@@Z 00468810 f   dconnexionserveur.obj
 0001:00067980       ??_ECDconnexionServeur@@UAEPAXI@Z 00468980 f i dconnexionserveur.obj
 0001:00067980       ??_GCDconnexionServeur@@UAEPAXI@Z 00468980 f i dconnexionserveur.obj
 0001:000679b0       ?DoDataExchange@CDconnexionServeur@@MAEXPAVCDataExchange@@@Z 004689b0 f   dconnexionserveur.obj
 0001:00067a50       ?_GetBaseMessageMap@CDconnexionServeur@@KGPBUAFX_MSGMAP@@XZ 00468a50 f   dconnexionserveur.obj
 0001:00067a70       ?GetMessageMap@CDconnexionServeur@@MBEPBUAFX_MSGMAP@@XZ 00468a70 f   dconnexionserveur.obj
 0001:00067a90       ?OnInitDialog@CDconnexionServeur@@MAEHXZ 00468a90 f   dconnexionserveur.obj
 0001:00067b20       ?OnOK@CDconnexionServeur@@MAEXXZ 00468b20 f   dconnexionserveur.obj
 0001:00067cf0       ?TesteValiditePort@CDconnexionServeur@@IAEHPBD@Z 00468cf0 f   dconnexionserveur.obj
 0001:00067e60       ?OnRadioServeurDistant@CDconnexionServeur@@IAEXXZ 00468e60 f   dconnexionserveur.obj
 0001:00067ea0       ?OnRadioServeurLocal@CDconnexionServeur@@IAEXXZ 00468ea0 f   dconnexionserveur.obj
 0001:00067ef0       ?LitNomSrv@CDconnexionServeur@@AAEXXZ 00468ef0 f   dconnexionserveur.obj
 0001:00067f30       ?LitServeur@CDconnexionServeur@@QAE?AVCString@@XZ 00468f30 f   dconnexionserveur.obj
 0001:00067f70       ?InitNomSrv@CDconnexionServeur@@AAEXXZ 00468f70 f   dconnexionserveur.obj
 0001:000680a0       ?EcritServeur@CDconnexionServeur@@QAEXPBD@Z 004690a0 f   dconnexionserveur.obj
 0001:000680f0       ?TestNomSrv@CDconnexionServeur@@AAEHPBD@Z 004690f0 f   dconnexionserveur.obj
 0001:00068220       ??0CDCoupureReseau@@QAE@PAVCWnd@@@Z 00469220 f   dcoupurereseau.obj
 0001:000682c0       ??_ECDCoupureReseau@@UAEPAXI@Z 004692c0 f i dcoupurereseau.obj
 0001:000682c0       ??_GCDCoupureReseau@@UAEPAXI@Z 004692c0 f i dcoupurereseau.obj
 0001:000682f0       ??1CDCoupureReseau@@UAE@XZ 004692f0 f i dcoupurereseau.obj
 0001:00068360       ?DoDataExchange@CDCoupureReseau@@MAEXPAVCDataExchange@@@Z 00469360 f   dcoupurereseau.obj
 0001:00068390       ?_GetBaseMessageMap@CDCoupureReseau@@KGPBUAFX_MSGMAP@@XZ 00469390 f   dcoupurereseau.obj
 0001:000683b0       ?GetMessageMap@CDCoupureReseau@@MBEPBUAFX_MSGMAP@@XZ 004693b0 f   dcoupurereseau.obj
 0001:000683d0       ?OnInitDialog@CDCoupureReseau@@MAEHXZ 004693d0 f   dcoupurereseau.obj
 0001:00068640       ?OnCancel@CDCoupureReseau@@MAEXXZ 00469640 f   dcoupurereseau.obj
 0001:00068660       ?OnReconnexionSrv@CDCoupureReseau@@IAEJIJ@Z 00469660 f   dcoupurereseau.obj
 0001:000687c0       ?OnTimer@CDCoupureReseau@@IAEXI@Z 004697c0 f   dcoupurereseau.obj
 0001:00068860       ?OnDoubleclickedCancel@CDCoupureReseau@@IAEXXZ 00469860 f   dcoupurereseau.obj
 0001:00068880       ?OnDestroy@CDCoupureReseau@@IAEXXZ 00469880 f   dcoupurereseau.obj
 0001:000688c0       ?OnCtlColor@CDCoupureReseau@@IAEPAUHBRUSH__@@PAVCDC@@PAVCWnd@@I@Z 004698c0 f   dcoupurereseau.obj
 0001:00068910       ?EcritMessage@CDCoupureReseau@@IAEXH@Z 00469910 f   dcoupurereseau.obj
 0001:00068940       ??0CDPerteConnexion@@QAE@PAVCWnd@@@Z 00469940 f   dperteconnexion.obj
 0001:00068970       ??_ECDPerteConnexion@@UAEPAXI@Z 00469970 f i dperteconnexion.obj
 0001:00068970       ??_GCDPerteConnexion@@UAEPAXI@Z 00469970 f i dperteconnexion.obj
 0001:000689a0       ??1CDPerteConnexion@@UAE@XZ 004699a0 f i dperteconnexion.obj
 0001:000689c0       ?DoDataExchange@CDPerteConnexion@@MAEXPAVCDataExchange@@@Z 004699c0 f   dperteconnexion.obj
 0001:000689e0       ?_GetBaseMessageMap@CDPerteConnexion@@KGPBUAFX_MSGMAP@@XZ 004699e0 f   dperteconnexion.obj
 0001:00068a00       ?GetMessageMap@CDPerteConnexion@@MBEPBUAFX_MSGMAP@@XZ 00469a00 f   dperteconnexion.obj
 0001:00068a20       ?OnInitDialog@CDPerteConnexion@@MAEHXZ 00469a20 f   dperteconnexion.obj
 0001:00068a60       ?OnTimer@CDPerteConnexion@@IAEXI@Z 00469a60 f   dperteconnexion.obj
 0001:00068aa0       ?CrypteChaine@CCrypteOsys@@SAXPADAAVCString@@0@Z 00469aa0 f   CryptOsys.obj
 0001:00068b40       ?CrypteChaine@CCrypteOsys@@SAXPBDAAVCString@@@Z 00469b40 f   CryptOsys.obj
 0001:00068b70       ?DecrypteChaine@CCrypteOsys@@SAHPADAAVCString@@0@Z 00469b70 f   CryptOsys.obj
 0001:00068c30       ??0CResultatFenetre@@QAE@XZ 00469c30 f   ResultatFenetre.obj
 0001:00068c70       ??_ECResultatFenetre@@UAEPAXI@Z 00469c70 f i ResultatFenetre.obj
 0001:00068c70       ??_GCResultatFenetre@@UAEPAXI@Z 00469c70 f i ResultatFenetre.obj
 0001:00068ca0       ??1CResultatFenetre@@UAE@XZ 00469ca0 f   ResultatFenetre.obj
 0001:00068cc0       ?LitArchive@CResultatFenetre@@QAEHAAVCInputArchive@@@Z 00469cc0 f   ResultatFenetre.obj
 0001:00068ef0       ?EcritArchive@CResultatFenetre@@QAEHAAVCOutputArchive@@@Z 00469ef0 f   ResultatFenetre.obj
 0001:00069030       ??4CResultatFenetre@@QAEAAV0@AAV0@@Z 0046a030 f   ResultatFenetre.obj
 0001:00069080       ??0CFileSPV@@QAE@PBD@Z     0046a080 f   FileSPV.obj
 0001:00069150       ??_GCFileSPV@@UAEPAXI@Z    0046a150 f i FileSPV.obj
 0001:00069150       ??_ECFileSPV@@UAEPAXI@Z    0046a150 f i FileSPV.obj
 0001:00069180       ??1CFileSPV@@UAE@XZ        0046a180 f   FileSPV.obj
 0001:000691a0       ?GenereFichierSPV@CFileSPV@@QAEEPAVCParamSPC@@@Z 0046a1a0 f   FileSPV.obj
 0001:00069420       ??0GestConfigSPC@@QAE@PBD@Z 0046a420 f   GestConfigSPC.obj
 0001:000694c0       ??_GGestConfigSPC@@UAEPAXI@Z 0046a4c0 f i GestConfigSPC.obj
 0001:000694c0       ??_EGestConfigSPC@@UAEPAXI@Z 0046a4c0 f i GestConfigSPC.obj
 0001:000694f0       ??1GestConfigSPC@@UAE@XZ   0046a4f0 f   GestConfigSPC.obj
 0001:00069570       ?InitConfigSPC@GestConfigSPC@@QAEHXZ 0046a570 f   GestConfigSPC.obj
 0001:00069880       ??0CGestSPC@@QAE@PAVCParamSPC@@@Z 0046a880 f   GestSPC.obj
 0001:000698b0       ??_GCGestSPC@@UAEPAXI@Z    0046a8b0 f i GestSPC.obj
 0001:000698b0       ??_ECGestSPC@@UAEPAXI@Z    0046a8b0 f i GestSPC.obj
 0001:000698e0       ??1CGestSPC@@UAE@XZ        0046a8e0 f   GestSPC.obj
 0001:00069900       ?TraiteActionSPC@CGestSPC@@QAEXXZ 0046a900 f   GestSPC.obj
 0001:00069c10       ?EnvoiMessageASPC@CGestSPC@@QAEPAUHWND__@@IIJHH@Z 0046ac10 f   GestSPC.obj
 0001:00069df0       ?EnvoiEtatMesureAQuartisViaLpx@CGestSPC@@QAEHH@Z 0046adf0 f   GestSPC.obj
 0001:00069f30       ??0CParamSPC@@QAE@XZ       0046af30 f   ParamSPC.obj
 0001:0006a040       ??_ECParamSPC@@UAEPAXI@Z   0046b040 f i ParamSPC.obj
 0001:0006a040       ??_GCParamSPC@@UAEPAXI@Z   0046b040 f i ParamSPC.obj
 0001:0006a070       ??1CParamSPC@@UAE@XZ       0046b070 f   ParamSPC.obj
 0001:0006a150       ?LitArchive@CParamSPC@@QAEHAAVCInputArchive@@@Z 0046b150 f   ParamSPC.obj
 0001:0006a540       ?EcritArchive@CParamSPC@@QAEHAAVCOutputArchive@@@Z 0046b540 f   ParamSPC.obj
 0001:0006a860       ??4CParamSPC@@QAEAAV0@AAV0@@Z 0046b860 f   ParamSPC.obj
 0001:0006a970       ??0CGestTrace@@QAE@XZ      0046b970 f   GestTrace.obj
 0001:0006aa00       ??_ECGestTrace@@UAEPAXI@Z  0046ba00 f i GestTrace.obj
 0001:0006aa00       ??_GCGestTrace@@UAEPAXI@Z  0046ba00 f i GestTrace.obj
 0001:0006aa30       ??1CGestTrace@@UAE@XZ      0046ba30 f   GestTrace.obj
 0001:0006aac0       ?InitPathFileTrace@CGestTrace@@QAEXXZ 0046bac0 f   GestTrace.obj
 0001:0006ac50       ?RazMap@CGestTrace@@QAEXXZ 0046bc50 f   GestTrace.obj
 0001:0006ad30       ?IncrementeCompteurs@CGestTrace@@QAEHVCString@@@Z 0046bd30 f   GestTrace.obj
 0001:0006ae50       ?RazCompteurTop@CGestTrace@@QAEHVCString@@@Z 0046be50 f   GestTrace.obj
 0001:0006aee0       ?RazAllCompteurTop@CGestTrace@@QAEXXZ 0046bee0 f   GestTrace.obj
 0001:0006afa0       ?ActiveGestionTrace@CGestTrace@@QAEXVCString@@@Z 0046bfa0 f   GestTrace.obj
 0001:0006b1d0       ?DesactiveGestionTrace@CGestTrace@@QAEXVCString@@@Z 0046c1d0 f   GestTrace.obj
 0001:0006b360       ?EcritFichierTrace@CGestTrace@@QAEXVCString@@@Z 0046c360 f   GestTrace.obj
 0001:0006b610       ?EcritInfoTrace@CGestTrace@@QAEXAAVCFile@@PAVCInfoTrace@@@Z 0046c610 f   GestTrace.obj
 0001:0006b6d0       ?_GetBaseMessageMap@CClientSxaoApp@@KGPBUAFX_MSGMAP@@XZ 0046c6d0 f   ClientSxao.obj
 0001:0006b6f0       ?GetMessageMap@CClientSxaoApp@@MBEPBUAFX_MSGMAP@@XZ 0046c6f0 f   ClientSxao.obj
 0001:0006b710       ??0CClientSxaoApp@@QAE@XZ  0046c710 f   ClientSxao.obj
 0001:0006b830       ??_GCClientSxaoApp@@UAEPAXI@Z 0046c830 f i ClientSxao.obj
 0001:0006b830       ??_ECClientSxaoApp@@UAEPAXI@Z 0046c830 f i ClientSxao.obj
 0001:0006b860       ??1CClientSxaoApp@@UAE@XZ  0046c860 f i ClientSxao.obj
 0001:0006b9b0       ?InitInstance@CClientSxaoApp@@UAEHXZ 0046c9b0 f   ClientSxao.obj
 0001:0006bde0       ??1CClientSxaoDlg@@UAE@XZ  0046cde0 f i ClientSxao.obj
 0001:0006be00       ?WinHelpA@CClientSxaoApp@@UAEXKI@Z 0046ce00 f   ClientSxao.obj
 0001:0006be20       ?ArretGestOsys@CClientSxaoApp@@QAEXXZ 0046ce20 f   ClientSxao.obj
 0001:0006be70       ?ReConnectSrv@CClientSxaoApp@@QAEHXZ 0046ce70 f   ClientSxao.obj
 0001:0006bea0       ?ReConnectGestOsys@CClientSxaoApp@@QAEHPAUHWND__@@@Z 0046cea0 f   ClientSxao.obj
 0001:0006bef0       ?ExitInstance@CClientSxaoApp@@UAEHXZ 0046cef0 f   ClientSxao.obj
 0001:0006bf20       ?InitLoginGestOsys@CClientSxaoApp@@QAEXH@Z 0046cf20 f   ClientSxao.obj
 0001:0006c080       ?AfficheFenDefaut@CClientSxaoApp@@QAEXXZ 0046d080 f   ClientSxao.obj
 0001:0006c200       ?InitInfoWeb@CClientSxaoApp@@QAEXXZ 0046d200 f   ClientSxao.obj
 0001:0006c550       ?LitArchiveConfSrvHTTP@CClientSxaoApp@@QAEHAAVCInputArchive@@AAVCString@@@Z 0046d550 f   ClientSxao.obj
 0001:0006c8b0       ?InitRepertoireSpc@CClientSxaoApp@@QAEHXZ 0046d8b0 f   ClientSxao.obj
 0001:0006cc00       ?LitPathExeSPC@GestConfigSPC@@QAE?AVCString@@XZ 0046dc00 f i ClientSxao.obj
 0001:0006cc30       ?LitRepFileSPV@GestConfigSPC@@QAE?AVCString@@XZ 0046dc30 f i ClientSxao.obj
 0001:0006cc60       ?RelacheMemoryApp@CClientSxaoApp@@QAEXXZ 0046dc60 f   ClientSxao.obj
 0001:0006cc90       ??0CClientSxaoDlg@@QAE@PAVCWnd@@@Z 0046dc90 f   ClientSxaoDlg.obj
 0001:0006cd30       ??_ECClientSxaoDlg@@UAEPAXI@Z 0046dd30 f i ClientSxaoDlg.obj
 0001:0006cd30       ??_GCClientSxaoDlg@@UAEPAXI@Z 0046dd30 f i ClientSxaoDlg.obj
 0001:0006cd60       ?DoDataExchange@CClientSxaoDlg@@MAEXPAVCDataExchange@@@Z 0046dd60 f   ClientSxaoDlg.obj
 0001:0006cd80       ?_GetBaseMessageMap@CClientSxaoDlg@@KGPBUAFX_MSGMAP@@XZ 0046dd80 f   ClientSxaoDlg.obj
 0001:0006cda0       ?GetMessageMap@CClientSxaoDlg@@MBEPBUAFX_MSGMAP@@XZ 0046dda0 f   ClientSxaoDlg.obj
 0001:0006cdc0       ?OnInitDialog@CClientSxaoDlg@@MAEHXZ 0046ddc0 f   ClientSxaoDlg.obj
 0001:0006ce60       ?OnPaint@CClientSxaoDlg@@IAEXXZ 0046de60 f   ClientSxaoDlg.obj
 0001:0006cf50       ?OnQueryDragIcon@CClientSxaoDlg@@IAEPAUHICON__@@XZ 0046df50 f   ClientSxaoDlg.obj
 0001:0006cf70       ?OnDestroy@CClientSxaoDlg@@IAEXXZ 0046df70 f   ClientSxaoDlg.obj
 0001:0006cff0       ?OnDeconnexionServeur@CClientSxaoDlg@@IAEJIJ@Z 0046dff0 f   ClientSxaoDlg.obj
 0001:0006d150       ?MessageTaskBar@CClientSxaoDlg@@IAEJIJ@Z 0046e150 f   ClientSxaoDlg.obj
 0001:0006d1d0       ?OnAjoutFenetre@CClientSxaoDlg@@IAEJIJ@Z 0046e1d0 f   ClientSxaoDlg.obj
 0001:0006d200       ?FenetreDlgCoupureReseau@CClientSxaoDlg@@IAEXH@Z 0046e200 f   ClientSxaoDlg.obj
 0001:0006d390       ?OnOpenFenIdent@CClientSxaoDlg@@IAEJIJ@Z 0046e390 f   ClientSxaoDlg.obj
 0001:0006d460       ?OnActivate@CClientSxaoDlg@@IAEXIPAVCWnd@@H@Z 0046e460 f   ClientSxaoDlg.obj
 0001:0006d4f0       ?OnSysCommand@CClientSxaoDlg@@IAEXIJ@Z 0046e4f0 f   ClientSxaoDlg.obj
 0001:0006d560       ?OnTimer@CClientSxaoDlg@@IAEXI@Z 0046e560 f   ClientSxaoDlg.obj
 0001:0006d670       ?OnStartTimer@CClientSxaoDlg@@IAEJIJ@Z 0046e670 f   ClientSxaoDlg.obj
 0001:0006d6c0       ?OnStopTimer@CClientSxaoDlg@@IAEJIJ@Z 0046e6c0 f   ClientSxaoDlg.obj
 0001:0006d6f0       ?OnMessageSPCQuartis@CClientSxaoDlg@@IAEJIJ@Z 0046e6f0 f   ClientSxaoDlg.obj
 0001:0006d780       ?WindowProc@CClientSxaoDlg@@MAEJIIJ@Z 0046e780 f   ClientSxaoDlg.obj
 0001:0006d800       ?OnMessageSPCMesureState@CClientSxaoDlg@@IAEJIJ@Z 0046e800 f   ClientSxaoDlg.obj
 0001:0006d8a0       ?OnStartTimerTimeout@CClientSxaoDlg@@IAEJIJ@Z 0046e8a0 f   ClientSxaoDlg.obj
 0001:0006d8d0       ?OnStopTimerTimeout@CClientSxaoDlg@@IAEJIJ@Z 0046e8d0 f   ClientSxaoDlg.obj
 0001:0006d900       ?OnStartSurveil@CClientSxaoDlg@@IAEJIJ@Z 0046e900 f   ClientSxaoDlg.obj
 0001:0006d920       ?FonctionDeLancementDUnThread@@YAHPAX@Z 0046e920 f   ClientSxaoDlg.obj
 0001:0006d940       ?InitThreadSurveil@CClientSxaoDlg@@QAEXXZ 0046e940 f   ClientSxaoDlg.obj
 0001:0006d990       ?Boucle@CClientSxaoDlg@@QAEHXZ 0046e990 f   ClientSxaoDlg.obj
 0001:0006da70       ??0CCommandLineSxao@@QAE@XZ 0046ea70 f   CommandLineSxao.obj
 0001:0006db30       ??_GCCommandLineSxao@@UAEPAXI@Z 0046eb30 f i CommandLineSxao.obj
 0001:0006db30       ??_ECCommandLineSxao@@UAEPAXI@Z 0046eb30 f i CommandLineSxao.obj
 0001:0006db60       ??1CCommandLineSxao@@UAE@XZ 0046eb60 f   CommandLineSxao.obj
 0001:0006dc20       ?ParseParam@CCommandLineSxao@@UAEXPBDHH@Z 0046ec20 f   CommandLineSxao.obj
 0001:0006ded0       ?TesteChaineNumerique@CCommandLineSxao@@IAEHPBD@Z 0046eed0 f   CommandLineSxao.obj
 0001:0006df60       ??0CConfiguration@@QAE@XZ  0046ef60 f   Configuration.obj
 0001:0006e0a0       ??_GCConfiguration@@UAEPAXI@Z 0046f0a0 f i Configuration.obj
 0001:0006e0a0       ??_ECConfiguration@@UAEPAXI@Z 0046f0a0 f i Configuration.obj
 0001:0006e0d0       ??1CConfiguration@@UAE@XZ  0046f0d0 f   Configuration.obj
 0001:0006e1b0       ?LitArchiveOSYSSRV@CConfiguration@@QAEXAAVCInputArchive@@@Z 0046f1b0 f   Configuration.obj
 0001:0006e5e0       ?EcritArchive@CConfiguration@@QAEXAAVCOutputArchive@@@Z 0046f5e0 f   Configuration.obj
 0001:0006e7a0       ?TestServeurLocal@CConfiguration@@QAEHXZ 0046f7a0 f   Configuration.obj
 0001:0006e860       ?EcritTypeSystemeSrv@CConfiguration@@QAEXH@Z 0046f860 f   Configuration.obj
 0001:0006e890       ?LitTypeSystemeSrv@CConfiguration@@QAEHXZ 0046f890 f   Configuration.obj
 0001:0006e8b0       ??0CModifMem@@QAE@HHPAVCMemoireRecu@@@Z 0046f8b0 f   ModifMem.obj
 0001:0006e8e0       ??_GCModifMem@@UAEPAXI@Z   0046f8e0 f i ModifMem.obj
 0001:0006e8e0       ??_ECModifMem@@UAEPAXI@Z   0046f8e0 f i ModifMem.obj
 0001:0006e910       ??1CModifMem@@UAE@XZ       0046f910 f   ModifMem.obj
 0001:0006e930       ?CreateObject@COsysFrame@@SGPAVCObject@@XZ 0046f930 f   osysframe.obj
 0001:0006e9b0       ?_GetBaseClass@COsysFrame@@KGPAUCRuntimeClass@@XZ 0046f9b0 f   osysframe.obj
 0001:0006e9d0       ?GetRuntimeClass@COsysFrame@@UBEPAUCRuntimeClass@@XZ 0046f9d0 f   osysframe.obj
 0001:0006e9f0       ??0COsysFrame@@QAE@PAVCGestOsys@@@Z 0046f9f0 f   osysframe.obj
 0001:0006ec50       ??_ECOsysFrame@@UAEPAXI@Z  0046fc50 f i osysframe.obj
 0001:0006ec50       ??_GCOsysFrame@@UAEPAXI@Z  0046fc50 f i osysframe.obj
 0001:0006ec80       ??0COsysFrame@@QAE@XZ      0046fc80 f   osysframe.obj
 0001:0006edc0       ??1COsysFrame@@UAE@XZ      0046fdc0 f   osysframe.obj
 0001:0006ef20       ?DoDataExchange@COsysFrame@@MAEXPAVCDataExchange@@@Z 0046ff20 f   osysframe.obj
 0001:0006ef40       ?_GetBaseMessageMap@COsysFrame@@KGPBUAFX_MSGMAP@@XZ 0046ff40 f   osysframe.obj
 0001:0006ef60       ?GetMessageMap@COsysFrame@@MBEPBUAFX_MSGMAP@@XZ 0046ff60 f   osysframe.obj
 0001:0006ef80       ?InitFenetre@COsysFrame@@QAEXVCString@@PAVCWnd@@@Z 0046ff80 f   osysframe.obj
 0001:0006f7f0       ?AjouteObjetFils@COsysFrame@@QAEXPAVCOsysObjet@@@Z 004707f0 f   osysframe.obj
 0001:0006f820       ?SupprimeObjetFils@COsysFrame@@QAEXPAVCOsysObjet@@@Z 00470820 f   osysframe.obj
 0001:0006f850       ?SupprimeToutObjetFils@COsysFrame@@QAEXXZ 00470850 f   osysframe.obj
 0001:0006f870       ?AjouteIDObjet@COsysFrame@@QAEXPAVCOsysObjet@@H@Z 00470870 f   osysframe.obj
 0001:0006f8a0       ?AjouteIDObjet@COsysFrame@@QAEHPAVCOsysObjet@@@Z 004708a0 f   osysframe.obj
 0001:0006f8d0       ?SupprimeIDObjet@COsysFrame@@QAEXPAVCOsysObjet@@@Z 004708d0 f   osysframe.obj
 0001:0006f900       ?SupprimeIDObjet@COsysFrame@@QAEXH@Z 00470900 f   osysframe.obj
 0001:0006f930       ?OnPaint@COsysFrame@@MAEXXZ 00470930 f   osysframe.obj
 0001:0006fd10       ?OnEraseBkgnd@COsysFrame@@IAEHPAVCDC@@@Z 00470d10 f   osysframe.obj
 0001:0006fd30       ?OnDraw@COsysFrame@@UAEXPAVCDC@@@Z 00470d30 f   osysframe.obj
 0001:0006fff0       ?LitArchive@COsysFrame@@QAEXAAVCInputArchive@@@Z 00470ff0 f   osysframe.obj
 0001:000701b0       ?LitArchiveEx@COsysFrame@@QAEXAAVCInputArchive@@@Z 004711b0 f   osysframe.obj
 0001:00070370       ?LitArchiveFrame@COsysFrame@@QAEXAAVCInputArchive@@@Z 00471370 f   osysframe.obj
 0001:000708a0       ?LitArchiveFrameEx@COsysFrame@@QAEXAAVCInputArchive@@@Z 004718a0 f   osysframe.obj
 0001:00070d30       ?EcritArchive@COsysFrame@@QAEXAAVCOutputArchive@@@Z 00471d30 f   osysframe.obj
 0001:00071000       ?NouvelObjetOsys@COsysFrame@@QAEPAVCOsysObjet@@AAVCString@@PAV2@H@Z 00472000 f   osysframe.obj
 0001:00071640       ?OnChangeZoom@COsysFrame@@QAEXXZ 00472640 f   osysframe.obj
 0001:00071680       ?OnChangeUnite@COsysFrame@@QAEXXZ 00472680 f   osysframe.obj
 0001:000716c0       ?AjusteRectPhysique@COsysFrame@@QAEXAAVCRect@@@Z 004726c0 f   osysframe.obj
 0001:00071de0       ?AjusteRectOsys@COsysFrame@@QAEXAAVCRect@@@Z 00472de0 f   osysframe.obj
 0001:00072440       ?OnModifValMem@COsysFrame@@IAEJIJ@Z 00473440 f   osysframe.obj
 0001:000727b0       ?OnActionObjet@COsysFrame@@IAEJIJ@Z 004737b0 f   osysframe.obj
 0001:00072bc0       ?OnSize@COsysFrame@@IAEXIHH@Z 00473bc0 f   osysframe.obj
 0001:00072f10       ?OnHScroll@COsysFrame@@IAEXIIPAVCScrollBar@@@Z 00473f10 f   osysframe.obj
 0001:00073040       ?OnVScroll@COsysFrame@@IAEXIIPAVCScrollBar@@@Z 00474040 f   osysframe.obj
 0001:00073160       ??0CAboutDlg@@QAE@PAVCWnd@@@Z 00474160 f   osysframe.obj
 0001:000731f0       ??_GCAboutDlg@@UAEPAXI@Z   004741f0 f i osysframe.obj
 0001:000731f0       ??_ECAboutDlg@@UAEPAXI@Z   004741f0 f i osysframe.obj
 0001:00073220       ??1CAboutDlg@@UAE@XZ       00474220 f i osysframe.obj
 0001:00073290       ?DoDataExchange@CAboutDlg@@MAEXPAVCDataExchange@@@Z 00474290 f   osysframe.obj
 0001:000732c0       ?_GetBaseMessageMap@CAboutDlg@@KGPBUAFX_MSGMAP@@XZ 004742c0 f   osysframe.obj
 0001:000732e0       ?GetMessageMap@CAboutDlg@@MBEPBUAFX_MSGMAP@@XZ 004742e0 f   osysframe.obj
 0001:00073300       ?OnSysCommand@COsysFrame@@IAEXIJ@Z 00474300 f   osysframe.obj
 0001:000733d0       ?OnAjoutFenetre@COsysFrame@@IAEJIJ@Z 004743d0 f   osysframe.obj
 0001:00073450       ?OnClose@COsysFrame@@IAEXXZ 00474450 f   osysframe.obj
 0001:00073620       ?OnChar@COsysFrame@@IAEXIII@Z 00474620 f   osysframe.obj
 0001:00073700       ?OnSetFocus@COsysFrame@@IAEXPAVCWnd@@@Z 00474700 f   osysframe.obj
 0001:000737e0       ?OnKeyDown@COsysFrame@@IAEXIII@Z 004747e0 f   osysframe.obj
 0001:00073800       ?FocusObjet@COsysFrame@@QAEHVCString@@@Z 00474800 f   osysframe.obj
 0001:00073a80       ?OnTimer@COsysFrame@@IAEXI@Z 00474a80 f   osysframe.obj
 0001:00073b50       ?OnNotify@COsysFrame@@MAEHIJPAJ@Z 00474b50 f   osysframe.obj
 0001:00073bd0       ?InitObjetFocusMemoire@COsysFrame@@QAEHXZ 00474bd0 f   osysframe.obj
 0001:00073db0       ?OnCommand@COsysFrame@@MAEHIJ@Z 00474db0 f   osysframe.obj
 0001:00073de0       ??_9@$BBAA@AE              00474de0 f i osysframe.obj
 0001:00073df0       ??0CSystray@@QAE@XZ        00474df0 f   Systray.obj
 0001:00073e10       ?MyTaskBarAddIcon@CSystray@@QAEHPAUHWND__@@IPAUHICON__@@PAD@Z 00474e10 f   Systray.obj
 0001:00073eb0       ?MyTaskBarModifyIcon@CSystray@@QAEHPAUHWND__@@IPAUHICON__@@PAD@Z 00474eb0 f   Systray.obj
 0001:00073f50       ?MyTaskBarDeleteIcon@CSystray@@QAEHPAUHWND__@@I@Z 00474f50 f   Systray.obj
 0001:00073f8c       ??2@YAPAXI@Z               00474f8c f   mfc42:MFC42.DLL
 0001:00073f92       ?AttachControlSite@CWnd@@QAEXPAV1@@Z 00474f92 f   mfc42:MFC42.DLL
 0001:00073f98       ?AfxThrowNotSupportedException@@YGXXZ 00474f98 f   mfc42:MFC42.DLL
 0001:00073f9e       ?PrepareCtrl@CDataExchange@@QAEPAUHWND__@@H@Z 00474f9e f   mfc42:MFC42.DLL
 0001:00073fa4       ?Serialize@CObArray@@UAEXAAVCArchive@@@Z 00474fa4 f   mfc42:MFC42.DLL
 0001:00073faa       ?GetRuntimeClass@CObArray@@UBEPAUCRuntimeClass@@XZ 00474faa f   mfc42:MFC42.DLL
 0001:00073fb0       ?GetRuntimeClass@CObject@@UBEPAUCRuntimeClass@@XZ 00474fb0 f   mfc42:MFC42.DLL
 0001:00073fb6       ?SetOccDialogInfo@CWnd@@MAEHPAU_AFX_OCC_DIALOG_INFO@@@Z 00474fb6 f   mfc42:MFC42.DLL
 0001:00073fbc       ?IsFrameWnd@CWnd@@UBEHXZ   00474fbc f   mfc42:MFC42.DLL
 0001:00073fc2       ?CheckAutoCenter@CWnd@@UAEHXZ 00474fc2 f   mfc42:MFC42.DLL
 0001:00073fc8       ?OnChildNotify@CWnd@@MAEHIIJPAJ@Z 00474fc8 f   mfc42:MFC42.DLL
 0001:00073fce       ?PostNcDestroy@CWnd@@MAEXXZ 00474fce f   mfc42:MFC42.DLL
 0001:00073fd4       ?DefWindowProcA@CWnd@@MAEJIIJ@Z 00474fd4 f   mfc42:MFC42.DLL
 0001:00073fda       ?OnWndMsg@CWnd@@MAEHIIJPAJ@Z 00474fda f   mfc42:MFC42.DLL
 0001:00073fe0       ?WindowProc@CWnd@@MAEJIIJ@Z 00474fe0 f   mfc42:MFC42.DLL
 0001:00073fe6       ?OnAmbientProperty@CWnd@@UAEHPAVCOleControlSite@@JPAUtagVARIANT@@@Z 00474fe6 f   mfc42:MFC42.DLL
 0001:00073fec       ?PreTranslateMessage@CWnd@@UAEHPAUtagMSG@@@Z 00474fec f   mfc42:MFC42.DLL
 0001:00073ff2       ?GetSuperWndProcAddr@CWnd@@MAEPAP6GJPAUHWND__@@IIJ@ZXZ 00474ff2 f   mfc42:MFC42.DLL
 0001:00073ff8       ?OnNotify@CWnd@@MAEHIJPAJ@Z 00474ff8 f   mfc42:MFC42.DLL
 0001:00073ffe       ?OnCommand@CWnd@@MAEHIJ@Z  00474ffe f   mfc42:MFC42.DLL
 0001:00074004       ?EndModalLoop@CWnd@@UAEXH@Z 00475004 f   mfc42:MFC42.DLL
 0001:0007400a       ?ContinueModal@CWnd@@UAEHXZ 0047500a f   mfc42:MFC42.DLL
 0001:00074010       ?WinHelpA@CWnd@@UAEXKI@Z   00475010 f   mfc42:MFC42.DLL
 0001:00074016       ?GetScrollBarCtrl@CWnd@@UBEPAVCScrollBar@@H@Z 00475016 f   mfc42:MFC42.DLL
 0001:0007401c       ?OnToolHitTest@CWnd@@UBEHVCPoint@@PAUtagTOOLINFOA@@@Z 0047501c f   mfc42:MFC42.DLL
 0001:00074022       ?CalcWindowRect@CWnd@@UAEXPAUtagRECT@@I@Z 00475022 f   mfc42:MFC42.DLL
 0001:00074028       ?PreCreateWindow@CWnd@@UAEHAAUtagCREATESTRUCTA@@@Z 00475028 f   mfc42:MFC42.DLL
 0001:0007402e       ?DestroyWindow@CWnd@@UAEHXZ 0047502e f   mfc42:MFC42.DLL
 0001:00074034       ?Create@CWnd@@UAEHPBD0KABUtagRECT@@PAV1@IPAUCCreateContext@@@Z 00475034 f   mfc42:MFC42.DLL
 0001:0007403a       ?GetConnectionHook@CCmdTarget@@MAEPAUIConnectionPoint@@ABU_GUID@@@Z 0047503a f   mfc42:MFC42.DLL
 0001:00074040       ?GetExtraConnectionPoints@CCmdTarget@@MAEHPAVCPtrArray@@@Z 00475040 f   mfc42:MFC42.DLL
 0001:00074046       ?GetInterfaceHook@CCmdTarget@@UAEPAUIUnknown@@PBX@Z 00475046 f   mfc42:MFC42.DLL
 0001:0007404c       ?OnCreateAggregates@CCmdTarget@@UAEHXZ 0047504c f   mfc42:MFC42.DLL
 0001:00074052       ?GetEventSinkMap@CCmdTarget@@MBEPBUAFX_EVENTSINKMAP@@XZ 00475052 f   mfc42:MFC42.DLL
 0001:00074058       ?GetInterfaceMap@CCmdTarget@@MBEPBUAFX_INTERFACEMAP@@XZ 00475058 f   mfc42:MFC42.DLL
 0001:0007405e       ?GetConnectionMap@CCmdTarget@@MBEPBUAFX_CONNECTIONMAP@@XZ 0047505e f   mfc42:MFC42.DLL
 0001:00074064       ?GetDispatchMap@CCmdTarget@@MBEPBUAFX_DISPMAP@@XZ 00475064 f   mfc42:MFC42.DLL
 0001:0007406a       ?GetCommandMap@CCmdTarget@@MBEPBUAFX_OLECMDMAP@@XZ 0047506a f   mfc42:MFC42.DLL
 0001:00074070       ?GetTypeLib@CCmdTarget@@UAEJKPAPAUITypeLib@@@Z 00475070 f   mfc42:MFC42.DLL
 0001:00074076       ?GetTypeLibCache@CCmdTarget@@UAEPAVCTypeLibCache@@XZ 00475076 f   mfc42:MFC42.DLL
 0001:0007407c       ?GetTypeInfoCount@CCmdTarget@@UAEIXZ 0047507c f   mfc42:MFC42.DLL
 0001:00074082       ?GetDispatchIID@CCmdTarget@@UAEHPAU_GUID@@@Z 00475082 f   mfc42:MFC42.DLL
 0001:00074088       ?IsInvokeAllowed@CCmdTarget@@UAEHJ@Z 00475088 f   mfc42:MFC42.DLL
 0001:0007408e       ?OnFinalRelease@CWnd@@UAEXXZ 0047508e f   mfc42:MFC42.DLL
 0001:00074094       ?OnCmdMsg@CCmdTarget@@UAEHIHPAXPAUAFX_CMDHANDLERINFO@@@Z 00475094 f   mfc42:MFC42.DLL
 0001:0007409a       ?GetRuntimeClass@CFont@@UBEPAUCRuntimeClass@@XZ 0047509a f   mfc42:MFC42.DLL
 0001:000740a0       ??1CUIntArray@@UAE@XZ      004750a0 f   mfc42:MFC42.DLL
 0001:000740a6       ??1CWnd@@UAE@XZ            004750a6 f   mfc42:MFC42.DLL
 0001:000740ac       ?FreeDataChain@CPlex@@QAEXXZ 004750ac f   mfc42:MFC42.DLL
 0001:000740b2       ??3@YAXPAX@Z               004750b2 f   mfc42:MFC42.DLL
 0001:000740b8       ?AfxMessageBox@@YGHPBDII@Z 004750b8 f   mfc42:MFC42.DLL
 0001:000740be       ?AfxGetThreadState@@YGPAV_AFX_THREAD_STATE@@XZ 004750be f   mfc42:MFC42.DLL
 0001:000740c4       ??0CObArray@@QAE@XZ        004750c4 f   mfc42:MFC42.DLL
 0001:000740ca       ??0CUIntArray@@QAE@XZ      004750ca f   mfc42:MFC42.DLL
 0001:000740d0       ??0CWnd@@QAE@XZ            004750d0 f   mfc42:MFC42.DLL
 0001:000740d6       ??1CObArray@@UAE@XZ        004750d6 f   mfc42:MFC42.DLL
 0001:000740dc       ?GetRuntimeClass@CGdiObject@@UBEPAUCRuntimeClass@@XZ 004750dc f   mfc42:MFC42.DLL
 0001:000740e2       ?DeleteObject@CGdiObject@@QAEHXZ 004750e2 f   mfc42:MFC42.DLL
 0001:000740e8       ?AfxThrowResourceException@@YGXXZ 004750e8 f   mfc42:MFC42.DLL
 0001:000740ee       ?AfxRegisterClass@@YGHPAUtagWNDCLASSA@@@Z 004750ee f   mfc42:MFC42.DLL
 0001:000740f4       ?AfxGetModuleState@@YGPAVAFX_MODULE_STATE@@XZ 004750f4 f   mfc42:MFC42.DLL
 0001:000740fa       ?Delete@CException@@QAEXXZ 004750fa f   mfc42:MFC42.DLL
 0001:00074100       ?SetSize@CUIntArray@@QAEXHH@Z 00475100 f   mfc42:MFC42.DLL
 0001:00074106       ?PreSubclassWindow@CWnd@@UAEXXZ 00475106 f   mfc42:MFC42.DLL
 0001:0007410c       ?SubclassWindow@CWnd@@QAEHPAUHWND__@@@Z 0047510c f   mfc42:MFC42.DLL
 0001:00074112       ?FromHandle@CWnd@@SGPAV1@PAUHWND__@@@Z 00475112 f   mfc42:MFC42.DLL
 0001:00074118       ?GetDlgCtrlID@CWnd@@QBEHXZ 00475118 f   mfc42:MFC42.DLL
 0001:0007411e       ?GetClipBox@CDC@@UBEHPAUtagRECT@@@Z 0047511e f   mfc42:MFC42.DLL
 0001:00074124       ?ScaleWindowExt@CDC@@UAE?AVCSize@@HHHH@Z 00475124 f   mfc42:MFC42.DLL
 0001:0007412a       ?SetWindowExt@CDC@@UAE?AVCSize@@HH@Z 0047512a f   mfc42:MFC42.DLL
 0001:00074130       ?ScaleViewportExt@CDC@@UAE?AVCSize@@HHHH@Z 00475130 f   mfc42:MFC42.DLL
 0001:00074136       ?SetViewportExt@CDC@@UAE?AVCSize@@HH@Z 00475136 f   mfc42:MFC42.DLL
 0001:0007413c       ?OffsetViewportOrg@CDC@@UAE?AVCPoint@@HH@Z 0047513c f   mfc42:MFC42.DLL
 0001:00074142       ?SetViewportOrg@CDC@@UAE?AVCPoint@@HH@Z 00475142 f   mfc42:MFC42.DLL
 0001:00074148       ?SetMapMode@CDC@@UAEHH@Z   00475148 f   mfc42:MFC42.DLL
 0001:0007414e       ?SetTextColor@CDC@@UAEKK@Z 0047514e f   mfc42:MFC42.DLL
 0001:00074154       ?SetBkColor@CDC@@UAEKK@Z   00475154 f   mfc42:MFC42.DLL
 0001:0007415a       ?SelectObject@CDC@@UAEPAVCFont@@PAV2@@Z 0047515a f   mfc42:MFC42.DLL
 0001:00074160       ?SelectStockObject@CDC@@UAEPAVCGdiObject@@H@Z 00475160 f   mfc42:MFC42.DLL
 0001:00074166       ?RestoreDC@CDC@@UAEHH@Z    00475166 f   mfc42:MFC42.DLL
 0001:0007416c       ?SaveDC@CDC@@UAEHXZ        0047516c f   mfc42:MFC42.DLL
 0001:00074172       ?ReleaseOutputDC@CDC@@UAEXXZ 00475172 f   mfc42:MFC42.DLL
 0001:00074178       ?ReleaseAttribDC@CDC@@UAEXXZ 00475178 f   mfc42:MFC42.DLL
 0001:0007417e       ?SetOutputDC@CDC@@UAEXPAUHDC__@@@Z 0047517e f   mfc42:MFC42.DLL
 0001:00074184       ?SetAttribDC@CDC@@UAEXPAUHDC__@@@Z 00475184 f   mfc42:MFC42.DLL
 0001:0007418a       ?GetRuntimeClass@CDC@@UBEPAUCRuntimeClass@@XZ 0047518a f   mfc42:MFC42.DLL
 0001:00074190       ?GetRuntimeClass@CBitmap@@UBEPAUCRuntimeClass@@XZ 00475190 f   mfc42:MFC42.DLL
 0001:00074196       ??1CPaintDC@@UAE@XZ        00475196 f   mfc42:MFC42.DLL
 0001:0007419c       ??1CDC@@UAE@XZ             0047519c f   mfc42:MFC42.DLL
 0001:000741a2       ?SetWindowOrg@CDC@@QAE?AVCPoint@@HH@Z 004751a2 f   mfc42:MFC42.DLL
 0001:000741a8       ?SelectGdiObject@CDC@@KGPAVCGdiObject@@PAUHDC__@@PAX@Z 004751a8 f   mfc42:MFC42.DLL
 0001:000741ae       ?Attach@CGdiObject@@QAEHPAX@Z 004751ae f   mfc42:MFC42.DLL
 0001:000741b4       ?Attach@CDC@@QAEHPAUHDC__@@@Z 004751b4 f   mfc42:MFC42.DLL
 0001:000741ba       ??0CDC@@QAE@XZ             004751ba f   mfc42:MFC42.DLL
 0001:000741c0       ??0CPaintDC@@QAE@PAVCWnd@@@Z 004751c0 f   mfc42:MFC42.DLL
 0001:000741c6       ?GetRuntimeClass@CBrush@@UBEPAUCRuntimeClass@@XZ 004751c6 f   mfc42:MFC42.DLL
 0001:000741cc       ??0CBrush@@QAE@K@Z         004751cc f   mfc42:MFC42.DLL
 0001:000741d2       ?Default@CWnd@@IAEJXZ      004751d2 f   mfc42:MFC42.DLL
 0001:000741d8       ?SetFocus@CWnd@@QAEPAV1@XZ 004751d8 f   mfc42:MFC42.DLL
 0001:000741de       ?OnSysColorChange@CWnd@@IAEXXZ 004751de f   mfc42:MFC42.DLL
 0001:000741e4       ?OnSettingChange@CWnd@@IAEXIPBD@Z 004751e4 f   mfc42:MFC42.DLL
 0001:000741ea       ?ScrollWindow@CWnd@@QAEXHHPBUtagRECT@@0@Z 004751ea f   mfc42:MFC42.DLL
 0001:000741f0       ?GetRuntimeClass@CPen@@UBEPAUCRuntimeClass@@XZ 004751f0 f   mfc42:MFC42.DLL
 0001:000741f6       ?LineTo@CDC@@QAEHHH@Z      004751f6 f   mfc42:MFC42.DLL
 0001:000741fc       ?MoveTo@CDC@@QAE?AVCPoint@@HH@Z 004751fc f   mfc42:MFC42.DLL
 0001:00074202       ?SelectObject@CDC@@QAEPAVCPen@@PAV2@@Z 00475202 f   mfc42:MFC42.DLL
 0001:00074208       ?FromHandle@CDC@@SGPAV1@PAUHDC__@@@Z 00475208 f   mfc42:MFC42.DLL
 0001:0007420e       ?CacheGlobalData@COleDataSource@@QAEXGPAXPAUtagFORMATETC@@@Z 0047520e f   mfc42:MFC42.DLL
 0001:00074214       ??0COleDataSource@@QAE@XZ  00475214 f   mfc42:MFC42.DLL
 0001:0007421a       ??1CSharedFile@@UAE@XZ     0047521a f   mfc42:MFC42.DLL
 0001:00074220       ??1CString@@QAE@XZ         00475220 f   mfc42:MFC42.DLL
 0001:00074226       ?Detach@CSharedFile@@QAEPAXXZ 00475226 f   mfc42:MFC42.DLL
 0001:0007422c       ?GetLength@CFile@@UBEKXZ   0047522c f   mfc42:MFC42.DLL
 0001:00074232       ?ReleaseBuffer@CString@@QAEXH@Z 00475232 f   mfc42:MFC42.DLL
 0001:00074238       ?Write@CMemFile@@UAEXPBXI@Z 00475238 f   mfc42:MFC42.DLL
 0001:0007423e       ?GetBuffer@CString@@QAEPADH@Z 0047523e f   mfc42:MFC42.DLL
 0001:00074244       ??YCString@@QAEABV0@ABV0@@Z 00475244 f   mfc42:MFC42.DLL
 0001:0007424a       ??YCString@@QAEABV0@PBD@Z  0047524a f   mfc42:MFC42.DLL
 0001:00074250       ?Empty@CString@@QAEXXZ     00475250 f   mfc42:MFC42.DLL
 0001:00074256       ??0CString@@QAE@XZ         00475256 f   mfc42:MFC42.DLL
 0001:0007425c       ??0CSharedFile@@QAE@II@Z   0047525c f   mfc42:MFC42.DLL
 0001:00074262       ?UnlockBuffer@CString@@QAEXXZ 00475262 f   mfc42:MFC42.DLL
 0001:00074268       ?TrimRight@CString@@QAEXXZ 00475268 f   mfc42:MFC42.DLL
 0001:0007426e       ?TrimLeft@CString@@QAEXXZ  0047526e f   mfc42:MFC42.DLL
 0001:00074274       ??4CString@@QAEABV0@PBD@Z  00475274 f   mfc42:MFC42.DLL
 0001:0007427a       ??4CString@@QAEABV0@ABV0@@Z 0047527a f   mfc42:MFC42.DLL
 0001:00074280       ?Left@CString@@QBE?AV1@H@Z 00475280 f   mfc42:MFC42.DLL
 0001:00074286       ?Mid@CString@@QBE?AV1@H@Z  00475286 f   mfc42:MFC42.DLL
 0001:0007428c       ?Find@CString@@QBEHPBD@Z   0047528c f   mfc42:MFC42.DLL
 0001:00074292       ??0CString@@QAE@ABV0@@Z    00475292 f   mfc42:MFC42.DLL
 0001:00074298       ?LockBuffer@CString@@QAEPADXZ 00475298 f   mfc42:MFC42.DLL
 0001:0007429e       ??0CString@@QAE@PBD@Z      0047529e f   mfc42:MFC42.DLL
 0001:000742a4       ?Read@CMemFile@@UAEIPAXI@Z 004752a4 f   mfc42:MFC42.DLL
 0001:000742aa       ??1CMemFile@@UAE@XZ        004752aa f   mfc42:MFC42.DLL
 0001:000742b0       ??0CMemFile@@QAE@PAEII@Z   004752b0 f   mfc42:MFC42.DLL
 0001:000742b6       ?GetGlobalData@COleDataObject@@QAEPAXGPAUtagFORMATETC@@@Z 004752b6 f   mfc42:MFC42.DLL
 0001:000742bc       ?IsDataAvailable@COleDataObject@@QAEHGPAUtagFORMATETC@@@Z 004752bc f   mfc42:MFC42.DLL
 0001:000742c2       ?DoDragDrop@COleDataSource@@QAEKKPBUtagRECT@@PAVCOleDropSource@@@Z 004752c2 f   mfc42:MFC42.DLL
 0001:000742c8       ?SetClipboard@COleDataSource@@QAEXXZ 004752c8 f   mfc42:MFC42.DLL
 0001:000742ce       ?Release@COleDataObject@@QAEXXZ 004752ce f   mfc42:MFC42.DLL
 0001:000742d4       ?AttachClipboard@COleDataObject@@QAEHXZ 004752d4 f   mfc42:MFC42.DLL
 0001:000742da       ??0COleDataObject@@QAE@XZ  004752da f   mfc42:MFC42.DLL
 0001:000742e0       ?GetScrollPos@CWnd@@QBEHH@Z 004752e0 f   mfc42:MFC42.DLL
 0001:000742e6       ?GetScrollInfo@CWnd@@QAEHHPAUtagSCROLLINFO@@I@Z 004752e6 f   mfc42:MFC42.DLL
 0001:000742ec       ?SetScrollInfo@CWnd@@QAEHHPAUtagSCROLLINFO@@H@Z 004752ec f   mfc42:MFC42.DLL
 0001:000742f2       ?SetScrollRange@CWnd@@QAEXHHHH@Z 004752f2 f   mfc42:MFC42.DLL
 0001:000742f8       ?SetSize@CObArray@@QAEXHH@Z 004752f8 f   mfc42:MFC42.DLL
 0001:000742fe       ?InsertAt@CObArray@@QAEXHPAVCObject@@H@Z 004752fe f   mfc42:MFC42.DLL
 0001:00074304       ?InsertAt@CUIntArray@@QAEXHIH@Z 00475304 f   mfc42:MFC42.DLL
 0001:0007430a       ?SetAtGrow@CObArray@@QAEXHPAVCObject@@@Z 0047530a f   mfc42:MFC42.DLL
 0001:00074310       ?SetAtGrow@CUIntArray@@QAEXHI@Z 00475310 f   mfc42:MFC42.DLL
 0001:00074316       ?RemoveAt@CUIntArray@@QAEXHH@Z 00475316 f   mfc42:MFC42.DLL
 0001:0007431c       ?RemoveAt@CObArray@@QAEXHH@Z 0047531c f   mfc42:MFC42.DLL
 0001:00074322       ?ClientToScreen@CWnd@@QBEXPAUtagRECT@@@Z 00475322 f   mfc42:MFC42.DLL
 0001:00074328       ??1CDialog@@UAE@XZ         00475328 f   mfc42:MFC42.DLL
 0001:0007432e       ??1CPrintInfo@@QAE@XZ      0047532e f   mfc42:MFC42.DLL
 0001:00074334       ?Detach@CDC@@QAEPAUHDC__@@XZ 00475334 f   mfc42:MFC42.DLL
 0001:0007433a       ??0CPrintInfo@@QAE@XZ      0047533a f   mfc42:MFC42.DLL
 0001:00074340       ?LoadStringA@CString@@QAEHI@Z 00475340 f   mfc42:MFC42.DLL
 0001:00074346       ?DoModal@CPrintDialog@@UAEHXZ 00475346 f   mfc42:MFC42.DLL
 0001:0007434c       ??0CPrintDialog@@QAE@HKPAVCWnd@@@Z 0047534c f   mfc42:MFC42.DLL
 0001:00074352       ?OffsetWindowOrg@CDC@@QAE?AVCPoint@@HH@Z 00475352 f   mfc42:MFC42.DLL
 0001:00074358       ?GetWindowTextA@CWnd@@QBEXAAVCString@@@Z 00475358 f   mfc42:MFC42.DLL
 0001:0007435e       ?SetBkMode@CDC@@QAEHH@Z    0047535e f   mfc42:MFC42.DLL
 0001:00074364       ?Format@CTime@@QBE?AVCString@@PBD@Z 00475364 f   mfc42:MFC42.DLL
 0001:0007436a       ?GetTickCount@CTime@@SG?AV1@XZ 0047536a f   mfc42:MFC42.DLL
 0001:00074370       ?Format@CString@@QAAXPBDZZ 00475370 f   mfc42:MFC42.DLL
 0001:00074376       ?GetErrorMessage@CFileException@@UAEHPADIPAI@Z 00475376 f   mfc42:MFC42.DLL
 0001:0007437c       ?GetRuntimeClass@CFileException@@UBEPAUCRuntimeClass@@XZ 0047537c f   mfc42:MFC42.DLL
 0001:00074382       ??1CStdioFile@@UAE@XZ      00475382 f   mfc42:MFC42.DLL
 0001:00074388       ?Close@CStdioFile@@UAEXXZ  00475388 f   mfc42:MFC42.DLL
 0001:0007438e       ?WriteString@CStdioFile@@UAEXPBD@Z 0047538e f   mfc42:MFC42.DLL
 0001:00074394       ?ReportError@CException@@UAEHII@Z 00475394 f   mfc42:MFC42.DLL
 0001:0007439a       ?Open@CStdioFile@@UAEHPBDIPAVCFileException@@@Z 0047539a f   mfc42:MFC42.DLL
 0001:000743a0       ??0CException@@QAE@XZ      004753a0 f   mfc42:MFC42.DLL
 0001:000743a6       ??0CStdioFile@@QAE@XZ      004753a6 f   mfc42:MFC42.DLL
 0001:000743ac       ?ReadString@CStdioFile@@UAEPADPADI@Z 004753ac f   mfc42:MFC42.DLL
 0001:000743b2       ?Create@CImageList@@QAEHHHIHH@Z 004753b2 f   mfc42:MFC42.DLL
 0001:000743b8       ??0CImageList@@QAE@XZ      004753b8 f   mfc42:MFC42.DLL
 0001:000743be       ?EndWaitCursor@CCmdTarget@@QAEXXZ 004753be f   mfc42:MFC42.DLL
 0001:000743c4       ?BeginWaitCursor@CCmdTarget@@QAEXXZ 004753c4 f   mfc42:MFC42.DLL
 0001:000743ca       ?FromHandle@CGdiObject@@SGPAV1@PAX@Z 004753ca f   mfc42:MFC42.DLL
 0001:000743d0       ??0CPen@@QAE@HHK@Z         004753d0 f   mfc42:MFC42.DLL
 0001:000743d6       ?FillSolidRect@CDC@@QAEXPBUtagRECT@@K@Z 004753d6 f   mfc42:MFC42.DLL
 0001:000743dc       ?Create@CPlex@@SGPAU1@AAPAU1@II@Z 004753dc f   mfc42:MFC42.DLL
 0001:000743e2       ?ReadCount@CArchive@@QAEKXZ 004753e2 f   mfc42:MFC42.DLL
 0001:000743e8       ?Read@CArchive@@QAEIPAXI@Z 004753e8 f   mfc42:MFC42.DLL
 0001:000743ee       ?Write@CArchive@@QAEXPBXI@Z 004753ee f   mfc42:MFC42.DLL
 0001:000743f4       ?WriteCount@CArchive@@QAEXK@Z 004753f4 f   mfc42:MFC42.DLL
 0001:000743fa       ?OnDropEx@COleDropTarget@@UAEKPAVCWnd@@PAVCOleDataObject@@KKVCPoint@@@Z 004753fa f   mfc42:MFC42.DLL
 0001:00074400       ?GetInterfaceMap@COleDropTarget@@MBEPBUAFX_INTERFACEMAP@@XZ 00475400 f   mfc42:MFC42.DLL
 0001:00074406       ?OnFinalRelease@CCmdTarget@@UAEXXZ 00475406 f   mfc42:MFC42.DLL
 0001:0007440c       ?GetRuntimeClass@CCmdTarget@@UBEPAUCRuntimeClass@@XZ 0047540c f   mfc42:MFC42.DLL
 0001:00074412       ??0COleDropTarget@@QAE@XZ  00475412 f   mfc42:MFC42.DLL
 0001:00074418       ??1COleDropTarget@@UAE@XZ  00475418 f   mfc42:MFC42.DLL
 0001:0007441e       ?Register@COleDropTarget@@QAEHPAVCWnd@@@Z 0047541e f   mfc42:MFC42.DLL
 0001:00074424       ?IsKindOf@CObject@@QBEHPBUCRuntimeClass@@@Z 00475424 f   mfc42:MFC42.DLL
 0001:0007442a       ?Revoke@COleDropTarget@@UAEXXZ 0047542a f   mfc42:MFC42.DLL
 0001:00074430       ?GetMessageMap@CWnd@@MBEPBUAFX_MSGMAP@@XZ 00475430 f   mfc42:MFC42.DLL
 0001:00074436       ?GetRuntimeClass@CEdit@@UBEPAUCRuntimeClass@@XZ 00475436 f   mfc42:MFC42.DLL
 0001:0007443c       ??1CEdit@@UAE@XZ           0047543c f   mfc42:MFC42.DLL
 0001:00074442       ?SetWindowTextA@CWnd@@QAEXPBD@Z 00475442 f   mfc42:MFC42.DLL
 0001:00074448       ?Create@CEdit@@QAEHKABUtagRECT@@PAVCWnd@@I@Z 00475448 f   mfc42:MFC42.DLL
 0001:0007444e       ??1CWindowDC@@UAE@XZ       0047544e f   mfc42:MFC42.DLL
 0001:00074454       ?MoveWindow@CWnd@@QAEXHHHHH@Z 00475454 f   mfc42:MFC42.DLL
 0001:0007445a       ??0CWindowDC@@QAE@PAVCWnd@@@Z 0047545a f   mfc42:MFC42.DLL
 0001:00074460       ?GetRuntimeClass@CWnd@@UBEPAUCRuntimeClass@@XZ 00475460 f   mfc42:MFC42.DLL
 0001:00074466       ?CreateEx@CWnd@@QAEHKPBD0KHHHHPAUHWND__@@PAUHMENU__@@PAX@Z 00475466 f   mfc42:MFC42.DLL
 0001:0007446c       ??1CClientDC@@UAE@XZ       0047546c f   mfc42:MFC42.DLL
 0001:00074472       ?SetWindowPos@CWnd@@QAEHPBV1@HHHHI@Z 00475472 f   mfc42:MFC42.DLL
 0001:00074478       ??0CClientDC@@QAE@PAVCWnd@@@Z 00475478 f   mfc42:MFC42.DLL
 0001:0007447e       ?ScreenToClient@CWnd@@QBEXPAUtagRECT@@@Z 0047547e f   mfc42:MFC42.DLL
 0001:00074484       ?ShowWindow@CWnd@@QAEHH@Z  00475484 f   mfc42:MFC42.DLL
 0001:0007448a       ?GetRuntimeClass@CStatic@@UBEPAUCRuntimeClass@@XZ 0047548a f   mfc42:MFC42.DLL
 0001:00074490       ?GetRuntimeClass@CRgn@@UBEPAUCRuntimeClass@@XZ 00475490 f   mfc42:MFC42.DLL
 0001:00074496       ??1CStatic@@UAE@XZ         00475496 f   mfc42:MFC42.DLL
 0001:0007449c       ?SetTextAlign@CDC@@QAEII@Z 0047549c f   mfc42:MFC42.DLL
 0001:000744a2       ?SelectObject@CDC@@QAEPAVCBrush@@PAV2@@Z 004754a2 f   mfc42:MFC42.DLL
 0001:000744a8       ?SelectClipRgn@CDC@@QAEHPAVCRgn@@@Z 004754a8 f   mfc42:MFC42.DLL
 0001:000744ae       ?PolylineTo@CDC@@QAEHPBUtagPOINT@@H@Z 004754ae f   mfc42:MFC42.DLL
 0001:000744b4       ?DeleteDC@CDC@@QAEHXZ      004754b4 f   mfc42:MFC42.DLL
 0001:000744ba       ?OnChildNotify@CButton@@MAEHIIJPAJ@Z 004754ba f   mfc42:MFC42.DLL
 0001:000744c0       ??1CButton@@UAE@XZ         004754c0 f   mfc42:MFC42.DLL
 0001:000744c6       ?OnCtlColor@CWnd@@IAEPAUHBRUSH__@@PAVCDC@@PAV1@I@Z 004754c6 f   mfc42:MFC42.DLL
 0001:000744cc       ?InflateRect@CRect@@QAEXHHHH@Z 004754cc f   mfc42:MFC42.DLL
 0001:000744d2       ?Replace@CString@@QAEHPBD0@Z 004754d2 f   mfc42:MFC42.DLL
 0001:000744d8       ?GetControlUnknown@CWnd@@QAEPAUIUnknown@@XZ 004754d8 f   mfc42:MFC42.DLL
 0001:000744de       ?CreateControl@CWnd@@QAEHABU_GUID@@PBDKABUtagRECT@@PAV1@IPAVCFile@@HPAG@Z 004754de f   mfc42:MFC42.DLL
 0001:000744e4       ??0COleVariant@@QAE@JG@Z   004754e4 f   mfc42:MFC42.DLL
 0001:000744ea       ?AllocSysString@CString@@QBEPAGXZ 004754ea f   mfc42:MFC42.DLL
 0001:000744f0       ?AfxVariantInit@@YGXPAUtagVARIANT@@@Z 004754f0 f   mfc42:MFC42.DLL
 0001:000744f6       ??1CStringList@@UAE@XZ     004754f6 f   mfc42:MFC42.DLL
 0001:000744fc       ?Find@CString@@QBEHD@Z     004754fc f   mfc42:MFC42.DLL
 0001:00074502       ??1CStringArray@@UAE@XZ    00475502 f   mfc42:MFC42.DLL
 0001:00074508       ?SetAtGrow@CStringArray@@QAEXHABVCString@@@Z 00475508 f   mfc42:MFC42.DLL
 0001:0007450e       ??0CStringArray@@QAE@XZ    0047550e f   mfc42:MFC42.DLL
 0001:00074514       ?Right@CString@@QBE?AV1@H@Z 00475514 f   mfc42:MFC42.DLL
 0001:0007451a       ??H@YG?AVCString@@DABV0@@Z 0047551a f   mfc42:MFC42.DLL
 0001:00074520       ??0CStringList@@QAE@H@Z    00475520 f   mfc42:MFC42.DLL
 0001:00074526       ?ReverseFind@CString@@QBEHD@Z 00475526 f   mfc42:MFC42.DLL
 0001:0007452c       ?AddTail@CStringList@@QAEPAU__POSITION@@ABVCString@@@Z 0047552c f   mfc42:MFC42.DLL
 0001:00074532       ?Mid@CString@@QBE?AV1@HH@Z 00475532 f   mfc42:MFC42.DLL
 0001:00074538       ?Find@CString@@QBEHDH@Z    00475538 f   mfc42:MFC42.DLL
 0001:0007453e       ?AfxGetThread@@YGPAVCWinThread@@XZ 0047553e f   mfc42:MFC42.DLL
 0001:00074544       ??1CPtrList@@UAE@XZ        00475544 f   mfc42:MFC42.DLL
 0001:0007454a       ??0CPtrList@@QAE@H@Z       0047554a f   mfc42:MFC42.DLL
 0001:00074550       ??1CCmdTarget@@UAE@XZ      00475550 f   mfc42:MFC42.DLL
 0001:00074556       ?EnableAutomation@CCmdTarget@@QAEXXZ 00475556 f   mfc42:MFC42.DLL
 0001:0007455c       ??0CCmdTarget@@QAE@XZ      0047555c f   mfc42:MFC42.DLL
 0001:00074562       ?dispatchMap@CCmdTarget@@1UAFX_DISPMAP@@B 00475562 f   mfc42:MFC42.DLL
 0001:00074568       ?AfxConnectionAdvise@@YGHPAUIUnknown@@ABU_GUID@@0HPAK@Z 00475568 f   mfc42:MFC42.DLL
 0001:0007456e       ?GetIDispatch@CCmdTarget@@QAEPAUIDispatch@@H@Z 0047556e f   mfc42:MFC42.DLL
 0001:00074574       ?AfxConnectionUnadvise@@YGHPAUIUnknown@@ABU_GUID@@0HK@Z 00475574 f   mfc42:MFC42.DLL
 0001:0007457a       ?AfxParseURLEx@@YGHPBDAAKAAVCString@@2AAG22K@Z 0047557a f   mfc42:MFC42.DLL
 0001:00074580       ??H@YG?AVCString@@PBDABV0@@Z 00475580 f   mfc42:MFC42.DLL
 0001:00074586       ??0CString@@QAE@PBG@Z      00475586 f   mfc42:MFC42.DLL
 0001:0007458c       ?DrawItem@CButton@@UAEXPAUtagDRAWITEMSTRUCT@@@Z 0047558c f   mfc42:MFC42.DLL
 0001:00074592       ?GetRuntimeClass@CButton@@UBEPAUCRuntimeClass@@XZ 00475592 f   mfc42:MFC42.DLL
 0001:00074598       ?DeleteItem@CComboBox@@UAEXPAUtagDELETEITEMSTRUCT@@@Z 00475598 f   mfc42:MFC42.DLL
 0001:0007459e       ?CompareItem@CComboBox@@UAEHPAUtagCOMPAREITEMSTRUCT@@@Z 0047559e f   mfc42:MFC42.DLL
 0001:000745a4       ?MeasureItem@CComboBox@@UAEXPAUtagMEASUREITEMSTRUCT@@@Z 004755a4 f   mfc42:MFC42.DLL
 0001:000745aa       ?DrawItem@CComboBox@@UAEXPAUtagDRAWITEMSTRUCT@@@Z 004755aa f   mfc42:MFC42.DLL
 0001:000745b0       ?OnChildNotify@CComboBox@@MAEHIIJPAJ@Z 004755b0 f   mfc42:MFC42.DLL
 0001:000745b6       ?GetRuntimeClass@CComboBox@@UBEPAUCRuntimeClass@@XZ 004755b6 f   mfc42:MFC42.DLL
 0001:000745bc       ??1CComboBox@@UAE@XZ       004755bc f   mfc42:MFC42.DLL
 0001:000745c2       ?GetLBText@CComboBox@@QBEXHAAVCString@@@Z 004755c2 f   mfc42:MFC42.DLL
 0001:000745c8       ?MessageBoxA@CWnd@@QAEHPBD0I@Z 004755c8 f   mfc42:MFC42.DLL
 0001:000745ce       ?DoModal@CDialog@@UAEHXZ   004755ce f   mfc42:MFC42.DLL
 0001:000745d4       ?Format@CString@@QAAXIZZ   004755d4 f   mfc42:MFC42.DLL
 0001:000745da       ??0CMapWordToPtr@@QAE@H@Z  004755da f   mfc42:MFC42.DLL
 0001:000745e0       ??1CMapWordToPtr@@UAE@XZ   004755e0 f   mfc42:MFC42.DLL
 0001:000745e6       ?RemoveAll@CMapWordToPtr@@QAEXXZ 004755e6 f   mfc42:MFC42.DLL
 0001:000745ec       ?GetNextAssoc@CMapWordToPtr@@QBEXAAPAU__POSITION@@AAGAAPAX@Z 004755ec f   mfc42:MFC42.DLL
 0001:000745f2       ??ACMapWordToPtr@@QAEAAPAXG@Z 004755f2 f   mfc42:MFC42.DLL
 0001:000745f8       ?Lookup@CMapWordToPtr@@QBEHGAAPAX@Z 004755f8 f   mfc42:MFC42.DLL
 0001:000745fe       ??0CString@@QAE@DH@Z       004755fe f   mfc42:MFC42.DLL
 0001:00074604       ?CharToItem@CListBox@@UAEHII@Z 00475604 f   mfc42:MFC42.DLL
 0001:0007460a       ?VKeyToItem@CListBox@@UAEHII@Z 0047560a f   mfc42:MFC42.DLL
 0001:00074610       ?DeleteItem@CListBox@@UAEXPAUtagDELETEITEMSTRUCT@@@Z 00475610 f   mfc42:MFC42.DLL
 0001:00074616       ?CompareItem@CListBox@@UAEHPAUtagCOMPAREITEMSTRUCT@@@Z 00475616 f   mfc42:MFC42.DLL
 0001:0007461c       ?MeasureItem@CListBox@@UAEXPAUtagMEASUREITEMSTRUCT@@@Z 0047561c f   mfc42:MFC42.DLL
 0001:00074622       ?DrawItem@CListBox@@UAEXPAUtagDRAWITEMSTRUCT@@@Z 00475622 f   mfc42:MFC42.DLL
 0001:00074628       ?OnChildNotify@CListBox@@MAEHIIJPAJ@Z 00475628 f   mfc42:MFC42.DLL
 0001:0007462e       ?GetRuntimeClass@CListBox@@UBEPAUCRuntimeClass@@XZ 0047562e f   mfc42:MFC42.DLL
 0001:00074634       ??1CListBox@@UAE@XZ        00475634 f   mfc42:MFC42.DLL
 0001:0007463a       ?GetText@CListBox@@QBEXHAAVCString@@@Z 0047563a f   mfc42:MFC42.DLL
 0001:00074640       ?AddHead@CPtrList@@QAEPAU__POSITION@@PAX@Z 00475640 f   mfc42:MFC42.DLL
 0001:00074646       ?RemoveAt@CPtrList@@QAEXPAU__POSITION@@@Z 00475646 f   mfc42:MFC42.DLL
 0001:0007464c       ?RemoveHead@CPtrList@@QAEPAXXZ 0047564c f   mfc42:MFC42.DLL
 0001:00074652       ?AddTail@CPtrList@@QAEPAU__POSITION@@PAX@Z 00475652 f   mfc42:MFC42.DLL
 0001:00074658       ?InsertAfter@CPtrList@@QAEPAU__POSITION@@PAU2@PAX@Z 00475658 f   mfc42:MFC42.DLL
 0001:0007465e       ?InsertBefore@CPtrList@@QAEPAU__POSITION@@PAU2@PAX@Z 0047565e f   mfc42:MFC42.DLL
 0001:00074664       ?Create@CStatic@@QAEHPBDKABUtagRECT@@PAVCWnd@@I@Z 00475664 f   mfc42:MFC42.DLL
 0001:0007466a       ?ModifyStyle@CWnd@@QAEHKKI@Z 0047566a f   mfc42:MFC42.DLL
 0001:00074670       ?Create@CButton@@QAEHPBDKABUtagRECT@@PAVCWnd@@I@Z 00475670 f   mfc42:MFC42.DLL
 0001:00074676       ?EnableWindow@CWnd@@QAEHH@Z 00475676 f   mfc42:MFC42.DLL
 0001:0007467c       ?Replace@CString@@QAEHDD@Z 0047567c f   mfc42:MFC42.DLL
 0001:00074682       ??0CPen@@QAE@HHPBUtagLOGBRUSH@@HPBK@Z 00475682 f   mfc42:MFC42.DLL
 0001:00074688       ?Create@CComboBox@@QAEHKABUtagRECT@@PAVCWnd@@I@Z 00475688 f   mfc42:MFC42.DLL
 0001:0007468e       ?Create@CListBox@@QAEHKABUtagRECT@@PAVCWnd@@I@Z 0047568e f   mfc42:MFC42.DLL
 0001:00074694       ?InvokeHelper@CWnd@@QAAXJGGPAXPBEZZ 00475694 f   mfc42:MFC42.DLL
 0001:0007469a       ?RemoveTail@CPtrList@@QAEPAXXZ 0047569a f   mfc42:MFC42.DLL
 0001:000746a0       ??YCString@@QAEABV0@D@Z    004756a0 f   mfc42:MFC42.DLL
 0001:000746a6       ?Delete@CString@@QAEHHH@Z  004756a6 f   mfc42:MFC42.DLL
 0001:000746ac       ?MakeUpper@CString@@QAEXXZ 004756ac f   mfc42:MFC42.DLL
 0001:000746b2       ?SetSize@CStringArray@@QAEXHH@Z 004756b2 f   mfc42:MFC42.DLL
 0001:000746b8       ??H@YG?AVCString@@ABV0@0@Z 004756b8 f   mfc42:MFC42.DLL
 0001:000746be       ??H@YG?AVCString@@ABV0@D@Z 004756be f   mfc42:MFC42.DLL
 0001:000746c4       ?RemoveAll@CPtrList@@QAEXXZ 004756c4 f   mfc42:MFC42.DLL
 0001:000746ca       ?FindIndex@CPtrList@@QBEPAU__POSITION@@H@Z 004756ca f   mfc42:MFC42.DLL
 0001:000746d0       ??1CMapStringToPtr@@UAE@XZ 004756d0 f   mfc42:MFC42.DLL
 0001:000746d6       ??0CMapStringToPtr@@QAE@H@Z 004756d6 f   mfc42:MFC42.DLL
 0001:000746dc       ??ACMapStringToPtr@@QAEAAPAXPBD@Z 004756dc f   mfc42:MFC42.DLL
 0001:000746e2       ?Lookup@CMapStringToPtr@@QBEHPBDAAPAX@Z 004756e2 f   mfc42:MFC42.DLL
 0001:000746e8       ?RemoveKey@CMapStringToPtr@@QAEHPBD@Z 004756e8 f   mfc42:MFC42.DLL
 0001:000746ee       ?GetNextAssoc@CMapStringToPtr@@QBEXAAPAU__POSITION@@AAVCString@@AAPAX@Z 004756ee f   mfc42:MFC42.DLL
 0001:000746f4       ?RemoveAll@CMapStringToPtr@@QAEXXZ 004756f4 f   mfc42:MFC42.DLL
 0001:000746fa       ?PreInitDialog@CDialog@@MAEXXZ 004756fa f   mfc42:MFC42.DLL
 0001:00074700       ?OnCancel@CDialog@@MAEXXZ  00475700 f   mfc42:MFC42.DLL
 0001:00074706       ?OnSetFont@CDialog@@UAEXPAVCFont@@@Z 00475706 f   mfc42:MFC42.DLL
 0001:0007470c       ?SetOccDialogInfo@CDialog@@MAEHPAU_AFX_OCC_DIALOG_INFO@@@Z 0047570c f   mfc42:MFC42.DLL
 0001:00074712       ?CheckAutoCenter@CDialog@@UAEHXZ 00475712 f   mfc42:MFC42.DLL
 0001:00074718       ?PreTranslateMessage@CDialog@@UAEHPAUtagMSG@@@Z 00475718 f   mfc42:MFC42.DLL
 0001:0007471e       ?OnCmdMsg@CDialog@@UAEHIHPAXPAUAFX_CMDHANDLERINFO@@@Z 0047571e f   mfc42:MFC42.DLL
 0001:00074724       ?GetRuntimeClass@CDialog@@UBEPAUCRuntimeClass@@XZ 00475724 f   mfc42:MFC42.DLL
 0001:0007472a       ??0CDialog@@QAE@IPAVCWnd@@@Z 0047572a f   mfc42:MFC42.DLL
 0001:00074730       ?DDX_Radio@@YGXPAVCDataExchange@@HAAH@Z 00475730 f   mfc42:MFC42.DLL
 0001:00074736       ?DDX_CBString@@YGXPAVCDataExchange@@HAAVCString@@@Z 00475736 f   mfc42:MFC42.DLL
 0001:0007473c       ?DDX_Text@@YGXPAVCDataExchange@@HAAVCString@@@Z 0047573c f   mfc42:MFC42.DLL
 0001:00074742       ?DDX_Control@@YGXPAVCDataExchange@@HAAVCWnd@@@Z 00475742 f   mfc42:MFC42.DLL
 0001:00074748       ?UpdateData@CWnd@@QAEHH@Z  00475748 f   mfc42:MFC42.DLL
 0001:0007474e       ?OnInitDialog@CDialog@@UAEHXZ 0047574e f   mfc42:MFC42.DLL
 0001:00074754       ?OnOK@CDialog@@MAEXXZ      00475754 f   mfc42:MFC42.DLL
 0001:0007475a       ?GetDlgItem@CWnd@@QBEPAV1@H@Z 0047575a f   mfc42:MFC42.DLL
 0001:00074760       ?MakeLower@CString@@QAEXXZ 00475760 f   mfc42:MFC42.DLL
 0001:00074766       ?CenterWindow@CWnd@@QAEXPAV1@@Z 00475766 f   mfc42:MFC42.DLL
 0001:0007476c       ?EndDialog@CDialog@@QAEXH@Z 0047576c f   mfc42:MFC42.DLL
 0001:00074772       ?OnDestroy@CWnd@@IAEXXZ    00475772 f   mfc42:MFC42.DLL
 0001:00074778       ?OnCtlColor@CDialog@@IAEPAUHBRUSH__@@PAVCDC@@PAVCWnd@@I@Z 00475778 f   mfc42:MFC42.DLL
 0001:0007477e       ??1CFile@@UAE@XZ           0047577e f   mfc42:MFC42.DLL
 0001:00074784       ?Close@CFile@@UAEXXZ       00475784 f   mfc42:MFC42.DLL
 0001:0007478a       ?Write@CFile@@UAEXPBXI@Z   0047578a f   mfc42:MFC42.DLL
 0001:00074790       ?Open@CFile@@UAEHPBDIPAVCFileException@@@Z 00475790 f   mfc42:MFC42.DLL
 0001:00074796       ??0CFile@@QAE@XZ           00475796 f   mfc42:MFC42.DLL
 0001:0007479c       ??H@YG?AVCString@@ABV0@PBD@Z 0047579c f   mfc42:MFC42.DLL
 0001:000747a2       ?GetStatus@CFile@@SGHPBDAAUCFileStatus@@@Z 004757a2 f   mfc42:MFC42.DLL
 0001:000747a8       ?ReadString@CStdioFile@@UAEHAAVCString@@@Z 004757a8 f   mfc42:MFC42.DLL
 0001:000747ae       ??0CStdioFile@@QAE@PBDI@Z  004757ae f   mfc42:MFC42.DLL
 0001:000747b4       ?OnHelp@CWinApp@@IAEXXZ    004757b4 f   mfc42:MFC42.DLL
 0001:000747ba       ?OnDDECommand@CWinApp@@UAEHPAD@Z 004757ba f   mfc42:MFC42.DLL
 0001:000747c0       ?DoWaitCursor@CWinApp@@UAEXH@Z 004757c0 f   mfc42:MFC42.DLL
 0001:000747c6       ?DoMessageBox@CWinApp@@UAEHPBDII@Z 004757c6 f   mfc42:MFC42.DLL
 0001:000747cc       ?SaveAllModified@CWinApp@@UAEHXZ 004757cc f   mfc42:MFC42.DLL
 0001:000747d2       ?InitApplication@CWinApp@@UAEHXZ 004757d2 f   mfc42:MFC42.DLL
 0001:000747d8       ?AddToRecentFileList@CWinApp@@UAEXPBD@Z 004757d8 f   mfc42:MFC42.DLL
 0001:000747de       ?OpenDocumentFile@CWinApp@@UAEPAVCDocument@@PBD@Z 004757de f   mfc42:MFC42.DLL
 0001:000747e4       ?Delete@CWinThread@@UAEXXZ 004757e4 f   mfc42:MFC42.DLL
 0001:000747ea       ?GetMainWnd@CWinThread@@UAEPAVCWnd@@XZ 004757ea f   mfc42:MFC42.DLL
 0001:000747f0       ?ProcessMessageFilter@CWinThread@@UAEHHPAUtagMSG@@@Z 004757f0 f   mfc42:MFC42.DLL
 0001:000747f6       ?ProcessWndProcException@CWinApp@@UAEJPAVCException@@PBUtagMSG@@@Z 004757f6 f   mfc42:MFC42.DLL
 0001:000747fc       ?IsIdleMessage@CWinThread@@UAEHPAUtagMSG@@@Z 004757fc f   mfc42:MFC42.DLL
 0001:00074802       ?OnIdle@CWinApp@@UAEHJ@Z   00475802 f   mfc42:MFC42.DLL
 0001:00074808       ?PumpMessage@CWinThread@@UAEHXZ 00475808 f   mfc42:MFC42.DLL
 0001:0007480e       ?PreTranslateMessage@CWinThread@@UAEHPAUtagMSG@@@Z 0047580e f   mfc42:MFC42.DLL
 0001:00074814       ?Run@CWinApp@@UAEHXZ       00475814 f   mfc42:MFC42.DLL
 0001:0007481a       ?GetRuntimeClass@CWinApp@@UBEPAUCRuntimeClass@@XZ 0047581a f   mfc42:MFC42.DLL
 0001:00074820       ??1CWinApp@@UAE@XZ         00475820 f   mfc42:MFC42.DLL
 0001:00074826       ??0CWinApp@@QAE@PBD@Z      00475826 f   mfc42:MFC42.DLL
 0001:0007482c       ?ParseCommandLine@CWinApp@@QAEXAAVCCommandLineInfo@@@Z 0047582c f   mfc42:MFC42.DLL
 0001:00074832       ?Enable3dControls@CWinApp@@IAEHXZ 00475832 f   mfc42:MFC42.DLL
 0001:00074838       ?AfxEnableControlContainer@@YAXPAVCOccManager@@@Z 00475838 f   mfc42:MFC42.DLL
 0001:0007483e       ?AfxMessageBox@@YGHIII@Z   0047583e f   mfc42:MFC42.DLL
 0001:00074844       ?AfxSocketInit@@YGHPAUWSAData@@@Z 00475844 f   mfc42:MFC42.DLL
 0001:0007484a       ?ExitInstance@CWinApp@@UAEHXZ 0047584a f   mfc42:MFC42.DLL
 0001:00074850       ?AfxFindResourceHandle@@YGPAUHINSTANCE__@@PBD0@Z 00475850 f   mfc42:MFC42.DLL
 0001:00074856       ??1CCommandLineInfo@@UAE@XZ 00475856 f   mfc42:MFC42.DLL
 0001:0007485c       ??0CCommandLineInfo@@QAE@XZ 0047585c f   mfc42:MFC42.DLL
 0001:00074862       ?ExitHelpMode@CFrameWnd@@UAEXXZ 00475862 f   mfc42:MFC42.DLL
 0001:00074868       ?DelayUpdateFrameMenu@CFrameWnd@@UAEXPAUHMENU__@@@Z 00475868 f   mfc42:MFC42.DLL
 0001:0007486e       ?GetDefaultAccelerator@CFrameWnd@@UAEPAUHACCEL__@@XZ 0047586e f   mfc42:MFC42.DLL
 0001:00074874       ?OnUpdateFrameMenu@CFrameWnd@@UAEXPAUHMENU__@@@Z 00475874 f   mfc42:MFC42.DLL
 0001:0007487a       ?OnUpdateFrameTitle@CFrameWnd@@UAEXH@Z 0047587a f   mfc42:MFC42.DLL
 0001:00074880       ?OnCreateClient@CFrameWnd@@MAEHPAUtagCREATESTRUCTA@@PAUCCreateContext@@@Z 00475880 f   mfc42:MFC42.DLL
 0001:00074886       ?NegotiateBorderSpace@CFrameWnd@@UAEHIPAUtagRECT@@@Z 00475886 f   mfc42:MFC42.DLL
 0001:0007488c       ?GetMessageBar@CFrameWnd@@UAEPAVCWnd@@XZ 0047588c f   mfc42:MFC42.DLL
 0001:00074892       ?OnSetPreviewMode@CFrameWnd@@UAEXHPAUCPrintPreviewState@@@Z 00475892 f   mfc42:MFC42.DLL
 0001:00074898       ?ActivateFrame@CFrameWnd@@UAEXH@Z 00475898 f   mfc42:MFC42.DLL
 0001:0007489e       ?RecalcLayout@CFrameWnd@@UAEXH@Z 0047589e f   mfc42:MFC42.DLL
 0001:000748a4       ?GetMessageString@CFrameWnd@@UBEXIAAVCString@@@Z 004758a4 f   mfc42:MFC42.DLL
 0001:000748aa       ?GetActiveFrame@CFrameWnd@@UAEPAV1@XZ 004758aa f   mfc42:MFC42.DLL
 0001:000748b0       ?GetActiveDocument@CFrameWnd@@UAEPAVCDocument@@XZ 004758b0 f   mfc42:MFC42.DLL
 0001:000748b6       ?LoadFrame@CFrameWnd@@UAEHIKPAVCWnd@@PAUCCreateContext@@@Z 004758b6 f   mfc42:MFC42.DLL
 0001:000748bc       ?IsFrameWnd@CFrameWnd@@UBEHXZ 004758bc f   mfc42:MFC42.DLL
 0001:000748c2       ?PostNcDestroy@CFrameWnd@@MAEXXZ 004758c2 f   mfc42:MFC42.DLL
 0001:000748c8       ?PreTranslateMessage@CFrameWnd@@UAEHPAUtagMSG@@@Z 004758c8 f   mfc42:MFC42.DLL
 0001:000748ce       ?EndModalState@CFrameWnd@@UAEXXZ 004758ce f   mfc42:MFC42.DLL
 0001:000748d4       ?BeginModalState@CFrameWnd@@UAEXXZ 004758d4 f   mfc42:MFC42.DLL
 0001:000748da       ?PreCreateWindow@CFrameWnd@@MAEHAAUtagCREATESTRUCTA@@@Z 004758da f   mfc42:MFC42.DLL
 0001:000748e0       ?OnCmdMsg@CFrameWnd@@UAEHIHPAXPAUAFX_CMDHANDLERINFO@@@Z 004758e0 f   mfc42:MFC42.DLL
 0001:000748e6       ??1CFrameWnd@@UAE@XZ       004758e6 f   mfc42:MFC42.DLL
 0001:000748ec       ??0CFrameWnd@@QAE@XZ       004758ec f   mfc42:MFC42.DLL
 0001:000748f2       ?FromHandle@CMenu@@SGPAV1@PAUHMENU__@@@Z 004758f2 f   mfc42:MFC42.DLL
 0001:000748f8       ?GetStyle@CWnd@@QBEKXZ     004758f8 f   mfc42:MFC42.DLL
 0001:000748fe       ?GetExStyle@CWnd@@QBEKXZ   004758fe f   mfc42:MFC42.DLL
 0001:00074904       ?OnSize@CFrameWnd@@IAEXIHH@Z 00475904 f   mfc42:MFC42.DLL
 0001:0007490a       ?SetScrollPos@CWnd@@QAEHHHH@Z 0047590a f   mfc42:MFC42.DLL
 0001:00074910       ?OnSysCommand@CFrameWnd@@IAEXIJ@Z 00475910 f   mfc42:MFC42.DLL
 0001:00074916       ?OnClose@CFrameWnd@@IAEXXZ 00475916 f   mfc42:MFC42.DLL
 0001:0007491c       ?OnSetFocus@CFrameWnd@@IAEXPAVCWnd@@@Z 0047591c f   mfc42:MFC42.DLL
 0001:00074922       ?OnCommand@CFrameWnd@@MAEHIJ@Z 00475922 f   mfc42:MFC42.DLL
 0001:00074928       ___CxxFrameHandler         00475928 f   msvcrt:MSVCRT.dll
 0001:00074930       _strtoul                   00475930 f   msvcrt:MSVCRT.dll
 0001:00074936       ??0type_info@@AAE@ABV0@@Z  00475936 f   msvcrt:ti_inst.obj
 0001:00074941       ??_Gtype_info@@UAEPAXI@Z   00475941 f i msvcrt:ti_inst.obj
 0001:00074941       ??_Etype_info@@UAEPAXI@Z   00475941 f i msvcrt:ti_inst.obj
 0001:0007495d       ??4type_info@@AAEAAV0@ABV0@@Z 0047595d f   msvcrt:ti_inst.obj
 0001:00074962       __mbstok                   00475962 f   msvcrt:MSVCRT.dll
 0001:00074968       __mbscmp                   00475968 f   msvcrt:MSVCRT.dll
 0001:0007496e       __ftol                     0047596e f   msvcrt:MSVCRT.dll
 0001:00074974       __onexit                   00475974 f   msvcrt:atonexit.obj
 0001:000749a0       _atexit                    004759a0 f   msvcrt:atonexit.obj
 0001:000749b2       _atoi                      004759b2 f   msvcrt:MSVCRT.dll
 0001:000749b8       __mbsicmp                  004759b8 f   msvcrt:MSVCRT.dll
 0001:000749be       _time                      004759be f   msvcrt:MSVCRT.dll
 0001:000749c4       _fclose                    004759c4 f   msvcrt:MSVCRT.dll
 0001:000749ca       _strncpy                   004759ca f   msvcrt:MSVCRT.dll
 0001:000749d0       _div                       004759d0 f   msvcrt:MSVCRT.dll
 0001:000749d6       _printf                    004759d6 f   msvcrt:MSVCRT.dll
 0001:000749dc       _free                      004759dc f   msvcrt:MSVCRT.dll
 0001:000749e2       __itoa                     004759e2 f   msvcrt:MSVCRT.dll
 0001:000749e8       _realloc                   004759e8 f   msvcrt:MSVCRT.dll
 0001:000749ee       _malloc                    004759ee f   msvcrt:MSVCRT.dll
 0001:000749f4       _toupper                   004759f4 f   msvcrt:MSVCRT.dll
 0001:000749fa       __stricmp                  004759fa f   msvcrt:MSVCRT.dll
 0001:00074a00       __snprintf                 00475a00 f   msvcrt:MSVCRT.dll
 0001:00074a06       ___p__pgmptr               00475a06 f   msvcrt:MSVCRT.dll
 0001:00074a0c       __vsnprintf                00475a0c f   msvcrt:MSVCRT.dll
 0001:00074a12       _sprintf                   00475a12 f   msvcrt:MSVCRT.dll
 0001:00074a18       _sscanf                    00475a18 f   msvcrt:MSVCRT.dll
 0001:00074a1e       _strncmp                   00475a1e f   msvcrt:MSVCRT.dll
 0001:00074a24       _fgetc                     00475a24 f   msvcrt:MSVCRT.dll
 0001:00074a2a       _fputc                     00475a2a f   msvcrt:MSVCRT.dll
 0001:00074a30       _fwrite                    00475a30 f   msvcrt:MSVCRT.dll
 0001:00074a36       _fread                     00475a36 f   msvcrt:MSVCRT.dll
 0001:00074a3c       _fopen                     00475a3c f   msvcrt:MSVCRT.dll
 0001:00074a42       __msize                    00475a42 f   msvcrt:MSVCRT.dll
 0001:00074a48       __findclose                00475a48 f   msvcrt:MSVCRT.dll
 0001:00074a4e       __stat                     00475a4e f   msvcrt:MSVCRT.dll
 0001:00074a54       __mkdir                    00475a54 f   msvcrt:MSVCRT.dll
 0001:00074a5a       __rmdir                    00475a5a f   msvcrt:MSVCRT.dll
 0001:00074a60       _remove                    00475a60 f   msvcrt:MSVCRT.dll
 0001:00074a66       __findnext                 00475a66 f   msvcrt:MSVCRT.dll
 0001:00074a6c       __findfirst                00475a6c f   msvcrt:MSVCRT.dll
 0001:00074a72       _rename                    00475a72 f   msvcrt:MSVCRT.dll
 0001:00074a78       __getdrive                 00475a78 f   msvcrt:MSVCRT.dll
 0001:00074a7e       _fprintf                   00475a7e f   msvcrt:MSVCRT.dll
 0001:00074a84       _perror                    00475a84 f   msvcrt:MSVCRT.dll
 0001:00074a8a       _vprintf                   00475a8a f   msvcrt:MSVCRT.dll
 0001:00074a90       __CxxThrowException@8      00475a90 f   msvcrt:MSVCRT.dll
 0001:00074a96       _fflush                    00475a96 f   msvcrt:MSVCRT.dll
 0001:00074a9c       _fputs                     00475a9c f   msvcrt:MSVCRT.dll
 0001:00074aa2       _fseek                     00475aa2 f   msvcrt:MSVCRT.dll
 0001:00074aa8       _ftell                     00475aa8 f   msvcrt:MSVCRT.dll
 0001:00074aae       _localtime                 00475aae f   msvcrt:MSVCRT.dll
 0001:00074ab4       _isdigit                   00475ab4 f   msvcrt:MSVCRT.dll
 0001:00074aba       __chdir                    00475aba f   msvcrt:MSVCRT.dll
 0001:00074ac0       _WinMainCRTStartup         00475ac0 f   msvcrt:crtexew.obj
 0001:00074c1e       ??1type_info@@UAE@XZ       00475c1e f   msvcrt:MSVCRT.dll
 0001:00074c24       ___dllonexit               00475c24 f   msvcrt:MSVCRT.dll
 0001:00074c2a       __exit                     00475c2a f   msvcrt:MSVCRT.dll
 0001:00074c30       __XcptFilter               00475c30 f   msvcrt:MSVCRT.dll
 0001:00074c36       _exit                      00475c36 f   msvcrt:MSVCRT.dll
 0001:00074c3c       ___getmainargs             00475c3c f   msvcrt:MSVCRT.dll
 0001:00074c42       __initterm                 00475c42 f   msvcrt:MSVCRT.dll
 0001:00074c48       __setdefaultprecision      00475c48 f   msvcrt:fp8.obj
 0001:00074c5a       ___setusermatherr          00475c5a f   msvcrt:MSVCRT.dll
 0001:00074c60       __matherr                  00475c60 f   msvcrt:merr.obj
 0001:00074c63       __setargv                  00475c63 f   msvcrt:dllargv.obj
 0001:00074c64       ___p__commode              00475c64 f   msvcrt:MSVCRT.dll
 0001:00074c6a       ___p__fmode                00475c6a f   msvcrt:MSVCRT.dll
 0001:00074c70       ___set_app_type            00475c70 f   msvcrt:MSVCRT.dll
 0001:00074c76       __except_handler3          00475c76 f   msvcrt:MSVCRT.dll
 0001:00074c7c       __controlfp                00475c7c f   msvcrt:MSVCRT.dll
 0001:00074c82       _GlobalReAlloc@12          00475c82 f   kernel32:KERNEL32.dll
 0001:00074c88       _GlobalUnlock@4            00475c88 f   kernel32:KERNEL32.dll
 0001:00074c8e       _GlobalLock@4              00475c8e f   kernel32:KERNEL32.dll
 0001:00074c94       _GlobalSize@4              00475c94 f   kernel32:KERNEL32.dll
 0001:00074c9a       _MulDiv@12                 00475c9a f   kernel32:KERNEL32.dll
 0001:00074ca0       _MultiByteToWideChar@24    00475ca0 f   kernel32:KERNEL32.dll
 0001:00074ca6       _lstrcpynA@12              00475ca6 f   kernel32:KERNEL32.dll
 0001:00074cac       _InitializeCriticalSection@4 00475cac f   kernel32:KERNEL32.dll
 0001:00074cb2       _DeleteCriticalSection@4   00475cb2 f   kernel32:KERNEL32.dll
 0001:00074cb8       _LeaveCriticalSection@4    00475cb8 f   kernel32:KERNEL32.dll
 0001:00074cbe       _EnterCriticalSection@4    00475cbe f   kernel32:KERNEL32.dll
 0001:00074cc4       _CreateFileA@28            00475cc4 f   kernel32:KERNEL32.dll
 0001:00074cca       _CloseHandle@4             00475cca f   kernel32:KERNEL32.dll
 0001:00074cd0       _GetFileSize@8             00475cd0 f   kernel32:KERNEL32.dll
 0001:00074cd6       _SetFilePointer@16         00475cd6 f   kernel32:KERNEL32.dll
 0001:00074cdc       _ReadFile@20               00475cdc f   kernel32:KERNEL32.dll
 0001:00074ce2       _WriteFile@20              00475ce2 f   kernel32:KERNEL32.dll
 0001:00074ce8       _GetTempFileNameA@16       00475ce8 f   kernel32:KERNEL32.dll
 0001:00074cee       _CopyFileA@12              00475cee f   kernel32:KERNEL32.dll
 0001:00074cf4       _GetTempPathA@8            00475cf4 f   kernel32:KERNEL32.dll
 0001:00074cfa       _ResumeThread@4            00475cfa f   kernel32:KERNEL32.dll
 0001:00074d00       _CreateThread@24           00475d00 f   kernel32:KERNEL32.dll
 0001:00074d06       _CreateEventA@16           00475d06 f   kernel32:KERNEL32.dll
 0001:00074d0c       _WaitForSingleObject@8     00475d0c f   kernel32:KERNEL32.dll
 0001:00074d12       _SetEvent@4                00475d12 f   kernel32:KERNEL32.dll
 0001:00074d18       _Sleep@4                   00475d18 f   kernel32:KERNEL32.dll
 0001:00074d1e       _ResetEvent@4              00475d1e f   kernel32:KERNEL32.dll
 0001:00074d24       _GetCurrentThread@0        00475d24 f   kernel32:KERNEL32.dll
 0001:00074d2a       _OpenEventA@12             00475d2a f   kernel32:KERNEL32.dll
 0001:00074d30       _CreateProcessA@40         00475d30 f   kernel32:KERNEL32.dll
 0001:00074d36       _GetModuleFileNameA@12     00475d36 f   kernel32:KERNEL32.dll
 0001:00074d3c       _SetProcessWorkingSetSize@12 00475d3c f   kernel32:KERNEL32.dll
 0001:00074d42       _GetCurrentProcess@0       00475d42 f   kernel32:KERNEL32.dll
 0001:00074d48       _TerminateThread@8         00475d48 f   kernel32:KERNEL32.dll
 0001:00074d4e       _GetModuleHandleA@4        00475d4e f   kernel32:KERNEL32.dll
 0001:00074d54       _GetStartupInfoA@4         00475d54 f   kernel32:KERNEL32.dll
 0001:00074d5a       _GetParent@4               00475d5a f   user32:USER32.dll
 0001:00074d60       _SystemParametersInfoA@16  00475d60 f   user32:USER32.dll
 0001:00074d66       _GetSysColor@4             00475d66 f   user32:USER32.dll
 0001:00074d6c       _LoadCursorA@8             00475d6c f   user32:USER32.dll
 0001:00074d72       _DefWindowProcA@16         00475d72 f   user32:USER32.dll
 0001:00074d78       _GetClassInfoA@12          00475d78 f   user32:USER32.dll
 0001:00074d7e       _IsWindow@4                00475d7e f   user32:USER32.dll
 0001:00074d84       _SendMessageA@16           00475d84 f   user32:USER32.dll
 0001:00074d8a       _IntersectRect@12          00475d8a f   user32:USER32.dll
 0001:00074d90       _FillRect@12               00475d90 f   user32:USER32.dll
 0001:00074d96       _GetKeyState@4             00475d96 f   user32:USER32.dll
 0001:00074d9c       _KillTimer@8               00475d9c f   user32:USER32.dll
 0001:00074da2       _GetClientRect@8           00475da2 f   user32:USER32.dll
 0001:00074da8       _ScreenToClient@8          00475da8 f   user32:USER32.dll
 0001:00074dae       _GetCursorPos@4            00475dae f   user32:USER32.dll
 0001:00074db4       _InvalidateRect@12         00475db4 f   user32:USER32.dll
 0001:00074dba       _GetFocus@0                00475dba f   user32:USER32.dll
 0001:00074dc0       _ReleaseDC@8               00475dc0 f   user32:USER32.dll
 0001:00074dc6       _GetDC@4                   00475dc6 f   user32:USER32.dll
 0001:00074dcc       _IsClipboardFormatAvailable@4 00475dcc f   user32:USER32.dll
 0001:00074dd2       _ShowScrollBar@12          00475dd2 f   user32:USER32.dll
 0001:00074dd8       _SetCursor@4               00475dd8 f   user32:USER32.dll
 0001:00074dde       _TabbedTextOutA@32         00475dde f   user32:USER32.dll
 0001:00074de4       _DrawTextA@20              00475de4 f   user32:USER32.dll
 0001:00074dea       _GrayStringA@36            00475dea f   user32:USER32.dll
 0001:00074df0       _PostMessageA@16           00475df0 f   user32:USER32.dll
 0001:00074df6       _InvertRect@8              00475df6 f   user32:USER32.dll
 0001:00074dfc       _PtInRect@12               00475dfc f   user32:USER32.dll
 0001:00074e02       _EnableWindow@8            00475e02 f   user32:USER32.dll
 0001:00074e08       _SetTimer@16               00475e08 f   user32:USER32.dll
 0001:00074e0e       _ClipCursor@4              00475e0e f   user32:USER32.dll
 0001:00074e14       _SetCapture@4              00475e14 f   user32:USER32.dll
 0001:00074e1a       _ReleaseCapture@0          00475e1a f   user32:USER32.dll
 0001:00074e20       _GetCapture@0              00475e20 f   user32:USER32.dll
 0001:00074e26       _SetRect@20                00475e26 f   user32:USER32.dll
 0001:00074e2c       _OffsetRect@12             00475e2c f   user32:USER32.dll
 0001:00074e32       _InflateRect@12            00475e32 f   user32:USER32.dll
 0001:00074e38       _DrawEdge@16               00475e38 f   user32:USER32.dll
 0001:00074e3e       _IsWindowVisible@4         00475e3e f   user32:USER32.dll
 0001:00074e44       _CopyRect@8                00475e44 f   user32:USER32.dll
 0001:00074e4a       _IsRectEmpty@4             00475e4a f   user32:USER32.dll
 0001:00074e50       _WindowFromPoint@8         00475e50 f   user32:USER32.dll
 0001:00074e56       _ClientToScreen@8          00475e56 f   user32:USER32.dll
 0001:00074e5c       _GetNextDlgTabItem@12      00475e5c f   user32:USER32.dll
 0001:00074e62       _DrawFocusRect@8           00475e62 f   user32:USER32.dll
 0001:00074e68       _MessageBoxA@16            00475e68 f   user32:USER32.dll
 0001:00074e6e       _SendNotifyMessageA@16     00475e6e f   user32:USER32.dll
 0001:00074e74       _RedrawWindow@16           00475e74 f   user32:USER32.dll
 0001:00074e7a       _UpdateWindow@4            00475e7a f   user32:USER32.dll
 0001:00074e80       _ValidateRect@8            00475e80 f   user32:USER32.dll
 0001:00074e86       _SetWindowPos@28           00475e86 f   user32:USER32.dll
 0001:00074e8c       _GetWindowRect@8           00475e8c f   user32:USER32.dll
 0001:00074e92       _FindWindowA@8             00475e92 f   user32:USER32.dll
 0001:00074e98       _SetForegroundWindow@4     00475e98 f   user32:USER32.dll
 0001:00074e9e       _ShowWindow@8              00475e9e f   user32:USER32.dll
 0001:00074ea4       _IsIconic@4                00475ea4 f   user32:USER32.dll
 0001:00074eaa       _LoadIconA@8               00475eaa f   user32:USER32.dll
 0001:00074eb0       _DrawIcon@16               00475eb0 f   user32:USER32.dll
 0001:00074eb6       _GetSystemMetrics@4        00475eb6 f   user32:USER32.dll
 0001:00074ebc       _LoadImageA@24             00475ebc f   user32:USER32.dll
 0001:00074ec2       _AppendMenuA@16            00475ec2 f   user32:USER32.dll
 0001:00074ec8       _GetSystemMenu@8           00475ec8 f   user32:USER32.dll
 0001:00074ece       _AdjustWindowRectEx@16     00475ece f   user32:USER32.dll
 0001:00074ed4       _GetUpdateRect@12          00475ed4 f   user32:USER32.dll
 0001:00074eda       _SetRectEmpty@4            00475eda f   user32:USER32.dll
 0001:00074ee0       _GetActiveWindow@0         00475ee0 f   user32:USER32.dll
 0001:00074ee6       _BringWindowToTop@4        00475ee6 f   user32:USER32.dll
 0001:00074eec       _DestroyIcon@4             00475eec f   user32:USER32.dll
 0001:00074ef2       _DeleteObject@4            00475ef2 f   gdi32:GDI32.dll
 0001:00074ef8       _CreateFontIndirectA@4     00475ef8 f   gdi32:GDI32.dll
 0001:00074efe       _BitBlt@36                 00475efe f   gdi32:GDI32.dll
 0001:00074f04       _CreateCompatibleBitmap@12 00475f04 f   gdi32:GDI32.dll
 0001:00074f0a       _CreateCompatibleDC@4      00475f0a f   gdi32:GDI32.dll
 0001:00074f10       _CreatePen@12              00475f10 f   gdi32:GDI32.dll
 0001:00074f16       _PtVisible@12              00475f16 f   gdi32:GDI32.dll
 0001:00074f1c       _RectVisible@8             00475f1c f   gdi32:GDI32.dll
 0001:00074f22       _GetTextExtentPoint32A@16  00475f22 f   gdi32:GDI32.dll
 0001:00074f28       _GetTextMetricsA@8         00475f28 f   gdi32:GDI32.dll
 0001:00074f2e       _GetObjectA@12             00475f2e f   gdi32:GDI32.dll
 0001:00074f34       _TextOutA@20               00475f34 f   gdi32:GDI32.dll
 0001:00074f3a       _ExtTextOutA@32            00475f3a f   gdi32:GDI32.dll
 0001:00074f40       _Escape@20                 00475f40 f   gdi32:GDI32.dll
 0001:00074f46       _AbortDoc@4                00475f46 f   gdi32:GDI32.dll
 0001:00074f4c       _EndDoc@4                  00475f4c f   gdi32:GDI32.dll
 0001:00074f52       _EndPage@4                 00475f52 f   gdi32:GDI32.dll
 0001:00074f58       _StartPage@4               00475f58 f   gdi32:GDI32.dll
 0001:00074f5e       _GetDeviceCaps@8           00475f5e f   gdi32:GDI32.dll
 0001:00074f64       _StartDocA@8               00475f64 f   gdi32:GDI32.dll
 0001:00074f6a       _CreateFontA@56            00475f6a f   gdi32:GDI32.dll
 0001:00074f70       _GetCurrentObject@8        00475f70 f   gdi32:GDI32.dll
 0001:00074f76       _Rectangle@20              00475f76 f   gdi32:GDI32.dll
 0001:00074f7c       _GetBkColor@4              00475f7c f   gdi32:GDI32.dll
 0001:00074f82       _DPtoLP@12                 00475f82 f   gdi32:GDI32.dll
 0001:00074f88       _GetMapMode@4              00475f88 f   gdi32:GDI32.dll
 0001:00074f8e       _LPtoDP@12                 00475f8e f   gdi32:GDI32.dll
 0001:00074f94       _Polygon@12                00475f94 f   gdi32:GDI32.dll
 0001:00074f9a       _CreateSolidBrush@4        00475f9a f   gdi32:GDI32.dll
 0001:00074fa0       _CreatePolygonRgn@12       00475fa0 f   gdi32:GDI32.dll
 0001:00074fa6       _Arc@36                    00475fa6 f   gdi32:GDI32.dll
 0001:00074fac       _Ellipse@20                00475fac f   gdi32:GDI32.dll
 0001:00074fb2       _PatBlt@24                 00475fb2 f   gdi32:GDI32.dll
 0001:00074fb8       _RegCloseKey@4             00475fb8 f   advapi32:ADVAPI32.dll
 0001:00074fbe       _RegQueryValueExA@24       00475fbe f   advapi32:ADVAPI32.dll
 0001:00074fc4       _RegOpenKeyExA@20          00475fc4 f   advapi32:ADVAPI32.dll
 0001:00074fca       _Shell_NotifyIconA@8       00475fca f   shell32:SHELL32.dll
 0001:00074fd0       _ImageList_GetImageInfo@12 00475fd0 f   comctl32:COMCTL32.dll
 0001:00074fd6       _ImageList_AddMasked@12    00475fd6 f   comctl32:COMCTL32.dll
 0001:00074fdc       _ImageList_Draw@24         00475fdc f   comctl32:COMCTL32.dll
 0001:00074fe2       _OleInitialize@4           00475fe2 f   ole32:ole32.dll
 0001:00074fe8       _OleUninitialize@0         00475fe8 f   ole32:ole32.dll
 0001:00074fee       _CoInitialize@4            00475fee f   ole32:ole32.dll
 0001:00074ff4       _CoUninitialize@0          00475ff4 f   ole32:ole32.dll
 0001:00074ffa       _SysFreeString@4           00475ffa f   oleaut32:OLEAUT32.dll
 0001:00075000       _VariantClear@4            00476000 f   oleaut32:OLEAUT32.dll
 0001:00075006       _SysAllocStringLen@8       00476006 f   oleaut32:OLEAUT32.dll
 0001:0007500c       _SysStringLen@4            0047600c f   oleaut32:OLEAUT32.dll
 0001:00075012       _SafeArrayUnaccessData@4   00476012 f   oleaut32:OLEAUT32.dll
 0001:00075018       _SafeArrayGetUBound@12     00476018 f   oleaut32:OLEAUT32.dll
 0001:0007501e       _SafeArrayGetLBound@12     0047601e f   oleaut32:OLEAUT32.dll
 0001:00075024       _SafeArrayAccessData@8     00476024 f   oleaut32:OLEAUT32.dll
 0001:0007502a       _ntohs@4                   0047602a f   wsock32:WSOCK32.dll
 0001:00075030       _getservbyname@8           00476030 f   wsock32:WSOCK32.dll
 0001:00075036       _WSAStartup@8              00476036 f   wsock32:WSOCK32.dll
 0001:0007503c       _WSACleanup@0              0047603c f   wsock32:WSOCK32.dll
 0001:00075042       _WSAGetLastError@0         00476042 f   wsock32:WSOCK32.dll
 0001:00075048       _closesocket@4             00476048 f   wsock32:WSOCK32.dll
 0001:0007504e       _accept@12                 0047604e f   wsock32:WSOCK32.dll
 0001:00075054       _listen@8                  00476054 f   wsock32:WSOCK32.dll
 0001:0007505a       _bind@12                   0047605a f   wsock32:WSOCK32.dll
 0001:00075060       _setsockopt@20             00476060 f   wsock32:WSOCK32.dll
 0001:00075066       _htons@4                   00476066 f   wsock32:WSOCK32.dll
 0001:0007506c       _htonl@4                   0047606c f   wsock32:WSOCK32.dll
 0001:00075072       _socket@12                 00476072 f   wsock32:WSOCK32.dll
 0001:00075078       _shutdown@8                00476078 f   wsock32:WSOCK32.dll
 0001:0007507e       _inet_ntoa@4               0047607e f   wsock32:WSOCK32.dll
 0001:00075084       _connect@12                00476084 f   wsock32:WSOCK32.dll
 0001:0007508a       _send@16                   0047608a f   wsock32:WSOCK32.dll
 0001:00075090       _recv@16                   00476090 f   wsock32:WSOCK32.dll
 0001:00075096       _inet_addr@4               00476096 f   wsock32:WSOCK32.dll
 0001:0007509c       _gethostbyname@4           0047609c f   wsock32:WSOCK32.dll
 0001:000750a2       _gethostname@8             004760a2 f   wsock32:WSOCK32.dll
 0001:000750a8       _select@20                 004760a8 f   wsock32:WSOCK32.dll
 0001:000750ae       _WinMain@16                004760ae f   mfcs42:appmodul.obj
 0001:000750c6       ?AfxInitialize@@YGHHK@Z    004760c6 f   mfcs42:appmodul.obj
 0001:00075106       __setmbcp                  00476106 f   msvcrt:MSVCRT.dll
 0001:0007510c       ?AfxWinMain@@YGHPAUHINSTANCE__@@0PADH@Z 0047610c f   mfc42:MFC42.DLL
 0002:00000000       ?classCGridCtrl@CGridCtrl@@2UCRuntimeClass@@B 00480000     GridCtrl.obj
 0002:00000018       ?messageMap@CGridCtrl@@1UAFX_MSGMAP@@B 00480018     GridCtrl.obj
 0002:00000020       ?_messageEntries@CGridCtrl@@0QBUAFX_MSGMAP_ENTRY@@B 00480020     GridCtrl.obj
 0002:0000036c       ??_7CGridCtrl@@6B@         0048036c     GridCtrl.obj
 0002:000004ec       ??_7?$CMap@KKVCCellID@@AAV1@@@6B@ 004804ec     GridCtrl.obj
 0002:00000504       ??_7?$CTypedPtrArray@VCObArray@@PAV?$CTypedPtrArray@VCObArray@@PAVCGridCell@@@@@@6B@ 00480504     GridCtrl.obj
 0002:0000051c       ??_7CFont@@6B@             0048051c     GridCtrl.obj
 0002:00000534       ??_7CGdiObject@@6B@        00480534     GridCtrl.obj
 0002:0000054c       ??_7CObject@@6B@           0048054c     GridCtrl.obj
 0002:00000564       ??_7CMemDC@@6B@            00480564     GridCtrl.obj
 0002:000005f8       ??_7CBitmap@@6B@           004805f8     GridCtrl.obj
 0002:00000610       ??_7CBrush@@6B@            00480610     GridCtrl.obj
 0002:00000628       ??_7CPen@@6B@              00480628     GridCtrl.obj
 0002:00000640       ??_7?$CTypedPtrArray@VCObArray@@PAVCGridCell@@@@6B@ 00480640     GridCtrl.obj
 0002:00000658       ??_7CGridCell@@6B@         00480658     GridCtrl.obj
 0002:00000670       ??_7CFileException@@6B@    00480670     GridCtrl.obj
 0002:00000698       ?messageMap@CGridDropTarget@@1UAFX_MSGMAP@@B 00480698     GridDropTarget.obj
 0002:000006a0       ?_messageEntries@CGridDropTarget@@0QBUAFX_MSGMAP_ENTRY@@B 004806a0     GridDropTarget.obj
 0002:000006c0       ??_7CGridDropTarget@@6B@   004806c0     GridDropTarget.obj
 0002:00000750       ?messageMap@CInPlaceEdit@@1UAFX_MSGMAP@@B 00480750     InPlaceEdit.obj
 0002:00000758       ?_messageEntries@CInPlaceEdit@@0QBUAFX_MSGMAP_ENTRY@@B 00480758     InPlaceEdit.obj
 0002:00000808       ??_7CInPlaceEdit@@6B@      00480808     InPlaceEdit.obj
 0002:000008f0       ??_7CEdit@@6B@             004808f0     InPlaceEdit.obj
 0002:000009d8       ?messageMap@CTitleTip@@1UAFX_MSGMAP@@B 004809d8     TitleTip.obj
 0002:000009e0       ?_messageEntries@CTitleTip@@0QBUAFX_MSGMAP_ENTRY@@B 004809e0     TitleTip.obj
 0002:00000a1c       ??_7CTitleTip@@6B@         00480a1c     TitleTip.obj
 0002:00000b08       ?messageMap@C3DMeterCtrl@@1UAFX_MSGMAP@@B 00480b08     3DMeterCtrl.obj
 0002:00000b10       ?_messageEntries@C3DMeterCtrl@@0QBUAFX_MSGMAP_ENTRY@@B 00480b10     3DMeterCtrl.obj
 0002:00000b68       ??_7C3DMeterCtrl@@6B@      00480b68     3DMeterCtrl.obj
 0002:00000c50       ??_7CRgn@@6B@              00480c50     3DMeterCtrl.obj
 0002:00000c68       ??_7CStatic@@6B@           00480c68     3DMeterCtrl.obj
 0002:00000d50       ??_7CMemDC1@@6B@           00480d50     3DMeterCtrl.obj
 0002:00000de8       __real@8@3ffe8000000000000000 00480de8     3DMeterCtrl.obj
 0002:00000df8       __real@8@00000000000000000000 00480df8     3DMeterCtrl.obj
 0002:00000e08       __real@8@4005d200000000000000 00480e08     3DMeterCtrl.obj
 0002:00000e18       __real@8@3ffbccccccccccccd000 00480e18     3DMeterCtrl.obj
 0002:00000e28       __real@8@4004f000000000000000 00480e28     3DMeterCtrl.obj
 0002:00000e38       __real@8@4005f000000000000000 00480e38     3DMeterCtrl.obj
 0002:00000e48       __real@8@3ff9b60b60b60b60b800 00480e48     3DMeterCtrl.obj
 0002:00000e58       __real@8@3fff8000000000000000 00480e58     3DMeterCtrl.obj
 0002:00000e68       ?classCBoutonEx@CBoutonEx@@2UCRuntimeClass@@B 00480e68     boutonex.obj
 0002:00000e80       ?messageMap@CBoutonEx@@1UAFX_MSGMAP@@B 00480e80     boutonex.obj
 0002:00000e88       ?_messageEntries@CBoutonEx@@0QBUAFX_MSGMAP_ENTRY@@B 00480e88     boutonex.obj
 0002:00000fcc       ??_7CBoutonEx@@6B@         00480fcc     boutonex.obj
 0002:000010b8       ?classCBrowser@CBrowser@@2UCRuntimeClass@@B 004810b8     browser.obj
 0002:000010d0       ?messageMap@CBrowser@@1UAFX_MSGMAP@@B 004810d0     browser.obj
 0002:000010d8       ?_messageEntries@CBrowser@@0QBUAFX_MSGMAP_ENTRY@@B 004810d8     browser.obj
 0002:00001134       ??_7CBrowser@@6B@          00481134     browser.obj
 0002:00001220       _IID_IDocHostUIHandlerDispatch 00481220     browseraction.obj
 0002:00001238       _IID_IInternalConnection   00481238     browseraction.obj
 0002:00001250       _IID_IAxWinAmbientDispatch 00481250     browseraction.obj
 0002:00001268       _IID_IAxWinHostWindow      00481268     browseraction.obj
 0002:00001280       _IID_IRegistrar            00481280     browseraction.obj
 0002:00001298       _CLSID_Registrar           00481298     browseraction.obj
 0002:000012b0       _LIBID_ATLLib              004812b0     browseraction.obj
 0002:000012c4       ??_7CBrowserAction@@6B@    004812c4     browseraction.obj
 0002:000012c8       ?classCBrowserSink@CBrowserSink@@2UCRuntimeClass@@B 004812c8     browsersink.obj
 0002:000012e0       ?messageMap@CBrowserSink@@1UAFX_MSGMAP@@B 004812e0     browsersink.obj
 0002:000012e8       ?_messageEntries@CBrowserSink@@0QBUAFX_MSGMAP_ENTRY@@B 004812e8     browsersink.obj
 0002:00001300       ?dispatchMap@CBrowserSink@@1UAFX_DISPMAP@@B 00481300     browsersink.obj
 0002:00001310       ?_dispatchEntries@CBrowserSink@@0QBUAFX_DISPMAP_ENTRY@@B 00481310     browsersink.obj
 0002:0000136c       ??_7CBrowserSink@@6B@      0048136c     browsersink.obj
 0002:000013d8       ?messageMap@CCheckBoxEx@@1UAFX_MSGMAP@@B 004813d8     checkboxex.obj
 0002:000013e0       ?_messageEntries@CCheckBoxEx@@0QBUAFX_MSGMAP_ENTRY@@B 004813e0     checkboxex.obj
 0002:000014ac       ??_7CCheckBoxEx@@6B@       004814ac     checkboxex.obj
 0002:00001598       ??_7CButton@@6B@           00481598     checkboxex.obj
 0002:00001688       ?messageMap@CComboEx@@1UAFX_MSGMAP@@B 00481688     comboex.obj
 0002:00001690       ?_messageEntries@CComboEx@@0QBUAFX_MSGMAP_ENTRY@@B 00481690     comboex.obj
 0002:000017d0       ??_7CComboEx@@6B@          004817d0     comboex.obj
 0002:000018cc       ??_7CComboBox@@6B@         004818cc     comboex.obj
 0002:000019c8       ?messageMap@CEditEx@@1UAFX_MSGMAP@@B 004819c8     editex.obj
 0002:000019d0       ?_messageEntries@CEditEx@@0QBUAFX_MSGMAP_ENTRY@@B 004819d0     editex.obj
 0002:00001a9c       ??_7CEditEx@@6B@           00481a9c     editex.obj
 0002:00001b88       ?messageMap@CEditMultiEx@@1UAFX_MSGMAP@@B 00481b88     editmultiex.obj
 0002:00001b90       ?_messageEntries@CEditMultiEx@@0QBUAFX_MSGMAP_ENTRY@@B 00481b90     editmultiex.obj
 0002:00001c78       ??_7CEditMultiEx@@6B@      00481c78     editmultiex.obj
 0002:00001d60       ??_7CGestMemoire@@6B@      00481d60     GestMemoire.obj
 0002:00001d94       ??_7CGestOsys@@6B@         00481d94     GestOsys.obj
 0002:00001d98       ??_7CListActTf@@6B@        00481d98     listacttf.obj
 0002:00001da0       ?messageMap@CListEx@@1UAFX_MSGMAP@@B 00481da0     listex.obj
 0002:00001da8       ?_messageEntries@CListEx@@0QBUAFX_MSGMAP_ENTRY@@B 00481da8     listex.obj
 0002:00001ee8       ??_7CListEx@@6B@           00481ee8     listex.obj
 0002:00001fec       ??_7CListBox@@6B@          00481fec     listex.obj
 0002:000020f0       ??_7CListFrame@@6B@        004820f0     ListFrame.obj
 0002:000020f4       ??_7CListIDObjet@@6B@      004820f4     ListIDObjet.obj
 0002:000020f8       ??_7CIdOsysObjet@@6B@      004820f8     ListIDObjet.obj
 0002:000020fc       ??_7CMemObj@@6B@           004820fc     ListMemObj.obj
 0002:00002100       ??_7CListMemObj@@6B@       00482100     ListMemObj.obj
 0002:00002104       ??_7CListOsysObjet@@6B@    00482104     listosysobjet.obj
 0002:00002108       ??_7CListPropMem@@6B@      00482108     ListPropMem.obj
 0002:0000210c       ??_7CAssPropMem@@6B@       0048210c     ListPropMem.obj
 0002:00002110       ??_7COsys3DMeterCtrl@@6B@  00482110     Osys3DMeterCtrl.obj
 0002:00002154       ??_7COsysBouton@@6B@       00482154     OsysBouton.obj
 0002:00002198       ??_7COsysChaineMulti@@6B@  00482198     OsysChaineMulti.obj
 0002:000021dc       ??_7COsysChaineSimple@@6B@ 004821dc     OsysChaineSimple.obj
 0002:00002220       ??_7COsysCheckBox@@6B@     00482220     OsysCheckBox.obj
 0002:00002264       ??_7COsysCirc@@6B@         00482264     OsysCirc.obj
 0002:000022a8       ??_7COsysCircPlein@@6B@    004822a8     OsysCircPlein.obj
 0002:000022ec       ??_7COsysCombo@@6B@        004822ec     OsysCombo.obj
 0002:00002330       ??_7COsysEdit@@6B@         00482330     OsysEdit.obj
 0002:00002374       ??_7COsysEditMulti@@6B@    00482374     OsysEditMulti.obj
 0002:000023b8       ??_7COsysLine@@6B@         004823b8     OsysLine.obj
 0002:000023fc       ??_7COsysListe@@6B@        004823fc     OsysListe.obj
 0002:00002440       ??_7COsysObjet@@6B@        00482440     OsysObjet.obj
 0002:00002484       ??_7COsysRadioGroup@@6B@   00482484     OsysRadioGroup.obj
 0002:000024c8       ??_7COsysRect@@6B@         004824c8     OsysRect.obj
 0002:0000250c       ??_7COsysRectPlein@@6B@    0048250c     OsysRectPlein.obj
 0002:00002550       ??_7COsysTableau@@6B@      00482550     OsysTableau.obj
 0002:00002594       ??_7COsysWebBrowser@@6B@   00482594     OsysWebBrowser.obj
 0002:000025d8       ??_7COsysZoneDraw@@6B@     004825d8     OsysZoneDraw.obj
 0002:0000261c       ??_7CDefGraphique@@6B@     0048261c     OsysZoneDraw.obj
 0002:00002620       ?messageMap@CRadioEx@@1UAFX_MSGMAP@@B 00482620     radioex.obj
 0002:00002628       ?_messageEntries@CRadioEx@@0QBUAFX_MSGMAP_ENTRY@@B 00482628     radioex.obj
 0002:00002710       ??_7CRadioEx@@6B@          00482710     radioex.obj
 0002:00002800       ?classCTableauEx@CTableauEx@@2UCRuntimeClass@@B 00482800     TableauEx.obj
 0002:00002818       ?messageMap@CTableauEx@@1UAFX_MSGMAP@@B 00482818     TableauEx.obj
 0002:00002820       ?_messageEntries@CTableauEx@@0QBUAFX_MSGMAP_ENTRY@@B 00482820     TableauEx.obj
 0002:000028d4       ??_7CTableauEx@@6B@        004828d4     TableauEx.obj
 0002:00002a58       ?classCWebBrowser2@CWebBrowser2@@2UCRuntimeClass@@B 00482a58     webbrowser2.obj
 0002:00002a74       ??_7CWebBrowser2@@6B@      00482a74     webbrowser2.obj
 0002:00002b60       ?clsid@?1??GetClsid@CWebBrowser2@@QAEABU_GUID@@XZ@4U3@B 00482b60     webbrowser2.obj
 0002:00002b78       ?messageMap@CWebBrowserEx@@1UAFX_MSGMAP@@B 00482b78     WebBrowserEx.obj
 0002:00002b80       ?_messageEntries@CWebBrowserEx@@0QBUAFX_MSGMAP_ENTRY@@B 00482b80     WebBrowserEx.obj
 0002:00002c4c       ??_7CWebBrowserEx@@6B@     00482c4c     WebBrowserEx.obj
 0002:00002d38       ?messageMap@CZoneDrawEx@@1UAFX_MSGMAP@@B 00482d38     zonedrawex.obj
 0002:00002d40       ?_messageEntries@CZoneDrawEx@@0QBUAFX_MSGMAP_ENTRY@@B 00482d40     zonedrawex.obj
 0002:00002e0c       ??_7CZoneDrawEx@@6B@       00482e0c     zonedrawex.obj
 0002:00003028       ??_7CFichier@@6B@          00483028     Fichier.obj
 0002:0000302c       ??_7CFichierTemp@@6B@      0048302c     FichierTemp.obj
 0002:00003038       ??_7CImprime@@6B@          00483038     Imprime.obj
 0002:00003094       ??_7CInputOutputArchive@@6B@ 00483094     InputOutputArchive.obj
 0002:000030b8       ??_7CInputOutputStringArchive@@6B@ 004830b8     InputOutputStringArchive.obj
 0002:0000311c       ??_7CRepertoire@@6B@       0048311c     Repertoire.obj
 0002:00003120       ??_7CServeurArchive@@6B@   00483120     ServeurArchive.obj
 0002:00003138       ??_7CServeurTCP@@6B@       00483138     ServeurTCP.obj
 0002:00003154       ??_7CSocketArchive@@6B@    00483154     SocketArchive.obj
 0002:00003184       ??_7CSocketMiniTCP@@6B@    00483184     SocketMiniTCP.obj
 0002:000031a8       ??_7CSocketServeurArchive@@6B@ 004831a8     SocketServeurArchive.obj
 0002:000031d8       ??_7CSocketTCP@@6B@        004831d8     SocketTCP.obj
 0002:0000321c       ??_7CResultatRequete@@6B@  0048321c     ResultatRequete.obj
 0002:00003220       ??_7CStructureDefChamp@@6B@ 00483220     StructureDB.obj
 0002:00003224       ??_7ClientMemoire@@6B@     00483224     ClMemoire.obj
 0002:00003258       ??_7ClientOsysSrv@@6B@     00483258     COsysSrv.obj
 0002:00003290       ?messageMap@CDconnexionServeur@@1UAFX_MSGMAP@@B 00483290     dconnexionserveur.obj
 0002:00003298       ?_messageEntries@CDconnexionServeur@@0QBUAFX_MSGMAP_ENTRY@@B 00483298     dconnexionserveur.obj
 0002:000032f0       ??_7CDconnexionServeur@@6B@ 004832f0     dconnexionserveur.obj
 0002:000033f8       ?messageMap@CDCoupureReseau@@1UAFX_MSGMAP@@B 004833f8     dcoupurereseau.obj
 0002:00003400       ?_messageEntries@CDCoupureReseau@@0QBUAFX_MSGMAP_ENTRY@@B 00483400     dcoupurereseau.obj
 0002:000034b0       ??_7CDCoupureReseau@@6B@   004834b0     dcoupurereseau.obj
 0002:000035b8       ?messageMap@CDPerteConnexion@@1UAFX_MSGMAP@@B 004835b8     dperteconnexion.obj
 0002:000035c0       ?_messageEntries@CDPerteConnexion@@0QBUAFX_MSGMAP_ENTRY@@B 004835c0     dperteconnexion.obj
 0002:000035fc       ??_7CDPerteConnexion@@6B@  004835fc     dperteconnexion.obj
 0002:00003700       ??_7CResultatFenetre@@6B@  00483700     ResultatFenetre.obj
 0002:00003704       ??_7CFileSPV@@6B@          00483704     FileSPV.obj
 0002:00003708       ??_7GestConfigSPC@@6B@     00483708     GestConfigSPC.obj
 0002:0000370c       ??_7CGestSPC@@6B@          0048370c     GestSPC.obj
 0002:00003710       ??_7CParamSPC@@6B@         00483710     ParamSPC.obj
 0002:00003714       ??_7CGestTrace@@6B@        00483714     GestTrace.obj
 0002:00003718       ?messageMap@CClientSxaoApp@@1UAFX_MSGMAP@@B 00483718     ClientSxao.obj
 0002:00003720       ?_messageEntries@CClientSxaoApp@@0QBUAFX_MSGMAP_ENTRY@@B 00483720     ClientSxao.obj
 0002:0000375c       ??_7CClientSxaoApp@@6B@    0048375c     ClientSxao.obj
 0002:00003820       ?messageMap@CClientSxaoDlg@@1UAFX_MSGMAP@@B 00483820     ClientSxaoDlg.obj
 0002:00003828       ?_messageEntries@CClientSxaoDlg@@0QBUAFX_MSGMAP_ENTRY@@B 00483828     ClientSxaoDlg.obj
 0002:00003a30       ??_7CClientSxaoDlg@@6B@    00483a30     ClientSxaoDlg.obj
 0002:00003b34       ??_7CCommandLineSxao@@6B@  00483b34     CommandLineSxao.obj
 0002:00003b50       ??_7CConfiguration@@6B@    00483b50     Configuration.obj
 0002:00003b54       ??_7CModifMem@@6B@         00483b54     ModifMem.obj
 0002:00003b58       ?classCOsysFrame@COsysFrame@@2UCRuntimeClass@@B 00483b58     osysframe.obj
 0002:00003b70       ?messageMap@COsysFrame@@1UAFX_MSGMAP@@B 00483b70     osysframe.obj
 0002:00003b78       ?_messageEntries@COsysFrame@@0QBUAFX_MSGMAP_ENTRY@@B 00483b78     osysframe.obj
 0002:00003ce0       ?messageMap@CAboutDlg@@1UAFX_MSGMAP@@B 00483ce0     osysframe.obj
 0002:00003ce8       ?_messageEntries@CAboutDlg@@0QBUAFX_MSGMAP_ENTRY@@B 00483ce8     osysframe.obj
 0002:00003d54       ??_7COsysFrame@@6B@        00483d54     osysframe.obj
 0002:00003e90       __real@8@3fffc000000000000000 00483e90     osysframe.obj
 0002:00003ea0       __real@8@3ffd8000000000000000 00483ea0     osysframe.obj
 0002:00003eb0       __real@8@3ffec000000000000000 00483eb0     osysframe.obj
 0002:00003ec0       __real@8@3ffce38e38e38e38e000 00483ec0     osysframe.obj
 0002:00003ed0       __real@8@4002a000000000000000 00483ed0     osysframe.obj
 0002:00003ee0       __real@8@3ffde38e38e38e38e000 00483ee0     osysframe.obj
 0002:00003ef0       __real@8@3ffeaaaaaaaaaaaaa800 00483ef0     osysframe.obj
 0002:00003f00       __real@8@40018000000000000000 00483f00     osysframe.obj
 0002:00003f10       __real@8@3fffaaaaaaaaaaaaa800 00483f10     osysframe.obj
 0002:00003f1c       ??_7CAboutDlg@@6B@         00483f1c     osysframe.obj
 0002:00004024       ??_7type_info@@6B@         00484024     msvcrt:ti_inst.obj
 0002:00004038       _IID_IWebBrowser2          00484038     uuid:exdisp_i_guid4.obj
 0002:00004048       _CLSID_WebBrowser          00484048     uuid:exdisp_i_guid7.obj
 0002:00004058       _GUID_NULL                 00484058     uuid:cguid_i_guid0.obj
 0002:00004068       _IID_IHTMLDocument2        00484068     uuid:mshtml_i_guid177.obj
 0002:00004078       _DIID_DWebBrowserEvents2   00484078     uuid:exdisp_i_guid5.obj
 0002:00004220       ??_R1A@?0A@A@type_info@@8  00484220     msvcrt:ti_inst.obj
 0002:00004238       ??_R2type_info@@8          00484238     msvcrt:ti_inst.obj
 0002:00004240       ??_R3type_info@@8          00484240     msvcrt:ti_inst.obj
 0002:00004250       ??_R4type_info@@6B@        00484250     msvcrt:ti_inst.obj
 0002:000098e0       __CT??_R0PAX@84            004898e0     ServeurArchive.obj
 0002:00009900       __CT??_R0PAD@84            00489900     ServeurArchive.obj
 0002:00009920       __CTA2PAD                  00489920     ServeurArchive.obj
 0002:00009930       __TI2PAD                   00489930     ServeurArchive.obj
 0002:00009ca0       __CT??_R0PAVCGestErreurSocket@@@84 00489ca0     SocketArchive.obj
 0002:00009cc0       __CTA2PAVCGestErreurSocket@@ 00489cc0     SocketArchive.obj
 0002:00009cd0       __TI2PAVCGestErreurSocket@@ 00489cd0     SocketArchive.obj
 0003:00000000       ___xc_a                    00493000     msvcrt:cinitexe.obj
 0003:00000314       ___xc_z                    00493314     msvcrt:cinitexe.obj
 0003:00000418       ___xi_a                    00493418     msvcrt:cinitexe.obj
 0003:0000051c       ___xi_z                    0049351c     msvcrt:cinitexe.obj
 0003:00000620       ??_C@_09CJCG@CGridCtrl?$AA@ 00493620     GridCtrl.obj
 0003:0000062c       ??_C@_0BB@IMJB@WheelScrollLines?$AA@ 0049362c     GridCtrl.obj
 0003:00000640       ??_C@_0BG@EBPD@Control?5Panel?2Desktop?$AA@ 00493640     GridCtrl.obj
 0003:0000065c       ??_C@_0FE@LPCH@OLE?5initialization?5failed?4?5Make?5@ 0049365c     GridCtrl.obj
 0003:000006c0       ??_C@_0M@EOAH@MFCGridCtrl?$AA@ 004936c0     GridCtrl.obj
 0003:000006d0       ??_R0PAVCMemoryException@@@8 004936d0     GridCtrl.obj
 0003:000006f8       ??_R0PAVCResourceException@@@8 004936f8     GridCtrl.obj
 0003:00000720       ??_R0PAVCException@@@8     00493720     GridCtrl.obj
 0003:00000740       ??_C@_01BJG@?6?$AA@        00493740     GridCtrl.obj
 0003:00000744       ??_C@_01POCP@?7?$AA@       00493744     GridCtrl.obj
 0003:00000748       ??_C@_01FCOA@?5?$AA@       00493748     GridCtrl.obj
 0003:0000074c       ??_C@_03PJJJ@?7?0?6?$AA@   0049374c     GridCtrl.obj
 0003:00000750       ??_C@_0DG@ILKK@abcdefghijklmnopqrstuvwxyzABCDEF@ 00493750     GridCtrl.obj
 0003:00000790       ??_C@_0BA@MIDB@Times?5New?5Roman?$AA@ 00493790     GridCtrl.obj
 0003:000007a4       ??_C@_02JBML@?$CFc?$AA@    004937a4     GridCtrl.obj
 0003:000007a8       ??_C@_0O@KODI@Page?5?$CFd?5of?5?$CFd?$AA@ 004937a8     GridCtrl.obj
 0003:000007b8       ??_R0PAVCFileException@@@8 004937b8     GridCtrl.obj
 0003:000007dc       ??_C@_0BJ@FAJH@Unable?5to?5save?5grid?5list?$AA@ 004937dc     GridCtrl.obj
 0003:000007fc       ??_C@_01KMAE@?0?$AA@       004937fc     GridCtrl.obj
 0003:00000800       ??_C@_0BJ@BNMG@Unable?5to?5load?5grid?5data?$AA@ 00493800     GridCtrl.obj
 0003:00000820       ??_C@_02IHLC@?5?5?$AA@     00493820     InPlaceEdit.obj
 0003:00000824       ??_C@_09NIJK@ZTitleTip?$AA@ 00493824     TitleTip.obj
 0003:00000830       ??_C@_05PADM@Watts?$AA@    00493830     3DMeterCtrl.obj
 0003:00000838       ??_C@_04GBEO@?$CF?4?$CKf?$AA@ 00493838     3DMeterCtrl.obj
 0003:00000840       ??_C@_05JFDC@?$CF?4?$CKlf?$AA@ 00493840     3DMeterCtrl.obj
 0003:00000848       ??_C@_05CNHG@Arial?$AA@    00493848     3DMeterCtrl.obj
 0003:00000850       ??_C@_09DGLK@CBoutonEx?$AA@ 00493850     boutonex.obj
 0003:0000085c       ??_C@_01EMIF@?$KH?$AA@     0049385c     boutonex.obj
 0003:00000860       ??_C@_02PIMC@?$AN?6?$AA@   00493860     boutonex.obj
 0003:00000864       ??_C@_08JDAL@CBrowser?$AA@ 00493864     browser.obj
 0003:00000870       ?CONNECT_COMMAND@@3PBDB    00493870     browseraction.obj
 0003:00000874       ?DISCONNECT_COMMAND@@3PBDB 00493874     browseraction.obj
 0003:00000878       ?PARAMETERS_COMMAND@@3PBDB 00493878     browseraction.obj
 0003:0000087c       ?EXECUTE_LPX_COMMAND@@3PBDB 0049387c     browseraction.obj
 0003:00000880       ?REFRESH_MEMORY_COMMAND@@3PBDB 00493880     browseraction.obj
 0003:00000884       ?WRITE_MEMORY_COMMAND@@3PBDB 00493884     browseraction.obj
 0003:00000888       ?REFRESH_MEMORY_INDEX_COMMAND@@3PBDB 00493888     browseraction.obj
 0003:0000088c       ?WRITE_MEMORY_INDEX_COMMAND@@3PBDB 0049388c     browseraction.obj
 0003:00000890       ?OPEN_WINDOW_COMMAND@@3PBDB 00493890     browseraction.obj
 0003:00000894       ?CLOSE_WINDOW_COMMAND@@3PBDB 00493894     browseraction.obj
 0003:00000898       ?LISTEN_MEMORY@@3PBDB      00493898     browseraction.obj
 0003:0000089c       ?LISTEN_MEMORIES@@3PBDB    0049389c     browseraction.obj
 0003:000008a0       ?RESIZE_WINDOW@@3PBDB      004938a0     browseraction.obj
 0003:000008b0       ??_C@_0N@PDGG@resizeWindow?$AA@ 004938b0     browseraction.obj
 0003:000008c0       ??_C@_0P@PLOE@listenMemories?$AA@ 004938c0     browseraction.obj
 0003:000008d4       ??_C@_0N@HNPL@listenMemory?$AA@ 004938d4     browseraction.obj
 0003:000008e4       ??_C@_0M@OHFK@closeWindow?$AA@ 004938e4     browseraction.obj
 0003:000008f4       ??_C@_0L@PGKC@openWindow?$AA@ 004938f4     browseraction.obj
 0003:00000904       ??_C@_0BB@LEGK@writeMemoryIndex?$AA@ 00493904     browseraction.obj
 0003:00000918       ??_C@_0BD@BGJB@refreshMemoryIndex?$AA@ 00493918     browseraction.obj
 0003:00000930       ??_C@_0M@FOOI@writeMemory?$AA@ 00493930     browseraction.obj
 0003:00000940       ??_C@_0O@MACN@refreshMemory?$AA@ 00493940     browseraction.obj
 0003:00000950       ??_C@_0L@HGNB@executeLPX?$AA@ 00493950     browseraction.obj
 0003:00000960       ??_C@_0L@ENCO@parameters?$AA@ 00493960     browseraction.obj
 0003:00000970       ??_C@_0L@FPLB@disconnect?$AA@ 00493970     browseraction.obj
 0003:00000980       ??_C@_07DHIJ@connect?$AA@  00493980     browseraction.obj
 0003:00000990       ?GUID_ATLVer30@ATL@@3U_GUID@@A 00493990     browseraction.obj
 0003:000009a4       ??_C@_0BC@BMJK@updateMemoryIndex?$AA@ 004939a4     browseraction.obj
 0003:000009bc       ??_C@_0N@MGLF@updateMemory?$AA@ 004939bc     browseraction.obj
 0003:000009cc       ??_C@_01PLJA@0?$AA@        004939cc     browseraction.obj
 0003:000009d0       ??_C@_03HPMG@End?$AA@      004939d0     browseraction.obj
 0003:000009d4       ??_C@_03BJDM@Top?$AA@      004939d4     browseraction.obj
 0003:000009d8       ??_C@_05IMKO@Start?$AA@    004939d8     browseraction.obj
 0003:000009e0       ??_C@_09BLIH@TRACE_MEM?$AA@ 004939e0     browseraction.obj
 0003:000009ec       ?_dispatchEntryCount@CBrowserSink@@0IA 004939ec     browsersink.obj
 0003:000009f0       ?_dwStockPropMask@CBrowserSink@@0KA 004939f0     browsersink.obj
 0003:000009f8       ??_C@_07LMNJ@?7LLLLLK?$AA@ 004939f8     browsersink.obj
 0003:00000a04       ??_C@_0BA@EODG@BeforeNavigate2?$AA@ 00493a04     browsersink.obj
 0003:00000a18       ??_C@_0N@JEOP@CBrowserSink?$AA@ 00493a18     browsersink.obj
 0003:00000a28       ??_C@_0BF@KFFJ@http?3?1?1serveur?38080?1?$AA@ 00493a28     browsersink.obj
 0003:00000a44       ??_C@_0L@EFOP@command?3?1?1?$AA@ 00493a44     browsersink.obj
 0003:00000a54       ??_C@_01FBAH@1?$AA@        00493a54     checkboxex.obj
 0003:00000a58       ??_C@_07MJOI@Console?$AA@  00493a58     GestOsys.obj
 0003:00000a64       ??_C@_05JNF@5?40?46?$AA@   00493a64     GestOsys.obj
 0003:00000a6c       ??_C@_04MIME@OPEN?$AA@     00493a6c     GestOsys.obj
 0003:00000a74       ??_C@_03BNPA@WIN?$AA@      00493a74     GestOsys.obj
 0003:00000a78       ??_C@_03MFEB@LPX?$AA@      00493a78     GestOsys.obj
 0003:00000a7c       ??_C@_05DCHM@MODIF?$AA@    00493a7c     GestOsys.obj
 0003:00000a84       ??_C@_06JMIA@TF_ACT?$AA@   00493a84     listacttf.obj
 0003:00000a8c       ??_C@_03KNPD@F?$CFd?$AA@   00493a8c     listacttf.obj
 0003:00000a90       ??_C@_03PLEK@PMU?$AA@      00493a90     ListPropMem.obj
 0003:00000a94       ??_C@_01FCCL@?$CF?$AA@     00493a94     Osys3DMeterCtrl.obj
 0003:00000a98       ??_C@_04KLJP@3DME?$AA@     00493a98     Osys3DMeterCtrl.obj
 0003:00000aa0       ??_C@_09ILDO@Vue?5metre?$AA@ 00493aa0     Osys3DMeterCtrl.obj
 0003:00000aac       ??_C@_07IKBJ@VISIBLE?$AA@  00493aac     Osys3DMeterCtrl.obj
 0003:00000ab8       ??_C@_08ELBA@CB_COLOR?$AA@ 00493ab8     Osys3DMeterCtrl.obj
 0003:00000ac4       ??_C@_08KCOA@TL_COLOR?$AA@ 00493ac4     Osys3DMeterCtrl.obj
 0003:00000ad0       ??_C@_08CDIE@FB_COLOR?$AA@ 00493ad0     Osys3DMeterCtrl.obj
 0003:00000adc       ??_C@_07LBG@L_COLOR?$AA@   00493adc     Osys3DMeterCtrl.obj
 0003:00000ae8       ??_C@_07JIMG@B_COLOR?$AA@  00493ae8     Osys3DMeterCtrl.obj
 0003:00000af4       ??_C@_05MOEL@VALUE?$AA@    00493af4     Osys3DMeterCtrl.obj
 0003:00000afc       ??_C@_03OLFE@MAX?$AA@      00493afc     Osys3DMeterCtrl.obj
 0003:00000b00       ??_C@_03IAC@MIN?$AA@       00493b00     Osys3DMeterCtrl.obj
 0003:00000b04       ??_C@_04NILO@TEXT?$AA@     00493b04     Osys3DMeterCtrl.obj
 0003:00000b0c       ??_C@_02MECO@?$CFd?$AA@    00493b0c     Osys3DMeterCtrl.obj
 0003:00000b10       ??_C@_04CELH@Gras?$AA@     00493b10     OsysBouton.obj
 0003:00000b18       ??_C@_06GNMI@Bouton?$AA@   00493b18     OsysBouton.obj
 0003:00000b20       ??_C@_04JPLP@BOUT?$AA@     00493b20     OsysBouton.obj
 0003:00000b28       ??_C@_07KAAK@MULTI_L?$AA@  00493b28     OsysBouton.obj
 0003:00000b34       ??_C@_0BH@MKID@Gras?5Italique?5Souligne?$AA@ 00493b34     OsysBouton.obj
 0003:00000b50       ??_C@_0BC@IOMF@Italique?5Souligne?$AA@ 00493b50     OsysBouton.obj
 0003:00000b68       ??_C@_0O@IKKL@Gras?5Souligne?$AA@ 00493b68     OsysBouton.obj
 0003:00000b78       ??_C@_0O@BCLP@Gras?5Italique?$AA@ 00493b78     OsysBouton.obj
 0003:00000b88       ??_C@_08JAGE@Souligne?$AA@ 00493b88     OsysBouton.obj
 0003:00000b94       ??_C@_08IHA@Italique?$AA@  00493b94     OsysBouton.obj
 0003:00000ba0       ??_C@_08GLNI@Standard?$AA@ 00493ba0     OsysBouton.obj
 0003:00000bac       ??_C@_04OOPF@FONT?$AA@     00493bac     OsysBouton.obj
 0003:00000bb4       ??_C@_05PKFO@V_ACT?$AA@    00493bb4     OsysBouton.obj
 0003:00000bbc       ??_C@_07IHFP@VAL_OBJ?$AA@  00493bbc     OsysBouton.obj
 0003:00000bc8       ??_C@_05JKNB@STR_M?$AA@    00493bc8     OsysChaineMulti.obj
 0003:00000bd0       ??_C@_0BE@CAMD@Cha?nne?5multi?5lignes?$AA@ 00493bd0     OsysChaineMulti.obj
 0003:00000be8       ??_C@_03JBMD@STR?$AA@      00493be8     OsysChaineSimple.obj
 0003:00000bec       ??_C@_06EOMD@Chaine?$AA@   00493bec     OsysChaineSimple.obj
 0003:00000bf4       ??_C@_05MANP@ALIGN?$AA@    00493bf4     OsysChaineSimple.obj
 0003:00000bfc       ??_C@_09NMEC@Check?5Box?$AA@ 00493bfc     OsysCheckBox.obj
 0003:00000c08       ??_C@_07GIO@CHECK_B?$AA@   00493c08     OsysCheckBox.obj
 0003:00000c14       ??_C@_0O@PCPJ@Case?5a?5cocher?$AA@ 00493c14     OsysCheckBox.obj
 0003:00000c24       ??_C@_04JICL@STAT?$AA@     00493c24     OsysCheckBox.obj
 0003:00000c2c       ??_C@_04MLFK@CIRC?$AA@     00493c2c     OsysCirc.obj
 0003:00000c34       ??_C@_07FEDM@Ellipse?$AA@  00493c34     OsysCirc.obj
 0003:00000c40       ??_C@_04GBFB@LINE?$AA@     00493c40     OsysCirc.obj
 0003:00000c48       ??_C@_05JGJC@WIDTH?$AA@    00493c48     OsysCirc.obj
 0003:00000c50       ??_C@_06FOJO@CIRC_P?$AA@   00493c50     OsysCircPlein.obj
 0003:00000c58       ??_C@_0O@EKPA@Ellipse?5plein?$AA@ 00493c58     OsysCircPlein.obj
 0003:00000c68       ??_C@_05EBKO@COMBO?$AA@    00493c68     OsysCombo.obj
 0003:00000c70       ??_C@_0P@NEPJ@Liste?5tombante?$AA@ 00493c70     OsysCombo.obj
 0003:00000c84       ??_C@_08EFAM@TEXT_MEM?$AA@ 00493c84     OsysCombo.obj
 0003:00000c90       ??_C@_08BIKJ@STAT_MEM?$AA@ 00493c90     OsysCombo.obj
 0003:00000c9c       ??_C@_06CBOH@L_TEXT?$AA@   00493c9c     OsysCombo.obj
 0003:00000ca4       ??_C@_04IGNI@EDIT?$AA@     00493ca4     OsysEdit.obj
 0003:00000cac       ??_C@_0P@KPGB@Zone?5de?5saisie?$AA@ 00493cac     OsysEdit.obj
 0003:00000cc0       ??_C@_08KJIF@AUTO_SEL?$AA@ 00493cc0     OsysEdit.obj
 0003:00000ccc       ??_C@_08CHBH@VAL_HIDE?$AA@ 00493ccc     OsysEdit.obj
 0003:00000cd8       ??_C@_06HAIL@EDIT_M?$AA@   00493cd8     OsysEditMulti.obj
 0003:00000ce0       ??_C@_0BM@LKIM@Zone?5de?5saisie?5multi_lignes?$AA@ 00493ce0     OsysEditMulti.obj
 0003:00000d04       ??_C@_07EKBE@HSCROLL?$AA@  00493d04     OsysEditMulti.obj
 0003:00000d10       ??_C@_07DAJO@VSCROLL?$AA@  00493d10     OsysEditMulti.obj
 0003:00000d1c       ??_C@_05NHLK@Trait?$AA@    00493d1c     OsysLine.obj
 0003:00000d24       ??_C@_04PBEL@LIST?$AA@     00493d24     OsysListe.obj
 0003:00000d2c       ??_C@_05NBNP@Liste?$AA@    00493d2c     OsysListe.obj
 0003:00000d34       ??_C@_07LHBF@INCONNU?$AA@  00493d34     OsysObjet.obj
 0003:00000d40       ??_C@_05OIPL@Objet?$AA@    00493d40     OsysObjet.obj
 0003:00000d48       ??_C@_07KFCD@LST_MEM?$AA@  00493d48     OsysObjet.obj
 0003:00000d54       ??_C@_03CICP@ADD?$AA@      00493d54     OsysObjet.obj
 0003:00000d58       ??_C@_01KCD@?$HN?$AA@      00493d58     OsysObjet.obj
 0003:00000d5c       ??_C@_04IALP@NAME?$AA@     00493d5c     OsysObjet.obj
 0003:00000d64       ??_C@_04NEFN@SIZE?$AA@     00493d64     OsysObjet.obj
 0003:00000d6c       ??_C@_05DFIP@Radio?$AA@    00493d6c     OsysRadioGroup.obj
 0003:00000d74       ??_C@_07HBGA@RADIO_G?$AA@  00493d74     OsysRadioGroup.obj
 0003:00000d80       ??_C@_0N@PGNA@Bouton?5radio?$AA@ 00493d80     OsysRadioGroup.obj
 0003:00000d90       ??_C@_06EHJD@VALEUR?$AA@   00493d90     OsysRadioGroup.obj
 0003:00000d98       ??_C@_06HGEN@NB_COL?$AA@   00493d98     OsysRadioGroup.obj
 0003:00000da0       ??_C@_02JIOA@NB?$AA@       00493da0     OsysRadioGroup.obj
 0003:00000da4       ??_C@_04ODFA@RECT?$AA@     00493da4     OsysRect.obj
 0003:00000dac       ??_C@_09DIIL@Rectangle?$AA@ 00493dac     OsysRect.obj
 0003:00000db8       ??_C@_06PPPL@RECT_P?$AA@   00493db8     OsysRectPlein.obj
 0003:00000dc0       ??_C@_0BA@OCEB@Rectangle?5plein?$AA@ 00493dc0     OsysRectPlein.obj
 0003:00000dd4       ??_C@_07LGKH@Ent?jte2?$AA@ 00493dd4     OsysTableau.obj
 0003:00000de0       ??_C@_07EJBO@Ent?jte1?$AA@ 00493de0     OsysTableau.obj
 0003:00000dec       ??_C@_02DDJE@60?$AA@       00493dec     OsysTableau.obj
 0003:00000df0       ??_C@_0BA@KCFG@Ent?jte1?$HMEnt?jte2?$AA@ 00493df0     OsysTableau.obj
 0003:00000e04       ??_C@_04JPIE@TABL?$AA@     00493e04     OsysTableau.obj
 0003:00000e0c       ??_C@_07FJJH@Tableau?$AA@  00493e0c     OsysTableau.obj
 0003:00000e18       ??_C@_07BMAP@SB_VERT?$AA@  00493e18     OsysTableau.obj
 0003:00000e24       ??_C@_09NIGP@ACT_CLICK?$AA@ 00493e24     OsysTableau.obj
 0003:00000e30       ??_C@_06PNKE@V_TEXT?$AA@   00493e30     OsysTableau.obj
 0003:00000e38       ??_C@_0L@KBKH@STAT_COLON?$AA@ 00493e38     OsysTableau.obj
 0003:00000e48       ??_C@_08LOID@T_SELECT?$AA@ 00493e48     OsysTableau.obj
 0003:00000e54       ??_C@_07MAF@G_COLOR?$AA@   00493e54     OsysTableau.obj
 0003:00000e60       ??_C@_08CKFO@VAL_LINE?$AA@ 00493e60     OsysTableau.obj
 0003:00000e6c       ??_C@_06NGOE@T_TEXT?$AA@   00493e6c     OsysTableau.obj
 0003:00000e74       ??_C@_08DBDA@TB_COLOR?$AA@ 00493e74     OsysTableau.obj
 0003:00000e80       ??_C@_08BJGP@VAL_HEAD?$AA@ 00493e80     OsysTableau.obj
 0003:00000e8c       ??_C@_04JKFK@HTML?$AA@     00493e8c     OsysWebBrowser.obj
 0003:00000e94       ??_C@_09PCED@Zone?5HTML?$AA@ 00493e94     OsysWebBrowser.obj
 0003:00000ea0       ??_C@_03LMPK@REF?$AA@      00493ea0     OsysWebBrowser.obj
 0003:00000ea4       ??_C@_05GOBL@ZDRAW?$AA@    00493ea4     OsysZoneDraw.obj
 0003:00000eac       ??_C@_0M@FAFN@Zone?5dessin?$AA@ 00493eac     OsysZoneDraw.obj
 0003:00000ebc       ??_C@_05HIBB@CLEAR?$AA@    00493ebc     OsysZoneDraw.obj
 0003:00000ec4       ??_C@_06LHNJ@ACTION?$AA@   00493ec4     OsysZoneDraw.obj
 0003:00000ecc       ??_C@_0L@HCJA@CTableauEx?$AA@ 00493ecc     TableauEx.obj
 0003:00000f64       ??_C@_0N@JEEP@CWebBrowser2?$AA@ 00493f64     webbrowser2.obj
 0003:00000fc0       ??_C@_0DD@GCJO@?6Impossible?5d?8initialis?i?5le?5Wind@ 00493fc0     BaseSocket.obj
 0003:00001000       ??_C@_02IEME@FR?$AA@       00494000     CStringLangue.obj
 0003:00001004       ??_C@_05MFJ@?$EAID?$CFx?$AA@ 00494004     DataArchive.obj
 0003:0000100c       ??_C@_06JDFN@STRING?$AA@   0049400c     DataArchive.obj
 0003:00001014       ??_C@_0N@PCOK@CONTENU_DATA?$AA@ 00494014     DataArchive.obj
 0003:00001024       ??_C@_09DBPF@TYPE_DATA?$AA@ 00494024     DataArchive.obj
 0003:00001030       ??_C@_03OGAO@EXP?$AA@      00494030     DataArchive.obj
 0003:00001034       ??_C@_08CCAI@NUM_EXEC?$AA@ 00494034     DataArchive.obj
 0003:00001040       ??_C@_04IDIA@DATA?$AA@     00494040     DataArchive.obj
 0003:00001048       ??_C@_03GHHF@osy?$AA@      00494048     FichierTemp.obj
 0003:0000104c       ??_C@_04DLGO@temp?$AA@     0049404c     FichierTemp.obj
 0003:00001054       ??_C@_02NEME@?5?6?$AA@     00494054     Imprime.obj
 0003:00001058       ??_C@_03DMDD@?5?9?5?$AA@   00494058     Imprime.obj
 0003:0000105c       ??_C@_01PJCK@?4?$AA@       0049405c     Imprime.obj
 0003:00001060       ??_C@_03PKDJ@?4?$CFd?$AA@  00494060     Imprime.obj
 0003:00001064       ??_C@_03KNAP@?6?6?6?$AA@   00494064     Imprime.obj
 0003:00001068       ??_C@_06HJJB@?$AN?6?$AN?6?$AN?6?$AA@ 00494068     Imprime.obj
 0003:00001070       ??_C@_02KNCH@?$AN?$AN?$AA@ 00494070     Imprime.obj
 0003:000010b4       ?couleurUS@@3PAPBDA        004940b4     InputArchive.obj
 0003:00001100       ??_C@_06LCKH@YELLOW?$AA@   00494100     InputArchive.obj
 0003:00001108       ??_C@_05GNEK@WHITE?$AA@    00494108     InputArchive.obj
 0003:00001110       ??_C@_03OJNE@RED?$AA@      00494110     InputArchive.obj
 0003:00001114       ??_C@_04CAGC@PINK?$AA@     00494114     InputArchive.obj
 0003:0000111c       ??_C@_06IAGH@ORANGE?$AA@   0049411c     InputArchive.obj
 0003:00001124       ??_C@_07FJAH@MAGENTA?$AA@  00494124     InputArchive.obj
 0003:00001130       ??_C@_09EJMP@LIGHTGRAY?$AA@ 00494130     InputArchive.obj
 0003:0000113c       ??_C@_05FFOH@GREEN?$AA@    0049413c     InputArchive.obj
 0003:00001144       ??_C@_04OAEG@GRAY?$AA@     00494144     InputArchive.obj
 0003:0000114c       ??_C@_08OLFE@DARKGREY?$AA@ 0049414c     InputArchive.obj
 0003:00001158       ??_C@_04OPBF@CYAN?$AA@     00494158     InputArchive.obj
 0003:00001160       ??_C@_04GKGD@BLUE?$AA@     00494160     InputArchive.obj
 0003:00001168       ??_C@_05OKGE@BLACK?$AA@    00494168     InputArchive.obj
 0003:00001170       ??_C@_02JDLK@?$CFx?$AA@    00494170     InputArchive.obj
 0003:00001174       ??_C@_02OHPD@0X?$AA@       00494174     InputArchive.obj
 0003:00001178       ??_C@_02LFBD@0x?$AA@       00494178     InputArchive.obj
 0003:0000117c       ??_C@_01KFMA@?$EA?$AA@     0049417c     InputArchive.obj
 0003:00001180       ??_C@_03JFOM@?$CFld?$AA@   00494180     InputArchive.obj
 0003:00001184       ??_C@_03MCHI@?$CFlx?$AA@   00494184     InputArchive.obj
 0003:00001188       ??_C@_03MPEG@?$CFhd?$AA@   00494188     InputArchive.obj
 0003:0000118c       ??_C@_03JINC@?$CFhx?$AA@   0049418c     InputArchive.obj
 0003:00001190       ??_C@_02JBAA@?$CFf?$AA@    00494190     InputArchive.obj
 0003:00001194       ??_C@_03MAMC@?$CFlf?$AA@   00494194     InputArchive.obj
 0003:00001198       ??_C@_01PFFB@?$HL?$AA@     00494198     InputArchive.obj
 0003:0000119c       ??_C@_02NGAF@wb?$AA@       0049419c     InputOutputArchive.obj
 0003:000011a0       ??_C@_03JDEJ@BAK?$AA@      004941a0     InputOutputArchive.obj
 0003:000011a4       ??_C@_02MLFD@ab?$AA@       004941a4     InputOutputArchive.obj
 0003:000011a8       ??_C@_02JKAF@rb?$AA@       004941a8     InputOutputArchive.obj
 0003:000011ac       ??_C@_03ENFB@RAM?$AA@      004941ac     InputOutputStringArchive.obj
 0003:000011f0       ?couleur_US@@3PAPBDA       004941f0     OutputArchive.obj
 0003:0000123c       ??_C@_04BKHJ@0x?$CFx?$AA@  0049423c     OutputArchive.obj
 0003:00001244       ??_C@_05BHBB@0x?$CFlX?$AA@ 00494244     OutputArchive.obj
 0003:0000124c       ??_C@_01PCFE@?2?$AA@       0049424c     Repertoire.obj
 0003:00001250       ??_C@_02NNKG@?2?2?$AA@     00494250     Repertoire.obj
 0003:00001254       ??_C@_02NFKO@?3?2?$AA@     00494254     Repertoire.obj
 0003:00001258       ??_C@_04POLC@?$CFc?3?2?$AA@ 00494258     Repertoire.obj
 0003:00001260       ??_C@_03LEBH@tcp?$AA@      00494260     ServeurArchive.obj
 0003:00001264       ??_C@_0CD@FCKG@?$CFp?5ServeurArchive?3?5Close?5TIME?5OU@ 00494264     ServeurArchive.obj
 0003:00001290       ??_C@_0BN@LDNF@?$CFp?5ServeurArchive?3?5Close?5OK?6?$AA@ 00494290     ServeurArchive.obj
 0003:000012b4       ??_C@_0DO@FKCF@?$CFp?5ServeurArchive?3?5Impossible?5de@ 004942b4     ServeurArchive.obj
 0003:00001300       ??_C@_0DD@MBBL@?$CFp?5ServeurArchive?3Impossible?5de?5@ 00494300     ServeurArchive.obj
 0003:00001340       ??_C@_0DN@KNB@?$CFp?5ServeurArchive?3?5Impossible?5de@ 00494340     ServeurArchive.obj
 0003:0000138c       ??_C@_0DM@ONAO@?$CFp?5ServeurArchive?3Impossible?5de?5@ 0049438c     ServeurArchive.obj
 0003:000013d4       ??_C@_0M@IBML@?$CFd?4?$CFd?4?$CFd?4?$CFd?$AA@ 004943d4     ServeurArchive.obj
 0003:000013e4       ??_C@_0BO@KMEP@Reception?5sock_dde?5?$CIaccept?$CJ?5?3?$AA@ 004943e4     ServeurArchive.obj
 0003:00001408       ??_C@_0BO@JIKH@Reception?5dde_sock?5?$CIlisten?$CJ?5?3?$AA@ 00494408     ServeurArchive.obj
 0003:0000142c       ??_C@_0CI@NFM@?$CD?$CD?$CD?$CD?$CD?$CD?$CD?$CD?$CD?5?5rebooter?5la?5station?5?$CB@ 0049442c     ServeurArchive.obj
 0003:0000145c       ??_C@_0BI@JOKD@?5bind?5?3?5Code?5erreur?5?$CFd?6?$AA@ 0049445c     ServeurArchive.obj
 0003:00001478       ??_C@_0BG@NAGA@?$CD?$CD?$CD?$CD?$CD?$CD?$CD?$CD?$CD?5Attention?5?6?$AA@ 00494478     ServeurArchive.obj
 0003:00001494       ??_C@_0CA@FOFD@sock_dde?5?3?5Reception?5?$CIsocket?$CJ?5?3?$AA@ 00494494     ServeurArchive.obj
 0003:000014bc       ??_C@_0BN@BDCN@?$CFp?5ServeurArchive?3Erreur?5?$CFd?6?$AA@ 004944bc     ServeurArchive.obj
 0003:000014e0       ??_C@_0CB@JMLA@Erreur?5N?3?$CFd?5?5pendant?5le?5connect?6@ 004944e0     ServeurArchive.obj
 0003:00001508       ??_C@_0BL@CFKD@?$CFp?5CServeurArchive?5Erreur?5?$AA@ 00494508     ServeurArchive.obj
 0003:00001528       ??_R0PAX@8                 00494528     ServeurArchive.obj
 0003:00001538       ??_R0PAD@8                 00494538     ServeurArchive.obj
 0003:00001548       ??_C@_0BG@DOGB@Utilisation?5interdite?$AA@ 00494548     ServeurArchive.obj
 0003:00001564       ??_C@_0BA@CKLF@Close?5TIME?5OUT?6?$AA@ 00494564     ServeurTCP.obj
 0003:00001578       ??_C@_0N@IFFK@?$CFp?5Close?5OK?6?$AA@ 00494578     ServeurTCP.obj
 0003:00001588       ??_R0PAVCGestErreurSocket@@@8 00494588     ServeurTCP.obj
 0003:000015b0       ??_C@_02DILL@?$CFs?$AA@    004945b0     ServeurTCP.obj
 0003:000015b4       ??_C@_0CI@BNHA@?$CFp?5ServeurTcp?5?3Reception?5?$CI2?$CJ?$CIacc@ 004945b4     ServeurTCP.obj
 0003:000015e4       ??_C@_0CG@EFBJ@?$CFp?5ServeurTcp?5?3Reception?5?5?$CIliste@ 004945e4     ServeurTCP.obj
 0003:00001614       ??_C@_0CG@IKCD@?$CFp?5ServeurTcp?5?3?5Reception?5?$CIsocke@ 00494614     ServeurTCP.obj
 0003:00001644       ??_C@_0O@GJIC@?$CFp?5Erreur?5?$CFd?6?$AA@ 00494644     ServeurTCP.obj
 0003:00001654       ??_C@_0BI@MBJB@?$CFp?5ServeurTcp?5?3?5Erreur?5?$AA@ 00494654     ServeurTCP.obj
 0003:00001670       ??_C@_0CO@NOHD@D?3?2sxao2000?2LibObj?2SocketArchive@ 00494670     SocketArchive.obj
 0003:000016a8       ??_C@_0CP@JJCG@D?3?2sxao2000?2LibObj?2SocketArchive@ 004946a8     SocketArchive.obj
 0003:000016e0       ??_C@_0FC@JILM@D?3?2sxao2000?2LibObj?2SocketArchive@ 004946e0     SocketArchive.obj
 0003:00001744       ??_C@_0O@FAGB@Cr?iation?5nOK?6?$AA@ 00494744     SocketArchive.obj
 0003:00001754       ??_C@_0CM@HMJF@Attention?5impossible?5de?5lancer?5u@ 00494754     SocketArchive.obj
 0003:00001788       ??_C@_0CB@JJAM@?6?$CK?$CK?$CK?$CK?5Erreur?5?$OA?5la?5reconnexion?51?6@ 00494788     SocketArchive.obj
 0003:000017b0       ??_C@_0BN@JCEE@Debut?5AttentReconnexion?$CI?$CFp?$CJ?6?$AA@ 004947b0     SocketArchive.obj
 0003:000017d4       ??_C@_0BC@LOFM@Erreur?5socket?5?$CD?$CFd?$AA@ 004947d4     SocketMiniTCP.obj
 0003:000017ec       ??_C@_0CD@MGFD@?$CFp?5?$CK?$CKCSocketMiniTcp?3destructeur?5@ 004947ec     SocketMiniTCP.obj
 0003:00001818       ??_C@_0DG@GMHF@?$CFp?5?$CK?$CKCSocketMiniTcp?3impossible?5d@ 00494818     SocketMiniTCP.obj
 0003:00001858       ??_C@_0CG@MGHF@?$CFp?5CSocketMiniTcp?3Socket?5d?ija?5fe@ 00494858     SocketMiniTCP.obj
 0003:00001888       ??_C@_0DI@DNOG@?$CFp?5CSocketMiniTcp?3?$CI2?$CJ?5Impossible@ 00494888     SocketMiniTCP.obj
 0003:000018cc       ??_C@_0CK@NBM@Le?5serveur?5?$CFs?5n?8est?5pas?5connu?5du@ 004948cc     SocketMiniTCP.obj
 0003:00001900       ??_C@_0BF@BFJI@CSocketTCP?5Erreur?5?3?5?$AA@ 00494900     SocketMiniTCP.obj
 0003:0000191c       ??_C@_0CJ@PGG@?$CFp?5SocketServeurArchive?3?5Objet?5d@ 0049491c     SocketServeurArchive.obj
 0003:00001950       ??_C@_0DF@DFPC@?$CFp?5SocketServeurArchive?3?5Apres?5l@ 00494950     SocketServeurArchive.obj
 0003:00001990       ??_C@_0DM@LDOD@?$CFp?5SocketServeurArchive?3?5Lanceme@ 00494990     SocketServeurArchive.obj
 0003:000019d8       ??_C@_0DC@GHIF@?$CFp?5SocketServeurArchive?3Construc@ 004949d8     SocketServeurArchive.obj
 0003:00001a14       ??_C@_0CK@LDMA@?$CFp?5SocketServeurArchive?3Fin?5dest@ 00494a14     SocketServeurArchive.obj
 0003:00001a48       ??_C@_0CL@GKLH@?$CFp?5SocketServeurArchive?3Debut?5de@ 00494a48     SocketServeurArchive.obj
 0003:00001a7c       ??_C@_0BP@ECIO@?$CFp?5SocketServeurArchive?3Close?6?$AA@ 00494a7c     SocketServeurArchive.obj
 0003:00001aa4       ??_C@_0DM@IGMB@?$CFp?5SocketServeurArchive?3On?5ne?5de@ 00494aa4     SocketServeurArchive.obj
 0003:00001aec       ??_C@_0CP@FEJH@Erreur?5N?3?$CFd?5?5pendant?5la?5creation@ 00494aec     SocketTCP.obj
 0003:00001b24       ??_C@_0CL@GBDA@Impossible?5de?5lancer?5le?5thread?5d@ 00494b24     SocketTCP.obj
 0003:00001b58       ??_C@_0CB@JKKI@Erreur?5N?3?$CFd?5?5pendant?5le?5send?5?$CFs?6@ 00494b58     SocketTCP.obj
 0003:00001b80       ??_C@_0FI@OHGA@?6?$CFp?5SocketTcp?5?3?$CK?$CK?$CK?$CK?$CK?$CK?$CK?$CK?$CK?$CK?$CK?$CK?$CK?$CK?$CK?$CK?$CK@ 00494b80     SocketTCP.obj
 0003:00001bec       ??_C@_0BI@CNHF@?$CFp?5SocketTcp?5Re?gu?5?8?$CFs?8?6?$AA@ 00494bec     SocketTCP.obj
 0003:00001c08       ??_C@_0BJ@MFH@?$CFp?5CSocketTCP?3?5Erreur?5?3?5?$AA@ 00494c08     SocketTCP.obj
 0003:00001c28       ??_C@_0FB@PED@?6?$CFp?5SocketTcp?5?3?$CK?$CK?$CK?$CK?$CK?$CK?$CK?$CK?$CK?$CK?$CK?$CK?$CK?$CK?$CK?$CK?$CK@ 00494c28     SocketTCP.obj
 0003:00001c8c       ??_C@_0BB@NHNO@CResultatRequete?$AA@ 00494c8c     ResultatRequete.obj
 0003:00001ca0       ?l_resu@?1??RendNomTypeDonnee@CResultatRequete@@UAEPADXZ@4PADA 00494ca0     ResultatRequete.obj
 0003:00001ca4       ??_C@_01FNLH@a?$AA@        00494ca4     ResultatRequete.obj
 0003:00001ca8       ??_C@_01LLF@w?$AA@         00494ca8     ResultatRequete.obj
 0003:00001cac       ??_C@_01LHO@r?$AA@         00494cac     ResultatRequete.obj
 0003:00001cb0       ??_C@_05EFDD@ERROR?$AA@    00494cb0     ResultatRequete.obj
 0003:00001cb8       ??_C@_03KPJM@VAL?$AA@      00494cb8     ResultatRequete.obj
 0003:00001cbc       ??_C@_04JHII@TYPE?$AA@     00494cbc     ResultatRequete.obj
 0003:00001cc4       ??_C@_05IAJB@NBCOL?$AA@    00494cc4     ResultatRequete.obj
 0003:00001ccc       ??_C@_01KALE@?$HM?$AA@     00494ccc     ResultatRequete.obj
 0003:00001cd0       ??_C@_04BAK@NULL?$AA@      00494cd0     StructureDB.obj
 0003:00001cd8       ??_C@_06CLKI@TAILLE?$AA@   00494cd8     StructureDB.obj
 0003:00001ce0       ??_C@_0M@FNNG@TYPE_CHAINE?$AA@ 00494ce0     StructureDB.obj
 0003:00001cf0       ??_C@_03HGHP@NOM?$AA@      00494cf0     StructureDB.obj
 0003:00001cf4       ??_C@_05BPND@CHAMP?$AA@    00494cf4     StructureDB.obj
 0003:00001cfc       ??_C@_05DLJE@TABLE?$AA@    00494cfc     StructureDB.obj
 0003:00001d04       ??_C@_03CLCB@ERR?$AA@      00494d04     StructureDB.obj
 0003:00001d08       ??_C@_09CFBA@TYPE_BASE?$AA@ 00494d08     StructureDB.obj
 0003:00001d14       ??_C@_03NKCC@GRP?$AA@      00494d14     CInterfaceOsys.obj
 0003:00001d18       ??_C@_03HAHB@DEL?$AA@      00494d18     CInterfaceOsys.obj
 0003:00001d1c       ??_C@_03BCLC@SET?$AA@      00494d1c     CInterfaceOsys.obj
 0003:00001d20       ??_C@_05BIMG@EXIST?$AA@    00494d20     CInterfaceOsys.obj
 0003:00001d28       ??_C@_03FK@LST?$AA@        00494d28     CInterfaceOsys.obj
 0003:00001d2c       ??_C@_03HOGL@MOD?$AA@      00494d2c     CInterfaceOsys.obj
 0003:00001d30       ??_C@_04CJNM@DATE?$AA@     00494d30     CInterfaceOsys.obj
 0003:00001d38       ??_C@_03IINI@OBJ?$AA@      00494d38     CInterfaceOsys.obj
 0003:00001d3c       ??_C@_03HLIC@GET?$AA@      00494d3c     CInterfaceOsys.obj
 0003:00001d40       ??_C@_04GMDG@EXEC?$AA@     00494d40     CInterfaceOsys.obj
 0003:00001d48       ??_C@_05JCNK@RIGHT?$AA@    00494d48     CInterfaceOsys.obj
 0003:00001d50       ??_C@_02GMH@ID?$AA@        00494d50     CInterfaceOsys.obj
 0003:00001d54       ??_C@_03IENH@NUM?$AA@      00494d54     CInterfaceOsys.obj
 0003:00001d58       ??_C@_06OLMB@SETGRP?$AA@   00494d58     CInterfaceOsys.obj
 0003:00001d60       ??_C@_0M@ODJH@VAL_DEFAULT?$AA@ 00494d60     ClMemoire.obj
 0003:00001d70       ??_C@_0O@EMAG@NB_MAX_VALEUR?$AA@ 00494d70     ClMemoire.obj
 0003:00001d80       ??_C@_04DAHF@MODE?$AA@     00494d80     ClMemoire.obj
 0003:00001d88       ??_C@_09DMNG@INDEX_MAX?$AA@ 00494d88     ClMemoire.obj
 0003:00001d94       ??_C@_03LBME@RAZ?$AA@      00494d94     ClMemoire.obj
 0003:00001d98       ??_C@_0CM@IJN@?$CB?$CB?$CB?$CB?5Erreur?5socket?5objet?5?$CFp?5code@ 00494d98     ClMemoire.obj
 0003:00001dcc       ??_C@_0BN@HPF@Nom?5de?5propriete?5inconnu?5?$CFs?6?$AA@ 00494dcc     ClMemoire.obj
 0003:00001df0       ??_C@_0N@DDMA@VAL_MEM_BASE?$AA@ 00494df0     ClMemoire.obj
 0003:00001e00       ??_C@_07BHMC@VAL_MEM?$AA@  00494e00     ClMemoire.obj
 0003:00001e0c       ??_C@_03BIEF@MEM?$AA@      00494e0c     ClMemoire.obj
 0003:00001e10       ??_C@_09OMFG@LIST_TEST?$AA@ 00494e10     ClMemoire.obj
 0003:00001e1c       ??_C@_09EJKO@LIST_CALC?$AA@ 00494e1c     ClMemoire.obj
 0003:00001e28       ??_C@_07JPLJ@MOD_VAL?$AA@  00494e28     ClMemoire.obj
 0003:00001e34       ??_C@_03EICH@ACK?$AA@      00494e34     ClMemoire.obj
 0003:00001e38       ??_C@_03HHKO@?$CFs?6?$AA@  00494e38     ClMemoire.obj
 0003:00001e3c       ??_C@_0N@MALO@?$CFs?$HM?$CF2d?$DN?$CF5s?5?6?$AA@ 00494e3c     ClMemoire.obj
 0003:00001e4c       ??_C@_0DD@MHGE@Recu?5en?5automatique?5?3?5Memoire?5?$CFd@ 00494e4c     ClMemoire.obj
 0003:00001e8c       ??_C@_0CF@BNMC@Pour?5l?8utilisateur?5ayant?5l?8ID?5?3?5@ 00494e8c     ClMemoire.obj
 0003:00001eb8       ??_C@_04FMHO@USER?$AA@     00494eb8     ClMemoire.obj
 0003:00001ec0       ??_C@_04FOOP@CONT?$AA@     00494ec0     ClMemoire.obj
 0003:00001ec8       ??_C@_03EAGP@REQ?$AA@      00494ec8     ClMemoire.obj
 0003:00001ecc       ??_C@_07MJHC@CONTBAS?$AA@  00494ecc     ClMemoire.obj
 0003:00001ed8       ??_C@_03MJMD@ALL?$AA@      00494ed8     ClMemoire.obj
 0003:00001edc       ??_C@_05HKPP@INDEX?$AA@    00494edc     ClMemoire.obj
 0003:00001ee4       ??_C@_03LBIF@TST?$AA@      00494ee4     ClMemoire.obj
 0003:00001ee8       ??_C@_03GMLD@CLC?$AA@      00494ee8     ClMemoire.obj
 0003:00001eec       ??_C@_04FGBF@TEST?$AA@     00494eec     ClMemoire.obj
 0003:00001ef4       ??_C@_05MJOK@PRINT?$AA@    00494ef4     ClMemoire.obj
 0003:00001efc       ??_C@_04KLBG@SAVE?$AA@     00494efc     ClMemoire.obj
 0003:00001f04       ??_C@_04PANM@STOP?$AA@     00494f04     ClMemoire.obj
 0003:00001f0c       ??_C@_05JKLK@QUERY?$AA@    00494f0c     COsysBd.obj
 0003:00001f14       ??_C@_03BFEB@RES?$AA@      00494f14     COsysBd.obj
 0003:00001f18       ??_C@_04MICK@FREE?$AA@     00494f18     COsysBd.obj
 0003:00001f20       ??_C@_06MNFJ@TYP_BD?$AA@   00494f20     COsysBd.obj
 0003:00001f28       ??_C@_07JJDD@Attente?$AA@  00494f28     COsysBd.obj
 0003:00001f34       ??_C@_07GGHC@DESC_BD?$AA@  00494f34     COsysBd.obj
 0003:00001f40       ??_C@_04NNPF@SGBD?$AA@     00494f40     COsysBd.obj
 0003:00001f48       ??_C@_06IGNN@COMPIL?$AA@   00494f48     COsysLPX.obj
 0003:00001f50       ??_C@_03LJLM@PRG?$AA@      00494f50     COsysLPX.obj
 0003:00001f54       ??_C@_03MEON@STP?$AA@      00494f54     COsysLPX.obj
 0003:00001f58       ??_C@_05MEGG@GRAPH?$AA@    00494f58     COsysLPX.obj
 0003:00001f60       ??_C@_03FOOO@CFG?$AA@      00494f60     COsysLPX.obj
 0003:00001f64       ??_C@_0BH@BMHJ@?$CB?$CB?$CB?$CB?5Erreur?5socket?5?$CFd?6?$AA@ 00494f64     COsysSrv.obj
 0003:00001f80       ??_C@_09BFHA@RIGHT_ADM?$AA@ 00494f80     COsysSrv.obj
 0003:00001f8c       ??_C@_05DHIH@PARAM?$AA@    00494f8c     COsysSrv.obj
 0003:00001f94       ??_C@_08FEOG@LST_UTIL?$AA@ 00494f94     COsysSrv.obj
 0003:00001fa0       ??_C@_09MLIB@LST_RIGHT?$AA@ 00494fa0     COsysSrv.obj
 0003:00001fac       ??_C@_06GDPF@LST_IP?$AA@   00494fac     COsysSrv.obj
 0003:00001fb4       ??_C@_07GHEE@LST_GRP?$AA@  00494fb4     COsysSrv.obj
 0003:00001fc0       ??_C@_08DHIL@LST_EXEC?$AA@ 00494fc0     COsysSrv.obj
 0003:00001fcc       ??_C@_09GJKL@LST_DEBUG?$AA@ 00494fcc     COsysSrv.obj
 0003:00001fd8       ??_C@_07DFLO@LST_OBJ?$AA@  00494fd8     COsysSrv.obj
 0003:00001fe4       ??_C@_03DKPP@FIC?$AA@      00494fe4     COsysSrv.obj
 0003:00001fe8       ??_C@_04PPKB@DESC?$AA@     00494fe8     COsysSrv.obj
 0003:00001ff0       ??_C@_04MFAJ@CODE?$AA@     00494ff0     COsysSrv.obj
 0003:00001ff8       ??_C@_03EMGA@SRV?$AA@      00494ff8     COsysSrv.obj
 0003:00001ffc       ??_C@_03BKPP@MES?$AA@      00494ffc     COsysSrv.obj
 0003:00002000       ??_C@_04LDAD@DICO?$AA@     00495000     COsysSrv.obj
 0003:00002008       ??_C@_0P@DDCK@AttenteResulat?$AA@ 00495008     COsysSrv.obj
 0003:0000201c       ??_C@_03PHIM@VER?$AA@      0049501c     COsysSrv.obj
 0003:00002020       ??_C@_07BCNI@VERSION?$AA@  00495020     COsysSrv.obj
 0003:0000202c       ??_C@_03OGH@LIC?$AA@       0049502c     COsysSrv.obj
 0003:00002030       ??_C@_04NJI@INIT?$AA@      00495030     COsysSrv.obj
 0003:00002038       ??_C@_04EJJ@HTTP?$AA@      00495038     COsysSrvWeb.obj
 0003:00002040       ??_C@_04OBGP@PORT?$AA@     00495040     COsysSrvWeb.obj
 0003:00002048       ??_C@_03BMOB@USR?$AA@      00495048     COsysUser.obj
 0003:0000204c       ??_C@_04KEMK@LANG?$AA@     0049504c     COsysUser.obj
 0003:00002054       ??_C@_03NGAA@ADM?$AA@      00495054     COsysUser.obj
 0003:00002058       ??_C@_06NJAJ@DRIVER?$AA@   00495058     COsysUser.obj
 0003:00002060       ??_C@_04IIHE@HOST?$AA@     00495060     COsysUser.obj
 0003:00002068       ??_C@_04OJG@LANC?$AA@      00495068     COsysUser.obj
 0003:00002070       ??_C@_06IDEB@TIMOUT?$AA@   00495070     COsysUser.obj
 0003:00002078       ??_C@_05MIAL@?$CF4?44d?$AA@ 00495078     ListDateFormat.obj
 0003:00002080       ??_C@_05GABI@?$CF2?42d?$AA@ 00495080     ListDateFormat.obj
 0003:00002088       ??_C@_05DDAP@J?1M?1A?$AA@  00495088     ListDateFormat.obj
 0003:00002090       ??_C@_0BD@BCFP@?5?$CF2?42d?3?$CF2?42d?3?$CF2?42d?$AA@ 00495090     ListDateFormat.obj
 0003:000020a8       ??_C@_0BB@III@?5?$CF02ld?3?$CF02d?3?$CF02d?$AA@ 004950a8     ListDateFormat.obj
 0003:000020bc       ??_C@_06CDPN@FORMAT?$AA@   004950bc     ListDateFormat.obj
 0003:000020c4       ??_C@_0M@HIIN@DATE_FORMAT?$AA@ 004950c4     ListDateFormat.obj
 0003:000020d4       ??_C@_03DHMP@?5?3?5?$AA@   004950d4     ListDateFormat.obj
 0003:000020d8       ??_C@_09FCOK@127?40?40?41?$AA@ 004950d8     dconnexionserveur.obj
 0003:000020e4       ??_C@_09FBHK@localhost?$AA@ 004950e4     dconnexionserveur.obj
 0003:000020f0       ??_C@_02HAGF@OK?$AA@       004950f0     dcoupurereseau.obj
 0003:000020f4       ??_C@_0CI@OOHA@Ta?5katy?5t?8a?5quitt?i?4?4?4?5TIC?5TAC?0TI@ 004950f4     CryptOsys.obj
 0003:00002124       ??_C@_07MCJP@F_CLOSE?$AA@  00495124     ResultatFenetre.obj
 0003:00002130       ??_C@_0GG@BDBK@?$FLTRACEABILITY?$FN?$AN?6OF?$DN?$CFs?$AN?6OPERATION@ 00495130     FileSPV.obj
 0003:000021ac       ??_C@_0EK@CKAM@?$FLSELECTION?$FN?$AN?6WORKSHOP?$DN?$CFs?$AN?6MACHIN@ 004951ac     FileSPV.obj
 0003:00002204       ??_C@_0IG@JHD@?$FLHEADER?$FN?$AN?6LANGUAGE?$DN?$CFs?$AN?6ORIGIN?$DN?$AN?6@ 00495204     FileSPV.obj
 0003:000022a4       ??_C@_08DAEB@Osys?4SPV?$AA@ 004952a4     FileSPV.obj
 0003:000022b0       ??_C@_0N@DFNJ@REP_FILE_SPV?$AA@ 004952b0     GestConfigSPC.obj
 0003:000022c0       ??_C@_08HHEA@PATH_SPC?$AA@ 004952c0     GestConfigSPC.obj
 0003:000022cc       ??_C@_0L@JBPO@CLOSE_BRUT?$AA@ 004952cc     GestSPC.obj
 0003:000022dc       ??_C@_05PHOA@CLOSE?$AA@    004952dc     GestSPC.obj
 0003:000022e4       ??_C@_0L@POPB@SPC?5Vision?$AA@ 004952e4     GestSPC.obj
 0003:000022f4       ??_C@_0O@HOBK@OPEN_MINIMISE?$AA@ 004952f4     GestSPC.obj
 0003:00002304       ??_C@_0P@PEEF@?5?1spcposte?4par?$AA@ 00495304     GestSPC.obj
 0003:00002318       ??_C@_09BJPH@OPERATEUR?$AA@ 00495318     ParamSPC.obj
 0003:00002324       ??_C@_02CEBG@OF?$AA@       00495324     ParamSPC.obj
 0003:00002328       ??_C@_05OBNA@GAMME?$AA@    00495328     ParamSPC.obj
 0003:00002330       ??_C@_07ONAL@PRODUIT?$AA@  00495330     ParamSPC.obj
 0003:0000233c       ??_C@_07KFIN@MACHINE?$AA@  0049533c     ParamSPC.obj
 0003:00002348       ??_C@_07NFPN@ATELIER?$AA@  00495348     ParamSPC.obj
 0003:00002354       ??_C@_0L@DDOA@AUTO_CLOSE?$AA@ 00495354     ParamSPC.obj
 0003:00002364       ??_C@_07CHNF@NOM_LPX?$AA@  00495364     ParamSPC.obj
 0003:00002370       ??_C@_09BPPD@DELAI_MIN?$AA@ 00495370     ParamSPC.obj
 0003:0000237c       ??_C@_06OKPD@?2TRACE?$AA@  0049537c     GestTrace.obj
 0003:00002384       ??_C@_0CK@ONHM@?$CK?$CK?$CK?$CK?$CK?5memoire?5?$DL?5inter?5top?5?$DL?5cumu@ 00495384     GestTrace.obj
 0003:000023b8       ??_C@_0BE@FCDN@?$CFY?1?$CFm?1?$CFd?5?$CFH?3?$CFM?3?$CFS?$AN?6?$AA@ 004953b8     GestTrace.obj
 0003:000023d0       ??_C@_09CEBK@?$CK?$CK?$CK?$CK?$CK?$CK?$CK?$CK?5?$AA@ 004953d0     GestTrace.obj
 0003:000023dc       ??_C@_0BC@DBND@?$CFY?$CFm?$CFd_?$CFH?$CFM?$CFS?4LOG?$AA@ 004953dc     GestTrace.obj
 0003:000023f4       ??_C@_09HBD@?2CONSOLE_?$AA@ 004953f4     GestTrace.obj
 0003:00002400       ??_C@_0M@FBEC@?$AN?6?$CK?$CK?$CK?$CK?$CK?$CK?$CK?$CK?5?$AA@ 00495400     GestTrace.obj
 0003:00002410       ??_C@_0M@ECOE@?9?9?9?9?9?9?5Fin?5?$AA@ 00495410     GestTrace.obj
 0003:00002420       ??_C@_0BA@JHEL@?$AN?6?$CL?$CL?$CL?$CL?$CL?$CL?5Debut?5?$AA@ 00495420     GestTrace.obj
 0003:00002434       ??_C@_0P@IFIC@?$CFs?5?$DL?5?$CFd?5?$DL?5?$CFd?$AN?6?$AA@ 00495434     GestTrace.obj
 0003:00002448       ??_C@_0CD@JIPK@?1webconsoles?1Servlet_Edition?$DPpat@ 00495448     ClientSxao.obj
 0003:00002474       ??_C@_07PCOP@http?3?1?1?$AA@ 00495474     ClientSxao.obj
 0003:00002480       ??_C@_0N@IALC@URL_EDIT_WEB?$AA@ 00495480     ClientSxao.obj
 0003:00002490       ??_C@_03ODIO@CGI?$AA@      00495490     ClientSxao.obj
 0003:00002494       ??_C@_04PGAJ@CONN?$AA@     00495494     ClientSxao.obj
 0003:0000249c       ??_C@_03JDMB@CLE?$AA@      0049549c     ClientSxao.obj
 0003:000024a0       ??_C@_03LDNL@TMP?$AA@      004954a0     ClientSxao.obj
 0003:000024a4       ??_C@_03JBJN@DMD?$AA@      004954a4     ClientSxao.obj
 0003:000024a8       ??_C@_07EGLI@ATTENTE?$AA@  004954a8     ClientSxao.obj
 0003:000024b4       ??_C@_03OKPI@REP?$AA@      004954b4     ClientSxao.obj
 0003:000024b8       ??_C@_0BD@JNDA@?2SPC?2configSPC?4cfg?$AA@ 004954b8     ClientSxao.obj
 0003:000024d0       ??_C@_0DD@HGAI@C?3?2Program?5Files?2INFODREAM?2SPC?5V@ 004954d0     ClientSxao.obj
 0003:00002510       ??_C@_04HGPC@?2SPC?$AA@    00495510     ClientSxao.obj
 0003:00002518       ??_C@_0BA@ODEO@Quartis?5Console?$AA@ 00495518     ClientSxaoDlg.obj
 0003:0000252c       ??_C@_06LBKD@NODIAL?$AA@   0049552c     CommandLineSxao.obj
 0003:00002534       ??_C@_01OAK@N?$AA@         00495534     CommandLineSxao.obj
 0003:00002538       ??_C@_04NOOC@PASS?$AA@     00495538     CommandLineSxao.obj
 0003:00002540       ??_C@_02DHG@fr?$AA@        00495540     Configuration.obj
 0003:00002544       ??_C@_03MCAA@SYS?$AA@      00495544     Configuration.obj
 0003:00002548       ??_C@_0M@NIKD@OSYSPROFILE?$AA@ 00495548     Configuration.obj
 0003:00002558       ??_C@_07FMHA@OSYSWEB?$AA@  00495558     Configuration.obj
 0003:00002564       ??_C@_07OLAD@TIMEOUT?$AA@  00495564     Configuration.obj
 0003:00002570       ??_C@_0BB@NHBP@GESTION_ANONYMES?$AA@ 00495570     Configuration.obj
 0003:00002584       ??_C@_07BMPK@OSYSSRV?$AA@  00495584     Configuration.obj
 0003:00002590       ??_C@_07EINP@OSYSMEM?$AA@  00495590     Configuration.obj
 0003:0000259c       ??_C@_09CHBF@OSYSTRACE?$AA@ 0049559c     Configuration.obj
 0003:000025a8       ??_C@_0M@NACA@VERSION_SRV?$AA@ 004955a8     Configuration.obj
 0003:000025b8       ??_C@_0O@OLKB@VERSION_APPLI?$AA@ 004955b8     Configuration.obj
 0003:000025c8       ??_C@_0L@MLDC@COsysFrame?$AA@ 004955c8     osysframe.obj
 0003:000025d8       ??_C@_0BM@FCIL@http?3?1?1?$CFs?3?$CFd?$CFs?$CGtype?$DNconsole?$AA@ 004955d8     osysframe.obj
 0003:000025fc       ??_C@_0BM@JOFH@http?3?1?1?$CFs?3?$CFd?$CFs?$DPtype?$DNconsole?$AA@ 004955fc     osysframe.obj
 0003:00002620       ??_C@_03CHMK@www?$AA@      00495620     osysframe.obj
 0003:00002624       ??_C@_04GLLM@http?$AA@     00495624     osysframe.obj
 0003:0000262c       ??_C@_06PIJH@OBJECT?$AA@   0049562c     osysframe.obj
 0003:00002634       ??_C@_07JEDB@URL_WEB?$AA@  00495634     osysframe.obj
 0003:00002640       ??_C@_08HJHD@TYPE_WEB?$AA@ 00495640     osysframe.obj
 0003:0000264c       ??_C@_09FLML@MEM_FOCUS?$AA@ 0049564c     osysframe.obj
 0003:00002658       ??_C@_0L@IFNJ@LST_TF_ACT?$AA@ 00495658     osysframe.obj
 0003:00002668       ??_C@_0M@FMLM@V_ACT_CLOSE?$AA@ 00495668     osysframe.obj
 0003:00002678       ??_C@_07MAIA@M_UNITE?$AA@  00495678     osysframe.obj
 0003:00002684       ??_C@_08ELLP@M_MODALE?$AA@ 00495684     osysframe.obj
 0003:00002690       ??_C@_09OOJG@M_SIZABLE?$AA@ 00495690     osysframe.obj
 0003:0000269c       ??_C@_09EALB@M_SCROOLV?$AA@ 0049569c     osysframe.obj
 0003:000026a8       ??_C@_09ECAL@M_SCROOLH?$AA@ 004956a8     osysframe.obj
 0003:000026b4       ??_C@_08EMGC@M_BTITLE?$AA@ 004956b4     osysframe.obj
 0003:000026c0       ??_C@_06FJGF@M_MENU?$AA@   004956c0     osysframe.obj
 0003:000026c8       ??_C@_06KEDN@M_OPEN?$AA@   004956c8     osysframe.obj
 0003:000026d0       ??_C@_0N@NCMC@SIZE_HAUTEUR?$AA@ 004956d0     osysframe.obj
 0003:000026e0       ??_C@_0N@DCLJ@SIZE_LARGEUR?$AA@ 004956e0     osysframe.obj
 0003:000026f0       ??_R0?AVtype_info@@@8      004956f0     msvcrt:ti_inst.obj
 0003:00002708       ___defaultmatherr          00495708     msvcrt:merr.obj
 0003:000029a4       ??_C@_00A@?$AA@            004959a4     GridCtrl.obj
 0003:000029a8       ?m_brush@CBoutonEx@@1VCBrush@@A 004959a8     boutonex.obj
 0003:000029b4       ?ATL_CREATE_OBJECT@CComApartment@ATL@@2IA 004959b4     browseraction.obj
 0003:000029b8       ?m_libid@CComModule@ATL@@2U_GUID@@A 004959b8     browseraction.obj
 0003:000029cc       ?_pModule@ATL@@3PAVCComModule@1@A 004959cc     browseraction.obj
 0003:000029d0       ?g_lstStructureBase@@3PAVCListStructureBase@@A 004959d0     COsysSrv.obj
 0003:000029d8       ?theApp@@3VCClientSxaoApp@@A 004959d8     ClientSxao.obj
 0003:00002b74       __afxForceEXCLUDE          00495b74     mfcs42:nolib.obj
 0003:00002b78       __afxForceSTDAFX           00495b78     mfcs42:stdafx.obj
 0003:00002b7c       __dowildcard               00495b7c     msvcrt:wildcard.obj
 0003:00002b80       __newmode                  00495b80     msvcrt:_newmode.obj
 0003:00002b84       __commode                  00495b84     msvcrt:xncommod.obj
 0003:00002b88       __fmode                    00495b88     msvcrt:xtxtmode.obj
 0003:00002b8c       ?_afxInitAppState@@3DA     00495b8c     mfcs42:appmodul.obj
 0003:00002b90       __adjust_fdiv              00495b90     <common>
 0003:00002b9c       ___onexitend               00495b9c     <common>
 0003:00002bac       ___onexitbegin             00495bac     <common>
 0004:00000000       __IMPORT_DESCRIPTOR_MFC42  00496000     mfc42:MFC42.DLL
 0004:00000014       __IMPORT_DESCRIPTOR_MSVCRT 00496014     msvcrt:MSVCRT.dll
 0004:00000028       __IMPORT_DESCRIPTOR_KERNEL32 00496028     kernel32:KERNEL32.dll
 0004:0000003c       __IMPORT_DESCRIPTOR_USER32 0049603c     user32:USER32.dll
 0004:00000050       __IMPORT_DESCRIPTOR_GDI32  00496050     gdi32:GDI32.dll
 0004:00000064       __IMPORT_DESCRIPTOR_ADVAPI32 00496064     advapi32:ADVAPI32.dll
 0004:00000078       __IMPORT_DESCRIPTOR_SHELL32 00496078     shell32:SHELL32.dll
 0004:0000008c       __IMPORT_DESCRIPTOR_COMCTL32 0049608c     comctl32:COMCTL32.dll
 0004:000000a0       __IMPORT_DESCRIPTOR_ole32  004960a0     ole32:ole32.dll
 0004:000000b4       __IMPORT_DESCRIPTOR_OLEAUT32 004960b4     oleaut32:OLEAUT32.dll
 0004:000000c8       __IMPORT_DESCRIPTOR_WSOCK32 004960c8     wsock32:WSOCK32.dll
 0004:000000dc       __NULL_IMPORT_DESCRIPTOR   004960dc     mfc42:MFC42.DLL
 0004:00000f44       __imp__RegQueryValueExA@24 00496f44     advapi32:ADVAPI32.dll
 0004:00000f48       __imp__RegOpenKeyExA@20    00496f48     advapi32:ADVAPI32.dll
 0004:00000f4c       __imp__RegCloseKey@4       00496f4c     advapi32:ADVAPI32.dll
 0004:00000f50       \177ADVAPI32_NULL_THUNK_DATA 00496f50     advapi32:ADVAPI32.dll
 0004:00000f7c       __imp__ImageList_GetImageInfo@12 00496f7c     comctl32:COMCTL32.dll
 0004:00000f80       __imp__ImageList_AddMasked@12 00496f80     comctl32:COMCTL32.dll
 0004:00000f84       __imp__ImageList_Draw@24   00496f84     comctl32:COMCTL32.dll
 0004:00000f88       \177COMCTL32_NULL_THUNK_DATA 00496f88     comctl32:COMCTL32.dll
 0004:00000fb4       __imp__PatBlt@24           00496fb4     gdi32:GDI32.dll
 0004:00000fb8       __imp__Ellipse@20          00496fb8     gdi32:GDI32.dll
 0004:00000fbc       __imp__Arc@36              00496fbc     gdi32:GDI32.dll
 0004:00000fc0       __imp__CreatePolygonRgn@12 00496fc0     gdi32:GDI32.dll
 0004:00000fc4       __imp__CreateSolidBrush@4  00496fc4     gdi32:GDI32.dll
 0004:00000fc8       __imp__Polygon@12          00496fc8     gdi32:GDI32.dll
 0004:00000fcc       __imp__LPtoDP@12           00496fcc     gdi32:GDI32.dll
 0004:00000fd0       __imp__GetMapMode@4        00496fd0     gdi32:GDI32.dll
 0004:00000fd4       __imp__DPtoLP@12           00496fd4     gdi32:GDI32.dll
 0004:00000fd8       __imp__GetBkColor@4        00496fd8     gdi32:GDI32.dll
 0004:00000fdc       __imp__Rectangle@20        00496fdc     gdi32:GDI32.dll
 0004:00000fe0       __imp__GetCurrentObject@8  00496fe0     gdi32:GDI32.dll
 0004:00000fe4       __imp__CreateFontA@56      00496fe4     gdi32:GDI32.dll
 0004:00000fe8       __imp__StartDocA@8         00496fe8     gdi32:GDI32.dll
 0004:00000fec       __imp__GetDeviceCaps@8     00496fec     gdi32:GDI32.dll
 0004:00000ff0       __imp__StartPage@4         00496ff0     gdi32:GDI32.dll
 0004:00000ff4       __imp__EndPage@4           00496ff4     gdi32:GDI32.dll
 0004:00000ff8       __imp__EndDoc@4            00496ff8     gdi32:GDI32.dll
 0004:00000ffc       __imp__AbortDoc@4          00496ffc     gdi32:GDI32.dll
 0004:00001000       __imp__Escape@20           00497000     gdi32:GDI32.dll
 0004:00001004       __imp__ExtTextOutA@32      00497004     gdi32:GDI32.dll
 0004:00001008       __imp__TextOutA@20         00497008     gdi32:GDI32.dll
 0004:0000100c       __imp__GetObjectA@12       0049700c     gdi32:GDI32.dll
 0004:00001010       __imp__GetTextMetricsA@8   00497010     gdi32:GDI32.dll
 0004:00001014       __imp__GetTextExtentPoint32A@16 00497014     gdi32:GDI32.dll
 0004:00001018       __imp__RectVisible@8       00497018     gdi32:GDI32.dll
 0004:0000101c       __imp__PtVisible@12        0049701c     gdi32:GDI32.dll
 0004:00001020       __imp__DeleteObject@4      00497020     gdi32:GDI32.dll
 0004:00001024       __imp__CreateFontIndirectA@4 00497024     gdi32:GDI32.dll
 0004:00001028       __imp__BitBlt@36           00497028     gdi32:GDI32.dll
 0004:0000102c       __imp__CreateCompatibleBitmap@12 0049702c     gdi32:GDI32.dll
 0004:00001030       __imp__CreateCompatibleDC@4 00497030     gdi32:GDI32.dll
 0004:00001034       __imp__CreatePen@12        00497034     gdi32:GDI32.dll
 0004:00001038       \177GDI32_NULL_THUNK_DATA  00497038     gdi32:GDI32.dll
 0004:0000107c       __imp__GetStartupInfoA@4   0049707c     kernel32:KERNEL32.dll
 0004:00001080       __imp__GetModuleHandleA@4  00497080     kernel32:KERNEL32.dll
 0004:00001084       __imp__TerminateThread@8   00497084     kernel32:KERNEL32.dll
 0004:00001088       __imp__GetCurrentProcess@0 00497088     kernel32:KERNEL32.dll
 0004:0000108c       __imp__SetProcessWorkingSetSize@12 0049708c     kernel32:KERNEL32.dll
 0004:00001090       __imp__GetModuleFileNameA@12 00497090     kernel32:KERNEL32.dll
 0004:00001094       __imp__CreateProcessA@40   00497094     kernel32:KERNEL32.dll
 0004:00001098       __imp__OpenEventA@12       00497098     kernel32:KERNEL32.dll
 0004:0000109c       __imp__GetCurrentThread@0  0049709c     kernel32:KERNEL32.dll
 0004:000010a0       __imp__ResetEvent@4        004970a0     kernel32:KERNEL32.dll
 0004:000010a4       __imp__Sleep@4             004970a4     kernel32:KERNEL32.dll
 0004:000010a8       __imp__SetEvent@4          004970a8     kernel32:KERNEL32.dll
 0004:000010ac       __imp__WaitForSingleObject@8 004970ac     kernel32:KERNEL32.dll
 0004:000010b0       __imp__CreateEventA@16     004970b0     kernel32:KERNEL32.dll
 0004:000010b4       __imp__CreateThread@24     004970b4     kernel32:KERNEL32.dll
 0004:000010b8       __imp__ResumeThread@4      004970b8     kernel32:KERNEL32.dll
 0004:000010bc       __imp__GetTempPathA@8      004970bc     kernel32:KERNEL32.dll
 0004:000010c0       __imp__CopyFileA@12        004970c0     kernel32:KERNEL32.dll
 0004:000010c4       __imp__GetTempFileNameA@16 004970c4     kernel32:KERNEL32.dll
 0004:000010c8       __imp__WriteFile@20        004970c8     kernel32:KERNEL32.dll
 0004:000010cc       __imp__ReadFile@20         004970cc     kernel32:KERNEL32.dll
 0004:000010d0       __imp__SetFilePointer@16   004970d0     kernel32:KERNEL32.dll
 0004:000010d4       __imp__GetFileSize@8       004970d4     kernel32:KERNEL32.dll
 0004:000010d8       __imp__CloseHandle@4       004970d8     kernel32:KERNEL32.dll
 0004:000010dc       __imp__CreateFileA@28      004970dc     kernel32:KERNEL32.dll
 0004:000010e0       __imp__GlobalReAlloc@12    004970e0     kernel32:KERNEL32.dll
 0004:000010e4       __imp__GlobalUnlock@4      004970e4     kernel32:KERNEL32.dll
 0004:000010e8       __imp__GlobalLock@4        004970e8     kernel32:KERNEL32.dll
 0004:000010ec       __imp__GlobalSize@4        004970ec     kernel32:KERNEL32.dll
 0004:000010f0       __imp__MulDiv@12           004970f0     kernel32:KERNEL32.dll
 0004:000010f4       __imp__MultiByteToWideChar@24 004970f4     kernel32:KERNEL32.dll
 0004:000010f8       __imp__lstrcpynA@12        004970f8     kernel32:KERNEL32.dll
 0004:000010fc       __imp__InitializeCriticalSection@4 004970fc     kernel32:KERNEL32.dll
 0004:00001100       __imp__DeleteCriticalSection@4 00497100     kernel32:KERNEL32.dll
 0004:00001104       __imp__EnterCriticalSection@4 00497104     kernel32:KERNEL32.dll
 0004:00001108       __imp__LeaveCriticalSection@4 00497108     kernel32:KERNEL32.dll
 0004:0000110c       \177KERNEL32_NULL_THUNK_DATA 0049710c     kernel32:KERNEL32.dll
 0004:00001154       __imp_?SelectObject@CDC@@UAEPAVCFont@@PAV2@@Z 00497154     mfc42:MFC42.DLL
 0004:00001158       __imp_?SelectStockObject@CDC@@UAEPAVCGdiObject@@H@Z 00497158     mfc42:MFC42.DLL
 0004:0000115c       __imp_?RestoreDC@CDC@@UAEHH@Z 0049715c     mfc42:MFC42.DLL
 0004:00001160       __imp_?SaveDC@CDC@@UAEHXZ  00497160     mfc42:MFC42.DLL
 0004:00001164       __imp_?ReleaseOutputDC@CDC@@UAEXXZ 00497164     mfc42:MFC42.DLL
 0004:00001168       __imp_?ReleaseAttribDC@CDC@@UAEXXZ 00497168     mfc42:MFC42.DLL
 0004:0000116c       __imp_?SetOutputDC@CDC@@UAEXPAUHDC__@@@Z 0049716c     mfc42:MFC42.DLL
 0004:00001170       __imp_?SetAttribDC@CDC@@UAEXPAUHDC__@@@Z 00497170     mfc42:MFC42.DLL
 0004:00001174       __imp_?GetRuntimeClass@CDC@@UBEPAUCRuntimeClass@@XZ 00497174     mfc42:MFC42.DLL
 0004:00001178       __imp_?GetRuntimeClass@CBitmap@@UBEPAUCRuntimeClass@@XZ 00497178     mfc42:MFC42.DLL
 0004:0000117c       __imp_??1CPaintDC@@UAE@XZ  0049717c     mfc42:MFC42.DLL
 0004:00001180       __imp_??1CDC@@UAE@XZ       00497180     mfc42:MFC42.DLL
 0004:00001184       __imp_?SetWindowOrg@CDC@@QAE?AVCPoint@@HH@Z 00497184     mfc42:MFC42.DLL
 0004:00001188       __imp_?SelectGdiObject@CDC@@KGPAVCGdiObject@@PAUHDC__@@PAX@Z 00497188     mfc42:MFC42.DLL
 0004:0000118c       __imp_?Attach@CGdiObject@@QAEHPAX@Z 0049718c     mfc42:MFC42.DLL
 0004:00001190       __imp_?Attach@CDC@@QAEHPAUHDC__@@@Z 00497190     mfc42:MFC42.DLL
 0004:00001194       __imp_??0CDC@@QAE@XZ       00497194     mfc42:MFC42.DLL
 0004:00001198       __imp_??0CPaintDC@@QAE@PAVCWnd@@@Z 00497198     mfc42:MFC42.DLL
 0004:0000119c       __imp_?GetRuntimeClass@CBrush@@UBEPAUCRuntimeClass@@XZ 0049719c     mfc42:MFC42.DLL
 0004:000011a0       __imp_??0CBrush@@QAE@K@Z   004971a0     mfc42:MFC42.DLL
 0004:000011a4       __imp_?Default@CWnd@@IAEJXZ 004971a4     mfc42:MFC42.DLL
 0004:000011a8       __imp_?SetFocus@CWnd@@QAEPAV1@XZ 004971a8     mfc42:MFC42.DLL
 0004:000011ac       __imp_?OnSysColorChange@CWnd@@IAEXXZ 004971ac     mfc42:MFC42.DLL
 0004:000011b0       __imp_?OnSettingChange@CWnd@@IAEXIPBD@Z 004971b0     mfc42:MFC42.DLL
 0004:000011b4       __imp_?ScrollWindow@CWnd@@QAEXHHPBUtagRECT@@0@Z 004971b4     mfc42:MFC42.DLL
 0004:000011b8       __imp_?GetRuntimeClass@CPen@@UBEPAUCRuntimeClass@@XZ 004971b8     mfc42:MFC42.DLL
 0004:000011bc       __imp_?LineTo@CDC@@QAEHHH@Z 004971bc     mfc42:MFC42.DLL
 0004:000011c0       __imp_?MoveTo@CDC@@QAE?AVCPoint@@HH@Z 004971c0     mfc42:MFC42.DLL
 0004:000011c4       __imp_?SelectObject@CDC@@QAEPAVCPen@@PAV2@@Z 004971c4     mfc42:MFC42.DLL
 0004:000011c8       __imp_?FromHandle@CDC@@SGPAV1@PAUHDC__@@@Z 004971c8     mfc42:MFC42.DLL
 0004:000011cc       __imp_?CacheGlobalData@COleDataSource@@QAEXGPAXPAUtagFORMATETC@@@Z 004971cc     mfc42:MFC42.DLL
 0004:000011d0       __imp_??0COleDataSource@@QAE@XZ 004971d0     mfc42:MFC42.DLL
 0004:000011d4       __imp_??1CSharedFile@@UAE@XZ 004971d4     mfc42:MFC42.DLL
 0004:000011d8       __imp_??1CString@@QAE@XZ   004971d8     mfc42:MFC42.DLL
 0004:000011dc       __imp_?Detach@CSharedFile@@QAEPAXXZ 004971dc     mfc42:MFC42.DLL
 0004:000011e0       __imp_?GetLength@CFile@@UBEKXZ 004971e0     mfc42:MFC42.DLL
 0004:000011e4       __imp_?ReleaseBuffer@CString@@QAEXH@Z 004971e4     mfc42:MFC42.DLL
 0004:000011e8       __imp_?Write@CMemFile@@UAEXPBXI@Z 004971e8     mfc42:MFC42.DLL
 0004:000011ec       __imp_?GetBuffer@CString@@QAEPADH@Z 004971ec     mfc42:MFC42.DLL
 0004:000011f0       __imp_??YCString@@QAEABV0@ABV0@@Z 004971f0     mfc42:MFC42.DLL
 0004:000011f4       __imp_??YCString@@QAEABV0@PBD@Z 004971f4     mfc42:MFC42.DLL
 0004:000011f8       __imp_?Empty@CString@@QAEXXZ 004971f8     mfc42:MFC42.DLL
 0004:000011fc       __imp_??0CString@@QAE@XZ   004971fc     mfc42:MFC42.DLL
 0004:00001200       __imp_??0CSharedFile@@QAE@II@Z 00497200     mfc42:MFC42.DLL
 0004:00001204       __imp_?UnlockBuffer@CString@@QAEXXZ 00497204     mfc42:MFC42.DLL
 0004:00001208       __imp_?TrimRight@CString@@QAEXXZ 00497208     mfc42:MFC42.DLL
 0004:0000120c       __imp_?TrimLeft@CString@@QAEXXZ 0049720c     mfc42:MFC42.DLL
 0004:00001210       __imp_??4CString@@QAEABV0@PBD@Z 00497210     mfc42:MFC42.DLL
 0004:00001214       __imp_??4CString@@QAEABV0@ABV0@@Z 00497214     mfc42:MFC42.DLL
 0004:00001218       __imp_?Left@CString@@QBE?AV1@H@Z 00497218     mfc42:MFC42.DLL
 0004:0000121c       __imp_?Mid@CString@@QBE?AV1@H@Z 0049721c     mfc42:MFC42.DLL
 0004:00001220       __imp_?Find@CString@@QBEHPBD@Z 00497220     mfc42:MFC42.DLL
 0004:00001224       __imp_??0CString@@QAE@ABV0@@Z 00497224     mfc42:MFC42.DLL
 0004:00001228       __imp_?LockBuffer@CString@@QAEPADXZ 00497228     mfc42:MFC42.DLL
 0004:0000122c       __imp_??0CString@@QAE@PBD@Z 0049722c     mfc42:MFC42.DLL
 0004:00001230       __imp_?Read@CMemFile@@UAEIPAXI@Z 00497230     mfc42:MFC42.DLL
 0004:00001234       __imp_??1CMemFile@@UAE@XZ  00497234     mfc42:MFC42.DLL
 0004:00001238       __imp_??0CMemFile@@QAE@PAEII@Z 00497238     mfc42:MFC42.DLL
 0004:0000123c       __imp_?GetGlobalData@COleDataObject@@QAEPAXGPAUtagFORMATETC@@@Z 0049723c     mfc42:MFC42.DLL
 0004:00001240       __imp_?IsDataAvailable@COleDataObject@@QAEHGPAUtagFORMATETC@@@Z 00497240     mfc42:MFC42.DLL
 0004:00001244       __imp_?DoDragDrop@COleDataSource@@QAEKKPBUtagRECT@@PAVCOleDropSource@@@Z 00497244     mfc42:MFC42.DLL
 0004:00001248       __imp_?SetClipboard@COleDataSource@@QAEXXZ 00497248     mfc42:MFC42.DLL
 0004:0000124c       __imp_?Release@COleDataObject@@QAEXXZ 0049724c     mfc42:MFC42.DLL
 0004:00001250       __imp_?AttachClipboard@COleDataObject@@QAEHXZ 00497250     mfc42:MFC42.DLL
 0004:00001254       __imp_??0COleDataObject@@QAE@XZ 00497254     mfc42:MFC42.DLL
 0004:00001258       __imp_?GetScrollPos@CWnd@@QBEHH@Z 00497258     mfc42:MFC42.DLL
 0004:0000125c       __imp_?GetScrollInfo@CWnd@@QAEHHPAUtagSCROLLINFO@@I@Z 0049725c     mfc42:MFC42.DLL
 0004:00001260       __imp_?SetScrollInfo@CWnd@@QAEHHPAUtagSCROLLINFO@@H@Z 00497260     mfc42:MFC42.DLL
 0004:00001264       __imp_?SetScrollRange@CWnd@@QAEXHHHH@Z 00497264     mfc42:MFC42.DLL
 0004:00001268       __imp_?SetSize@CObArray@@QAEXHH@Z 00497268     mfc42:MFC42.DLL
 0004:0000126c       __imp_?InsertAt@CObArray@@QAEXHPAVCObject@@H@Z 0049726c     mfc42:MFC42.DLL
 0004:00001270       __imp_?InsertAt@CUIntArray@@QAEXHIH@Z 00497270     mfc42:MFC42.DLL
 0004:00001274       __imp_?SetAtGrow@CObArray@@QAEXHPAVCObject@@@Z 00497274     mfc42:MFC42.DLL
 0004:00001278       __imp_?SetAtGrow@CUIntArray@@QAEXHI@Z 00497278     mfc42:MFC42.DLL
 0004:0000127c       __imp_?RemoveAt@CUIntArray@@QAEXHH@Z 0049727c     mfc42:MFC42.DLL
 0004:00001280       __imp_?RemoveAt@CObArray@@QAEXHH@Z 00497280     mfc42:MFC42.DLL
 0004:00001284       __imp_?ClientToScreen@CWnd@@QBEXPAUtagRECT@@@Z 00497284     mfc42:MFC42.DLL
 0004:00001288       __imp_??1CDialog@@UAE@XZ   00497288     mfc42:MFC42.DLL
 0004:0000128c       __imp_??1CPrintInfo@@QAE@XZ 0049728c     mfc42:MFC42.DLL
 0004:00001290       __imp_?Detach@CDC@@QAEPAUHDC__@@XZ 00497290     mfc42:MFC42.DLL
 0004:00001294       __imp_??0CPrintInfo@@QAE@XZ 00497294     mfc42:MFC42.DLL
 0004:00001298       __imp_?LoadStringA@CString@@QAEHI@Z 00497298     mfc42:MFC42.DLL
 0004:0000129c       __imp_?DoModal@CPrintDialog@@UAEHXZ 0049729c     mfc42:MFC42.DLL
 0004:000012a0       __imp_??0CPrintDialog@@QAE@HKPAVCWnd@@@Z 004972a0     mfc42:MFC42.DLL
 0004:000012a4       __imp_?OffsetWindowOrg@CDC@@QAE?AVCPoint@@HH@Z 004972a4     mfc42:MFC42.DLL
 0004:000012a8       __imp_?GetWindowTextA@CWnd@@QBEXAAVCString@@@Z 004972a8     mfc42:MFC42.DLL
 0004:000012ac       __imp_?SetBkMode@CDC@@QAEHH@Z 004972ac     mfc42:MFC42.DLL
 0004:000012b0       __imp_?Format@CTime@@QBE?AVCString@@PBD@Z 004972b0     mfc42:MFC42.DLL
 0004:000012b4       __imp_?GetTickCount@CTime@@SG?AV1@XZ 004972b4     mfc42:MFC42.DLL
 0004:000012b8       __imp_?Format@CString@@QAAXPBDZZ 004972b8     mfc42:MFC42.DLL
 0004:000012bc       __imp_?GetErrorMessage@CFileException@@UAEHPADIPAI@Z 004972bc     mfc42:MFC42.DLL
 0004:000012c0       __imp_?GetRuntimeClass@CFileException@@UBEPAUCRuntimeClass@@XZ 004972c0     mfc42:MFC42.DLL
 0004:000012c4       __imp_??1CStdioFile@@UAE@XZ 004972c4     mfc42:MFC42.DLL
 0004:000012c8       __imp_?Close@CStdioFile@@UAEXXZ 004972c8     mfc42:MFC42.DLL
 0004:000012cc       __imp_?WriteString@CStdioFile@@UAEXPBD@Z 004972cc     mfc42:MFC42.DLL
 0004:000012d0       __imp_?ReportError@CException@@UAEHII@Z 004972d0     mfc42:MFC42.DLL
 0004:000012d4       __imp_?Open@CStdioFile@@UAEHPBDIPAVCFileException@@@Z 004972d4     mfc42:MFC42.DLL
 0004:000012d8       __imp_??0CException@@QAE@XZ 004972d8     mfc42:MFC42.DLL
 0004:000012dc       __imp_??0CStdioFile@@QAE@XZ 004972dc     mfc42:MFC42.DLL
 0004:000012e0       __imp_?ReadString@CStdioFile@@UAEPADPADI@Z 004972e0     mfc42:MFC42.DLL
 0004:000012e4       __imp_?Create@CImageList@@QAEHHHIHH@Z 004972e4     mfc42:MFC42.DLL
 0004:000012e8       __imp_??0CImageList@@QAE@XZ 004972e8     mfc42:MFC42.DLL
 0004:000012ec       __imp_?EndWaitCursor@CCmdTarget@@QAEXXZ 004972ec     mfc42:MFC42.DLL
 0004:000012f0       __imp_?BeginWaitCursor@CCmdTarget@@QAEXXZ 004972f0     mfc42:MFC42.DLL
 0004:000012f4       __imp_?FromHandle@CGdiObject@@SGPAV1@PAX@Z 004972f4     mfc42:MFC42.DLL
 0004:000012f8       __imp_??0CPen@@QAE@HHK@Z   004972f8     mfc42:MFC42.DLL
 0004:000012fc       __imp_?FillSolidRect@CDC@@QAEXPBUtagRECT@@K@Z 004972fc     mfc42:MFC42.DLL
 0004:00001300       __imp_?Create@CPlex@@SGPAU1@AAPAU1@II@Z 00497300     mfc42:MFC42.DLL
 0004:00001304       __imp_?ReadCount@CArchive@@QAEKXZ 00497304     mfc42:MFC42.DLL
 0004:00001308       __imp_?Read@CArchive@@QAEIPAXI@Z 00497308     mfc42:MFC42.DLL
 0004:0000130c       __imp_?Write@CArchive@@QAEXPBXI@Z 0049730c     mfc42:MFC42.DLL
 0004:00001310       __imp_?WriteCount@CArchive@@QAEXK@Z 00497310     mfc42:MFC42.DLL
 0004:00001314       __imp_?OnDropEx@COleDropTarget@@UAEKPAVCWnd@@PAVCOleDataObject@@KKVCPoint@@@Z 00497314     mfc42:MFC42.DLL
 0004:00001318       __imp_?GetInterfaceMap@COleDropTarget@@MBEPBUAFX_INTERFACEMAP@@XZ 00497318     mfc42:MFC42.DLL
 0004:0000131c       __imp_?OnFinalRelease@CCmdTarget@@UAEXXZ 0049731c     mfc42:MFC42.DLL
 0004:00001320       __imp_?GetRuntimeClass@CCmdTarget@@UBEPAUCRuntimeClass@@XZ 00497320     mfc42:MFC42.DLL
 0004:00001324       __imp_??0COleDropTarget@@QAE@XZ 00497324     mfc42:MFC42.DLL
 0004:00001328       __imp_??1COleDropTarget@@UAE@XZ 00497328     mfc42:MFC42.DLL
 0004:0000132c       __imp_?Register@COleDropTarget@@QAEHPAVCWnd@@@Z 0049732c     mfc42:MFC42.DLL
 0004:00001330       __imp_?IsKindOf@CObject@@QBEHPBUCRuntimeClass@@@Z 00497330     mfc42:MFC42.DLL
 0004:00001334       __imp_?Revoke@COleDropTarget@@UAEXXZ 00497334     mfc42:MFC42.DLL
 0004:00001338       __imp_?messageMap@CCmdTarget@@1UAFX_MSGMAP@@B 00497338     mfc42:MFC42.DLL
 0004:0000133c       __imp_?GetMessageMap@CWnd@@MBEPBUAFX_MSGMAP@@XZ 0049733c     mfc42:MFC42.DLL
 0004:00001340       __imp_?GetRuntimeClass@CEdit@@UBEPAUCRuntimeClass@@XZ 00497340     mfc42:MFC42.DLL
 0004:00001344       __imp_??1CEdit@@UAE@XZ     00497344     mfc42:MFC42.DLL
 0004:00001348       __imp_?SetWindowTextA@CWnd@@QAEXPBD@Z 00497348     mfc42:MFC42.DLL
 0004:0000134c       __imp_?Create@CEdit@@QAEHKABUtagRECT@@PAVCWnd@@I@Z 0049734c     mfc42:MFC42.DLL
 0004:00001350       __imp_??1CWindowDC@@UAE@XZ 00497350     mfc42:MFC42.DLL
 0004:00001354       __imp_?MoveWindow@CWnd@@QAEXHHHHH@Z 00497354     mfc42:MFC42.DLL
 0004:00001358       __imp_??0CWindowDC@@QAE@PAVCWnd@@@Z 00497358     mfc42:MFC42.DLL
 0004:0000135c       __imp_?GetRuntimeClass@CWnd@@UBEPAUCRuntimeClass@@XZ 0049735c     mfc42:MFC42.DLL
 0004:00001360       __imp_?CreateEx@CWnd@@QAEHKPBD0KHHHHPAUHWND__@@PAUHMENU__@@PAX@Z 00497360     mfc42:MFC42.DLL
 0004:00001364       __imp_??1CClientDC@@UAE@XZ 00497364     mfc42:MFC42.DLL
 0004:00001368       __imp_?SetWindowPos@CWnd@@QAEHPBV1@HHHHI@Z 00497368     mfc42:MFC42.DLL
 0004:0000136c       __imp_?wndTop@CWnd@@2V1@B  0049736c     mfc42:MFC42.DLL
 0004:00001370       __imp_??0CClientDC@@QAE@PAVCWnd@@@Z 00497370     mfc42:MFC42.DLL
 0004:00001374       __imp_?ScreenToClient@CWnd@@QBEXPAUtagRECT@@@Z 00497374     mfc42:MFC42.DLL
 0004:00001378       __imp_?ShowWindow@CWnd@@QAEHH@Z 00497378     mfc42:MFC42.DLL
 0004:0000137c       __imp_?GetRuntimeClass@CStatic@@UBEPAUCRuntimeClass@@XZ 0049737c     mfc42:MFC42.DLL
 0004:00001380       __imp_?GetRuntimeClass@CRgn@@UBEPAUCRuntimeClass@@XZ 00497380     mfc42:MFC42.DLL
 0004:00001384       __imp_??1CStatic@@UAE@XZ   00497384     mfc42:MFC42.DLL
 0004:00001388       __imp_?SetTextAlign@CDC@@QAEII@Z 00497388     mfc42:MFC42.DLL
 0004:0000138c       __imp_?SelectObject@CDC@@QAEPAVCBrush@@PAV2@@Z 0049738c     mfc42:MFC42.DLL
 0004:00001390       __imp_?SelectClipRgn@CDC@@QAEHPAVCRgn@@@Z 00497390     mfc42:MFC42.DLL
 0004:00001394       __imp_?PolylineTo@CDC@@QAEHPBUtagPOINT@@H@Z 00497394     mfc42:MFC42.DLL
 0004:00001398       __imp_?DeleteDC@CDC@@QAEHXZ 00497398     mfc42:MFC42.DLL
 0004:0000139c       __imp_?classCButton@CButton@@2UCRuntimeClass@@B 0049739c     mfc42:MFC42.DLL
 0004:000013a0       __imp_?OnChildNotify@CButton@@MAEHIIJPAJ@Z 004973a0     mfc42:MFC42.DLL
 0004:000013a4       __imp_??1CButton@@UAE@XZ   004973a4     mfc42:MFC42.DLL
 0004:000013a8       __imp_?OnCtlColor@CWnd@@IAEPAUHBRUSH__@@PAVCDC@@PAV1@I@Z 004973a8     mfc42:MFC42.DLL
 0004:000013ac       __imp_?InflateRect@CRect@@QAEXHHHH@Z 004973ac     mfc42:MFC42.DLL
 0004:000013b0       __imp_?Replace@CString@@QAEHPBD0@Z 004973b0     mfc42:MFC42.DLL
 0004:000013b4       __imp_?GetControlUnknown@CWnd@@QAEPAUIUnknown@@XZ 004973b4     mfc42:MFC42.DLL
 0004:000013b8       __imp_?CreateControl@CWnd@@QAEHABU_GUID@@PBDKABUtagRECT@@PAV1@IPAVCFile@@HPAG@Z 004973b8     mfc42:MFC42.DLL
 0004:000013bc       __imp_??0COleVariant@@QAE@JG@Z 004973bc     mfc42:MFC42.DLL
 0004:000013c0       __imp_?AllocSysString@CString@@QBEPAGXZ 004973c0     mfc42:MFC42.DLL
 0004:000013c4       __imp_?AfxVariantInit@@YGXPAUtagVARIANT@@@Z 004973c4     mfc42:MFC42.DLL
 0004:000013c8       __imp_??1CStringList@@UAE@XZ 004973c8     mfc42:MFC42.DLL
 0004:000013cc       __imp_?Find@CString@@QBEHD@Z 004973cc     mfc42:MFC42.DLL
 0004:000013d0       __imp_??1CStringArray@@UAE@XZ 004973d0     mfc42:MFC42.DLL
 0004:000013d4       __imp_?SetAtGrow@CStringArray@@QAEXHABVCString@@@Z 004973d4     mfc42:MFC42.DLL
 0004:000013d8       __imp_??0CStringArray@@QAE@XZ 004973d8     mfc42:MFC42.DLL
 0004:000013dc       __imp_?Right@CString@@QBE?AV1@H@Z 004973dc     mfc42:MFC42.DLL
 0004:000013e0       __imp_??H@YG?AVCString@@DABV0@@Z 004973e0     mfc42:MFC42.DLL
 0004:000013e4       __imp_??0CStringList@@QAE@H@Z 004973e4     mfc42:MFC42.DLL
 0004:000013e8       __imp_?ReverseFind@CString@@QBEHD@Z 004973e8     mfc42:MFC42.DLL
 0004:000013ec       __imp_?AddTail@CStringList@@QAEPAU__POSITION@@ABVCString@@@Z 004973ec     mfc42:MFC42.DLL
 0004:000013f0       __imp_?Mid@CString@@QBE?AV1@HH@Z 004973f0     mfc42:MFC42.DLL
 0004:000013f4       __imp_?Find@CString@@QBEHDH@Z 004973f4     mfc42:MFC42.DLL
 0004:000013f8       __imp_?wndNoTopMost@CWnd@@2V1@B 004973f8     mfc42:MFC42.DLL
 0004:000013fc       __imp_?AfxGetThread@@YGPAVCWinThread@@XZ 004973fc     mfc42:MFC42.DLL
 0004:00001400       __imp_?SetBkColor@CDC@@UAEKK@Z 00497400     mfc42:MFC42.DLL
 0004:00001404       __imp_??0CPtrList@@QAE@H@Z 00497404     mfc42:MFC42.DLL
 0004:00001408       __imp_?classCCmdTarget@CCmdTarget@@2UCRuntimeClass@@B 00497408     mfc42:MFC42.DLL
 0004:0000140c       __imp_??1CCmdTarget@@UAE@XZ 0049740c     mfc42:MFC42.DLL
 0004:00001410       __imp_?EnableAutomation@CCmdTarget@@QAEXXZ 00497410     mfc42:MFC42.DLL
 0004:00001414       __imp_??0CCmdTarget@@QAE@XZ 00497414     mfc42:MFC42.DLL
 0004:00001418       __imp_?dispatchMap@CCmdTarget@@1UAFX_DISPMAP@@B 00497418     mfc42:MFC42.DLL
 0004:0000141c       __imp_?AfxConnectionAdvise@@YGHPAUIUnknown@@ABU_GUID@@0HPAK@Z 0049741c     mfc42:MFC42.DLL
 0004:00001420       __imp_?GetIDispatch@CCmdTarget@@QAEPAUIDispatch@@H@Z 00497420     mfc42:MFC42.DLL
 0004:00001424       __imp_?AfxConnectionUnadvise@@YGHPAUIUnknown@@ABU_GUID@@0HK@Z 00497424     mfc42:MFC42.DLL
 0004:00001428       __imp_?AfxParseURLEx@@YGHPBDAAKAAVCString@@2AAG22K@Z 00497428     mfc42:MFC42.DLL
 0004:0000142c       __imp_??H@YG?AVCString@@PBDABV0@@Z 0049742c     mfc42:MFC42.DLL
 0004:00001430       __imp_??0CString@@QAE@PBG@Z 00497430     mfc42:MFC42.DLL
 0004:00001434       __imp_?DrawItem@CButton@@UAEXPAUtagDRAWITEMSTRUCT@@@Z 00497434     mfc42:MFC42.DLL
 0004:00001438       __imp_?GetRuntimeClass@CButton@@UBEPAUCRuntimeClass@@XZ 00497438     mfc42:MFC42.DLL
 0004:0000143c       __imp_?DeleteItem@CComboBox@@UAEXPAUtagDELETEITEMSTRUCT@@@Z 0049743c     mfc42:MFC42.DLL
 0004:00001440       __imp_?CompareItem@CComboBox@@UAEHPAUtagCOMPAREITEMSTRUCT@@@Z 00497440     mfc42:MFC42.DLL
 0004:00001444       __imp_?MeasureItem@CComboBox@@UAEXPAUtagMEASUREITEMSTRUCT@@@Z 00497444     mfc42:MFC42.DLL
 0004:00001448       __imp_?DrawItem@CComboBox@@UAEXPAUtagDRAWITEMSTRUCT@@@Z 00497448     mfc42:MFC42.DLL
 0004:0000144c       __imp_?OnChildNotify@CComboBox@@MAEHIIJPAJ@Z 0049744c     mfc42:MFC42.DLL
 0004:00001450       __imp_?GetRuntimeClass@CComboBox@@UBEPAUCRuntimeClass@@XZ 00497450     mfc42:MFC42.DLL
 0004:00001454       __imp_??1CComboBox@@UAE@XZ 00497454     mfc42:MFC42.DLL
 0004:00001458       __imp_?GetLBText@CComboBox@@QBEXHAAVCString@@@Z 00497458     mfc42:MFC42.DLL
 0004:0000145c       __imp_?MessageBoxA@CWnd@@QAEHPBD0I@Z 0049745c     mfc42:MFC42.DLL
 0004:00001460       __imp_?DoModal@CDialog@@UAEHXZ 00497460     mfc42:MFC42.DLL
 0004:00001464       __imp_?Format@CString@@QAAXIZZ 00497464     mfc42:MFC42.DLL
 0004:00001468       __imp_??0CMapWordToPtr@@QAE@H@Z 00497468     mfc42:MFC42.DLL
 0004:0000146c       __imp_??1CMapWordToPtr@@UAE@XZ 0049746c     mfc42:MFC42.DLL
 0004:00001470       __imp_?RemoveAll@CMapWordToPtr@@QAEXXZ 00497470     mfc42:MFC42.DLL
 0004:00001474       __imp_?GetNextAssoc@CMapWordToPtr@@QBEXAAPAU__POSITION@@AAGAAPAX@Z 00497474     mfc42:MFC42.DLL
 0004:00001478       __imp_??ACMapWordToPtr@@QAEAAPAXG@Z 00497478     mfc42:MFC42.DLL
 0004:0000147c       __imp_?Lookup@CMapWordToPtr@@QBEHGAAPAX@Z 0049747c     mfc42:MFC42.DLL
 0004:00001480       __imp_??0CString@@QAE@DH@Z 00497480     mfc42:MFC42.DLL
 0004:00001484       __imp_?CharToItem@CListBox@@UAEHII@Z 00497484     mfc42:MFC42.DLL
 0004:00001488       __imp_?VKeyToItem@CListBox@@UAEHII@Z 00497488     mfc42:MFC42.DLL
 0004:0000148c       __imp_?DeleteItem@CListBox@@UAEXPAUtagDELETEITEMSTRUCT@@@Z 0049748c     mfc42:MFC42.DLL
 0004:00001490       __imp_?CompareItem@CListBox@@UAEHPAUtagCOMPAREITEMSTRUCT@@@Z 00497490     mfc42:MFC42.DLL
 0004:00001494       __imp_?MeasureItem@CListBox@@UAEXPAUtagMEASUREITEMSTRUCT@@@Z 00497494     mfc42:MFC42.DLL
 0004:00001498       __imp_?DrawItem@CListBox@@UAEXPAUtagDRAWITEMSTRUCT@@@Z 00497498     mfc42:MFC42.DLL
 0004:0000149c       __imp_?OnChildNotify@CListBox@@MAEHIIJPAJ@Z 0049749c     mfc42:MFC42.DLL
 0004:000014a0       __imp_?GetRuntimeClass@CListBox@@UBEPAUCRuntimeClass@@XZ 004974a0     mfc42:MFC42.DLL
 0004:000014a4       __imp_??1CListBox@@UAE@XZ  004974a4     mfc42:MFC42.DLL
 0004:000014a8       __imp_?GetText@CListBox@@QBEXHAAVCString@@@Z 004974a8     mfc42:MFC42.DLL
 0004:000014ac       __imp_?AddHead@CPtrList@@QAEPAU__POSITION@@PAX@Z 004974ac     mfc42:MFC42.DLL
 0004:000014b0       __imp_?RemoveAt@CPtrList@@QAEXPAU__POSITION@@@Z 004974b0     mfc42:MFC42.DLL
 0004:000014b4       __imp_?RemoveHead@CPtrList@@QAEPAXXZ 004974b4     mfc42:MFC42.DLL
 0004:000014b8       __imp_?AddTail@CPtrList@@QAEPAU__POSITION@@PAX@Z 004974b8     mfc42:MFC42.DLL
 0004:000014bc       __imp_?InsertAfter@CPtrList@@QAEPAU__POSITION@@PAU2@PAX@Z 004974bc     mfc42:MFC42.DLL
 0004:000014c0       __imp_?InsertBefore@CPtrList@@QAEPAU__POSITION@@PAU2@PAX@Z 004974c0     mfc42:MFC42.DLL
 0004:000014c4       __imp_?Create@CStatic@@QAEHPBDKABUtagRECT@@PAVCWnd@@I@Z 004974c4     mfc42:MFC42.DLL
 0004:000014c8       __imp_?ModifyStyle@CWnd@@QAEHKKI@Z 004974c8     mfc42:MFC42.DLL
 0004:000014cc       __imp_?Create@CButton@@QAEHPBDKABUtagRECT@@PAVCWnd@@I@Z 004974cc     mfc42:MFC42.DLL
 0004:000014d0       __imp_?EnableWindow@CWnd@@QAEHH@Z 004974d0     mfc42:MFC42.DLL
 0004:000014d4       __imp_?Replace@CString@@QAEHDD@Z 004974d4     mfc42:MFC42.DLL
 0004:000014d8       __imp_??0CPen@@QAE@HHPBUtagLOGBRUSH@@HPBK@Z 004974d8     mfc42:MFC42.DLL
 0004:000014dc       __imp_?Create@CComboBox@@QAEHKABUtagRECT@@PAVCWnd@@I@Z 004974dc     mfc42:MFC42.DLL
 0004:000014e0       __imp_?Create@CListBox@@QAEHKABUtagRECT@@PAVCWnd@@I@Z 004974e0     mfc42:MFC42.DLL
 0004:000014e4       __imp_?InvokeHelper@CWnd@@QAAXJGGPAXPBEZZ 004974e4     mfc42:MFC42.DLL
 0004:000014e8       __imp_?RemoveTail@CPtrList@@QAEPAXXZ 004974e8     mfc42:MFC42.DLL
 0004:000014ec       __imp_??YCString@@QAEABV0@D@Z 004974ec     mfc42:MFC42.DLL
 0004:000014f0       __imp_?Delete@CString@@QAEHHH@Z 004974f0     mfc42:MFC42.DLL
 0004:000014f4       __imp_?MakeUpper@CString@@QAEXXZ 004974f4     mfc42:MFC42.DLL
 0004:000014f8       __imp_?SetSize@CStringArray@@QAEXHH@Z 004974f8     mfc42:MFC42.DLL
 0004:000014fc       __imp_??H@YG?AVCString@@ABV0@0@Z 004974fc     mfc42:MFC42.DLL
 0004:00001500       __imp_??H@YG?AVCString@@ABV0@D@Z 00497500     mfc42:MFC42.DLL
 0004:00001504       __imp_?RemoveAll@CPtrList@@QAEXXZ 00497504     mfc42:MFC42.DLL
 0004:00001508       __imp_?FindIndex@CPtrList@@QBEPAU__POSITION@@H@Z 00497508     mfc42:MFC42.DLL
 0004:0000150c       __imp_??1CMapStringToPtr@@UAE@XZ 0049750c     mfc42:MFC42.DLL
 0004:00001510       __imp_??0CMapStringToPtr@@QAE@H@Z 00497510     mfc42:MFC42.DLL
 0004:00001514       __imp_??ACMapStringToPtr@@QAEAAPAXPBD@Z 00497514     mfc42:MFC42.DLL
 0004:00001518       __imp_?Lookup@CMapStringToPtr@@QBEHPBDAAPAX@Z 00497518     mfc42:MFC42.DLL
 0004:0000151c       __imp_?RemoveKey@CMapStringToPtr@@QAEHPBD@Z 0049751c     mfc42:MFC42.DLL
 0004:00001520       __imp_?GetNextAssoc@CMapStringToPtr@@QBEXAAPAU__POSITION@@AAVCString@@AAPAX@Z 00497520     mfc42:MFC42.DLL
 0004:00001524       __imp_?RemoveAll@CMapStringToPtr@@QAEXXZ 00497524     mfc42:MFC42.DLL
 0004:00001528       __imp_?PreInitDialog@CDialog@@MAEXXZ 00497528     mfc42:MFC42.DLL
 0004:0000152c       __imp_?OnCancel@CDialog@@MAEXXZ 0049752c     mfc42:MFC42.DLL
 0004:00001530       __imp_?OnSetFont@CDialog@@UAEXPAVCFont@@@Z 00497530     mfc42:MFC42.DLL
 0004:00001534       __imp_?SetOccDialogInfo@CDialog@@MAEHPAU_AFX_OCC_DIALOG_INFO@@@Z 00497534     mfc42:MFC42.DLL
 0004:00001538       __imp_?CheckAutoCenter@CDialog@@UAEHXZ 00497538     mfc42:MFC42.DLL
 0004:0000153c       __imp_?PreTranslateMessage@CDialog@@UAEHPAUtagMSG@@@Z 0049753c     mfc42:MFC42.DLL
 0004:00001540       __imp_?OnCmdMsg@CDialog@@UAEHIHPAXPAUAFX_CMDHANDLERINFO@@@Z 00497540     mfc42:MFC42.DLL
 0004:00001544       __imp_?GetRuntimeClass@CDialog@@UBEPAUCRuntimeClass@@XZ 00497544     mfc42:MFC42.DLL
 0004:00001548       __imp_??0CDialog@@QAE@IPAVCWnd@@@Z 00497548     mfc42:MFC42.DLL
 0004:0000154c       __imp_?DDX_Radio@@YGXPAVCDataExchange@@HAAH@Z 0049754c     mfc42:MFC42.DLL
 0004:00001550       __imp_?DDX_CBString@@YGXPAVCDataExchange@@HAAVCString@@@Z 00497550     mfc42:MFC42.DLL
 0004:00001554       __imp_?DDX_Text@@YGXPAVCDataExchange@@HAAVCString@@@Z 00497554     mfc42:MFC42.DLL
 0004:00001558       __imp_?DDX_Control@@YGXPAVCDataExchange@@HAAVCWnd@@@Z 00497558     mfc42:MFC42.DLL
 0004:0000155c       __imp_?messageMap@CDialog@@1UAFX_MSGMAP@@B 0049755c     mfc42:MFC42.DLL
 0004:00001560       __imp_?UpdateData@CWnd@@QAEHH@Z 00497560     mfc42:MFC42.DLL
 0004:00001564       __imp_?OnInitDialog@CDialog@@UAEHXZ 00497564     mfc42:MFC42.DLL
 0004:00001568       __imp_?OnOK@CDialog@@MAEXXZ 00497568     mfc42:MFC42.DLL
 0004:0000156c       __imp_?GetDlgItem@CWnd@@QBEPAV1@H@Z 0049756c     mfc42:MFC42.DLL
 0004:00001570       __imp_?MakeLower@CString@@QAEXXZ 00497570     mfc42:MFC42.DLL
 0004:00001574       __imp_?CenterWindow@CWnd@@QAEXPAV1@@Z 00497574     mfc42:MFC42.DLL
 0004:00001578       __imp_?EndDialog@CDialog@@QAEXH@Z 00497578     mfc42:MFC42.DLL
 0004:0000157c       __imp_?OnDestroy@CWnd@@IAEXXZ 0049757c     mfc42:MFC42.DLL
 0004:00001580       __imp_?OnCtlColor@CDialog@@IAEPAUHBRUSH__@@PAVCDC@@PAVCWnd@@I@Z 00497580     mfc42:MFC42.DLL
 0004:00001584       __imp_??1CFile@@UAE@XZ     00497584     mfc42:MFC42.DLL
 0004:00001588       __imp_?Close@CFile@@UAEXXZ 00497588     mfc42:MFC42.DLL
 0004:0000158c       __imp_?Write@CFile@@UAEXPBXI@Z 0049758c     mfc42:MFC42.DLL
 0004:00001590       __imp_?Open@CFile@@UAEHPBDIPAVCFileException@@@Z 00497590     mfc42:MFC42.DLL
 0004:00001594       __imp_??0CFile@@QAE@XZ     00497594     mfc42:MFC42.DLL
 0004:00001598       __imp_??H@YG?AVCString@@ABV0@PBD@Z 00497598     mfc42:MFC42.DLL
 0004:0000159c       __imp_?GetStatus@CFile@@SGHPBDAAUCFileStatus@@@Z 0049759c     mfc42:MFC42.DLL
 0004:000015a0       __imp_?ReadString@CStdioFile@@UAEHAAVCString@@@Z 004975a0     mfc42:MFC42.DLL
 0004:000015a4       __imp_??0CStdioFile@@QAE@PBDI@Z 004975a4     mfc42:MFC42.DLL
 0004:000015a8       __imp_?OnHelp@CWinApp@@IAEXXZ 004975a8     mfc42:MFC42.DLL
 0004:000015ac       __imp_?messageMap@CWinApp@@1UAFX_MSGMAP@@B 004975ac     mfc42:MFC42.DLL
 0004:000015b0       __imp_?OnDDECommand@CWinApp@@UAEHPAD@Z 004975b0     mfc42:MFC42.DLL
 0004:000015b4       __imp_?DoWaitCursor@CWinApp@@UAEXH@Z 004975b4     mfc42:MFC42.DLL
 0004:000015b8       __imp_?DoMessageBox@CWinApp@@UAEHPBDII@Z 004975b8     mfc42:MFC42.DLL
 0004:000015bc       __imp_?SaveAllModified@CWinApp@@UAEHXZ 004975bc     mfc42:MFC42.DLL
 0004:000015c0       __imp_?InitApplication@CWinApp@@UAEHXZ 004975c0     mfc42:MFC42.DLL
 0004:000015c4       __imp_?AddToRecentFileList@CWinApp@@UAEXPBD@Z 004975c4     mfc42:MFC42.DLL
 0004:000015c8       __imp_?OpenDocumentFile@CWinApp@@UAEPAVCDocument@@PBD@Z 004975c8     mfc42:MFC42.DLL
 0004:000015cc       __imp_?Delete@CWinThread@@UAEXXZ 004975cc     mfc42:MFC42.DLL
 0004:000015d0       __imp_?GetMainWnd@CWinThread@@UAEPAVCWnd@@XZ 004975d0     mfc42:MFC42.DLL
 0004:000015d4       __imp_?ProcessMessageFilter@CWinThread@@UAEHHPAUtagMSG@@@Z 004975d4     mfc42:MFC42.DLL
 0004:000015d8       __imp_?ProcessWndProcException@CWinApp@@UAEJPAVCException@@PBUtagMSG@@@Z 004975d8     mfc42:MFC42.DLL
 0004:000015dc       __imp_?IsIdleMessage@CWinThread@@UAEHPAUtagMSG@@@Z 004975dc     mfc42:MFC42.DLL
 0004:000015e0       __imp_?OnIdle@CWinApp@@UAEHJ@Z 004975e0     mfc42:MFC42.DLL
 0004:000015e4       __imp_?PumpMessage@CWinThread@@UAEHXZ 004975e4     mfc42:MFC42.DLL
 0004:000015e8       __imp_?PreTranslateMessage@CWinThread@@UAEHPAUtagMSG@@@Z 004975e8     mfc42:MFC42.DLL
 0004:000015ec       __imp_?Run@CWinApp@@UAEHXZ 004975ec     mfc42:MFC42.DLL
 0004:000015f0       __imp_?GetRuntimeClass@CWinApp@@UBEPAUCRuntimeClass@@XZ 004975f0     mfc42:MFC42.DLL
 0004:000015f4       __imp_??1CWinApp@@UAE@XZ   004975f4     mfc42:MFC42.DLL
 0004:000015f8       __imp_??0CWinApp@@QAE@PBD@Z 004975f8     mfc42:MFC42.DLL
 0004:000015fc       __imp_?ParseCommandLine@CWinApp@@QAEXAAVCCommandLineInfo@@@Z 004975fc     mfc42:MFC42.DLL
 0004:00001600       __imp_?Enable3dControls@CWinApp@@IAEHXZ 00497600     mfc42:MFC42.DLL
 0004:00001604       __imp_?AfxEnableControlContainer@@YAXPAVCOccManager@@@Z 00497604     mfc42:MFC42.DLL
 0004:00001608       __imp_?AfxMessageBox@@YGHIII@Z 00497608     mfc42:MFC42.DLL
 0004:0000160c       __imp_?AfxSocketInit@@YGHPAUWSAData@@@Z 0049760c     mfc42:MFC42.DLL
 0004:00001610       __imp_?ExitInstance@CWinApp@@UAEHXZ 00497610     mfc42:MFC42.DLL
 0004:00001614       __imp_?AfxFindResourceHandle@@YGPAUHINSTANCE__@@PBD0@Z 00497614     mfc42:MFC42.DLL
 0004:00001618       __imp_??1CCommandLineInfo@@UAE@XZ 00497618     mfc42:MFC42.DLL
 0004:0000161c       __imp_??0CCommandLineInfo@@QAE@XZ 0049761c     mfc42:MFC42.DLL
 0004:00001620       __imp_?classCFrameWnd@CFrameWnd@@2UCRuntimeClass@@B 00497620     mfc42:MFC42.DLL
 0004:00001624       __imp_?ExitHelpMode@CFrameWnd@@UAEXXZ 00497624     mfc42:MFC42.DLL
 0004:00001628       __imp_?DelayUpdateFrameMenu@CFrameWnd@@UAEXPAUHMENU__@@@Z 00497628     mfc42:MFC42.DLL
 0004:0000162c       __imp_?GetDefaultAccelerator@CFrameWnd@@UAEPAUHACCEL__@@XZ 0049762c     mfc42:MFC42.DLL
 0004:00001630       __imp_?OnUpdateFrameMenu@CFrameWnd@@UAEXPAUHMENU__@@@Z 00497630     mfc42:MFC42.DLL
 0004:00001634       __imp_?OnUpdateFrameTitle@CFrameWnd@@UAEXH@Z 00497634     mfc42:MFC42.DLL
 0004:00001638       __imp_?OnCreateClient@CFrameWnd@@MAEHPAUtagCREATESTRUCTA@@PAUCCreateContext@@@Z 00497638     mfc42:MFC42.DLL
 0004:0000163c       __imp_?NegotiateBorderSpace@CFrameWnd@@UAEHIPAUtagRECT@@@Z 0049763c     mfc42:MFC42.DLL
 0004:00001640       __imp_?GetMessageBar@CFrameWnd@@UAEPAVCWnd@@XZ 00497640     mfc42:MFC42.DLL
 0004:00001644       __imp_?OnSetPreviewMode@CFrameWnd@@UAEXHPAUCPrintPreviewState@@@Z 00497644     mfc42:MFC42.DLL
 0004:00001648       __imp_?ActivateFrame@CFrameWnd@@UAEXH@Z 00497648     mfc42:MFC42.DLL
 0004:0000164c       __imp_?RecalcLayout@CFrameWnd@@UAEXH@Z 0049764c     mfc42:MFC42.DLL
 0004:00001650       __imp_?GetMessageString@CFrameWnd@@UBEXIAAVCString@@@Z 00497650     mfc42:MFC42.DLL
 0004:00001654       __imp_?GetActiveFrame@CFrameWnd@@UAEPAV1@XZ 00497654     mfc42:MFC42.DLL
 0004:00001658       __imp_?GetActiveDocument@CFrameWnd@@UAEPAVCDocument@@XZ 00497658     mfc42:MFC42.DLL
 0004:0000165c       __imp_?LoadFrame@CFrameWnd@@UAEHIKPAVCWnd@@PAUCCreateContext@@@Z 0049765c     mfc42:MFC42.DLL
 0004:00001660       __imp_?IsFrameWnd@CFrameWnd@@UBEHXZ 00497660     mfc42:MFC42.DLL
 0004:00001664       __imp_?PostNcDestroy@CFrameWnd@@MAEXXZ 00497664     mfc42:MFC42.DLL
 0004:00001668       __imp_?PreTranslateMessage@CFrameWnd@@UAEHPAUtagMSG@@@Z 00497668     mfc42:MFC42.DLL
 0004:0000166c       __imp_?EndModalState@CFrameWnd@@UAEXXZ 0049766c     mfc42:MFC42.DLL
 0004:00001670       __imp_?BeginModalState@CFrameWnd@@UAEXXZ 00497670     mfc42:MFC42.DLL
 0004:00001674       __imp_?PreCreateWindow@CFrameWnd@@MAEHAAUtagCREATESTRUCTA@@@Z 00497674     mfc42:MFC42.DLL
 0004:00001678       __imp_?OnCmdMsg@CFrameWnd@@UAEHIHPAXPAUAFX_CMDHANDLERINFO@@@Z 00497678     mfc42:MFC42.DLL
 0004:0000167c       __imp_??1CFrameWnd@@UAE@XZ 0049767c     mfc42:MFC42.DLL
 0004:00001680       __imp_??0CFrameWnd@@QAE@XZ 00497680     mfc42:MFC42.DLL
 0004:00001684       __imp_?messageMap@CFrameWnd@@1UAFX_MSGMAP@@B 00497684     mfc42:MFC42.DLL
 0004:00001688       __imp_?FromHandle@CMenu@@SGPAV1@PAUHMENU__@@@Z 00497688     mfc42:MFC42.DLL
 0004:0000168c       __imp_?GetStyle@CWnd@@QBEKXZ 0049768c     mfc42:MFC42.DLL
 0004:00001690       __imp_?GetExStyle@CWnd@@QBEKXZ 00497690     mfc42:MFC42.DLL
 0004:00001694       __imp_?OnSize@CFrameWnd@@IAEXIHH@Z 00497694     mfc42:MFC42.DLL
 0004:00001698       __imp_?SetScrollPos@CWnd@@QAEHHHH@Z 00497698     mfc42:MFC42.DLL
 0004:0000169c       __imp_?OnSysCommand@CFrameWnd@@IAEXIJ@Z 0049769c     mfc42:MFC42.DLL
 0004:000016a0       __imp_?OnClose@CFrameWnd@@IAEXXZ 004976a0     mfc42:MFC42.DLL
 0004:000016a4       __imp_?OnSetFocus@CFrameWnd@@IAEXPAVCWnd@@@Z 004976a4     mfc42:MFC42.DLL
 0004:000016a8       __imp_?OnCommand@CFrameWnd@@MAEHIJ@Z 004976a8     mfc42:MFC42.DLL
 0004:000016ac       __imp_?SetTextColor@CDC@@UAEKK@Z 004976ac     mfc42:MFC42.DLL
 0004:000016b0       __imp_?SetMapMode@CDC@@UAEHH@Z 004976b0     mfc42:MFC42.DLL
 0004:000016b4       __imp_?SetViewportOrg@CDC@@UAE?AVCPoint@@HH@Z 004976b4     mfc42:MFC42.DLL
 0004:000016b8       __imp_?OffsetViewportOrg@CDC@@UAE?AVCPoint@@HH@Z 004976b8     mfc42:MFC42.DLL
 0004:000016bc       __imp_?SetViewportExt@CDC@@UAE?AVCSize@@HH@Z 004976bc     mfc42:MFC42.DLL
 0004:000016c0       __imp_?ScaleViewportExt@CDC@@UAE?AVCSize@@HHHH@Z 004976c0     mfc42:MFC42.DLL
 0004:000016c4       __imp_?SetWindowExt@CDC@@UAE?AVCSize@@HH@Z 004976c4     mfc42:MFC42.DLL
 0004:000016c8       __imp_?ScaleWindowExt@CDC@@UAE?AVCSize@@HHHH@Z 004976c8     mfc42:MFC42.DLL
 0004:000016cc       __imp_?GetClipBox@CDC@@UBEHPAUtagRECT@@@Z 004976cc     mfc42:MFC42.DLL
 0004:000016d0       __imp_?messageMap@CWnd@@1UAFX_MSGMAP@@B 004976d0     mfc42:MFC42.DLL
 0004:000016d4       __imp_?GetDlgCtrlID@CWnd@@QBEHXZ 004976d4     mfc42:MFC42.DLL
 0004:000016d8       __imp_?FromHandle@CWnd@@SGPAV1@PAUHWND__@@@Z 004976d8     mfc42:MFC42.DLL
 0004:000016dc       __imp_?SubclassWindow@CWnd@@QAEHPAUHWND__@@@Z 004976dc     mfc42:MFC42.DLL
 0004:000016e0       __imp_?PreSubclassWindow@CWnd@@UAEXXZ 004976e0     mfc42:MFC42.DLL
 0004:000016e4       __imp_?SetSize@CUIntArray@@QAEXHH@Z 004976e4     mfc42:MFC42.DLL
 0004:000016e8       __imp_?Delete@CException@@QAEXXZ 004976e8     mfc42:MFC42.DLL
 0004:000016ec       __imp_?AfxGetModuleState@@YGPAVAFX_MODULE_STATE@@XZ 004976ec     mfc42:MFC42.DLL
 0004:000016f0       __imp_?AfxRegisterClass@@YGHPAUtagWNDCLASSA@@@Z 004976f0     mfc42:MFC42.DLL
 0004:000016f4       __imp_?AfxThrowResourceException@@YGXXZ 004976f4     mfc42:MFC42.DLL
 0004:000016f8       __imp_?DeleteObject@CGdiObject@@QAEHXZ 004976f8     mfc42:MFC42.DLL
 0004:000016fc       __imp_?GetRuntimeClass@CGdiObject@@UBEPAUCRuntimeClass@@XZ 004976fc     mfc42:MFC42.DLL
 0004:00001700       __imp_??1CObArray@@UAE@XZ  00497700     mfc42:MFC42.DLL
 0004:00001704       __imp_??0CWnd@@QAE@XZ      00497704     mfc42:MFC42.DLL
 0004:00001708       __imp_??0CUIntArray@@QAE@XZ 00497708     mfc42:MFC42.DLL
 0004:0000170c       __imp_??0CObArray@@QAE@XZ  0049770c     mfc42:MFC42.DLL
 0004:00001710       __imp_?AfxGetThreadState@@YGPAV_AFX_THREAD_STATE@@XZ 00497710     mfc42:MFC42.DLL
 0004:00001714       __imp_?AfxMessageBox@@YGHPBDII@Z 00497714     mfc42:MFC42.DLL
 0004:00001718       __imp_??3@YAXPAX@Z         00497718     mfc42:MFC42.DLL
 0004:0000171c       __imp_?FreeDataChain@CPlex@@QAEXXZ 0049771c     mfc42:MFC42.DLL
 0004:00001720       __imp_??1CWnd@@UAE@XZ      00497720     mfc42:MFC42.DLL
 0004:00001724       __imp_??1CUIntArray@@UAE@XZ 00497724     mfc42:MFC42.DLL
 0004:00001728       __imp_?GetRuntimeClass@CFont@@UBEPAUCRuntimeClass@@XZ 00497728     mfc42:MFC42.DLL
 0004:0000172c       __imp_?OnCmdMsg@CCmdTarget@@UAEHIHPAXPAUAFX_CMDHANDLERINFO@@@Z 0049772c     mfc42:MFC42.DLL
 0004:00001730       __imp_?OnFinalRelease@CWnd@@UAEXXZ 00497730     mfc42:MFC42.DLL
 0004:00001734       __imp_?IsInvokeAllowed@CCmdTarget@@UAEHJ@Z 00497734     mfc42:MFC42.DLL
 0004:00001738       __imp_?GetDispatchIID@CCmdTarget@@UAEHPAU_GUID@@@Z 00497738     mfc42:MFC42.DLL
 0004:0000173c       __imp_?GetTypeInfoCount@CCmdTarget@@UAEIXZ 0049773c     mfc42:MFC42.DLL
 0004:00001740       __imp_?GetTypeLibCache@CCmdTarget@@UAEPAVCTypeLibCache@@XZ 00497740     mfc42:MFC42.DLL
 0004:00001744       __imp_?GetTypeLib@CCmdTarget@@UAEJKPAPAUITypeLib@@@Z 00497744     mfc42:MFC42.DLL
 0004:00001748       __imp_?GetCommandMap@CCmdTarget@@MBEPBUAFX_OLECMDMAP@@XZ 00497748     mfc42:MFC42.DLL
 0004:0000174c       __imp_?GetDispatchMap@CCmdTarget@@MBEPBUAFX_DISPMAP@@XZ 0049774c     mfc42:MFC42.DLL
 0004:00001750       __imp_?GetConnectionMap@CCmdTarget@@MBEPBUAFX_CONNECTIONMAP@@XZ 00497750     mfc42:MFC42.DLL
 0004:00001754       __imp_?GetInterfaceMap@CCmdTarget@@MBEPBUAFX_INTERFACEMAP@@XZ 00497754     mfc42:MFC42.DLL
 0004:00001758       __imp_?GetEventSinkMap@CCmdTarget@@MBEPBUAFX_EVENTSINKMAP@@XZ 00497758     mfc42:MFC42.DLL
 0004:0000175c       __imp_?OnCreateAggregates@CCmdTarget@@UAEHXZ 0049775c     mfc42:MFC42.DLL
 0004:00001760       __imp_?GetInterfaceHook@CCmdTarget@@UAEPAUIUnknown@@PBX@Z 00497760     mfc42:MFC42.DLL
 0004:00001764       __imp_?GetExtraConnectionPoints@CCmdTarget@@MAEHPAVCPtrArray@@@Z 00497764     mfc42:MFC42.DLL
 0004:00001768       __imp_?GetConnectionHook@CCmdTarget@@MAEPAUIConnectionPoint@@ABU_GUID@@@Z 00497768     mfc42:MFC42.DLL
 0004:0000176c       __imp_?Create@CWnd@@UAEHPBD0KABUtagRECT@@PAV1@IPAUCCreateContext@@@Z 0049776c     mfc42:MFC42.DLL
 0004:00001770       __imp_?DestroyWindow@CWnd@@UAEHXZ 00497770     mfc42:MFC42.DLL
 0004:00001774       __imp_?PreCreateWindow@CWnd@@UAEHAAUtagCREATESTRUCTA@@@Z 00497774     mfc42:MFC42.DLL
 0004:00001778       __imp_?CalcWindowRect@CWnd@@UAEXPAUtagRECT@@I@Z 00497778     mfc42:MFC42.DLL
 0004:0000177c       __imp_?OnToolHitTest@CWnd@@UBEHVCPoint@@PAUtagTOOLINFOA@@@Z 0049777c     mfc42:MFC42.DLL
 0004:00001780       __imp_?GetScrollBarCtrl@CWnd@@UBEPAVCScrollBar@@H@Z 00497780     mfc42:MFC42.DLL
 0004:00001784       __imp_?WinHelpA@CWnd@@UAEXKI@Z 00497784     mfc42:MFC42.DLL
 0004:00001788       __imp_?ContinueModal@CWnd@@UAEHXZ 00497788     mfc42:MFC42.DLL
 0004:0000178c       __imp_?EndModalLoop@CWnd@@UAEXH@Z 0049778c     mfc42:MFC42.DLL
 0004:00001790       __imp_?OnCommand@CWnd@@MAEHIJ@Z 00497790     mfc42:MFC42.DLL
 0004:00001794       __imp_?OnNotify@CWnd@@MAEHIJPAJ@Z 00497794     mfc42:MFC42.DLL
 0004:00001798       __imp_?GetSuperWndProcAddr@CWnd@@MAEPAP6GJPAUHWND__@@IIJ@ZXZ 00497798     mfc42:MFC42.DLL
 0004:0000179c       __imp_?PreTranslateMessage@CWnd@@UAEHPAUtagMSG@@@Z 0049779c     mfc42:MFC42.DLL
 0004:000017a0       __imp_?OnAmbientProperty@CWnd@@UAEHPAVCOleControlSite@@JPAUtagVARIANT@@@Z 004977a0     mfc42:MFC42.DLL
 0004:000017a4       __imp_?WindowProc@CWnd@@MAEJIIJ@Z 004977a4     mfc42:MFC42.DLL
 0004:000017a8       __imp_?OnWndMsg@CWnd@@MAEHIIJPAJ@Z 004977a8     mfc42:MFC42.DLL
 0004:000017ac       __imp_?DefWindowProcA@CWnd@@MAEJIIJ@Z 004977ac     mfc42:MFC42.DLL
 0004:000017b0       __imp_?PostNcDestroy@CWnd@@MAEXXZ 004977b0     mfc42:MFC42.DLL
 0004:000017b4       __imp_?OnChildNotify@CWnd@@MAEHIIJPAJ@Z 004977b4     mfc42:MFC42.DLL
 0004:000017b8       __imp_?CheckAutoCenter@CWnd@@UAEHXZ 004977b8     mfc42:MFC42.DLL
 0004:000017bc       __imp_?IsFrameWnd@CWnd@@UBEHXZ 004977bc     mfc42:MFC42.DLL
 0004:000017c0       __imp_?SetOccDialogInfo@CWnd@@MAEHPAU_AFX_OCC_DIALOG_INFO@@@Z 004977c0     mfc42:MFC42.DLL
 0004:000017c4       __imp_?GetRuntimeClass@CObject@@UBEPAUCRuntimeClass@@XZ 004977c4     mfc42:MFC42.DLL
 0004:000017c8       __imp_?GetRuntimeClass@CObArray@@UBEPAUCRuntimeClass@@XZ 004977c8     mfc42:MFC42.DLL
 0004:000017cc       __imp_?Serialize@CObArray@@UAEXAAVCArchive@@@Z 004977cc     mfc42:MFC42.DLL
 0004:000017d0       __imp_?PrepareCtrl@CDataExchange@@QAEPAUHWND__@@H@Z 004977d0     mfc42:MFC42.DLL
 0004:000017d4       __imp_?AfxThrowNotSupportedException@@YGXXZ 004977d4     mfc42:MFC42.DLL
 0004:000017d8       __imp_?AttachControlSite@CWnd@@QAEXPAV1@@Z 004977d8     mfc42:MFC42.DLL
 0004:000017dc       __imp_?classCWnd@CWnd@@2UCRuntimeClass@@B 004977dc     mfc42:MFC42.DLL
 0004:000017e0       __imp_??1CPtrList@@UAE@XZ  004977e0     mfc42:MFC42.DLL
 0004:000017e4       __imp_??2@YAPAXI@Z         004977e4     mfc42:MFC42.DLL
 0004:000017e8       __imp_?AfxWinMain@@YGHPAUHINSTANCE__@@0PADH@Z 004977e8     mfc42:MFC42.DLL
 0004:000017ec       \177MFC42_NULL_THUNK_DATA  004977ec     mfc42:MFC42.DLL
 0004:00001968       __imp___except_handler3    00497968     msvcrt:MSVCRT.dll
 0004:0000196c       __imp____set_app_type      0049796c     msvcrt:MSVCRT.dll
 0004:00001970       __imp____p__fmode          00497970     msvcrt:MSVCRT.dll
 0004:00001974       __imp____p__commode        00497974     msvcrt:MSVCRT.dll
 0004:00001978       __imp___adjust_fdiv        00497978     msvcrt:MSVCRT.dll
 0004:0000197c       __imp____setusermatherr    0049797c     msvcrt:MSVCRT.dll
 0004:00001980       __imp___initterm           00497980     msvcrt:MSVCRT.dll
 0004:00001984       __imp____getmainargs       00497984     msvcrt:MSVCRT.dll
 0004:00001988       __imp___acmdln             00497988     msvcrt:MSVCRT.dll
 0004:0000198c       __imp__exit                0049798c     msvcrt:MSVCRT.dll
 0004:00001990       __imp___XcptFilter         00497990     msvcrt:MSVCRT.dll
 0004:00001994       __imp___exit               00497994     msvcrt:MSVCRT.dll
 0004:00001998       __imp___onexit             00497998     msvcrt:MSVCRT.dll
 0004:0000199c       __imp____dllonexit         0049799c     msvcrt:MSVCRT.dll
 0004:000019a0       __imp_??1type_info@@UAE@XZ 004979a0     msvcrt:MSVCRT.dll
 0004:000019a4       __imp___chdir              004979a4     msvcrt:MSVCRT.dll
 0004:000019a8       __imp__isdigit             004979a8     msvcrt:MSVCRT.dll
 0004:000019ac       __imp__localtime           004979ac     msvcrt:MSVCRT.dll
 0004:000019b0       __imp__ftell               004979b0     msvcrt:MSVCRT.dll
 0004:000019b4       __imp__fseek               004979b4     msvcrt:MSVCRT.dll
 0004:000019b8       __imp__fputs               004979b8     msvcrt:MSVCRT.dll
 0004:000019bc       __imp__fflush              004979bc     msvcrt:MSVCRT.dll
 0004:000019c0       __imp___CxxThrowException@8 004979c0     msvcrt:MSVCRT.dll
 0004:000019c4       __imp__vprintf             004979c4     msvcrt:MSVCRT.dll
 0004:000019c8       __imp___setmbcp            004979c8     msvcrt:MSVCRT.dll
 0004:000019cc       __imp____CxxFrameHandler   004979cc     msvcrt:MSVCRT.dll
 0004:000019d0       __imp__strtoul             004979d0     msvcrt:MSVCRT.dll
 0004:000019d4       __imp___mbstok             004979d4     msvcrt:MSVCRT.dll
 0004:000019d8       __imp___mbscmp             004979d8     msvcrt:MSVCRT.dll
 0004:000019dc       __imp___ftol               004979dc     msvcrt:MSVCRT.dll
 0004:000019e0       __imp__atoi                004979e0     msvcrt:MSVCRT.dll
 0004:000019e4       __imp___mbsicmp            004979e4     msvcrt:MSVCRT.dll
 0004:000019e8       __imp__time                004979e8     msvcrt:MSVCRT.dll
 0004:000019ec       __imp__fclose              004979ec     msvcrt:MSVCRT.dll
 0004:000019f0       __imp__strncpy             004979f0     msvcrt:MSVCRT.dll
 0004:000019f4       __imp__div                 004979f4     msvcrt:MSVCRT.dll
 0004:000019f8       __imp__printf              004979f8     msvcrt:MSVCRT.dll
 0004:000019fc       __imp__free                004979fc     msvcrt:MSVCRT.dll
 0004:00001a00       __imp___itoa               00497a00     msvcrt:MSVCRT.dll
 0004:00001a04       __imp__realloc             00497a04     msvcrt:MSVCRT.dll
 0004:00001a08       __imp__malloc              00497a08     msvcrt:MSVCRT.dll
 0004:00001a0c       __imp__toupper             00497a0c     msvcrt:MSVCRT.dll
 0004:00001a10       __imp___stricmp            00497a10     msvcrt:MSVCRT.dll
 0004:00001a14       __imp___snprintf           00497a14     msvcrt:MSVCRT.dll
 0004:00001a18       __imp____p__pgmptr         00497a18     msvcrt:MSVCRT.dll
 0004:00001a1c       __imp___vsnprintf          00497a1c     msvcrt:MSVCRT.dll
 0004:00001a20       __imp__sprintf             00497a20     msvcrt:MSVCRT.dll
 0004:00001a24       __imp__sscanf              00497a24     msvcrt:MSVCRT.dll
 0004:00001a28       __imp__strncmp             00497a28     msvcrt:MSVCRT.dll
 0004:00001a2c       __imp__fgetc               00497a2c     msvcrt:MSVCRT.dll
 0004:00001a30       __imp__fputc               00497a30     msvcrt:MSVCRT.dll
 0004:00001a34       __imp__fwrite              00497a34     msvcrt:MSVCRT.dll
 0004:00001a38       __imp__fread               00497a38     msvcrt:MSVCRT.dll
 0004:00001a3c       __imp__fopen               00497a3c     msvcrt:MSVCRT.dll
 0004:00001a40       __imp___msize              00497a40     msvcrt:MSVCRT.dll
 0004:00001a44       __imp___findclose          00497a44     msvcrt:MSVCRT.dll
 0004:00001a48       __imp___stat               00497a48     msvcrt:MSVCRT.dll
 0004:00001a4c       __imp___mkdir              00497a4c     msvcrt:MSVCRT.dll
 0004:00001a50       __imp___rmdir              00497a50     msvcrt:MSVCRT.dll
 0004:00001a54       __imp__remove              00497a54     msvcrt:MSVCRT.dll
 0004:00001a58       __imp___findnext           00497a58     msvcrt:MSVCRT.dll
 0004:00001a5c       __imp___findfirst          00497a5c     msvcrt:MSVCRT.dll
 0004:00001a60       __imp__rename              00497a60     msvcrt:MSVCRT.dll
 0004:00001a64       __imp___getdrive           00497a64     msvcrt:MSVCRT.dll
 0004:00001a68       __imp__fprintf             00497a68     msvcrt:MSVCRT.dll
 0004:00001a6c       __imp___iob                00497a6c     msvcrt:MSVCRT.dll
 0004:00001a70       __imp__perror              00497a70     msvcrt:MSVCRT.dll
 0004:00001a74       __imp___controlfp          00497a74     msvcrt:MSVCRT.dll
 0004:00001a78       \177MSVCRT_NULL_THUNK_DATA 00497a78     msvcrt:MSVCRT.dll
 0004:00001ad8       __imp__SafeArrayUnaccessData@4 00497ad8     oleaut32:OLEAUT32.dll
 0004:00001adc       __imp__SysAllocStringLen@8 00497adc     oleaut32:OLEAUT32.dll
 0004:00001ae0       __imp__VariantClear@4      00497ae0     oleaut32:OLEAUT32.dll
 0004:00001ae4       __imp__SysFreeString@4     00497ae4     oleaut32:OLEAUT32.dll
 0004:00001ae8       __imp__SafeArrayGetUBound@12 00497ae8     oleaut32:OLEAUT32.dll
 0004:00001aec       __imp__SafeArrayGetLBound@12 00497aec     oleaut32:OLEAUT32.dll
 0004:00001af0       __imp__SafeArrayAccessData@8 00497af0     oleaut32:OLEAUT32.dll
 0004:00001af4       __imp__SysStringLen@4      00497af4     oleaut32:OLEAUT32.dll
 0004:00001af8       \177OLEAUT32_NULL_THUNK_DATA 00497af8     oleaut32:OLEAUT32.dll
 0004:00001b28       __imp__Shell_NotifyIconA@8 00497b28     shell32:SHELL32.dll
 0004:00001b2c       \177SHELL32_NULL_THUNK_DATA 00497b2c     shell32:SHELL32.dll
 0004:00001b58       __imp__IsIconic@4          00497b58     user32:USER32.dll
 0004:00001b5c       __imp__LoadIconA@8         00497b5c     user32:USER32.dll
 0004:00001b60       __imp__DrawIcon@16         00497b60     user32:USER32.dll
 0004:00001b64       __imp__GetSystemMetrics@4  00497b64     user32:USER32.dll
 0004:00001b68       __imp__LoadImageA@24       00497b68     user32:USER32.dll
 0004:00001b6c       __imp__AppendMenuA@16      00497b6c     user32:USER32.dll
 0004:00001b70       __imp__GetSystemMenu@8     00497b70     user32:USER32.dll
 0004:00001b74       __imp__AdjustWindowRectEx@16 00497b74     user32:USER32.dll
 0004:00001b78       __imp__GetNextDlgTabItem@12 00497b78     user32:USER32.dll
 0004:00001b7c       __imp__SetRectEmpty@4      00497b7c     user32:USER32.dll
 0004:00001b80       __imp__GetActiveWindow@0   00497b80     user32:USER32.dll
 0004:00001b84       __imp__BringWindowToTop@4  00497b84     user32:USER32.dll
 0004:00001b88       __imp__DestroyIcon@4       00497b88     user32:USER32.dll
 0004:00001b8c       __imp__ClientToScreen@8    00497b8c     user32:USER32.dll
 0004:00001b90       __imp__WindowFromPoint@8   00497b90     user32:USER32.dll
 0004:00001b94       __imp__IsRectEmpty@4       00497b94     user32:USER32.dll
 0004:00001b98       __imp__CopyRect@8          00497b98     user32:USER32.dll
 0004:00001b9c       __imp__IsWindowVisible@4   00497b9c     user32:USER32.dll
 0004:00001ba0       __imp__DrawEdge@16         00497ba0     user32:USER32.dll
 0004:00001ba4       __imp__InflateRect@12      00497ba4     user32:USER32.dll
 0004:00001ba8       __imp__OffsetRect@12       00497ba8     user32:USER32.dll
 0004:00001bac       __imp__SetRect@20          00497bac     user32:USER32.dll
 0004:00001bb0       __imp__GetCapture@0        00497bb0     user32:USER32.dll
 0004:00001bb4       __imp__ReleaseCapture@0    00497bb4     user32:USER32.dll
 0004:00001bb8       __imp__ShowWindow@8        00497bb8     user32:USER32.dll
 0004:00001bbc       __imp__ClipCursor@4        00497bbc     user32:USER32.dll
 0004:00001bc0       __imp__SetTimer@16         00497bc0     user32:USER32.dll
 0004:00001bc4       __imp__FindWindowA@8       00497bc4     user32:USER32.dll
 0004:00001bc8       __imp__PtInRect@12         00497bc8     user32:USER32.dll
 0004:00001bcc       __imp__InvertRect@8        00497bcc     user32:USER32.dll
 0004:00001bd0       __imp__PostMessageA@16     00497bd0     user32:USER32.dll
 0004:00001bd4       __imp__GrayStringA@36      00497bd4     user32:USER32.dll
 0004:00001bd8       __imp__DrawTextA@20        00497bd8     user32:USER32.dll
 0004:00001bdc       __imp__TabbedTextOutA@32   00497bdc     user32:USER32.dll
 0004:00001be0       __imp__SetCursor@4         00497be0     user32:USER32.dll
 0004:00001be4       __imp__ShowScrollBar@12    00497be4     user32:USER32.dll
 0004:00001be8       __imp__IsClipboardFormatAvailable@4 00497be8     user32:USER32.dll
 0004:00001bec       __imp__GetDC@4             00497bec     user32:USER32.dll
 0004:00001bf0       __imp__ReleaseDC@8         00497bf0     user32:USER32.dll
 0004:00001bf4       __imp__GetFocus@0          00497bf4     user32:USER32.dll
 0004:00001bf8       __imp__InvalidateRect@12   00497bf8     user32:USER32.dll
 0004:00001bfc       __imp__GetCursorPos@4      00497bfc     user32:USER32.dll
 0004:00001c00       __imp__ScreenToClient@8    00497c00     user32:USER32.dll
 0004:00001c04       __imp__GetClientRect@8     00497c04     user32:USER32.dll
 0004:00001c08       __imp__KillTimer@8         00497c08     user32:USER32.dll
 0004:00001c0c       __imp__GetKeyState@4       00497c0c     user32:USER32.dll
 0004:00001c10       __imp__FillRect@12         00497c10     user32:USER32.dll
 0004:00001c14       __imp__IntersectRect@12    00497c14     user32:USER32.dll
 0004:00001c18       __imp__SendMessageA@16     00497c18     user32:USER32.dll
 0004:00001c1c       __imp__IsWindow@4          00497c1c     user32:USER32.dll
 0004:00001c20       __imp__GetClassInfoA@12    00497c20     user32:USER32.dll
 0004:00001c24       __imp__SetCapture@4        00497c24     user32:USER32.dll
 0004:00001c28       __imp__SetForegroundWindow@4 00497c28     user32:USER32.dll
 0004:00001c2c       __imp__DefWindowProcA@16   00497c2c     user32:USER32.dll
 0004:00001c30       __imp__LoadCursorA@8       00497c30     user32:USER32.dll
 0004:00001c34       __imp__GetSysColor@4       00497c34     user32:USER32.dll
 0004:00001c38       __imp__SystemParametersInfoA@16 00497c38     user32:USER32.dll
 0004:00001c3c       __imp__GetParent@4         00497c3c     user32:USER32.dll
 0004:00001c40       __imp__GetWindowRect@8     00497c40     user32:USER32.dll
 0004:00001c44       __imp__SetWindowPos@28     00497c44     user32:USER32.dll
 0004:00001c48       __imp__ValidateRect@8      00497c48     user32:USER32.dll
 0004:00001c4c       __imp__UpdateWindow@4      00497c4c     user32:USER32.dll
 0004:00001c50       __imp__RedrawWindow@16     00497c50     user32:USER32.dll
 0004:00001c54       __imp__SendNotifyMessageA@16 00497c54     user32:USER32.dll
 0004:00001c58       __imp__MessageBoxA@16      00497c58     user32:USER32.dll
 0004:00001c5c       __imp__EnableWindow@8      00497c5c     user32:USER32.dll
 0004:00001c60       __imp__DrawFocusRect@8     00497c60     user32:USER32.dll
 0004:00001c64       __imp__GetUpdateRect@12    00497c64     user32:USER32.dll
 0004:00001c68       \177USER32_NULL_THUNK_DATA 00497c68     user32:USER32.dll
 0004:00001cc8       __imp__select@20           00497cc8     wsock32:WSOCK32.dll
 0004:00001ccc       __imp__gethostname@8       00497ccc     wsock32:WSOCK32.dll
 0004:00001cd0       __imp__ntohs@4             00497cd0     wsock32:WSOCK32.dll
 0004:00001cd4       __imp__getservbyname@8     00497cd4     wsock32:WSOCK32.dll
 0004:00001cd8       __imp__WSAStartup@8        00497cd8     wsock32:WSOCK32.dll
 0004:00001cdc       __imp__WSACleanup@0        00497cdc     wsock32:WSOCK32.dll
 0004:00001ce0       __imp__WSAGetLastError@0   00497ce0     wsock32:WSOCK32.dll
 0004:00001ce4       __imp__closesocket@4       00497ce4     wsock32:WSOCK32.dll
 0004:00001ce8       __imp__accept@12           00497ce8     wsock32:WSOCK32.dll
 0004:00001cec       __imp__listen@8            00497cec     wsock32:WSOCK32.dll
 0004:00001cf0       __imp__bind@12             00497cf0     wsock32:WSOCK32.dll
 0004:00001cf4       __imp__setsockopt@20       00497cf4     wsock32:WSOCK32.dll
 0004:00001cf8       __imp__htons@4             00497cf8     wsock32:WSOCK32.dll
 0004:00001cfc       __imp__htonl@4             00497cfc     wsock32:WSOCK32.dll
 0004:00001d00       __imp__socket@12           00497d00     wsock32:WSOCK32.dll
 0004:00001d04       __imp__shutdown@8          00497d04     wsock32:WSOCK32.dll
 0004:00001d08       __imp__inet_ntoa@4         00497d08     wsock32:WSOCK32.dll
 0004:00001d0c       __imp__connect@12          00497d0c     wsock32:WSOCK32.dll
 0004:00001d10       __imp__send@16             00497d10     wsock32:WSOCK32.dll
 0004:00001d14       __imp__recv@16             00497d14     wsock32:WSOCK32.dll
 0004:00001d18       __imp__inet_addr@4         00497d18     wsock32:WSOCK32.dll
 0004:00001d1c       __imp__gethostbyname@4     00497d1c     wsock32:WSOCK32.dll
 0004:00001d20       \177WSOCK32_NULL_THUNK_DATA 00497d20     wsock32:WSOCK32.dll
 0004:00001d5c       __imp__CoInitialize@4      00497d5c     ole32:ole32.dll
 0004:00001d60       __imp__CoUninitialize@0    00497d60     ole32:ole32.dll
 0004:00001d64       __imp__OleInitialize@4     00497d64     ole32:ole32.dll
 0004:00001d68       __imp__OleUninitialize@0   00497d68     ole32:ole32.dll
 0004:00001d6c       \177ole32_NULL_THUNK_DATA  00497d6c     ole32:ole32.dll

 entry point at        0001:00074ac0

