 Interface

 Timestamp is 595e0638 (Thu Jul 06 11:43:20 2017)

 Preferred load address is 00400000

 Start         Length     Name                   Class
 0001:00000000 001ceaf8H .text                   CODE
 0001:001ceb00 00001015H .text$AFX_COL1          CODE
 0001:001cfb20 0001ddf1H .text$x                 CODE
 0002:00000000 0001a225H .rdata                  DATA
 0002:0001a228 000001a8H .rdata$r                DATA
 0002:0001a3d0 000292d0H .xdata$x                DATA
 0002:000436a0 00000000H .edata                  DATA
 0003:00000000 00000104H .CRT$XCA                DATA
 0003:00000104 00000104H .CRT$XCL                DATA
 0003:00000208 00000169H .CRT$XCU                DATA
 0003:00000374 00000104H .CRT$XCZ                DATA
 0003:00000478 00000104H .CRT$XIA                DATA
 0003:0000057c 00000104H .CRT$XIZ                DATA
 0003:00000680 000239f0H .data                   DATA
 0003:00024070 00001210H .bss                    DATA
 0004:00000000 000000f0H .idata$2                DATA
 0004:000000f0 00000028H .idata$3                DATA
 0004:00000118 000019fcH .idata$4                DATA
 0004:00001b14 000019fcH .idata$5                DATA
 0004:00003510 000015dbH .idata$6                DATA
 0005:00000000 00005dc6H .rsrc$01                DATA
 0005:00005dd0 0005d7e6H .rsrc$02                DATA

  Address         Publics by Value              Rva+Base     Lib:Object

 0001:000134a0       ?_GetBaseMessageMap@CListObjGrille@@KGPBUAFX_MSGMAP@@XZ 004144a0 f   ListObjGrille.obj
 0001:000134aa       ?GetMessageMap@CListObjGrille@@MBEPBUAFX_MSGMAP@@XZ 004144aa f   ListObjGrille.obj
 0001:000134ba       ??0CListObjGrille@@QAE@XZ  004144ba f   ListObjGrille.obj
 0001:00013529       ??1CListObjGrille@@UAE@XZ  00414529 f   ListObjGrille.obj
 0001:00013580       ?InitGrille@CListObjGrille@@QAEXXZ 00414580 f   ListObjGrille.obj
 0001:0001369c       ?OnEditCell@CListObjGrille@@UAEXHHI@Z 0041469c f   ListObjGrille.obj
 0001:00013763       ?PlaceListeTombante@CListObjGrille@@QAEXHHIAAVCStringArray@@H@Z 00414763 f   ListObjGrille.obj
 0001:00013994       ?OnDragOver@CListObjGrille@@UAEKPAVCOleDataObject@@KVCPoint@@@Z 00414994 f   ListObjGrille.obj
 0001:00013b76       ?OnDragEnter@CListObjGrille@@UAEKPAVCOleDataObject@@KVCPoint@@@Z 00414b76 f   ListObjGrille.obj
 0001:00013ca2       ?OnDragLeave@CListObjGrille@@UAEXXZ 00414ca2 f   ListObjGrille.obj
 0001:00013d1a       ?OnDrop@CListObjGrille@@UAEHPAVCOleDataObject@@KVCPoint@@@Z 00414d1a f   ListObjGrille.obj
 0001:00013db8       ?PasteTextToGrid@CListObjGrille@@UAEHVCCellID@@PAVCOleDataObject@@@Z 00414db8 f   ListObjGrille.obj
 0001:00014152       ?IsCellDropable@CListObjGrille@@QAEHVCCellID@@PAVCOleDataObject@@@Z 00415152 f   ListObjGrille.obj
 0001:00014295       ?NomIdDroppe@CListObjGrille@@QAE?AVCString@@AAV2@@Z 00415295 f   ListObjGrille.obj
 0001:000147bf       ?OnEndEditCell@CListObjGrille@@UAEXHHVCString@@@Z 004157bf f   ListObjGrille.obj
 0001:00014a8e       ?RazListe@CListObjGrille@@QAEXXZ 00415a8e f   ListObjGrille.obj
 0001:00014b56       ?AjouteTrace@CListObjGrille@@QAEHH@Z 00415b56 f   ListObjGrille.obj
 0001:00014c70       ?SupprimeTrace@CListObjGrille@@QAEHH@Z 00415c70 f   ListObjGrille.obj
 0001:00014d86       ?InitListeTrace@CListObjGrille@@QAEXXZ 00415d86 f   ListObjGrille.obj
 0001:00015153       ?OnKeyDown@CListObjGrille@@IAEXIII@Z 00416153 f   ListObjGrille.obj
 0001:000151be       ?OnContextMenu@CListObjGrille@@IAEXPAVCWnd@@VCPoint@@@Z 004161be f   ListObjGrille.obj
 0001:000152be       ?OnObjetUtilisateur@CListObjGrille@@IAEXXZ 004162be f   ListObjGrille.obj
 0001:00015356       ?OnObjetMemoire@CListObjGrille@@IAEXXZ 00416356 f   ListObjGrille.obj
 0001:000153ee       ?OnObjetRequete@CListObjGrille@@IAEXXZ 004163ee f   ListObjGrille.obj
 0001:00015486       ?OnObjetFenetre@CListObjGrille@@IAEXXZ 00416486 f   ListObjGrille.obj
 0001:0001551e       ?OnObjetEvenement@CListObjGrille@@IAEXXZ 0041651e f   ListObjGrille.obj
 0001:000155b6       ?OnObjetScenario@CListObjGrille@@IAEXXZ 004165b6 f   ListObjGrille.obj
 0001:0001564e       ?OnObjetDeclenchement@CListObjGrille@@IAEXXZ 0041664e f   ListObjGrille.obj
 0001:000156e6       ?OnObjetEtat@CListObjGrille@@IAEXXZ 004166e6 f   ListObjGrille.obj
 0001:0001577e       ?OnObjetOsysSrv@CListObjGrille@@IAEXXZ 0041677e f   ListObjGrille.obj
 0001:00015816       ?OnSupprimer@CListObjGrille@@IAEXXZ 00416816 f   ListObjGrille.obj
 0001:0001586b       ?OnToutSupprimer@CListObjGrille@@IAEXXZ 0041686b f   ListObjGrille.obj
 0001:000158ad       ?OnObjetServeurWeb@CListObjGrille@@IAEXXZ 004168ad f   ListObjGrille.obj
 0001:00015945       ?OnObjetDriver@CListObjGrille@@IAEXXZ 00416945 f   ListObjGrille.obj
 0001:00016330       ?Serialize@CObject@@UAEXAAVCArchive@@@Z 00417330 f i ListObjGrille.obj
 0001:00016340       ?AssertValid@CObject@@UBEXXZ 00417340 f i ListObjGrille.obj
 0001:00016350       ?Dump@CObject@@UBEXAAVCDumpContext@@@Z 00417350 f i ListObjGrille.obj
 0001:00016360       ??_ECListObjGrille@@UAEPAXI@Z 00417360 f i ListObjGrille.obj
 0001:00016360       ??_GCListObjGrille@@UAEPAXI@Z 00417360 f i ListObjGrille.obj
 0001:000163a0       ??3CObject@@SGXPAX@Z       004173a0 f i ListObjGrille.obj
 0001:000163c0       ?SetListMode@CGridCtrl@@QAEXH@Z 004173c0 f i ListObjGrille.obj
 0001:000163e0       ?SetSingleRowSelection@CGridCtrl@@QAEXH@Z 004173e0 f i ListObjGrille.obj
 0001:00016400       ?EnableDragAndDrop@CGridCtrl@@QAEXH@Z 00417400 f i ListObjGrille.obj
 0001:00016420       ?SetRowResize@CGridCtrl@@QAEXH@Z 00417420 f i ListObjGrille.obj
 0001:00016440       ?SetHeaderSort@CGridCtrl@@QAEXH@Z 00417440 f i ListObjGrille.obj
 0001:00016460       ?SetDoubleBuffering@CGridCtrl@@QAEXH@Z 00417460 f i ListObjGrille.obj
 0001:00016480       ??BCString@@QBEPBDXZ       00417480 f i ListObjGrille.obj
 0001:000164a0       ?RemoveAll@CStringArray@@QAEXXZ 004174a0 f i ListObjGrille.obj
 0001:000164c0       ?Add@CStringArray@@QAEHPBD@Z 004174c0 f i ListObjGrille.obj
 0001:00016500       ??0CCellID@@QAE@HH@Z       00417500 f i ListObjGrille.obj
 0001:00016530       ??2CObject@@SGPAXI@Z       00417530 f i ListObjGrille.obj
 0001:00016550       ??0_GV_ITEM@@QAE@XZ        00417550 f i ListObjGrille.obj
 0001:00016570       ??1_GV_ITEM@@QAE@XZ        00417570 f i ListObjGrille.obj
 0001:00016590       ??9CCellID@@QAEHABV0@@Z    00417590 f i ListObjGrille.obj
 0001:000165c0       ??8CCellID@@QAEHABV0@@Z    004175c0 f i ListObjGrille.obj
 0001:00016610       ?IsEditable@CGridCtrl@@QBEHXZ 00417610 f i ListObjGrille.obj
 0001:00016630       ?IsEmpty@CString@@QBEHXZ   00417630 f i ListObjGrille.obj
 0001:00016660       ?GetData@CString@@IBEPAUCStringData@@XZ 00417660 f i ListObjGrille.obj
 0001:00016680       ?AfxGetMainWnd@@YGPAVCWnd@@XZ 00417680 f i ListObjGrille.obj
 0001:000166c0       ?LitLangueInterface@CConfiguration@@QAEPADXZ 004176c0 f i ListObjGrille.obj
 0001:000166e0       ??0CRect@@QAE@XZ           004176e0 f i ListObjGrille.obj
 0001:00016700       ??BCRect@@QAEPAUtagRECT@@XZ 00417700 f i ListObjGrille.obj
 0001:00016720       ?GetRowCount@CGridCtrl@@QBEHXZ 00417720 f i ListObjGrille.obj
 0001:00016740       ?LitUtilisateur@CConfiguration@@QAEAAVCString@@XZ 00417740 f i ListObjGrille.obj
 0001:00016760       ??8@YG_NABVCString@@PBD@Z  00417760 f i ListObjGrille.obj
 0001:00016780       ?Compare@CString@@QBEHPBD@Z 00417780 f i ListObjGrille.obj
 0001:000167b0       __tcscmp                   004177b0 f i ListObjGrille.obj
 0001:000167d0       ?GetMinRow@CCellRange@@QBEHXZ 004177d0 f i ListObjGrille.obj
 0001:000167f0       ?GetMinCol@CCellRange@@QBEHXZ 004177f0 f i ListObjGrille.obj
 0001:00016810       ??0CMenu@@QAE@XZ           00417810 f i ListObjGrille.obj
 0001:00016850       ??0CObject@@IAE@XZ         00417850 f i ListObjGrille.obj
 0001:00016870       ??_GCObject@@UAEPAXI@Z     00417870 f i ListObjGrille.obj
 0001:00016870       ??_ECObject@@UAEPAXI@Z     00417870 f i ListObjGrille.obj
 0001:000168b0       ??1CObject@@UAE@XZ         004178b0 f i ListObjGrille.obj
 0001:000168d0       ??_ECMenu@@UAEPAXI@Z       004178d0 f i ListObjGrille.obj
 0001:000168d0       ??_GCMenu@@UAEPAXI@Z       004178d0 f i ListObjGrille.obj
 0001:00016910       ??1CMenu@@UAE@XZ           00417910 f i ListObjGrille.obj
 0001:00016980       ?EnableMenuItem@CMenu@@QAEIII@Z 00417980 f i ListObjGrille.obj
 0001:000169b0       ?GetSubMenu@CMenu@@QBEPAV1@H@Z 004179b0 f i ListObjGrille.obj
 0001:000169e0       ?LoadMenuA@CMenu@@QAEHI@Z  004179e0 f i ListObjGrille.obj
 0001:00016a30       ?DoDataExchange@CWnd@@MAEXPAVCDataExchange@@@Z 00417a30 f i ListObjGrille.obj
 0001:00016a40       ?BeginModalState@CWnd@@UAEXXZ 00417a40 f i ListObjGrille.obj
 0001:00016a60       ?EndModalState@CWnd@@UAEXXZ 00417a60 f i ListObjGrille.obj
 0001:00016a80       ?CreateObject@CListTraceView@@SGPAVCObject@@XZ 00417a80 f   listtraceview.obj
 0001:00016ae7       ?_GetBaseClass@CListTraceView@@KGPAUCRuntimeClass@@XZ 00417ae7 f   listtraceview.obj
 0001:00016af1       ?GetRuntimeClass@CListTraceView@@UBEPAUCRuntimeClass@@XZ 00417af1 f   listtraceview.obj
 0001:00016b01       ??0CListTraceView@@IAE@XZ  00417b01 f   listtraceview.obj
 0001:00016b65       ??1CListTraceView@@MAE@XZ  00417b65 f   listtraceview.obj
 0001:00016bb9       ?_GetBaseMessageMap@CListTraceView@@KGPBUAFX_MSGMAP@@XZ 00417bb9 f   listtraceview.obj
 0001:00016bc3       ?GetMessageMap@CListTraceView@@MBEPBUAFX_MSGMAP@@XZ 00417bc3 f   listtraceview.obj
 0001:00016bd3       ?OnDraw@CListTraceView@@MAEXPAVCDC@@@Z 00417bd3 f   listtraceview.obj
 0001:00016bed       ?OnCreate@CListTraceView@@IAEHPAUtagCREATESTRUCTA@@@Z 00417bed f   listtraceview.obj
 0001:00016c49       ?OnSize@CListTraceView@@IAEXIHH@Z 00417c49 f   listtraceview.obj
 0001:00016d21       ?OnDragEnter@CListTraceView@@UAEKPAVCOleDataObject@@KVCPoint@@@Z 00417d21 f   listtraceview.obj
 0001:00016d46       ?OnDragLeave@CListTraceView@@UAEXXZ 00417d46 f   listtraceview.obj
 0001:00016d59       ?OnDragOver@CListTraceView@@UAEKPAVCOleDataObject@@KVCPoint@@@Z 00417d59 f   listtraceview.obj
 0001:00016d7e       ?OnDrop@CListTraceView@@UAEHPAVCOleDataObject@@KVCPoint@@@Z 00417d7e f   listtraceview.obj
 0001:00016da3       ?OnActivateView@CListTraceView@@MAEXHPAVCView@@0@Z 00417da3 f   listtraceview.obj
 0001:00016de1       ?OnInitialUpdate@CListTraceView@@UAEXXZ 00417de1 f   listtraceview.obj
 0001:00016ee0       ??_GCListTraceView@@MAEPAXI@Z 00417ee0 f i listtraceview.obj
 0001:00016ee0       ??_ECListTraceView@@MAEPAXI@Z 00417ee0 f i listtraceview.obj
 0001:00016f20       ??0CRect@@QAE@HHHH@Z       00417f20 f i listtraceview.obj
 0001:00016f60       ?OnSize@CWnd@@IAEXIHH@Z    00417f60 f i listtraceview.obj
 0001:00016f80       ?GetDocument@CView@@QBEPAVCDocument@@XZ 00417f80 f i listtraceview.obj
 0001:00016fa0       ?CreateObject@CLpxTraceView@@SGPAVCObject@@XZ 00417fa0 f   lpxtraceview.obj
 0001:00017004       ?_GetBaseClass@CLpxTraceView@@KGPAUCRuntimeClass@@XZ 00418004 f   lpxtraceview.obj
 0001:0001700e       ?GetRuntimeClass@CLpxTraceView@@UBEPAUCRuntimeClass@@XZ 0041800e f   lpxtraceview.obj
 0001:0001701e       ??0CLpxTraceView@@QAE@XZ   0041801e f   lpxtraceview.obj
 0001:0001703d       ??1CLpxTraceView@@UAE@XZ   0041803d f   lpxtraceview.obj
 0001:00017059       ?_GetBaseMessageMap@CLpxTraceView@@KGPBUAFX_MSGMAP@@XZ 00418059 f   lpxtraceview.obj
 0001:00017063       ?GetMessageMap@CLpxTraceView@@MBEPBUAFX_MSGMAP@@XZ 00418063 f   lpxtraceview.obj
 0001:00017073       ?OnCreate@CLpxTraceView@@IAEHPAUtagCREATESTRUCTA@@@Z 00418073 f   lpxtraceview.obj
 0001:000170a6       ?RazLpxTrace@CLpxTraceView@@QAEXXZ 004180a6 f   lpxtraceview.obj
 0001:000170c0       ?EcritLpxTrace@CLpxTraceView@@QAEXPBD@Z 004180c0 f   lpxtraceview.obj
 0001:00017270       ?OnDblclk@CLpxTraceView@@IAEXPAUtagNMHDR@@PAJ@Z 00418270 f   lpxtraceview.obj
 0001:00017460       ??0CListView@@QAE@XZ       00418460 f i lpxtraceview.obj
 0001:000174a0       ??_GCListView@@UAEPAXI@Z   004184a0 f i lpxtraceview.obj
 0001:000174a0       ??_ECListView@@UAEPAXI@Z   004184a0 f i lpxtraceview.obj
 0001:000174e0       ??1CListView@@UAE@XZ       004184e0 f i lpxtraceview.obj
 0001:00017500       ??1CCtrlView@@UAE@XZ       00418500 f i lpxtraceview.obj
 0001:00017560       ??_ECLpxTraceView@@UAEPAXI@Z 00418560 f i lpxtraceview.obj
 0001:00017560       ??_GCLpxTraceView@@UAEPAXI@Z 00418560 f i lpxtraceview.obj
 0001:000175a0       ?GetListCtrl@CListView@@QBEAAVCListCtrl@@XZ 004185a0 f i lpxtraceview.obj
 0001:000175c0       ?InsertItem@CListCtrl@@QAEHHPBD@Z 004185c0 f i lpxtraceview.obj
 0001:000175f0       ?DeleteAllItems@CListCtrl@@QAEHXZ 004185f0 f i lpxtraceview.obj
 0001:00017620       ?GetFirstSelectedItemPosition@CListCtrl@@QBEPAU__POSITION@@XZ 00418620 f i lpxtraceview.obj
 0001:00017640       ?GetNextItem@CListCtrl@@QBEHHH@Z 00418640 f i lpxtraceview.obj
 0001:00017680       ?GetNextSelectedItem@CListCtrl@@QBEHAAPAU__POSITION@@@Z 00418680 f i lpxtraceview.obj
 0001:000176c0       ?_GetBaseMessageMap@CMemGrille@@KGPBUAFX_MSGMAP@@XZ 004186c0 f   MemGrille.obj
 0001:000176ca       ?GetMessageMap@CMemGrille@@MBEPBUAFX_MSGMAP@@XZ 004186ca f   MemGrille.obj
 0001:000176da       ?EstChaineNumerique@@YAHPBD@Z 004186da f   MemGrille.obj
 0001:00017741       ??0CMemGrille@@QAE@XZ      00418741 f   MemGrille.obj
 0001:00017768       ??1CMemGrille@@UAE@XZ      00418768 f   MemGrille.obj
 0001:00017784       ?InitMemGrille@CMemGrille@@QAEXXZ 00418784 f   MemGrille.obj
 0001:000178b0       ?OnDragOver@CMemGrille@@UAEKPAVCOleDataObject@@KVCPoint@@@Z 004188b0 f   MemGrille.obj
 0001:00017ac8       ?OnDragEnter@CMemGrille@@UAEKPAVCOleDataObject@@KVCPoint@@@Z 00418ac8 f   MemGrille.obj
 0001:00017c02       ?OnDragLeave@CMemGrille@@UAEXXZ 00418c02 f   MemGrille.obj
 0001:00017c7a       ?OnDrop@CMemGrille@@UAEHPAVCOleDataObject@@KVCPoint@@@Z 00418c7a f   MemGrille.obj
 0001:00017cf2       ?PasteTextToGrid@CMemGrille@@UAEHVCCellID@@PAVCOleDataObject@@@Z 00418cf2 f   MemGrille.obj
 0001:00017f2e       ?TestIdDroppe@CMemGrille@@QAEHAAVCString@@AAH@Z 00418f2e f   MemGrille.obj
 0001:00018103       ?IsCellDropable@CMemGrille@@QAEHVCCellID@@PAVCOleDataObject@@@Z 00419103 f   MemGrille.obj
 0001:0001816e       ?OnEndEditCell@CMemGrille@@UAEXHHVCString@@@Z 0041916e f   MemGrille.obj
 0001:00018364       ?OnEditCell@CMemGrille@@UAEXHHI@Z 00419364 f   MemGrille.obj
 0001:00018563       ?TraitementSaisieMemoire@CMemGrille@@QAEHVCString@@HH@Z 00419563 f   MemGrille.obj
 0001:00018a35       ?TraitementSaisieUtilisateur@CMemGrille@@QAEHVCString@@HH@Z 00419a35 f   MemGrille.obj
 0001:00018d0f       ?OnModificationValeurMemoire@CMemGrille@@QAEXHHVCString@@J@Z 00419d0f f   MemGrille.obj
 0001:000191fd       ?AjouteLitAutomatiqueMemoire@CMemGrille@@QAEHVCString@@0@Z 0041a1fd f   MemGrille.obj
 0001:0001945a       ?SupprimeLitAutomatiqueMemoire@CMemGrille@@QAEHVCString@@0@Z 0041a45a f   MemGrille.obj
 0001:0001959a       ?NbBinomeMemoireUser@CMemGrille@@QAEHVCString@@0@Z 0041a59a f   MemGrille.obj
 0001:000196ff       ?TraitementSaisieValeur@CMemGrille@@QAEHVCString@@HH@Z 0041a6ff f   MemGrille.obj
 0001:0001994e       ?SupprimeLigne@CMemGrille@@QAEXXZ 0041a94e f   MemGrille.obj
 0001:00019b80       ?OnKeyDown@CMemGrille@@IAEXIII@Z 0041ab80 f   MemGrille.obj
 0001:00019bbc       ?RazListe@CMemGrille@@QAEXXZ 0041abbc f   MemGrille.obj
 0001:00019cbe       ?TraitementSaisieIndex@CMemGrille@@QAEHVCString@@HH@Z 0041acbe f   MemGrille.obj
 0001:00019f53       ?OnRButtonDown@CMemGrille@@IAEXIVCPoint@@@Z 0041af53 f   MemGrille.obj
 0001:0001a076       ?OnEffaceIndexMemoire@CMemGrille@@IAEXXZ 0041b076 f   MemGrille.obj
 0001:0001a10a       ?OnEffaceMemoire@CMemGrille@@IAEXXZ 0041b10a f   MemGrille.obj
 0001:0001ac50       ??_GCMemGrille@@UAEPAXI@Z  0041bc50 f i MemGrille.obj
 0001:0001ac50       ??_ECMemGrille@@UAEPAXI@Z  0041bc50 f i MemGrille.obj
 0001:0001ac90       ?SetColumnResize@CGridCtrl@@QAEXH@Z 0041bc90 f i MemGrille.obj
 0001:0001acb0       ?LitMaxValeur@CMemoire@@QAEHXZ 0041bcb0 f i MemGrille.obj
 0001:0001acd0       ?LitMode@CMemoire@@QAEHXZ  0041bcd0 f i MemGrille.obj
 0001:0001acf0       ?CompareNoCase@CString@@QBEHPBD@Z 0041bcf0 f i MemGrille.obj
 0001:0001ad20       __tcsicmp                  0041bd20 f i MemGrille.obj
 0001:0001ad40       ?AfxTrace@@YAXPBDZZ        0041bd40 f i MemGrille.obj
 0001:0001ad50       ?LitVisibilite@CMemoire@@QAEHXZ 0041bd50 f i MemGrille.obj
 0001:0001ad70       ??_GCMemoireRecu@@QAEPAXI@Z 0041bd70 f i MemGrille.obj
 0001:0001adb0       ?GetMaxRow@CCellRange@@QBEHXZ 0041bdb0 f i MemGrille.obj
 0001:0001add0       ?ClientToScreen@CWnd@@QBEXPAUtagPOINT@@@Z 0041bdd0 f i MemGrille.obj
 0001:0001ae00       ?RedrawWindow@CWnd@@QAEHPBUtagRECT@@PAVCRgn@@I@Z 0041be00 f i MemGrille.obj
 0001:0001ae40       ?GetSafeHandle@CGdiObject@@QBEPAXXZ 0041be40 f i MemGrille.obj
 0001:0001ae80       ?OnKeyDown@CWnd@@IAEXIII@Z 0041be80 f i MemGrille.obj
 0001:0001aea0       ?OnRButtonDown@CWnd@@IAEXIVCPoint@@@Z 0041bea0 f i MemGrille.obj
 0001:0001aec0       ?CreateObject@CMemTraceView@@SGPAVCObject@@XZ 0041bec0 f   memtraceview.obj
 0001:0001af27       ?_GetBaseClass@CMemTraceView@@KGPAUCRuntimeClass@@XZ 0041bf27 f   memtraceview.obj
 0001:0001af31       ?GetRuntimeClass@CMemTraceView@@UBEPAUCRuntimeClass@@XZ 0041bf31 f   memtraceview.obj
 0001:0001af41       ??0CMemTraceView@@IAE@XZ   0041bf41 f   memtraceview.obj
 0001:0001af98       ??1CMemTraceView@@MAE@XZ   0041bf98 f   memtraceview.obj
 0001:0001afec       ?_GetBaseMessageMap@CMemTraceView@@KGPBUAFX_MSGMAP@@XZ 0041bfec f   memtraceview.obj
 0001:0001aff6       ?GetMessageMap@CMemTraceView@@MBEPBUAFX_MSGMAP@@XZ 0041bff6 f   memtraceview.obj
 0001:0001b006       ?OnDraw@CMemTraceView@@MAEXPAVCDC@@@Z 0041c006 f   memtraceview.obj
 0001:0001b020       ?OnCreate@CMemTraceView@@IAEHPAUtagCREATESTRUCTA@@@Z 0041c020 f   memtraceview.obj
 0001:0001b07c       ?OnSize@CMemTraceView@@IAEXIHH@Z 0041c07c f   memtraceview.obj
 0001:0001b12a       ?OnEraseBkgnd@CMemTraceView@@IAEHPAVCDC@@@Z 0041c12a f   memtraceview.obj
 0001:0001b143       ?OnDragEnter@CMemTraceView@@UAEKPAVCOleDataObject@@KVCPoint@@@Z 0041c143 f   memtraceview.obj
 0001:0001b172       ?OnDragLeave@CMemTraceView@@UAEXXZ 0041c172 f   memtraceview.obj
 0001:0001b18f       ?OnDragOver@CMemTraceView@@UAEKPAVCOleDataObject@@KVCPoint@@@Z 0041c18f f   memtraceview.obj
 0001:0001b1be       ?OnDrop@CMemTraceView@@UAEHPAVCOleDataObject@@KVCPoint@@@Z 0041c1be f   memtraceview.obj
 0001:0001b1ed       ?OnModificationValeurMemoire@CMemTraceView@@QAEXHHVCString@@J@Z 0041c1ed f   memtraceview.obj
 0001:0001b25a       ?DoDataExchange@CMemTraceView@@MAEXPAVCDataExchange@@@Z 0041c25a f   memtraceview.obj
 0001:0001b380       ??_GCMemTraceView@@MAEPAXI@Z 0041c380 f i memtraceview.obj
 0001:0001b380       ??_ECMemTraceView@@MAEPAXI@Z 0041c380 f i memtraceview.obj
 0001:0001b3c0       ?OnEraseBkgnd@CWnd@@IAEHPAVCDC@@@Z 0041c3c0 f i memtraceview.obj
 0001:0001b3e0       ??0COutputClientTrace@@QAE@XZ 0041c3e0 f   outputclienttrace.obj
 0001:0001b3ff       ??1COutputClientTrace@@UAE@XZ 0041c3ff f   outputclienttrace.obj
 0001:0001b41b       ?Receive@COutputClientTrace@@UAEHPAD@Z 0041c41b f   outputclienttrace.obj
 0001:0001b89c       ?EcritLigne@COutputClientTrace@@QAEXPBD00HH@Z 0041c89c f   outputclienttrace.obj
 0001:0001c100       ?Send@CSocketTCP@@UAEHPAVCString@@@Z 0041d100 f i outputclienttrace.obj
 0001:0001c130       ?SendBrut@CSocketTCP@@UAEHVCString@@@Z 0041d130 f i outputclienttrace.obj
 0001:0001c1b0       ?Receive@CSocketTCP@@UAEHPAVCString@@@Z 0041d1b0 f i outputclienttrace.obj
 0001:0001c1e0       ??_ECOutputClientTrace@@UAEPAXI@Z 0041d1e0 f i outputclienttrace.obj
 0001:0001c1e0       ??_GCOutputClientTrace@@UAEPAXI@Z 0041d1e0 f i outputclienttrace.obj
 0001:0001c220       ??0CClientTrace@@QAE@XZ    0041d220 f i outputclienttrace.obj
 0001:0001c250       ??1CClientTrace@@QAE@XZ    0041d250 f i outputclienttrace.obj
 0001:0001c270       ??0CTexte@@QAE@XZ          0041d270 f i outputclienttrace.obj
 0001:0001c290       ??1CTexte@@QAE@XZ          0041d290 f i outputclienttrace.obj
 0001:0001c2b0       ??_ECString@@QAEPAXI@Z     0041d2b0 f i outputclienttrace.obj
 0001:0001c340       ?GetLength@CString@@QBEHXZ 0041d340 f i outputclienttrace.obj
 0001:0001c360       ?PostMessageA@CWnd@@QAEHIIJ@Z 0041d360 f i outputclienttrace.obj
 0001:0001c390       ??0COutputCtrl@@QAE@XZ     0041d390 f   OutputCtrl.obj
 0001:0001c41d       ??1COutputCtrl@@UAE@XZ     0041d41d f   OutputCtrl.obj
 0001:0001c4d5       ?_GetBaseMessageMap@COutputCtrl@@KGPBUAFX_MSGMAP@@XZ 0041d4d5 f   OutputCtrl.obj
 0001:0001c4df       ?GetMessageMap@COutputCtrl@@MBEPBUAFX_MSGMAP@@XZ 0041d4df f   OutputCtrl.obj
 0001:0001c4ef       ?OnCreate@COutputCtrl@@IAEHPAUtagCREATESTRUCTA@@@Z 0041d4ef f   OutputCtrl.obj
 0001:0001c593       ?OnSize@COutputCtrl@@IAEXIHH@Z 0041d593 f   OutputCtrl.obj
 0001:0001c669       ?AddView@COutputCtrl@@QAEHPBDPAUCRuntimeClass@@PAUCCreateContext@@@Z 0041d669 f   OutputCtrl.obj
 0001:0001c86f       ?RemoveView@COutputCtrl@@QAEXH@Z 0041d86f f   OutputCtrl.obj
 0001:0001c89d       ?OnTabSelChange@COutputCtrl@@IAEXPAUtagNMHDR@@PAJ@Z 0041d89d f   OutputCtrl.obj
 0001:0001c8c1       ?SetActiveView@COutputCtrl@@QAEXH@Z 0041d8c1 f   OutputCtrl.obj
 0001:0001c9d8       ?SetActiveView@COutputCtrl@@QAEXPAUCRuntimeClass@@@Z 0041d9d8 f   OutputCtrl.obj
 0001:0001caf5       ?GetActiveView@COutputCtrl@@QAEPAVCView@@XZ 0041daf5 f   OutputCtrl.obj
 0001:0001cb09       ?GetView@COutputCtrl@@QAEPAVCView@@H@Z 0041db09 f   OutputCtrl.obj
 0001:0001cb4d       ?GetView@COutputCtrl@@QAEPAVCView@@PAUCRuntimeClass@@@Z 0041db4d f   OutputCtrl.obj
 0001:0001cdd0       ??_ECOutputCtrl@@UAEPAXI@Z 0041ddd0 f i OutputCtrl.obj
 0001:0001cdd0       ??_GCOutputCtrl@@UAEPAXI@Z 0041ddd0 f i OutputCtrl.obj
 0001:0001ce10       ??1AFX_EXCEPTION_LINK@@QAE@XZ 0041de10 f i OutputCtrl.obj
 0001:0001ce30       ??0?$CList@PAUTCB_ITEM@@PAU1@@@QAE@H@Z 0041de30 f i OutputCtrl.obj
 0001:0001ceb0       ?GetCount@?$CList@PAUTCB_ITEM@@PAU1@@@QBEHXZ 0041deb0 f i OutputCtrl.obj
 0001:0001ced0       ?IsEmpty@?$CList@PAUTCB_ITEM@@PAU1@@@QBEHXZ 0041ded0 f i OutputCtrl.obj
 0001:0001cef0       ?RemoveHead@?$CList@PAUTCB_ITEM@@PAU1@@@QAEPAUTCB_ITEM@@XZ 0041def0 f i OutputCtrl.obj
 0001:0001cf70       ?AddTail@?$CList@PAUTCB_ITEM@@PAU1@@@QAEPAU__POSITION@@PAUTCB_ITEM@@@Z 0041df70 f i OutputCtrl.obj
 0001:0001cfe0       ?GetHeadPosition@?$CList@PAUTCB_ITEM@@PAU1@@@QBEPAU__POSITION@@XZ 0041dfe0 f i OutputCtrl.obj
 0001:0001d000       ?GetNext@?$CList@PAUTCB_ITEM@@PAU1@@@QAEAAPAUTCB_ITEM@@AAPAU__POSITION@@@Z 0041e000 f i OutputCtrl.obj
 0001:0001d030       ?GetAt@?$CList@PAUTCB_ITEM@@PAU1@@@QAEAAPAUTCB_ITEM@@PAU__POSITION@@@Z 0041e030 f i OutputCtrl.obj
 0001:0001d060       ?RemoveAt@?$CList@PAUTCB_ITEM@@PAU1@@@QAEXPAU__POSITION@@@Z 0041e060 f i OutputCtrl.obj
 0001:0001d0f0       ?FindIndex@?$CList@PAUTCB_ITEM@@PAU1@@@QBEPAU__POSITION@@H@Z 0041e0f0 f i OutputCtrl.obj
 0001:0001d150       ??1?$CList@PAUTCB_ITEM@@PAU1@@@UAE@XZ 0041e150 f i OutputCtrl.obj
 0001:0001d1c0       ?Serialize@?$CList@PAUTCB_ITEM@@PAU1@@@UAEXAAVCArchive@@@Z 0041e1c0 f i OutputCtrl.obj
 0001:0001d290       ??_E?$CList@PAUTCB_ITEM@@PAU1@@@UAEPAXI@Z 0041e290 f i OutputCtrl.obj
 0001:0001d290       ??_G?$CList@PAUTCB_ITEM@@PAU1@@@UAEPAXI@Z 0041e290 f i OutputCtrl.obj
 0001:0001d2d0       ?RemoveAll@?$CList@PAUTCB_ITEM@@PAU1@@@QAEXXZ 0041e2d0 f i OutputCtrl.obj
 0001:0001d360       ?NewNode@?$CList@PAUTCB_ITEM@@PAU1@@@IAEPAUCNode@1@PAU21@0@Z 0041e360 f i OutputCtrl.obj
 0001:0001d470       ?FreeNode@?$CList@PAUTCB_ITEM@@PAU1@@@IAEXPAUCNode@1@@Z 0041e470 f i OutputCtrl.obj
 0001:0001d4e0       ?SerializeElements@@YGXAAVCArchive@@PAPAUTCB_ITEM@@H@Z 0041e4e0 f i OutputCtrl.obj
 0001:0001d530       ?DestructElements@@YGXPAPAUTCB_ITEM@@H@Z 0041e530 f i OutputCtrl.obj
 0001:0001d560       ?ConstructElements@@YGXPAPAUTCB_ITEM@@H@Z 0041e560 f i OutputCtrl.obj
 0001:0001d5c0       ??2@YAPAXIPAX@Z            0041e5c0 f i OutputCtrl.obj
 0001:0001d5d0       ?IsStoring@CArchive@@QBEHXZ 0041e5d0 f i OutputCtrl.obj
 0001:0001d5f0       ?FromHandle@CFont@@SGPAV1@PAUHFONT__@@@Z 0041e5f0 f i OutputCtrl.obj
 0001:0001d610       ?SetFont@CWnd@@QAEXPAVCFont@@H@Z 0041e610 f i OutputCtrl.obj
 0001:0001d650       ?GetParent@CWnd@@QBEPAV1@XZ 0041e650 f i OutputCtrl.obj
 0001:0001d680       ?GetDocTemplate@CDocument@@QBEPAVCDocTemplate@@XZ 0041e680 f i OutputCtrl.obj
 0001:0001d6a0       ??0CCreateContext@@QAE@XZ  0041e6a0 f i OutputCtrl.obj
 0001:0001d6d0       ??0CTabCtrl@@QAE@XZ        0041e6d0 f i OutputCtrl.obj
 0001:0001d700       ??_ECTabCtrl@@UAEPAXI@Z    0041e700 f i OutputCtrl.obj
 0001:0001d700       ??_GCTabCtrl@@UAEPAXI@Z    0041e700 f i OutputCtrl.obj
 0001:0001d740       ?SetImageList@CTabCtrl@@QAEPAVCImageList@@PAV2@@Z 0041e740 f i OutputCtrl.obj
 0001:0001d780       ?GetSafeHandle@CImageList@@QBEPAU_IMAGELIST@@XZ 0041e780 f i OutputCtrl.obj
 0001:0001d7c0       ?InsertItem@CTabCtrl@@QAEHHPAUtagTCITEMA@@@Z 0041e7c0 f i OutputCtrl.obj
 0001:0001d7f0       ?GetCurSel@CTabCtrl@@QBEHXZ 0041e7f0 f i OutputCtrl.obj
 0001:0001d820       ?SetCurSel@CTabCtrl@@QAEHH@Z 0041e820 f i OutputCtrl.obj
 0001:0001d850       ?CreateObject@CTraceView@@SGPAVCObject@@XZ 0041e850 f   traceview.obj
 0001:0001d8b7       ?_GetBaseClass@CTraceView@@KGPAUCRuntimeClass@@XZ 0041e8b7 f   traceview.obj
 0001:0001d8c1       ?GetRuntimeClass@CTraceView@@UBEPAUCRuntimeClass@@XZ 0041e8c1 f   traceview.obj
 0001:0001d8d1       ??0CTraceView@@IAE@XZ      0041e8d1 f   traceview.obj
 0001:0001d8fd       ??1CTraceView@@MAE@XZ      0041e8fd f   traceview.obj
 0001:0001d985       ?_GetBaseMessageMap@CTraceView@@KGPBUAFX_MSGMAP@@XZ 0041e985 f   traceview.obj
 0001:0001d98f       ?GetMessageMap@CTraceView@@MBEPBUAFX_MSGMAP@@XZ 0041e98f f   traceview.obj
 0001:0001d99f       ?OnDraw@CTraceView@@MAEXPAVCDC@@@Z 0041e99f f   traceview.obj
 0001:0001d9b9       ?EcritLigne@CTraceView@@QAEXPBD000@Z 0041e9b9 f   traceview.obj
 0001:0001d9c6       ?OnCreate@CTraceView@@IAEHPAUtagCREATESTRUCTA@@@Z 0041e9c6 f   traceview.obj
 0001:0001da5c       ?OnRButtonDown@CTraceView@@IAEXIVCPoint@@@Z 0041ea5c f   traceview.obj
 0001:0001db49       ?OnTraceEffacer@CTraceView@@IAEXXZ 0041eb49 f   traceview.obj
 0001:0001dbab       ?OnTraceEnregistrer@CTraceView@@IAEXXZ 0041ebab f   traceview.obj
 0001:0001ddbf       ?OnTraceFinEnregistrement@CTraceView@@IAEXXZ 0041edbf f   traceview.obj
 0001:0001de2d       ?OnDestroy@CTraceView@@IAEXXZ 0041ee2d f   traceview.obj
 0001:0001de40       ?OnTraceCopier@CTraceView@@IAEXXZ 0041ee40 f   traceview.obj
 0001:0001de5a       ?OnUpdateTraceCopier@CTraceView@@IAEXPAVCCmdUI@@@Z 0041ee5a f   traceview.obj
 0001:0001de67       ?OnChar@CTraceView@@IAEXIII@Z 0041ee67 f   traceview.obj
 0001:0001de88       ?OnKeyDown@CTraceView@@IAEXIII@Z 0041ee88 f   traceview.obj
 0001:0001dea9       ??0CInfoTrace@@QAE@PBD00H@Z 0041eea9 f   traceview.obj
 0001:0001df4e       ??1CInfoTrace@@UAE@XZ      0041ef4e f   traceview.obj
 0001:0001e190       ??_ECTraceView@@MAEPAXI@Z  0041f190 f i traceview.obj
 0001:0001e190       ??_GCTraceView@@MAEPAXI@Z  0041f190 f i traceview.obj
 0001:0001e1d0       ??1CRichEditView@@UAE@XZ   0041f1d0 f i traceview.obj
 0001:0001e250       ?GetDocument@CRichEditView@@QBEPAVCRichEditDoc@@XZ 0041f250 f i traceview.obj
 0001:0001e270       ?GetRichEditCtrl@CRichEditView@@QBEAAVCRichEditCtrl@@XZ 0041f270 f i traceview.obj
 0001:0001e290       ?SeekToEnd@CFile@@QAEKXZ   0041f290 f i traceview.obj
 0001:0001e2b0       ??1CFileDialog@@UAE@XZ     0041f2b0 f i traceview.obj
 0001:0001e320       ??_ECInfoTrace@@UAEPAXI@Z  0041f320 f i traceview.obj
 0001:0001e320       ??_GCInfoTrace@@UAEPAXI@Z  0041f320 f i traceview.obj
 0001:0001e360       ?OnChar@CWnd@@IAEXIII@Z    0041f360 f i traceview.obj
 0001:0001e380       ??1CCommonDialog@@UAE@XZ   0041f380 f i traceview.obj
 0001:0001e3a0       ?Copy@CRichEditCtrl@@QAEXXZ 0041f3a0 f i traceview.obj
 0001:0001e3d0       ?SetReadOnly@CRichEditCtrl@@QAEHH@Z 0041f3d0 f i traceview.obj
 0001:0001e400       ?GetSelectionType@CRichEditCtrl@@QBEGXZ 0041f400 f i traceview.obj
 0001:0001e430       ??0CSizingControlBar@@QAE@XZ 0041f430 f   Sizecbar.obj
 0001:0001e593       ??1CSizingControlBar@@UAE@XZ 0041f593 f   Sizecbar.obj
 0001:0001e5af       ?_GetBaseMessageMap@CSizingControlBar@@KGPBUAFX_MSGMAP@@XZ 0041f5af f   Sizecbar.obj
 0001:0001e5b9       ?GetMessageMap@CSizingControlBar@@MBEPBUAFX_MSGMAP@@XZ 0041f5b9 f   Sizecbar.obj
 0001:0001e5c9       ?OnUpdateCmdUI@CSizingControlBar@@UAEXPAVCFrameWnd@@H@Z 0041f5c9 f   Sizecbar.obj
 0001:0001e5e6       ?Create@CSizingControlBar@@UAEHPAVCWnd@@VCSize@@IK@Z 0041f5e6 f   Sizecbar.obj
 0001:0001e711       ?CalcFixedLayout@CSizingControlBar@@UAE?AVCSize@@HH@Z 0041f711 f   Sizecbar.obj
 0001:0001e802       ?CalcDynamicLayout@CSizingControlBar@@UAE?AVCSize@@HK@Z 0041f802 f   Sizecbar.obj
 0001:0001e944       ?OnWindowPosChanged@CSizingControlBar@@IAEXPAUtagWINDOWPOS@@@Z 0041f944 f   Sizecbar.obj
 0001:0001e9ea       ?OnSetCursor@CSizingControlBar@@IAEHPAVCWnd@@II@Z 0041f9ea f   Sizecbar.obj
 0001:0001ea5a       ?OnLButtonUp@CSizingControlBar@@IAEXIVCPoint@@@Z 0041fa5a f   Sizecbar.obj
 0001:0001ea9f       ?OnMouseMove@CSizingControlBar@@IAEXIVCPoint@@@Z 0041fa9f f   Sizecbar.obj
 0001:0001eb9a       ?OnNcCalcSize@CSizingControlBar@@IAEXHPAUtagNCCALCSIZE_PARAMS@@@Z 0041fb9a f   Sizecbar.obj
 0001:0001ed63       ?OnNcPaint@CSizingControlBar@@IAEXXZ 0041fd63 f   Sizecbar.obj
 0001:0001edb8       ?OnNcLButtonDown@CSizingControlBar@@IAEXIVCPoint@@@Z 0041fdb8 f   Sizecbar.obj
 0001:0001ee03       ?OnNcHitTest@CSizingControlBar@@IAEIVCPoint@@@Z 0041fe03 f   Sizecbar.obj
 0001:0001ee9a       ?OnLButtonDown@CSizingControlBar@@IAEXIVCPoint@@@Z 0041fe9a f   Sizecbar.obj
 0001:0001eeea       ?OnLButtonDblClk@CSizingControlBar@@IAEXIVCPoint@@@Z 0041feea f   Sizecbar.obj
 0001:0001ef27       ?StartTracking@CSizingControlBar@@QAEXXZ 0041ff27 f   Sizecbar.obj
 0001:0001efe5       ?OnCaptureChanged@CSizingControlBar@@IAEXPAVCWnd@@@Z 0041ffe5 f   Sizecbar.obj
 0001:0001f01c       ?StopTracking@CSizingControlBar@@QAEXH@Z 0042001c f   Sizecbar.obj
 0001:0001f22d       ?OnInvertTracker@CSizingControlBar@@QAEXABVCRect@@@Z 0042022d f   Sizecbar.obj
 0001:0001f33b       ?IsHorz@CSizingControlBar@@QBEHXZ 0042033b f   Sizecbar.obj
 0001:0001f379       ?ClientToWnd@CSizingControlBar@@QAEAAVCPoint@@AAV2@@Z 00420379 f   Sizecbar.obj
 0001:0001f7c0       ??_ECSizingControlBar@@UAEPAXI@Z 004207c0 f i Sizecbar.obj
 0001:0001f7c0       ??_GCSizingControlBar@@UAEPAXI@Z 004207c0 f i Sizecbar.obj
 0001:0001f800       ??0CSize@@QAE@XZ           00420800 f i Sizecbar.obj
 0001:0001f820       ??0CSize@@QAE@HH@Z         00420820 f i Sizecbar.obj
 0001:0001f850       ??0CPoint@@QAE@XZ          00420850 f i Sizecbar.obj
 0001:0001f870       ?Offset@CPoint@@QAEXHH@Z   00420870 f i Sizecbar.obj
 0001:0001f8b0       ?Width@CRect@@QBEHXZ       004208b0 f i Sizecbar.obj
 0001:0001f8d0       ?Height@CRect@@QBEHXZ      004208d0 f i Sizecbar.obj
 0001:0001f8f0       ?CenterPoint@CRect@@QBE?AVCPoint@@XZ 004208f0 f i Sizecbar.obj
 0001:0001f950       ??0CPoint@@QAE@HH@Z        00420950 f i Sizecbar.obj
 0001:0001f980       ?PtInRect@CRect@@QBEHUtagPOINT@@@Z 00420980 f i Sizecbar.obj
 0001:0001f9b0       ?SetRectEmpty@CRect@@QAEXXZ 004209b0 f i Sizecbar.obj
 0001:0001f9d0       ?DeflateRect@CRect@@QAEXHH@Z 004209d0 f i Sizecbar.obj
 0001:0001fa00       ?OffsetRect@CRect@@QAEXHH@Z 00420a00 f i Sizecbar.obj
 0001:0001fa30       ?PatBlt@CDC@@QAEHHHHHK@Z   00420a30 f i Sizecbar.obj
 0001:0001fa70       ?GetWindowRect@CWnd@@QBEXPAUtagRECT@@@Z 00420a70 f i Sizecbar.obj
 0001:0001faa0       ?GetClientRect@CWnd@@QBEXPAUtagRECT@@@Z 00420aa0 f i Sizecbar.obj
 0001:0001fad0       ?GetWindowDC@CWnd@@QAEPAVCDC@@XZ 00420ad0 f i Sizecbar.obj
 0001:0001fb00       ?ReleaseDC@CWnd@@QAEHPAVCDC@@@Z 00420b00 f i Sizecbar.obj
 0001:0001fb30       ?GetDCEx@CWnd@@QAEPAVCDC@@PAVCRgn@@K@Z 00420b30 f i Sizecbar.obj
 0001:0001fb70       ?LockWindowUpdate@CWnd@@QAEHXZ 00420b70 f i Sizecbar.obj
 0001:0001fb90       ?UnlockWindowUpdate@CWnd@@QAEXXZ 00420b90 f i Sizecbar.obj
 0001:0001fbb0       ?SetCapture@CWnd@@QAEPAV1@XZ 00420bb0 f i Sizecbar.obj
 0001:0001fbe0       ?OnSetCursor@CWnd@@IAEHPAV1@II@Z 00420be0 f i Sizecbar.obj
 0001:0001fc00       ?OnWindowPosChanged@CWnd@@IAEXPAUtagWINDOWPOS@@@Z 00420c00 f i Sizecbar.obj
 0001:0001fc20       ?OnNcHitTest@CWnd@@IAEIVCPoint@@@Z 00420c20 f i Sizecbar.obj
 0001:0001fc40       ?OnNcLButtonDown@CWnd@@IAEXIVCPoint@@@Z 00420c40 f i Sizecbar.obj
 0001:0001fc60       ?OnLButtonDblClk@CWnd@@IAEXIVCPoint@@@Z 00420c60 f i Sizecbar.obj
 0001:0001fc80       ?OnLButtonDown@CWnd@@IAEXIVCPoint@@@Z 00420c80 f i Sizecbar.obj
 0001:0001fca0       ?OnLButtonUp@CWnd@@IAEXIVCPoint@@@Z 00420ca0 f i Sizecbar.obj
 0001:0001fcc0       ?OnMouseMove@CWnd@@IAEXIVCPoint@@@Z 00420cc0 f i Sizecbar.obj
 0001:0001fce0       ?OnCaptureChanged@CWnd@@IAEXPAV1@@Z 00420ce0 f i Sizecbar.obj
 0001:0001fd00       ?DelayRecalcLayout@CFrameWnd@@QAEXH@Z 00420d00 f i Sizecbar.obj
 0001:0001fd40       ??0CDarretAppli@@QAE@PAVCWnd@@@Z 00420d40 f   darretappli.obj
 0001:0001fd7e       ?DoDataExchange@CDarretAppli@@MAEXPAVCDataExchange@@@Z 00420d7e f   darretappli.obj
 0001:0001fdc1       ?_GetBaseMessageMap@CDarretAppli@@KGPBUAFX_MSGMAP@@XZ 00420dc1 f   darretappli.obj
 0001:0001fdcb       ?GetMessageMap@CDarretAppli@@MBEPBUAFX_MSGMAP@@XZ 00420dcb f   darretappli.obj
 0001:0001fddb       ?OnOK@CDarretAppli@@MAEXXZ 00420ddb f   darretappli.obj
 0001:0001ff10       ??_ECDarretAppli@@UAEPAXI@Z 00420f10 f i darretappli.obj
 0001:0001ff10       ??_GCDarretAppli@@UAEPAXI@Z 00420f10 f i darretappli.obj
 0001:0001ff50       ??1CDarretAppli@@UAE@XZ    00420f50 f i darretappli.obj
 0001:0001ff70       ?CreateObject@CDconfBD@@SGPAVCObject@@XZ 00420f70 f   dconfbd.obj
 0001:0001ffd7       ?_GetBaseClass@CDconfBD@@KGPAUCRuntimeClass@@XZ 00420fd7 f   dconfbd.obj
 0001:0001ffe1       ?GetRuntimeClass@CDconfBD@@UBEPAUCRuntimeClass@@XZ 00420fe1 f   dconfbd.obj
 0001:0001fff1       ??0CDconfBD@@QAE@XZ        00420ff1 f   dconfbd.obj
 0001:00020120       ??1CDconfBD@@UAE@XZ        00421120 f   dconfbd.obj
 0001:0002022b       ?DoDataExchange@CDconfBD@@MAEXPAVCDataExchange@@@Z 0042122b f   dconfbd.obj
 0001:00020273       ?_GetBaseMessageMap@CDconfBD@@KGPBUAFX_MSGMAP@@XZ 00421273 f   dconfbd.obj
 0001:0002027d       ?GetMessageMap@CDconfBD@@MBEPBUAFX_MSGMAP@@XZ 0042127d f   dconfbd.obj
 0001:0002028d       ?InitConfigurationBD@CDconfBD@@QAEXAAVCConfOsysBd@@@Z 0042128d f   dconfbd.obj
 0001:00020438       ?OnCreate@CDconfBD@@IAEHPAUtagCREATESTRUCTA@@@Z 00421438 f   dconfbd.obj
 0001:0002051a       ?LitConfigurationBD@CDconfBD@@QAEXAAVCConfOsysBd@@@Z 0042151a f   dconfbd.obj
 0001:000207ae       ?OnKillActive@CDconfBD@@UAEHXZ 004217ae f   dconfbd.obj
 0001:0002083e       ?OnConnexionAdo@CDconfBD@@IAEXXZ 0042183e f   dconfbd.obj
 0001:00020980       ?OnInitDialog@CDconfBD@@MAEHXZ 00421980 f   dconfbd.obj
 0001:00020ab8       ?InitLstNomSGBD@CDconfBD@@IAEXH@Z 00421ab8 f   dconfbd.obj
 0001:00020c01       ?OnSelchangeLstSgbd@CDconfBD@@IAEXXZ 00421c01 f   dconfbd.obj
 0001:00020c40       ?OnSetfocusLstSgbd@CDconfBD@@IAEXXZ 00421c40 f   dconfbd.obj
 0001:00020ce0       ?VerifSGBDDefaut@CDconfBD@@IAEXXZ 00421ce0 f   dconfbd.obj
 0001:00020e02       ?VerifLstConnexion@CDconfBD@@QAEHXZ 00421e02 f   dconfbd.obj
 0001:00021410       ??_ECDconfBD@@UAEPAXI@Z    00422410 f i dconfbd.obj
 0001:00021410       ??_GCDconfBD@@UAEPAXI@Z    00422410 f i dconfbd.obj
 0001:00021450       ?Add@CUIntArray@@QAEHI@Z   00422450 f i dconfbd.obj
 0001:00021490       ?Add@CStringArray@@QAEHABVCString@@@Z 00422490 f i dconfbd.obj
 0001:000214d0       ?GetAt@CUIntArray@@QBEIH@Z 004224d0 f i dconfbd.obj
 0001:000214f0       ?GetAt@CStringArray@@QBE?AVCString@@H@Z 004224f0 f i dconfbd.obj
 0001:00021540       ?LitServeur@CConfiguration@@QAEAAVCString@@XZ 00422540 f i dconfbd.obj
 0001:00021560       ?GetConnectionString@Connection15@ADOCG@@QAE?AV_bstr_t@@XZ 00422560 f i dconfbd.obj
 0001:000215e0       ??1?$_com_ptr_t@V?$_com_IIID@UIDispatch@@$1?_GUID_00020400_0000_0000_c000_000000000046@@3U__s_GUID@@A@@@@QAE@XZ 004225e0 f i dconfbd.obj
 0001:00021600       ??0?$_com_ptr_t@V?$_com_IIID@UIDataSourceLocator@dl20@@$1?_GUID_2206ccb2_19c1_11d1_89e0_00c04fd7a829@@3U__s_GUID@@A@@@@QAE@H@Z 00422600 f i dconfbd.obj
 0001:00021640       ??1?$_com_ptr_t@V?$_com_IIID@UIDataSourceLocator@dl20@@$1?_GUID_2206ccb2_19c1_11d1_89e0_00c04fd7a829@@3U__s_GUID@@A@@@@QAE@XZ 00422640 f i dconfbd.obj
 0001:00021660       ??C?$_com_ptr_t@V?$_com_IIID@UIDataSourceLocator@dl20@@$1?_GUID_2206ccb2_19c1_11d1_89e0_00c04fd7a829@@3U__s_GUID@@A@@@@QBEPAUIDataSourceLocator@dl20@@XZ 00422660 f i dconfbd.obj
 0001:00021690       ?CreateInstance@?$_com_ptr_t@V?$_com_IIID@UIDataSourceLocator@dl20@@$1?_GUID_2206ccb2_19c1_11d1_89e0_00c04fd7a829@@3U__s_GUID@@A@@@@QAEJABU_GUID@@PAUIUnknown@@K@Z 00422690 f i dconfbd.obj
 0001:00021760       ??0?$_com_ptr_t@V?$_com_IIID@U_Connection@ADOCG@@$1?_GUID_00001550_0000_0010_8000_00aa006d2ea4@@3U__s_GUID@@A@@@@QAE@H@Z 00422760 f i dconfbd.obj
 0001:000217a0       ??1?$_com_ptr_t@V?$_com_IIID@U_Connection@ADOCG@@$1?_GUID_00001550_0000_0010_8000_00aa006d2ea4@@3U__s_GUID@@A@@@@QAE@XZ 004227a0 f i dconfbd.obj
 0001:000217c0       ??C?$_com_ptr_t@V?$_com_IIID@U_Connection@ADOCG@@$1?_GUID_00001550_0000_0010_8000_00aa006d2ea4@@3U__s_GUID@@A@@@@QBEPAU_Connection@ADOCG@@XZ 004227c0 f i dconfbd.obj
 0001:000217f0       ??9?$_com_ptr_t@V?$_com_IIID@U_Connection@ADOCG@@$1?_GUID_00001550_0000_0010_8000_00aa006d2ea4@@3U__s_GUID@@A@@@@QAE_NH@Z 004227f0 f i dconfbd.obj
 0001:00021820       ?_Release@?$_com_ptr_t@V?$_com_IIID@UIDispatch@@$1?_GUID_00020400_0000_0000_c000_000000000046@@3U__s_GUID@@A@@@@AAEXXZ 00422820 f i dconfbd.obj
 0001:00021850       ?GetIID@?$_com_ptr_t@V?$_com_IIID@UIDataSourceLocator@dl20@@$1?_GUID_2206ccb2_19c1_11d1_89e0_00c04fd7a829@@3U__s_GUID@@A@@@@SAABU_GUID@@XZ 00422850 f i dconfbd.obj
 0001:00021860       ?_Release@?$_com_ptr_t@V?$_com_IIID@UIDataSourceLocator@dl20@@$1?_GUID_2206ccb2_19c1_11d1_89e0_00c04fd7a829@@3U__s_GUID@@A@@@@AAEXXZ 00422860 f i dconfbd.obj
 0001:00021890       ??8?$_com_ptr_t@V?$_com_IIID@U_Connection@ADOCG@@$1?_GUID_00001550_0000_0010_8000_00aa006d2ea4@@3U__s_GUID@@A@@@@QAE_NH@Z 00422890 f i dconfbd.obj
 0001:000218d0       ?_Release@?$_com_ptr_t@V?$_com_IIID@U_Connection@ADOCG@@$1?_GUID_00001550_0000_0010_8000_00aa006d2ea4@@3U__s_GUID@@A@@@@AAEXXZ 004228d0 f i dconfbd.obj
 0001:00021900       ?GetIID@?$_com_IIID@UIDataSourceLocator@dl20@@$1?_GUID_2206ccb2_19c1_11d1_89e0_00c04fd7a829@@3U__s_GUID@@A@@SAABU_GUID@@XZ 00422900 f i dconfbd.obj
 0001:00021910       ??4?$_com_ptr_t@V?$_com_IIID@U_Connection@ADOCG@@$1?_GUID_00001550_0000_0010_8000_00aa006d2ea4@@3U__s_GUID@@A@@@@QAEAAV0@ABV?$_com_ptr_t@V?$_com_IIID@UIDispatch@@$1?_GUID_00020400_0000_0000_c000_000000000046@@3U__s_GUID@@A@@@@@Z 00422910 f i dconfbd.obj
 0001:00021960       ?_QueryInterface@?$_com_ptr_t@V?$_com_IIID@U_Connection@ADOCG@@$1?_GUID_00001550_0000_0010_8000_00aa006d2ea4@@3U__s_GUID@@A@@@@AAEJABV?$_com_ptr_t@V?$_com_IIID@UIDispatch@@$1?_GUID_00020400_0000_0000_c000_000000000046@@3U__s_GUID@@A@@@@@Z 00422960 f i dconfbd.obj
 0001:00021a00       ??C?$_com_ptr_t@V?$_com_IIID@UIDispatch@@$1?_GUID_00020400_0000_0000_c000_000000000046@@3U__s_GUID@@A@@@@QBEPAUIDispatch@@XZ 00422a00 f i dconfbd.obj
 0001:00021a30       ??B?$_com_ptr_t@V?$_com_IIID@UIDispatch@@$1?_GUID_00020400_0000_0000_c000_000000000046@@3U__s_GUID@@A@@@@QBE_NXZ 00422a30 f i dconfbd.obj
 0001:00021a50       ?GetIID@?$_com_ptr_t@V?$_com_IIID@U_Connection@ADOCG@@$1?_GUID_00001550_0000_0010_8000_00aa006d2ea4@@3U__s_GUID@@A@@@@SAABU_GUID@@XZ 00422a50 f i dconfbd.obj
 0001:00021a60       ??4?$_com_ptr_t@V?$_com_IIID@U_Connection@ADOCG@@$1?_GUID_00001550_0000_0010_8000_00aa006d2ea4@@3U__s_GUID@@A@@@@QAEAAV0@PAU_Connection@ADOCG@@@Z 00422a60 f i dconfbd.obj
 0001:00021ac0       ?Attach@?$_com_ptr_t@V?$_com_IIID@U_Connection@ADOCG@@$1?_GUID_00001550_0000_0010_8000_00aa006d2ea4@@3U__s_GUID@@A@@@@QAEXPAU_Connection@ADOCG@@@Z 00422ac0 f i dconfbd.obj
 0001:00021af0       ?_AddRef@?$_com_ptr_t@V?$_com_IIID@U_Connection@ADOCG@@$1?_GUID_00001550_0000_0010_8000_00aa006d2ea4@@3U__s_GUID@@A@@@@AAEXXZ 00422af0 f i dconfbd.obj
 0001:00021b20       ?GetIID@?$_com_IIID@U_Connection@ADOCG@@$1?_GUID_00001550_0000_0010_8000_00aa006d2ea4@@3U__s_GUID@@A@@SAABU_GUID@@XZ 00422b20 f i dconfbd.obj
 0001:00021b30       ?OnCreate@CWnd@@IAEHPAUtagCREATESTRUCTA@@@Z 00422b30 f i dconfbd.obj
 0001:00021b50       ??0CButton@@QAE@XZ         00422b50 f i dconfbd.obj
 0001:00021b80       ??_GCButton@@UAEPAXI@Z     00422b80 f i dconfbd.obj
 0001:00021b80       ??_ECButton@@UAEPAXI@Z     00422b80 f i dconfbd.obj
 0001:00021bc0       ??0CComboBox@@QAE@XZ       00422bc0 f i dconfbd.obj
 0001:00021bf0       ??_ECComboBox@@UAEPAXI@Z   00422bf0 f i dconfbd.obj
 0001:00021bf0       ??_GCComboBox@@UAEPAXI@Z   00422bf0 f i dconfbd.obj
 0001:00021c30       ?GetCurSel@CComboBox@@QBEHXZ 00422c30 f i dconfbd.obj
 0001:00021c60       ?AddString@CComboBox@@QAEHPBD@Z 00422c60 f i dconfbd.obj
 0001:00021c90       ?ResetContent@CComboBox@@QAEXXZ 00422c90 f i dconfbd.obj
 0001:00021cc0       ?SelectString@CComboBox@@QAEHHPBD@Z 00422cc0 f i dconfbd.obj
 0001:00021cf0       ??0_bstr_t@@QAE@PAG_N@Z    00422cf0 f i dconfbd.obj
 0001:00021db0       ??1_bstr_t@@QAE@XZ         00422db0 f i dconfbd.obj
 0001:00021dd0       ??B_bstr_t@@QBEPADXZ       00422dd0 f i dconfbd.obj
 0001:00021e10       ?_Free@_bstr_t@@AAEXXZ     00422e10 f i dconfbd.obj
 0001:00021e40       ??0Data_t@_bstr_t@@QAE@PAG_N@Z 00422e40 f i dconfbd.obj
 0001:00021ed0       ?Release@Data_t@_bstr_t@@QAEKXZ 00422ed0 f i dconfbd.obj
 0001:00021f40       ??_GData_t@_bstr_t@@AAEPAXI@Z 00422f40 f i dconfbd.obj
 0001:00021f80       ?GetString@Data_t@_bstr_t@@QBEPBDXZ 00422f80 f i dconfbd.obj
 0001:00021fe0       ??1Data_t@_bstr_t@@AAE@XZ  00422fe0 f i dconfbd.obj
 0001:00022000       ?_Free@Data_t@_bstr_t@@AAEXXZ 00423000 f i dconfbd.obj
 0001:00022050       ?PromptNew@IDataSourceLocator@dl20@@QAE?AV?$_com_ptr_t@V?$_com_IIID@UIDispatch@@$1?_GUID_00020400_0000_0000_c000_000000000046@@3U__s_GUID@@A@@@@XZ 00423050 f i dconfbd.obj
 0001:000220d0       ??0?$_com_ptr_t@V?$_com_IIID@UIDispatch@@$1?_GUID_00020400_0000_0000_c000_000000000046@@3U__s_GUID@@A@@@@QAE@PAUIDispatch@@_N@Z 004230d0 f i dconfbd.obj
 0001:00022110       ?_AddRef@?$_com_ptr_t@V?$_com_IIID@UIDispatch@@$1?_GUID_00020400_0000_0000_c000_000000000046@@3U__s_GUID@@A@@@@AAEXXZ 00423110 f i dconfbd.obj
 0001:00022140       ?CreateObject@CDconfFenetre@@SGPAVCObject@@XZ 00423140 f   dconffenetre.obj
 0001:000221a7       ?_GetBaseClass@CDconfFenetre@@KGPAUCRuntimeClass@@XZ 004231a7 f   dconffenetre.obj
 0001:000221b1       ?GetRuntimeClass@CDconfFenetre@@UBEPAUCRuntimeClass@@XZ 004231b1 f   dconffenetre.obj
 0001:000221c1       ??0CDconfFenetre@@QAE@XZ   004231c1 f   dconffenetre.obj
 0001:0002222f       ??1CDconfFenetre@@UAE@XZ   0042322f f   dconffenetre.obj
 0001:00022286       ?DoDataExchange@CDconfFenetre@@MAEXPAVCDataExchange@@@Z 00423286 f   dconffenetre.obj
 0001:000222b7       ?_GetBaseMessageMap@CDconfFenetre@@KGPBUAFX_MSGMAP@@XZ 004232b7 f   dconffenetre.obj
 0001:000222c1       ?GetMessageMap@CDconfFenetre@@MBEPBUAFX_MSGMAP@@XZ 004232c1 f   dconffenetre.obj
 0001:000222d1       ?OnInitDialog@CDconfFenetre@@MAEHXZ 004232d1 f   dconffenetre.obj
 0001:00022308       ?OnKillActive@CDconfFenetre@@UAEHXZ 00423308 f   dconffenetre.obj
 0001:00022339       ?EcritFenetreDefaut@CDconfFenetre@@QAEXH@Z 00423339 f   dconffenetre.obj
 0001:00022352       ?LitFenetreDefaut@CDconfFenetre@@QAEHXZ 00423352 f   dconffenetre.obj
 0001:00022400       ??_ECDconfFenetre@@UAEPAXI@Z 00423400 f i dconffenetre.obj
 0001:00022400       ??_GCDconfFenetre@@UAEPAXI@Z 00423400 f i dconffenetre.obj
 0001:00022440       ?LitIdElement@CSaisieNomElement@@QAEHXZ 00423440 f i dconffenetre.obj
 0001:00022460       ?CreateObject@CDconfGen@@SGPAVCObject@@XZ 00423460 f   dconfgen.obj
 0001:000224c7       ?_GetBaseClass@CDconfGen@@KGPAUCRuntimeClass@@XZ 004234c7 f   dconfgen.obj
 0001:000224d1       ?GetRuntimeClass@CDconfGen@@UBEPAUCRuntimeClass@@XZ 004234d1 f   dconfgen.obj
 0001:000224e1       ??0CDconfGen@@QAE@XZ       004234e1 f   dconfgen.obj
 0001:0002260b       ??1CDconfGen@@UAE@XZ       0042360b f   dconfgen.obj
 0001:00022686       ?DoDataExchange@CDconfGen@@MAEXPAVCDataExchange@@@Z 00423686 f   dconfgen.obj
 0001:000227a3       ?_GetBaseMessageMap@CDconfGen@@KGPBUAFX_MSGMAP@@XZ 004237a3 f   dconfgen.obj
 0001:000227ad       ?GetMessageMap@CDconfGen@@MBEPBUAFX_MSGMAP@@XZ 004237ad f   dconfgen.obj
 0001:000227bd       ?OnInitDialog@CDconfGen@@MAEHXZ 004237bd f   dconfgen.obj
 0001:000227e7       ?InitConfigurationGenerale@CDconfGen@@QAEXAAVCConfiguration@@@Z 004237e7 f   dconfgen.obj
 0001:0002293e       ?LitConfigurationGenerale@CDconfGen@@QAEXAAVCConfiguration@@@Z 0042393e f   dconfgen.obj
 0001:00022a9b       ?OnKillActive@CDconfGen@@UAEHXZ 00423a9b f   dconfgen.obj
 0001:00022c31       ?ControleSaisie@CDconfGen@@QAEHXZ 00423c31 f   dconfgen.obj
 0001:00022d46       ?OnConnSocket@CDconfGen@@IAEXXZ 00423d46 f   dconfgen.obj
 0001:00022dda       ?GriserDegriserNumPortProfile@CDconfGen@@QAEXXZ 00423dda f   dconfgen.obj
 0001:00023100       ??_GCDconfGen@@UAEPAXI@Z   00424100 f i dconfgen.obj
 0001:00023100       ??_ECDconfGen@@UAEPAXI@Z   00424100 f i dconfgen.obj
 0001:00023140       ?LitTempsEnregistrement@CConfiguration@@QAEHXZ 00424140 f i dconfgen.obj
 0001:00023160       ?LitPortOsysTrace@CConfiguration@@QAEHXZ 00424160 f i dconfgen.obj
 0001:00023180       ?LitPortOsysMem@CConfiguration@@QAEHXZ 00424180 f i dconfgen.obj
 0001:000231a0       ?LitPortOsysSrv@CConfiguration@@QAEHXZ 004241a0 f i dconfgen.obj
 0001:000231c0       ?LitAnonymes@CConfiguration@@QAEHXZ 004241c0 f i dconfgen.obj
 0001:000231e0       ?LitNomAppli@CConfiguration@@QAEPAVCStringLangue@@XZ 004241e0 f i dconfgen.obj
 0001:00023200       ?LitVersionAppli@CConfiguration@@QAEAAVCString@@XZ 00424200 f i dconfgen.obj
 0001:00023220       ?LitPortOsysConsoleWeb@CConfiguration@@QAEHXZ 00424220 f i dconfgen.obj
 0001:00023240       ?LitPortOsysProfile@CConfiguration@@QAEHXZ 00424240 f i dconfgen.obj
 0001:00023260       ?LitTypeConnexion@CConfiguration@@QAEHXZ 00424260 f i dconfgen.obj
 0001:00023280       ?EcritTempsEnregistrement@CConfiguration@@QAEXH@Z 00424280 f i dconfgen.obj
 0001:000232a0       ?EcritPortOsysTrace@CConfiguration@@QAEXH@Z 004242a0 f i dconfgen.obj
 0001:000232c0       ?EcritPortOsysMem@CConfiguration@@QAEXH@Z 004242c0 f i dconfgen.obj
 0001:000232e0       ?EcritPortOsysSrv@CConfiguration@@QAEXH@Z 004242e0 f i dconfgen.obj
 0001:00023300       ?EcritAnonymes@CConfiguration@@QAEXH@Z 00424300 f i dconfgen.obj
 0001:00023320       ?EcritLangueInterface@CConfiguration@@QAEXPBD@Z 00424320 f i dconfgen.obj
 0001:00023350       ?EcritVersionAppli@CConfiguration@@QAEXPBD@Z 00424350 f i dconfgen.obj
 0001:00023380       ?EcritPortOsysConsoleWeb@CConfiguration@@QAEXH@Z 00424380 f i dconfgen.obj
 0001:000233a0       ?EcritPortOsysProfile@CConfiguration@@QAEXH@Z 004243a0 f i dconfgen.obj
 0001:000233c0       ?EcritTypeConnexion@CConfiguration@@QAEXH@Z 004243c0 f i dconfgen.obj
 0001:000233e0       ?CreateObject@CDconfHTTP@@SGPAVCObject@@XZ 004243e0 f   dconfhttp.obj
 0001:00023447       ?_GetBaseClass@CDconfHTTP@@KGPAUCRuntimeClass@@XZ 00424447 f   dconfhttp.obj
 0001:00023451       ?GetRuntimeClass@CDconfHTTP@@UBEPAUCRuntimeClass@@XZ 00424451 f   dconfhttp.obj
 0001:00023461       ??0CDconfHTTP@@QAE@XZ      00424461 f   dconfhttp.obj
 0001:000235e7       ??1CDconfHTTP@@UAE@XZ      004245e7 f   dconfhttp.obj
 0001:00023698       ?DoDataExchange@CDconfHTTP@@MAEXPAVCDataExchange@@@Z 00424698 f   dconfhttp.obj
 0001:000237e5       ?_GetBaseMessageMap@CDconfHTTP@@KGPBUAFX_MSGMAP@@XZ 004247e5 f   dconfhttp.obj
 0001:000237ef       ?GetMessageMap@CDconfHTTP@@MBEPBUAFX_MSGMAP@@XZ 004247ef f   dconfhttp.obj
 0001:000237ff       ?InitConfigurationHTTP@CDconfHTTP@@QAEXAAVCConfSrvHTTP@@@Z 004247ff f   dconfhttp.obj
 0001:00023903       ?LitConfigurationHTTP@CDconfHTTP@@QAEXAAVCConfSrvHTTP@@@Z 00424903 f   dconfhttp.obj
 0001:00023b02       ?OnKillActive@CDconfHTTP@@UAEHXZ 00424b02 f   dconfhttp.obj
 0001:00023bcd       ?ControleSaisie@CDconfHTTP@@QAEHXZ 00424bcd f   dconfhttp.obj
 0001:00023c18       ?OnDefListe@CDconfHTTP@@IAEXXZ 00424c18 f   dconfhttp.obj
 0001:00023cac       ?OnAutoriseCgi@CDconfHTTP@@IAEXXZ 00424cac f   dconfhttp.obj
 0001:00023cfb       ?OnInitDialog@CDconfHTTP@@MAEHXZ 00424cfb f   dconfhttp.obj
 0001:00024000       ??_ECDconfHTTP@@UAEPAXI@Z  00425000 f i dconfhttp.obj
 0001:00024000       ??_GCDconfHTTP@@UAEPAXI@Z  00425000 f i dconfhttp.obj
 0001:00024040       ?LitLstExtExec@CConfSrvHTTP@@QAEPAVCListExtensExec@@XZ 00425040 f i dconfhttp.obj
 0001:00024060       ??1CDListExtensExec@@UAE@XZ 00425060 f i dconfhttp.obj
 0001:000240e0       ??0CDconfirmMotPasse@@QAE@PAVCWnd@@@Z 004250e0 f   dconfirmmotpasse.obj
 0001:00024156       ?DoDataExchange@CDconfirmMotPasse@@MAEXPAVCDataExchange@@@Z 00425156 f   dconfirmmotpasse.obj
 0001:00024184       ?_GetBaseMessageMap@CDconfirmMotPasse@@KGPBUAFX_MSGMAP@@XZ 00425184 f   dconfirmmotpasse.obj
 0001:0002418e       ?GetMessageMap@CDconfirmMotPasse@@MBEPBUAFX_MSGMAP@@XZ 0042518e f   dconfirmmotpasse.obj
 0001:000241d0       ??_GCDconfirmMotPasse@@UAEPAXI@Z 004251d0 f i dconfirmmotpasse.obj
 0001:000241d0       ??_ECDconfirmMotPasse@@UAEPAXI@Z 004251d0 f i dconfirmmotpasse.obj
 0001:00024210       ??1CDconfirmMotPasse@@UAE@XZ 00425210 f i dconfirmmotpasse.obj
 0001:00024270       ?CreateObject@CDconfLPX@@SGPAVCObject@@XZ 00425270 f   dconflpx.obj
 0001:000242d7       ?_GetBaseClass@CDconfLPX@@KGPAUCRuntimeClass@@XZ 004252d7 f   dconflpx.obj
 0001:000242e1       ?GetRuntimeClass@CDconfLPX@@UBEPAUCRuntimeClass@@XZ 004252e1 f   dconflpx.obj
 0001:000242f1       ??0CDconfLPX@@QAE@XZ       004252f1 f   dconflpx.obj
 0001:000243b3       ??1CDconfLPX@@UAE@XZ       004253b3 f   dconflpx.obj
 0001:000243cf       ?DoDataExchange@CDconfLPX@@MAEXPAVCDataExchange@@@Z 004253cf f   dconflpx.obj
 0001:00024504       ?_GetBaseMessageMap@CDconfLPX@@KGPBUAFX_MSGMAP@@XZ 00425504 f   dconflpx.obj
 0001:0002450e       ?GetMessageMap@CDconfLPX@@MBEPBUAFX_MSGMAP@@XZ 0042550e f   dconflpx.obj
 0001:0002451e       ?InitConfScenAttente@CDconfLPX@@QAEXAAVCConfScenAttente@@@Z 0042551e f   dconflpx.obj
 0001:000245d5       ?LitConfScenAttente@CDconfLPX@@QAEXAAVCConfScenAttente@@@Z 004255d5 f   dconflpx.obj
 0001:00024696       ?OnKillActive@CDconfLPX@@UAEHXZ 00425696 f   dconflpx.obj
 0001:000246bc       ?ControleSaisieDuree@CDconfLPX@@IAEHXZ 004256bc f   dconflpx.obj
 0001:000248ee       ?GriseDegriseDuree@CDconfLPX@@IAEXHH@Z 004258ee f   dconflpx.obj
 0001:0002492d       ?OnSuppAttenteReq@CDconfLPX@@IAEXXZ 0042592d f   dconflpx.obj
 0001:00024959       ?OnSuppAttenteEtat@CDconfLPX@@IAEXXZ 00425959 f   dconflpx.obj
 0001:00024985       ?OnSuppAttenteSaisie@CDconfLPX@@IAEXXZ 00425985 f   dconflpx.obj
 0001:000249b1       ?OnSuppAttenteScen@CDconfLPX@@IAEXXZ 004259b1 f   dconflpx.obj
 0001:000249dd       ?OnInitDialog@CDconfLPX@@MAEHXZ 004259dd f   dconflpx.obj
 0001:00024a68       ?OnSuppAttenteShell@CDconfLPX@@IAEXXZ 00425a68 f   dconflpx.obj
 0001:00024ca0       ??_ECDconfLPX@@UAEPAXI@Z   00425ca0 f i dconflpx.obj
 0001:00024ca0       ??_GCDconfLPX@@UAEPAXI@Z   00425ca0 f i dconflpx.obj
 0001:00024ce0       ??0CDConfProfiling@@QAE@PAVCWnd@@@Z 00425ce0 f   dconfprofiling.obj
 0001:00024d1e       ?DoDataExchange@CDConfProfiling@@MAEXPAVCDataExchange@@@Z 00425d1e f   dconfprofiling.obj
 0001:00024d61       ?_GetBaseMessageMap@CDConfProfiling@@KGPBUAFX_MSGMAP@@XZ 00425d61 f   dconfprofiling.obj
 0001:00024d6b       ?GetMessageMap@CDConfProfiling@@MBEPBUAFX_MSGMAP@@XZ 00425d6b f   dconfprofiling.obj
 0001:00024d7b       ?OnInitDialog@CDConfProfiling@@MAEHXZ 00425d7b f   dconfprofiling.obj
 0001:00024e5a       ?OnOK@CDConfProfiling@@MAEXXZ 00425e5a f   dconfprofiling.obj
 0001:00025020       ??_ECDConfProfiling@@UAEPAXI@Z 00426020 f i dconfprofiling.obj
 0001:00025020       ??_GCDConfProfiling@@UAEPAXI@Z 00426020 f i dconfprofiling.obj
 0001:00025060       ??1CDConfProfiling@@UAE@XZ 00426060 f i dconfprofiling.obj
 0001:00025080       ?CreateObject@CDconfSecurite@@SGPAVCObject@@XZ 00426080 f   dconfsecurite.obj
 0001:000250e7       ?_GetBaseClass@CDconfSecurite@@KGPAUCRuntimeClass@@XZ 004260e7 f   dconfsecurite.obj
 0001:000250f1       ?GetRuntimeClass@CDconfSecurite@@UBEPAUCRuntimeClass@@XZ 004260f1 f   dconfsecurite.obj
 0001:00025101       ??0CDconfSecurite@@QAE@XZ  00426101 f   dconfsecurite.obj
 0001:00025162       ??1CDconfSecurite@@UAE@XZ  00426162 f   dconfsecurite.obj
 0001:000251b9       ?DoDataExchange@CDconfSecurite@@MAEXPAVCDataExchange@@@Z 004261b9 f   dconfsecurite.obj
 0001:000251d2       ?_GetBaseMessageMap@CDconfSecurite@@KGPBUAFX_MSGMAP@@XZ 004261d2 f   dconfsecurite.obj
 0001:000251dc       ?GetMessageMap@CDconfSecurite@@MBEPBUAFX_MSGMAP@@XZ 004261dc f   dconfsecurite.obj
 0001:000251ec       ?OnCreate@CDconfSecurite@@IAEHPAUtagCREATESTRUCTA@@@Z 004261ec f   dconfsecurite.obj
 0001:00025300       ??_GCDconfSecurite@@UAEPAXI@Z 00426300 f i dconfsecurite.obj
 0001:00025300       ??_ECDconfSecurite@@UAEPAXI@Z 00426300 f i dconfsecurite.obj
 0001:00025340       ?CreateObject@CDconfTrace@@SGPAVCObject@@XZ 00426340 f   dconftrace.obj
 0001:000253a7       ?_GetBaseClass@CDconfTrace@@KGPAUCRuntimeClass@@XZ 004263a7 f   dconftrace.obj
 0001:000253b1       ?GetRuntimeClass@CDconfTrace@@UBEPAUCRuntimeClass@@XZ 004263b1 f   dconftrace.obj
 0001:000253c1       ??0CDconfTrace@@QAE@XZ     004263c1 f   dconftrace.obj
 0001:0002547a       ??1CDconfTrace@@UAE@XZ     0042647a f   dconftrace.obj
 0001:000254d1       ?DoDataExchange@CDconfTrace@@MAEXPAVCDataExchange@@@Z 004264d1 f   dconftrace.obj
 0001:00025578       ?_GetBaseMessageMap@CDconfTrace@@KGPBUAFX_MSGMAP@@XZ 00426578 f   dconftrace.obj
 0001:00025582       ?GetMessageMap@CDconfTrace@@MBEPBUAFX_MSGMAP@@XZ 00426582 f   dconftrace.obj
 0001:00025592       ?InitConfigurationTrace@CDconfTrace@@QAEXAAVCConfOsysTrace@@@Z 00426592 f   dconftrace.obj
 0001:00025606       ?LitConfigurationTrace@CDconfTrace@@QAEXAAVCConfOsysTrace@@@Z 00426606 f   dconftrace.obj
 0001:00025780       ??_ECDconfTrace@@UAEPAXI@Z 00426780 f i dconftrace.obj
 0001:00025780       ??_GCDconfTrace@@UAEPAXI@Z 00426780 f i dconftrace.obj
 0001:000257c0       ??0CDconnexionServeur@@QAE@PAVCWnd@@@Z 004267c0 f   dconnexionserveur.obj
 0001:000258f9       ?DoDataExchange@CDconnexionServeur@@MAEXPAVCDataExchange@@@Z 004268f9 f   dconnexionserveur.obj
 0001:0002599d       ?_GetBaseMessageMap@CDconnexionServeur@@KGPBUAFX_MSGMAP@@XZ 0042699d f   dconnexionserveur.obj
 0001:000259a7       ?GetMessageMap@CDconnexionServeur@@MBEPBUAFX_MSGMAP@@XZ 004269a7 f   dconnexionserveur.obj
 0001:000259b7       ?OnInitDialog@CDconnexionServeur@@MAEHXZ 004269b7 f   dconnexionserveur.obj
 0001:00025a32       ?OnOK@CDconnexionServeur@@MAEXXZ 00426a32 f   dconnexionserveur.obj
 0001:00025bbf       ?TesteValiditePort@CDconnexionServeur@@IAEHPBD@Z 00426bbf f   dconnexionserveur.obj
 0001:00025d47       ?OnRadioServeurDistant@CDconnexionServeur@@IAEXXZ 00426d47 f   dconnexionserveur.obj
 0001:00025d7f       ?OnRadioServeurLocal@CDconnexionServeur@@IAEXXZ 00426d7f f   dconnexionserveur.obj
 0001:00025dca       ?LitNomSrv@CDconnexionServeur@@AAEXXZ 00426dca f   dconnexionserveur.obj
 0001:00025e0e       ?LitServeur@CDconnexionServeur@@QAE?AVCString@@XZ 00426e0e f   dconnexionserveur.obj
 0001:00025e49       ?InitNomSrv@CDconnexionServeur@@AAEXXZ 00426e49 f   dconnexionserveur.obj
 0001:00025f4e       ?EcritServeur@CDconnexionServeur@@QAEXPBD@Z 00426f4e f   dconnexionserveur.obj
 0001:00025f93       ?TestNomSrv@CDconnexionServeur@@AAEHPBD@Z 00426f93 f   dconnexionserveur.obj
 0001:000262e0       ??_ECDconnexionServeur@@UAEPAXI@Z 004272e0 f i dconnexionserveur.obj
 0001:000262e0       ??_GCDconnexionServeur@@UAEPAXI@Z 004272e0 f i dconnexionserveur.obj
 0001:00026320       ??1CDconnexionServeur@@UAE@XZ 00427320 f i dconnexionserveur.obj
 0001:000263f0       ?GetAt@CString@@QBEDH@Z    004273f0 f i dconnexionserveur.obj
 0001:00026410       ??9@YG_NABVCString@@PBD@Z  00427410 f i dconnexionserveur.obj
 0001:00026430       ??0CStatic@@QAE@XZ         00427430 f i dconnexionserveur.obj
 0001:00026460       ??_ECStatic@@UAEPAXI@Z     00427460 f i dconnexionserveur.obj
 0001:00026460       ??_GCStatic@@UAEPAXI@Z     00427460 f i dconnexionserveur.obj
 0001:000264a0       ??0CDCoupureReseau@@QAE@PAVCWnd@@@Z 004274a0 f   dcoupurereseau.obj
 0001:00026548       ?DoDataExchange@CDCoupureReseau@@MAEXPAVCDataExchange@@@Z 00427548 f   dcoupurereseau.obj
 0001:00026576       ?_GetBaseMessageMap@CDCoupureReseau@@KGPBUAFX_MSGMAP@@XZ 00427576 f   dcoupurereseau.obj
 0001:00026580       ?GetMessageMap@CDCoupureReseau@@MBEPBUAFX_MSGMAP@@XZ 00427580 f   dcoupurereseau.obj
 0001:00026590       ?OnInitDialog@CDCoupureReseau@@MAEHXZ 00427590 f   dcoupurereseau.obj
 0001:00026763       ?OnCancel@CDCoupureReseau@@MAEXXZ 00427763 f   dcoupurereseau.obj
 0001:00026776       ?OnReconnexionSrv@CDCoupureReseau@@IAEJIJ@Z 00427776 f   dcoupurereseau.obj
 0001:00026872       ?OnTimer@CDCoupureReseau@@IAEXI@Z 00427872 f   dcoupurereseau.obj
 0001:000268e6       ?OnDoubleclickedCancel@CDCoupureReseau@@IAEXXZ 004278e6 f   dcoupurereseau.obj
 0001:000268f9       ?OnDestroy@CDCoupureReseau@@IAEXXZ 004278f9 f   dcoupurereseau.obj
 0001:00026920       ?OnCtlColor@CDCoupureReseau@@IAEPAUHBRUSH__@@PAVCDC@@PAVCWnd@@I@Z 00427920 f   dcoupurereseau.obj
 0001:00026968       ?EcritMessage@CDCoupureReseau@@IAEXH@Z 00427968 f   dcoupurereseau.obj
 0001:00026ad0       ??_GCDCoupureReseau@@UAEPAXI@Z 00427ad0 f i dcoupurereseau.obj
 0001:00026ad0       ??_ECDCoupureReseau@@UAEPAXI@Z 00427ad0 f i dcoupurereseau.obj
 0001:00026b10       ??1CDCoupureReseau@@UAE@XZ 00427b10 f i dcoupurereseau.obj
 0001:00026b70       ?SetTimer@CWnd@@QAEIIIP6GXPAUHWND__@@IIK@Z@Z 00427b70 f i dcoupurereseau.obj
 0001:00026ba0       ?KillTimer@CWnd@@QAEHH@Z   00427ba0 f i dcoupurereseau.obj
 0001:00026bd0       ?OnTimer@CWnd@@IAEXI@Z     00427bd0 f i dcoupurereseau.obj
 0001:00026bf0       ??0CDefGrille@@QAE@PAVCOsysFrame@@PAVCWnd@@@Z 00427bf0 f   defgrille.obj
 0001:00026c91       ?DoDataExchange@CDefGrille@@MAEXPAVCDataExchange@@@Z 00427c91 f   defgrille.obj
 0001:00026cee       ?_GetBaseMessageMap@CDefGrille@@KGPBUAFX_MSGMAP@@XZ 00427cee f   defgrille.obj
 0001:00026cf8       ?GetMessageMap@CDefGrille@@MBEPBUAFX_MSGMAP@@XZ 00427cf8 f   defgrille.obj
 0001:00026d08       ?OnInitDialog@CDefGrille@@MAEHXZ 00427d08 f   defgrille.obj
 0001:00026e25       ?OnOK@CDefGrille@@MAEXXZ   00427e25 f   defgrille.obj
 0001:00026e6e       ?OnArrimageGrille@CDefGrille@@IAEXXZ 00427e6e f   defgrille.obj
 0001:00027020       ??_GCDefGrille@@UAEPAXI@Z  00428020 f i defgrille.obj
 0001:00027020       ??_ECDefGrille@@UAEPAXI@Z  00428020 f i defgrille.obj
 0001:00027060       ??1CDefGrille@@UAE@XZ      00428060 f i defgrille.obj
 0001:000270e0       ?LitUnite@COsysFrame@@QAEHXZ 004280e0 f i defgrille.obj
 0001:00027100       ?LitArrimageGrille@COsysFrame@@QAEHXZ 00428100 f i defgrille.obj
 0001:00027120       ?LitTailleGrille@COsysFrame@@QAEHXZ 00428120 f i defgrille.obj
 0001:00027140       ?EcritArrimageGrille@COsysFrame@@QAEXH@Z 00428140 f i defgrille.obj
 0001:00027160       ?EcritTailleGrille@COsysFrame@@QAEXH@Z 00428160 f i defgrille.obj
 0001:00027180       ??0CSpinButtonCtrl@@QAE@XZ 00428180 f i defgrille.obj
 0001:000271b0       ??_ECSpinButtonCtrl@@UAEPAXI@Z 004281b0 f i defgrille.obj
 0001:000271b0       ??_GCSpinButtonCtrl@@UAEPAXI@Z 004281b0 f i defgrille.obj
 0001:000271f0       ?GetPos@CSpinButtonCtrl@@QBEHXZ 004281f0 f i defgrille.obj
 0001:00027220       ?SetBase@CSpinButtonCtrl@@QAEHH@Z 00428220 f i defgrille.obj
 0001:00027250       ?SetBuddy@CSpinButtonCtrl@@QAEPAVCWnd@@PAV2@@Z 00428250 f i defgrille.obj
 0001:00027290       ?GetSafeHwnd@CWnd@@QBEPAUHWND__@@XZ 00428290 f i defgrille.obj
 0001:000272d0       ?SetPos@CSpinButtonCtrl@@QAEHH@Z 004282d0 f i defgrille.obj
 0001:00027310       ?SetRange@CSpinButtonCtrl@@QAEXHH@Z 00428310 f i defgrille.obj
 0001:00027360       ??0CDImprime@@QAE@HPAVCWnd@@@Z 00428360 f   dimprime.obj
 0001:000273f3       ?DoDataExchange@CDImprime@@MAEXPAVCDataExchange@@@Z 004283f3 f   dimprime.obj
 0001:0002744b       ?_GetBaseMessageMap@CDImprime@@KGPBUAFX_MSGMAP@@XZ 0042844b f   dimprime.obj
 0001:00027455       ?GetMessageMap@CDImprime@@MBEPBUAFX_MSGMAP@@XZ 00428455 f   dimprime.obj
 0001:00027465       ?OnInitDialog@CDImprime@@MAEHXZ 00428465 f   dimprime.obj
 0001:000276c9       ?OnDestinationImprimante@CDImprime@@IAEXXZ 004286c9 f   dimprime.obj
 0001:0002771d       ?OnDestinationFichier@CDImprime@@IAEXXZ 0042871d f   dimprime.obj
 0001:00027795       ?OnOK@CDImprime@@MAEXXZ    00428795 f   dimprime.obj
 0001:00027be0       ?OnDlgFic@CDImprime@@IAEXXZ 00428be0 f   dimprime.obj
 0001:00027d02       ?ImprimeFichier@CDImprime@@IAEHPBD@Z 00428d02 f   dimprime.obj
 0001:000281b5       ?OnChangeEditFichier@CDImprime@@IAEXXZ 004291b5 f   dimprime.obj
 0001:00028201       ?OnUpdateEditFichier@CDImprime@@IAEXXZ 00429201 f   dimprime.obj
 0001:000285c0       ??_ECDImprime@@UAEPAXI@Z   004295c0 f i dimprime.obj
 0001:000285c0       ??_GCDImprime@@UAEPAXI@Z   004295c0 f i dimprime.obj
 0001:00028600       ??1CDImprime@@UAE@XZ       00429600 f i dimprime.obj
 0001:00028660       ??1CPrintDialog@@UAE@XZ    00429660 f i dimprime.obj
 0001:00028680       ?LitMotPasseUtilisateur@CConfiguration@@QAEAAVCString@@XZ 00429680 f i dimprime.obj
 0001:000286a0       ??0CDlistDecl@@QAE@PAVCWnd@@@Z 004296a0 f   dlistdecl.obj
 0001:00028702       ?DoDataExchange@CDlistDecl@@MAEXPAVCDataExchange@@@Z 00429702 f   dlistdecl.obj
 0001:0002871b       ?_GetBaseMessageMap@CDlistDecl@@KGPBUAFX_MSGMAP@@XZ 0042971b f   dlistdecl.obj
 0001:00028725       ?GetMessageMap@CDlistDecl@@MBEPBUAFX_MSGMAP@@XZ 00429725 f   dlistdecl.obj
 0001:00028735       ?OnInitDialog@CDlistDecl@@MAEHXZ 00429735 f   dlistdecl.obj
 0001:000287ad       ?OnLButtonDblClk@CDlistDecl@@IAEXIVCPoint@@@Z 004297ad f   dlistdecl.obj
 0001:00028820       ??_GCDlistDecl@@UAEPAXI@Z  00429820 f i dlistdecl.obj
 0001:00028820       ??_ECDlistDecl@@UAEPAXI@Z  00429820 f i dlistdecl.obj
 0001:00028860       ??1CDlistDecl@@UAE@XZ      00429860 f i dlistdecl.obj
 0001:000288c0       ??0CDListExtensExec@@QAE@PAVCWnd@@@Z 004298c0 f   dlistextensexec.obj
 0001:00028934       ?DoDataExchange@CDListExtensExec@@MAEXPAVCDataExchange@@@Z 00429934 f   dlistextensexec.obj
 0001:00028962       ?_GetBaseMessageMap@CDListExtensExec@@KGPBUAFX_MSGMAP@@XZ 00429962 f   dlistextensexec.obj
 0001:0002896c       ?GetMessageMap@CDListExtensExec@@MBEPBUAFX_MSGMAP@@XZ 0042996c f   dlistextensexec.obj
 0001:0002897c       ?OnInitDialog@CDListExtensExec@@MAEHXZ 0042997c f   dlistextensexec.obj
 0001:000289f8       ?InitListe@CDListExtensExec@@QAEXXZ 004299f8 f   dlistextensexec.obj
 0001:00028af6       ?InitListeExtensExec@CDListExtensExec@@QAEXAAVCListExtensExec@@@Z 00429af6 f   dlistextensexec.obj
 0001:00028b15       ?OnOK@CDListExtensExec@@MAEXXZ 00429b15 f   dlistextensexec.obj
 0001:00028c5a       ?OnNouveau@CDListExtensExec@@IAEXXZ 00429c5a f   dlistextensexec.obj
 0001:00028d7f       ?OnModifier@CDListExtensExec@@IAEXXZ 00429d7f f   dlistextensexec.obj
 0001:00028ef2       ?OnSupprimer@CDListExtensExec@@IAEXXZ 00429ef2 f   dlistextensexec.obj
 0001:00029024       ?OnClickListe@CDListExtensExec@@IAEXPAUtagNMHDR@@PAJ@Z 0042a024 f   dlistextensexec.obj
 0001:000290aa       ?OnDblclkListe@CDListExtensExec@@IAEXPAUtagNMHDR@@PAJ@Z 0042a0aa f   dlistextensexec.obj
 0001:000290c8       ??0CDExtensionExec@@QAE@PAVCWnd@@@Z 0042a0c8 f   dlistextensexec.obj
 0001:0002919c       ?DoDataExchange@CDExtensionExec@@MAEXPAVCDataExchange@@@Z 0042a19c f   dlistextensexec.obj
 0001:00029211       ?_GetBaseMessageMap@CDExtensionExec@@KGPBUAFX_MSGMAP@@XZ 0042a211 f   dlistextensexec.obj
 0001:0002921b       ?GetMessageMap@CDExtensionExec@@MBEPBUAFX_MSGMAP@@XZ 0042a21b f   dlistextensexec.obj
 0001:0002922b       ?OnInitDialog@CDExtensionExec@@MAEHXZ 0042a22b f   dlistextensexec.obj
 0001:000293d7       ?OnOK@CDExtensionExec@@MAEXXZ 0042a3d7 f   dlistextensexec.obj
 0001:00029473       ?Initialise@CDExtensionExec@@QAEXPBDH@Z 0042a473 f   dlistextensexec.obj
 0001:0002949e       ?LitExtensionExec@CDExtensionExec@@QAEXAAVCString@@0@Z 0042a49e f   dlistextensexec.obj
 0001:000294ce       ?EcritExtensionExec@CDExtensionExec@@QAEXPBD0@Z 0042a4ce f   dlistextensexec.obj
 0001:000294ff       ?OnButtonExec@CDExtensionExec@@IAEXXZ 0042a4ff f   dlistextensexec.obj
 0001:00029960       ??_GCDListExtensExec@@UAEPAXI@Z 0042a960 f i dlistextensexec.obj
 0001:00029960       ??_ECDListExtensExec@@UAEPAXI@Z 0042a960 f i dlistextensexec.obj
 0001:000299a0       ??1CDExtensionExec@@UAE@XZ 0042a9a0 f i dlistextensexec.obj
 0001:00029a60       ??_GCDExtensionExec@@UAEPAXI@Z 0042aa60 f i dlistextensexec.obj
 0001:00029a60       ??_ECDExtensionExec@@UAEPAXI@Z 0042aa60 f i dlistextensexec.obj
 0001:00029aa0       ??0CEdit@@QAE@XZ           0042aaa0 f i dlistextensexec.obj
 0001:00029ad0       ??_ECEdit@@UAEPAXI@Z       0042aad0 f i dlistextensexec.obj
 0001:00029ad0       ??_GCEdit@@UAEPAXI@Z       0042aad0 f i dlistextensexec.obj
 0001:00029b10       ?SetReadOnly@CEdit@@QAEHH@Z 0042ab10 f i dlistextensexec.obj
 0001:00029b40       ??0CListCtrl@@QAE@XZ       0042ab40 f i dlistextensexec.obj
 0001:00029b70       ??_ECListCtrl@@UAEPAXI@Z   0042ab70 f i dlistextensexec.obj
 0001:00029b70       ??_GCListCtrl@@UAEPAXI@Z   0042ab70 f i dlistextensexec.obj
 0001:00029bb0       ?GetItemCount@CListCtrl@@QBEHXZ 0042abb0 f i dlistextensexec.obj
 0001:00029be0       ?DeleteItem@CListCtrl@@QAEHH@Z 0042abe0 f i dlistextensexec.obj
 0001:00029c10       ?SetColumnWidth@CListCtrl@@QAEHHH@Z 0042ac10 f i dlistextensexec.obj
 0001:00029c50       ??0CDListFich@@QAE@PAVCWnd@@@Z 0042ac50 f   dlistfich.obj
 0001:00029d8a       ?DoDataExchange@CDListFich@@MAEXPAVCDataExchange@@@Z 0042ad8a f   dlistfich.obj
 0001:00029dcf       ?_GetBaseMessageMap@CDListFich@@KGPBUAFX_MSGMAP@@XZ 0042adcf f   dlistfich.obj
 0001:00029dd9       ?GetMessageMap@CDListFich@@MBEPBUAFX_MSGMAP@@XZ 0042add9 f   dlistfich.obj
 0001:00029de9       ?OnInitDialog@CDListFich@@MAEHXZ 0042ade9 f   dlistfich.obj
 0001:00029ead       ?Initialise@CDListFich@@QAEXHPBD00PAVCImageList@@@Z 0042aead f   dlistfich.obj
 0001:00029f08       ?InitListeFic@CDListFich@@QAEXXZ 0042af08 f   dlistfich.obj
 0001:0002a2d1       ?OnOK@CDListFich@@MAEXXZ   0042b2d1 f   dlistfich.obj
 0001:0002a43f       ?LitFicRepSelect@CDListFich@@QAEHAAVCString@@AAH1@Z 0042b43f f   dlistfich.obj
 0001:0002a499       ?OnDblclkListe@CDListFich@@IAEXPAUtagNMHDR@@PAJ@Z 0042b499 f   dlistfich.obj
 0001:0002a669       ?OnClickListe@CDListFich@@IAEXPAUtagNMHDR@@PAJ@Z 0042b669 f   dlistfich.obj
 0001:0002a8a0       ?OnRemonter@CDListFich@@IAEXXZ 0042b8a0 f   dlistfich.obj
 0001:0002a9b2       ?OnTelecharger@CDListFich@@IAEXXZ 0042b9b2 f   dlistfich.obj
 0001:0002ac09       ?OnEnregistrer@CDListFich@@IAEXXZ 0042bc09 f   dlistfich.obj
 0001:0002adfa       ?EnregistreFichierMoteur@CDListFich@@QAEXPAD@Z 0042bdfa f   dlistfich.obj
 0001:0002af82       ?OnRepCreer@CDListFich@@IAEXXZ 0042bf82 f   dlistfich.obj
 0001:0002b150       ?OnRepSupprim@CDListFich@@IAEXXZ 0042c150 f   dlistfich.obj
 0001:0002b367       ?OnFicSupprim@CDListFich@@IAEXXZ 0042c367 f   dlistfich.obj
 0001:0002bbd0       ??_ECDListFich@@UAEPAXI@Z  0042cbd0 f i dlistfich.obj
 0001:0002bbd0       ??_GCDListFich@@UAEPAXI@Z  0042cbd0 f i dlistfich.obj
 0001:0002bc10       ??1CDListFich@@UAE@XZ      0042cc10 f i dlistfich.obj
 0001:0002bd10       ?LitSaisie@CDsaisie@@QAE?AVCString@@XZ 0042cd10 f i dlistfich.obj
 0001:0002bd50       ??1CDsaisie@@UAE@XZ        0042cd50 f i dlistfich.obj
 0001:0002bde0       ?EnableButton@CToolBarCtrl@@QAEHHH@Z 0042cde0 f i dlistfich.obj
 0001:0002be20       ?SetImageList@CListCtrl@@QAEPAVCImageList@@PAV2@H@Z 0042ce20 f i dlistfich.obj
 0001:0002be60       ?GetItem@CListCtrl@@QBEHPAUtagLVITEMA@@@Z 0042ce60 f i dlistfich.obj
 0001:0002be90       ?SetItem@CListCtrl@@QAEHPBUtagLVITEMA@@@Z 0042ce90 f i dlistfich.obj
 0001:0002bec0       ?FindItem@CListCtrl@@QBEHPAUtagLVFINDINFOA@@H@Z 0042cec0 f i dlistfich.obj
 0001:0002bef0       ??0CDlistScenCours@@QAE@PAVCWnd@@@Z 0042cef0 f   dlistscencours.obj
 0001:0002bf78       ??1CDlistScenCours@@UAE@XZ 0042cf78 f   dlistscencours.obj
 0001:0002bffc       ?DoDataExchange@CDlistScenCours@@MAEXPAVCDataExchange@@@Z 0042cffc f   dlistscencours.obj
 0001:0002c02a       ?_GetBaseMessageMap@CDlistScenCours@@KGPBUAFX_MSGMAP@@XZ 0042d02a f   dlistscencours.obj
 0001:0002c034       ?GetMessageMap@CDlistScenCours@@MBEPBUAFX_MSGMAP@@XZ 0042d034 f   dlistscencours.obj
 0001:0002c044       ?OnInitDialog@CDlistScenCours@@MAEHXZ 0042d044 f   dlistscencours.obj
 0001:0002c19e       ?InitListe@CDlistScenCours@@QAEHXZ 0042d19e f   dlistscencours.obj
 0001:0002c490       ?TraiteListPtr@CDlistScenCours@@QAEXXZ 0042d490 f   dlistscencours.obj
 0001:0002c5ee       ?ScenCoursSansPere@CDlistScenCours@@QAEPAVCScenCours@@XZ 0042d5ee f   dlistscencours.obj
 0001:0002c642       ?AjouteScenarioCours@CDlistScenCours@@QAEXPBD0JHH@Z 0042d642 f   dlistscencours.obj
 0001:0002c824       ?AjouteScenarioDescendants@CDlistScenCours@@QAEXPAVCScenCours@@@Z 0042d824 f   dlistscencours.obj
 0001:0002c9d1       ?OnColumnclickListe@CDlistScenCours@@IAEXPAUtagNMHDR@@PAJ@Z 0042d9d1 f   dlistscencours.obj
 0001:0002c9ef       ?OnSupprimer@CDlistScenCours@@IAEXXZ 0042d9ef f   dlistscencours.obj
 0001:0002cb3c       ?OnActualiser@CDlistScenCours@@IAEXXZ 0042db3c f   dlistscencours.obj
 0001:0002cb65       ?OnClickListe@CDlistScenCours@@IAEXPAUtagNMHDR@@PAJ@Z 0042db65 f   dlistscencours.obj
 0001:0002cc0b       ?RazListPtr@CDlistScenCours@@QAEXXZ 0042dc0b f   dlistscencours.obj
 0001:0002cc6e       ?LitNomScenario@CDlistScenCours@@QAE?AVCString@@H@Z 0042dc6e f   dlistscencours.obj
 0001:0002cd54       ?EstScenarioPere@CDlistScenCours@@QAEHH@Z 0042dd54 f   dlistscencours.obj
 0001:0002cdc0       ??0CScenCours@@QAE@HHHHHJH@Z 0042ddc0 f   dlistscencours.obj
 0001:0002ce5b       ??0CScenCours@@QAE@HHHHHJHPAD0@Z 0042de5b f   dlistscencours.obj
 0001:0002cf24       ??1CScenCours@@UAE@XZ      0042df24 f   dlistscencours.obj
 0001:0002cf7b       ?OnKeydownListe@CDlistScenCours@@IAEXPAUtagNMHDR@@PAJ@Z 0042df7b f   dlistscencours.obj
 0001:0002d480       ??_GCDlistScenCours@@UAEPAXI@Z 0042e480 f i dlistscencours.obj
 0001:0002d480       ??_ECDlistScenCours@@UAEPAXI@Z 0042e480 f i dlistscencours.obj
 0001:0002d4c0       ?GetCount@CPtrList@@QBEHXZ 0042e4c0 f i dlistscencours.obj
 0001:0002d4e0       ?GetHeadPosition@CPtrList@@QBEPAU__POSITION@@XZ 0042e4e0 f i dlistscencours.obj
 0001:0002d500       ?GetNext@CPtrList@@QAEAAPAXAAPAU__POSITION@@@Z 0042e500 f i dlistscencours.obj
 0001:0002d530       ??0CTime@@QAE@J@Z          0042e530 f i dlistscencours.obj
 0001:0002d550       ?IsEmpty@CPtrList@@QBEHXZ  0042e550 f i dlistscencours.obj
 0001:0002d570       ??_GCScenCours@@UAEPAXI@Z  0042e570 f i dlistscencours.obj
 0001:0002d570       ??_ECScenCours@@UAEPAXI@Z  0042e570 f i dlistscencours.obj
 0001:0002d5b0       ?SetItemData@CListCtrl@@QAEHHK@Z 0042e5b0 f i dlistscencours.obj
 0001:0002d5f0       ??0CDlistUserConnect@@QAE@PAVCWnd@@@Z 0042e5f0 f   dlistuserconnect.obj
 0001:0002d666       ??1CDlistUserConnect@@UAE@XZ 0042e666 f   dlistuserconnect.obj
 0001:0002d6d8       ?DoDataExchange@CDlistUserConnect@@MAEXPAVCDataExchange@@@Z 0042e6d8 f   dlistuserconnect.obj
 0001:0002d706       ?_GetBaseMessageMap@CDlistUserConnect@@KGPBUAFX_MSGMAP@@XZ 0042e706 f   dlistuserconnect.obj
 0001:0002d710       ?GetMessageMap@CDlistUserConnect@@MBEPBUAFX_MSGMAP@@XZ 0042e710 f   dlistuserconnect.obj
 0001:0002d720       ?OnInitDialog@CDlistUserConnect@@MAEHXZ 0042e720 f   dlistuserconnect.obj
 0001:0002d8ea       ?RazListPtr@CDlistUserConnect@@QAEXXZ 0042e8ea f   dlistuserconnect.obj
 0001:0002d94b       ?InitListe@CDlistUserConnect@@QAEHXZ 0042e94b f   dlistuserconnect.obj
 0001:0002dc44       ?TraiteListPtr@CDlistUserConnect@@QAEXXZ 0042ec44 f   dlistuserconnect.obj
 0001:0002dca9       ?AjoutListCtrl@CDlistUserConnect@@QAEHPAVCUserConnect@@@Z 0042eca9 f   dlistuserconnect.obj
 0001:0002de09       ?OnClickListe@CDlistUserConnect@@IAEXPAUtagNMHDR@@PAJ@Z 0042ee09 f   dlistuserconnect.obj
 0001:0002de63       ?OnKeydownListe@CDlistUserConnect@@IAEXPAUtagNMHDR@@PAJ@Z 0042ee63 f   dlistuserconnect.obj
 0001:0002dec3       ?OnActualiser@CDlistUserConnect@@IAEXXZ 0042eec3 f   dlistuserconnect.obj
 0001:0002deec       ?OnSupprimer@CDlistUserConnect@@IAEXXZ 0042eeec f   dlistuserconnect.obj
 0001:0002e113       ??0CUserConnect@@QAE@HPBD0H00@Z 0042f113 f   dlistuserconnect.obj
 0001:0002e4d0       ??_ECDlistUserConnect@@UAEPAXI@Z 0042f4d0 f i dlistuserconnect.obj
 0001:0002e4d0       ??_GCDlistUserConnect@@UAEPAXI@Z 0042f4d0 f i dlistuserconnect.obj
 0001:0002e510       ??_GCUserConnect@@QAEPAXI@Z 0042f510 f i dlistuserconnect.obj
 0001:0002e550       ??1CUserConnect@@QAE@XZ    0042f550 f i dlistuserconnect.obj
 0001:0002e5e0       ??0CDNom@@QAE@PAVCWnd@@@Z  0042f5e0 f   dnom.obj
 0001:0002e70e       ?DoDataExchange@CDNom@@MAEXPAVCDataExchange@@@Z 0042f70e f   dnom.obj
 0001:0002e7ca       ?_GetBaseMessageMap@CDNom@@KGPBUAFX_MSGMAP@@XZ 0042f7ca f   dnom.obj
 0001:0002e7d4       ?GetMessageMap@CDNom@@MBEPBUAFX_MSGMAP@@XZ 0042f7d4 f   dnom.obj
 0001:0002e7e4       ?OnOK@CDNom@@MAEXXZ        0042f7e4 f   dnom.obj
 0001:0002ea7c       ?OnInitDialog@CDNom@@MAEHXZ 0042fa7c f   dnom.obj
 0001:0002edf1       ?TestCaractereSpecifique@CDNom@@QAEHVCString@@@Z 0042fdf1 f   dnom.obj
 0001:0002ee90       ?OnGraphique@CDNom@@IAEXXZ 0042fe90 f   dnom.obj
 0001:0002eedf       ?OnModule@CDNom@@IAEXXZ    0042fedf f   dnom.obj
 0001:0002ef2e       ?OnChangeNom@CDNom@@IAEXXZ 0042ff2e f   dnom.obj
 0001:0002efbf       ?OnUpdateNom@CDNom@@IAEXXZ 0042ffbf f   dnom.obj
 0001:0002efca       ?InitLstNomSGBD@CDNom@@QAEXXZ 0042ffca f   dnom.obj
 0001:0002f3f0       ??_GCDNom@@UAEPAXI@Z       004303f0 f i dnom.obj
 0001:0002f3f0       ??_ECDNom@@UAEPAXI@Z       004303f0 f i dnom.obj
 0001:0002f430       ??1CDNom@@UAE@XZ           00430430 f i dnom.obj
 0001:0002f500       ??ACString@@QBEDH@Z        00430500 f i dnom.obj
 0001:0002f520       ?SetCurSel@CComboBox@@QAEHH@Z 00430520 f i dnom.obj
 0001:0002f550       ?InsertString@CComboBox@@QAEHHPBD@Z 00430550 f i dnom.obj
 0001:0002f580       ??0CDProprietes@@QAE@PAVCWnd@@@Z 00430580 f   dproprietes.obj
 0001:0002f70b       ?DoDataExchange@CDProprietes@@MAEXPAVCDataExchange@@@Z 0043070b f   dproprietes.obj
 0001:0002f7b2       ?_GetBaseMessageMap@CDProprietes@@KGPBUAFX_MSGMAP@@XZ 004307b2 f   dproprietes.obj
 0001:0002f7bc       ?GetMessageMap@CDProprietes@@MBEPBUAFX_MSGMAP@@XZ 004307bc f   dproprietes.obj
 0001:0002f7cc       ?OnInitDialog@CDProprietes@@MAEHXZ 004307cc f   dproprietes.obj
 0001:0002fbd3       ?LectureModification@CDProprietes@@QAEHXZ 00430bd3 f   dproprietes.obj
 0001:0002fd16       ?RetourneDateFormatee@CDProprietes@@QAE?AVCString@@J@Z 00430d16 f   dproprietes.obj
 0001:0002fd92       ?RetourneDescUtilisateur@CDProprietes@@QAE?AVCString@@H@Z 00430d92 f   dproprietes.obj
 0001:00030060       ??_ECDProprietes@@UAEPAXI@Z 00431060 f i dproprietes.obj
 0001:00030060       ??_GCDProprietes@@UAEPAXI@Z 00431060 f i dproprietes.obj
 0001:000300a0       ??1CDProprietes@@UAE@XZ    004310a0 f i dproprietes.obj
 0001:000301a0       ?LitTabUser@CModification@@QAEPAHXZ 004311a0 f i dproprietes.obj
 0001:000301c0       ?LitTabDate@CModification@@QAEPAJXZ 004311c0 f i dproprietes.obj
 0001:000301e0       ??0CDrepertoire@@QAE@PADPAUHWND__@@@Z 004311e0 f   Drepertoire.obj
 0001:00030258       ??1CDrepertoire@@UAE@XZ    00431258 f   Drepertoire.obj
 0001:000302af       ?BrowseCallbackProc@@YGHPAUHWND__@@IJJ@Z 004312af f   Drepertoire.obj
 0001:0003033a       ?DoModal@CDrepertoire@@QAEHXZ 0043133a f   Drepertoire.obj
 0001:00030429       ?LitRepertoire@CDrepertoire@@QAEPADXZ 00431429 f   Drepertoire.obj
 0001:000304e0       ??_GCDrepertoire@@UAEPAXI@Z 004314e0 f i Drepertoire.obj
 0001:000304e0       ??_ECDrepertoire@@UAEPAXI@Z 004314e0 f i Drepertoire.obj
 0001:00030520       ??0CDsaisie@@QAE@PBD00PAVCWnd@@@Z 00431520 f   dsaisie.obj
 0001:00030603       ?DoDataExchange@CDsaisie@@MAEXPAVCDataExchange@@@Z 00431603 f   dsaisie.obj
 0001:00030646       ?_GetBaseMessageMap@CDsaisie@@KGPBUAFX_MSGMAP@@XZ 00431646 f   dsaisie.obj
 0001:00030650       ?GetMessageMap@CDsaisie@@MBEPBUAFX_MSGMAP@@XZ 00431650 f   dsaisie.obj
 0001:00030660       ?OnInitDialog@CDsaisie@@MAEHXZ 00431660 f   dsaisie.obj
 0001:00030696       ?OnClose@CDsaisie@@IAEXXZ  00431696 f   dsaisie.obj
 0001:00030710       ??_ECDsaisie@@UAEPAXI@Z    00431710 f i dsaisie.obj
 0001:00030710       ??_GCDsaisie@@UAEPAXI@Z    00431710 f i dsaisie.obj
 0001:00030750       ?OnClose@CWnd@@IAEXXZ      00431750 f i dsaisie.obj
 0001:00030770       ??0CDsecurite@@QAE@PAVCWnd@@@Z 00431770 f   dsecurite.obj
 0001:000307f9       ?DoDataExchange@CDsecurite@@MAEXPAVCDataExchange@@@Z 004317f9 f   dsecurite.obj
 0001:0003082a       ?_GetBaseMessageMap@CDsecurite@@KGPBUAFX_MSGMAP@@XZ 0043182a f   dsecurite.obj
 0001:00030834       ?GetMessageMap@CDsecurite@@MBEPBUAFX_MSGMAP@@XZ 00431834 f   dsecurite.obj
 0001:00030844       ?OnInitDialog@CDsecurite@@MAEHXZ 00431844 f   dsecurite.obj
 0001:00030a5b       ?OnOK@CDsecurite@@MAEXXZ   00431a5b f   dsecurite.obj
 0001:00030b67       ?OnCheckGrp@CDsecurite@@IAEXXZ 00431b67 f   dsecurite.obj
 0001:00030c80       ??_ECDsecurite@@UAEPAXI@Z  00431c80 f i dsecurite.obj
 0001:00030c80       ??_GCDsecurite@@UAEPAXI@Z  00431c80 f i dsecurite.obj
 0001:00030cc0       ??1CDsecurite@@UAE@XZ      00431cc0 f i dsecurite.obj
 0001:00030d20       ?LitId@CDefType@@QAEHXZ    00431d20 f i dsecurite.obj
 0001:00030d40       ?LitNom@CDefType@@QAEAAVCString@@XZ 00431d40 f i dsecurite.obj
 0001:00030d60       ?_GetBaseMessageMap@CListConn@@KGPBUAFX_MSGMAP@@XZ 00431d60 f   ListConn.obj
 0001:00030d6a       ?GetMessageMap@CListConn@@MBEPBUAFX_MSGMAP@@XZ 00431d6a f   ListConn.obj
 0001:00030d7a       ??0CListConn@@QAE@XZ       00431d7a f   ListConn.obj
 0001:00030dfd       ??1CListConn@@UAE@XZ       00431dfd f   ListConn.obj
 0001:00030e72       ?InitListeConnexion@CListConn@@QAEHHAAVCStringArray@@000AAVCUIntArray@@11@Z 00431e72 f   ListConn.obj
 0001:000313f9       ?OnEditCell@CListConn@@UAEXHHI@Z 004323f9 f   ListConn.obj
 0001:000317e3       ?OnEndEditCell@CListConn@@UAEXHHVCString@@@Z 004327e3 f   ListConn.obj
 0001:00031d66       ?OnFixedRowClick@CListConn@@UAEXAAVCCellID@@@Z 00432d66 f   ListConn.obj
 0001:00031d8c       ?OnFixedColumnClick@CListConn@@UAEXAAVCCellID@@@Z 00432d8c f   ListConn.obj
 0001:00031dbb       ?OnKeyDown@CListConn@@IAEXIII@Z 00432dbb f   ListConn.obj
 0001:00031e36       ?MajEnteteRangee@CListConn@@QAEXXZ 00432e36 f   ListConn.obj
 0001:00031f05       ?LitConnexion@CListConn@@QAEXAAIAAVCStringArray@@111AAVCUIntArray@@22@Z 00432f05 f   ListConn.obj
 0001:000322bd       ?InsereChaineConnexion@CListConn@@QAEXPBD@Z 004332bd f   ListConn.obj
 0001:00032470       ?PlaceListeTombante@CListConn@@QAEXHHIAAVCStringArray@@H@Z 00433470 f   ListConn.obj
 0001:000326a1       ?RemplaceChaineConnexion@CListConn@@QAEXPBD@Z 004336a1 f   ListConn.obj
 0001:000326f2       ?SupprimeToutListeMotPasse@CListConn@@QAEXXZ 004336f2 f   ListConn.obj
 0001:00032759       ?NomSGBDExiste@CListConn@@QAEHPADH@Z 00433759 f   ListConn.obj
 0001:00032f40       ??_ECListConn@@UAEPAXI@Z   00433f40 f i ListConn.obj
 0001:00032f40       ??_GCListConn@@UAEPAXI@Z   00433f40 f i ListConn.obj
 0001:00032f80       ?SetHandleTabKey@CGridCtrl@@QAEXH@Z 00433f80 f i ListConn.obj
 0001:00032fa0       ?EcritTitre@CEditMultiLignes@@QAEXPBD@Z 00433fa0 f i ListConn.obj
 0001:00032fd0       ??1CEditMultiLignes@@UAE@XZ 00433fd0 f i ListConn.obj
 0001:00033060       ?RemoveAll@CUIntArray@@QAEXXZ 00434060 f i ListConn.obj
 0001:00033080       ??_GCString@@QAEPAXI@Z     00434080 f i ListConn.obj
 0001:000330c0       ??0CListCtrlFich@@QAE@XZ   004340c0 f   listctrlfich.obj
 0001:000330df       ??1CListCtrlFich@@UAE@XZ   004340df f   listctrlfich.obj
 0001:000330fb       ?_GetBaseMessageMap@CListCtrlFich@@KGPBUAFX_MSGMAP@@XZ 004340fb f   listctrlfich.obj
 0001:00033105       ?GetMessageMap@CListCtrlFich@@MBEPBUAFX_MSGMAP@@XZ 00434105 f   listctrlfich.obj
 0001:00033115       ?OnDropFiles@CListCtrlFich@@IAEXPAUHDROP__@@@Z 00434115 f   listctrlfich.obj
 0001:000331a0       ??_GCListCtrlFich@@UAEPAXI@Z 004341a0 f i listctrlfich.obj
 0001:000331a0       ??_ECListCtrlFich@@UAEPAXI@Z 004341a0 f i listctrlfich.obj
 0001:000331e0       ?OnDropFiles@CWnd@@IAEXPAUHDROP__@@@Z 004341e0 f i listctrlfich.obj
 0001:00033200       ?_GetBaseMessageMap@CListDecl@@KGPBUAFX_MSGMAP@@XZ 00434200 f   listdecl.obj
 0001:0003320a       ?GetMessageMap@CListDecl@@MBEPBUAFX_MSGMAP@@XZ 0043420a f   listdecl.obj
 0001:0003321a       ??0CListDecl@@QAE@XZ       0043421a f   listdecl.obj
 0001:00033241       ??1CListDecl@@UAE@XZ       00434241 f   listdecl.obj
 0001:0003325d       ?InitGrille@CListDecl@@QAEXXZ 0043425d f   listdecl.obj
 0001:000333d3       ?InitListe@CListDecl@@QAEXXZ 004343d3 f   listdecl.obj
 0001:000335ea       ?AjoutListeGroupe@CListDecl@@QAEXVCString@@@Z 004345ea f   listdecl.obj
 0001:00033765       ?AjoutListeDeclenchement@CListDecl@@QAEXH@Z 00434765 f   listdecl.obj
 0001:00033c08       ?AjouteListeUtilisateur@CListDecl@@QAEXHHAAVCString@@@Z 00434c08 f   listdecl.obj
 0001:00033d4b       ?TerminalGroupeElementUtilisateur@CListDecl@@QAEHHAAVCString@@@Z 00434d4b f   listdecl.obj
 0001:00033e39       ?OnLButtonDblClk@CListDecl@@IAEXIVCPoint@@@Z 00434e39 f   listdecl.obj
 0001:00034200       ??_ECListDecl@@UAEPAXI@Z   00435200 f i listdecl.obj
 0001:00034200       ??_GCListDecl@@UAEPAXI@Z   00435200 f i listdecl.obj
 0001:00034240       ?SetEditable@CGridCtrl@@QAEXH@Z 00435240 f i listdecl.obj
 0001:00034260       ?LitListeUser@CDecl@@QAEPAVCListUser@@XZ 00435260 f i listdecl.obj
 0001:00034280       ?LitListPeriphDecl@CDecl@@QAEPAVCListPeriph@@XZ 00435280 f i listdecl.obj
 0001:000342a0       ??0CListDroit@@QAE@XZ      004352a0 f   ListDroit.obj
 0001:00034302       ??1CListDroit@@UAE@XZ      00435302 f   ListDroit.obj
 0001:00034359       ?InitGrille@CListDroit@@QAEXH@Z 00435359 f   ListDroit.obj
 0001:00034607       ?InitDroit@CListDroit@@QAEXXZ 00435607 f   ListDroit.obj
 0001:00034630       ?InitDroitMoteur@CListDroit@@QAEXXZ 00435630 f   ListDroit.obj
 0001:000347cb       ?InitDroitModuleGroupe@CListDroit@@QAEXXZ 004357cb f   ListDroit.obj
 0001:00034b7e       ?AjouteLigneGrpUserDroit@CListDroit@@QAEXHVCString@@AAVCDroit@@@Z 00435b7e f   ListDroit.obj
 0001:00034cdd       ?OnEditCell@CListDroit@@UAEXHHI@Z 00435cdd f   ListDroit.obj
 0001:00034e01       ?SauveDroitGroupeModule@CListDroit@@QAEHH@Z 00435e01 f   ListDroit.obj
 0001:000353ad       ?SauveDroitMoteur@CListDroit@@QAEHXZ 004363ad f   ListDroit.obj
 0001:000355d1       ?DrawCaseACocher@CListDroit@@QAEXHHH@Z 004365d1 f   ListDroit.obj
 0001:00035660       ?DrawCell@CListDroit@@UAEHPAVCDC@@HHVCRect@@H@Z 00436660 f   ListDroit.obj
 0001:00036200       ??_GCListDroit@@UAEPAXI@Z  00437200 f i ListDroit.obj
 0001:00036200       ??_ECListDroit@@UAEPAXI@Z  00437200 f i ListDroit.obj
 0001:00036240       ?SetImageList@CGridCtrl@@QAEXPAVCImageList@@@Z 00437240 f i ListDroit.obj
 0001:00036260       ?EnableSelection@CGridCtrl@@QAEXH@Z 00437260 f i ListDroit.obj
 0001:000362a0       ?GetTextColor@CGridCtrl@@QBEKXZ 004372a0 f i ListDroit.obj
 0001:000362c0       ?GetTextBkColor@CGridCtrl@@QBEKXZ 004372c0 f i ListDroit.obj
 0001:000362e0       ?TopLeft@CRect@@QAEAAVCPoint@@XZ 004372e0 f i ListDroit.obj
 0001:00036300       ??1CBrush@@UAE@XZ          00437300 f i ListDroit.obj
 0001:00036330       ??1CGdiObject@@UAE@XZ      00437330 f i ListDroit.obj
 0001:000363a0       ??_GCGdiObject@@UAEPAXI@Z  004373a0 f i ListDroit.obj
 0001:000363a0       ??_ECGdiObject@@UAEPAXI@Z  004373a0 f i ListDroit.obj
 0001:000363e0       ??_GCBrush@@UAEPAXI@Z      004373e0 f i ListDroit.obj
 0001:000363e0       ??_ECBrush@@UAEPAXI@Z      004373e0 f i ListDroit.obj
 0001:00036420       ??0CFont@@QAE@XZ           00437420 f i ListDroit.obj
 0001:00036450       ??0CGdiObject@@QAE@XZ      00437450 f i ListDroit.obj
 0001:00036490       ??_ECFont@@UAEPAXI@Z       00437490 f i ListDroit.obj
 0001:00036490       ??_GCFont@@UAEPAXI@Z       00437490 f i ListDroit.obj
 0001:000364d0       ??1CFont@@UAE@XZ           004374d0 f i ListDroit.obj
 0001:00036500       ?CreateFontIndirectA@CFont@@QAEHPBUtagLOGFONTA@@@Z 00437500 f i ListDroit.obj
 0001:00036530       ?FillRect@CDC@@QAEXPBUtagRECT@@PAVCBrush@@@Z 00437530 f i ListDroit.obj
 0001:00036560       ?Rectangle@CDC@@QAEHHHHH@Z 00437560 f i ListDroit.obj
 0001:000365a0       ?Rectangle@CDC@@QAEHPBUtagRECT@@@Z 004375a0 f i ListDroit.obj
 0001:000365f0       ?UpdateWindow@CWnd@@QAEXXZ 004375f0 f i ListDroit.obj
 0001:00036610       ?Draw@CImageList@@QAEHPAVCDC@@HUtagPOINT@@I@Z 00437610 f i ListDroit.obj
 0001:00036650       ?GetSafeHdc@CDC@@QBEPAUHDC__@@XZ 00437650 f i ListDroit.obj
 0001:00036690       ?GetImageInfo@CImageList@@QBEHHPAU_IMAGEINFO@@@Z 00437690 f i ListDroit.obj
 0001:000366c0       ??0CListeUtilisateur@@QAE@XZ 004376c0 f   listeutilisateur.obj
 0001:00036717       ??1CListeUtilisateur@@UAE@XZ 00437717 f   listeutilisateur.obj
 0001:0003676b       ?_GetBaseMessageMap@CListeUtilisateur@@KGPBUAFX_MSGMAP@@XZ 0043776b f   listeutilisateur.obj
 0001:00036775       ?GetMessageMap@CListeUtilisateur@@MBEPBUAFX_MSGMAP@@XZ 00437775 f   listeutilisateur.obj
 0001:00036785       ?OnCreate@CListeUtilisateur@@IAEHPAUtagCREATESTRUCTA@@@Z 00437785 f   listeutilisateur.obj
 0001:000367e1       ?OnDragEnter@CListeUtilisateur@@UAEKPAVCOleDataObject@@KVCPoint@@@Z 004377e1 f   listeutilisateur.obj
 0001:00036811       ?OnDragLeave@CListeUtilisateur@@UAEXXZ 00437811 f   listeutilisateur.obj
 0001:0003681c       ?OnDragOver@CListeUtilisateur@@UAEKPAVCOleDataObject@@KVCPoint@@@Z 0043781c f   listeutilisateur.obj
 0001:0003684c       ?OnDrop@CListeUtilisateur@@UAEHPAVCOleDataObject@@KVCPoint@@@Z 0043784c f   listeutilisateur.obj
 0001:00036a7d       ?TestTypeOkDragAndDrop@CListeUtilisateur@@QAEHPAVCOleDataObject@@@Z 00437a7d f   listeutilisateur.obj
 0001:00036ab8       ?TerminalGroupeElementUtilisateur@CListeUtilisateur@@QAEHHAAVCString@@@Z 00437ab8 f   listeutilisateur.obj
 0001:00036ba6       ?InitialiseListUser@CListeUtilisateur@@QAEHPAVCListUser@@@Z 00437ba6 f   listeutilisateur.obj
 0001:00036ccf       ?ExtraitIdUserMinMax@CListeUtilisateur@@QAEHAAVCString@@AAH1@Z 00437ccf f   listeutilisateur.obj
 0001:00036e1d       ?DecomposeChaineIntervalle@CListeUtilisateur@@QAEHVCString@@AAH1@Z 00437e1d f   listeutilisateur.obj
 0001:00037126       ?IdGroupeElementTerminal@CListeUtilisateur@@QAEHVCString@@H@Z 00438126 f   listeutilisateur.obj
 0001:0003731d       ?InitListeUtilisateur@CListeUtilisateur@@QAEXAAVCListUser@@@Z 0043831d f   listeutilisateur.obj
 0001:000373a4       ?AjouteListeUtilisateur@CListeUtilisateur@@QAEXHH@Z 004383a4 f   listeutilisateur.obj
 0001:0003751c       ?TesteTypeIdMinMax@CListeUtilisateur@@QAEHHH@Z 0043851c f   listeutilisateur.obj
 0001:000375e5       ?TraiteProblemeUtilisateur@CListeUtilisateur@@QAEXXZ 004385e5 f   listeutilisateur.obj
 0001:00037b40       ??_ECListeUtilisateur@@UAEPAXI@Z 00438b40 f i listeutilisateur.obj
 0001:00037b40       ??_GCListeUtilisateur@@UAEPAXI@Z 00438b40 f i listeutilisateur.obj
 0001:00037b80       ?ScreenToClient@CWnd@@QBEXPAUtagPOINT@@@Z 00438b80 f i listeutilisateur.obj
 0001:00037bb0       ?ReplaceSel@CEdit@@QAEXPBDH@Z 00438bb0 f i listeutilisateur.obj
 0001:00037be0       ?SetSel@CEdit@@QAEXHHH@Z   00438be0 f i listeutilisateur.obj
 0001:00037c40       ?CharFromPos@CEdit@@QBEHVCPoint@@@Z 00438c40 f i listeutilisateur.obj
 0001:00037c90       ??0CListFicToolBar@@QAE@XZ 00438c90 f   listfictoolbar.obj
 0001:00037caf       ??1CListFicToolBar@@UAE@XZ 00438caf f   listfictoolbar.obj
 0001:00037d18       ?_GetBaseMessageMap@CListFicToolBar@@KGPBUAFX_MSGMAP@@XZ 00438d18 f   listfictoolbar.obj
 0001:00037d22       ?GetMessageMap@CListFicToolBar@@MBEPBUAFX_MSGMAP@@XZ 00438d22 f   listfictoolbar.obj
 0001:00037d32       ?Create@CListFicToolBar@@UAEHKABUtagRECT@@PAVCWnd@@I@Z 00438d32 f   listfictoolbar.obj
 0001:00037f2c       ?OnChildNotify@CListFicToolBar@@UAEHIIJPAJ@Z 00438f2c f   listfictoolbar.obj
 0001:0003809e       ?BeginAdjust@CListFicToolBar@@IAEHIJPAJ@Z 0043909e f   listfictoolbar.obj
 0001:000380eb       ?BeginDrag@CListFicToolBar@@IAEHIJPAJ@Z 004390eb f   listfictoolbar.obj
 0001:00038127       ?CustomizeHelp@CListFicToolBar@@IAEHIJPAJ@Z 00439127 f   listfictoolbar.obj
 0001:0003816b       ?EndAdjust@CListFicToolBar@@IAEHIJPAJ@Z 0043916b f   listfictoolbar.obj
 0001:000381a1       ?EndDrag@CListFicToolBar@@IAEHIJPAJ@Z 004391a1 f   listfictoolbar.obj
 0001:000381e0       ?GetButtonInfo@CListFicToolBar@@IAEHIJPAJ@Z 004391e0 f   listfictoolbar.obj
 0001:0003821f       ?QueryDelete@CListFicToolBar@@IAEHIJPAJ@Z 0043921f f   listfictoolbar.obj
 0001:0003825e       ?QueryInsert@CListFicToolBar@@IAEHIJPAJ@Z 0043925e f   listfictoolbar.obj
 0001:0003829d       ?Reset@CListFicToolBar@@IAEHIJPAJ@Z 0043929d f   listfictoolbar.obj
 0001:000382f3       ?ToolBarChange@CListFicToolBar@@IAEHIJPAJ@Z 004392f3 f   listfictoolbar.obj
 0001:00038329       ?NeedText@CListFicToolBar@@IAE?AVCString@@IPAUtagNMHDR@@PAJ@Z 00439329 f   listfictoolbar.obj
 0001:000383ff       ?OnNeedTextW@CListFicToolBar@@IAEXIPAUtagNMHDR@@PAJ@Z 004393ff f   listfictoolbar.obj
 0001:00038486       ?OnNeedTextA@CListFicToolBar@@IAEXIPAUtagNMHDR@@PAJ@Z 00439486 f   listfictoolbar.obj
 0001:00038500       ?OnNotify@CListFicToolBar@@MAEHIJPAJ@Z 00439500 f   listfictoolbar.obj
 0001:00038800       ??_GCListFicToolBar@@UAEPAXI@Z 00439800 f i listfictoolbar.obj
 0001:00038800       ??_ECListFicToolBar@@UAEPAXI@Z 00439800 f i listfictoolbar.obj
 0001:00038840       ??0CToolBarCtrl@@QAE@XZ    00439840 f i listfictoolbar.obj
 0001:00038870       ??_GCToolBarCtrl@@UAEPAXI@Z 00439870 f i listfictoolbar.obj
 0001:00038870       ??_ECToolBarCtrl@@UAEPAXI@Z 00439870 f i listfictoolbar.obj
 0001:000388b0       ?AddButtons@CToolBarCtrl@@QAEHHPAU_TBBUTTON@@@Z 004398b0 f i listfictoolbar.obj
 0001:000388e0       ?AddStrings@CToolBarCtrl@@QAEHPBD@Z 004398e0 f i listfictoolbar.obj
 0001:00038910       ?_GetBaseMessageMap@CListFiltreIP@@KGPBUAFX_MSGMAP@@XZ 00439910 f   ListFiltreIP.obj
 0001:0003891a       ?GetMessageMap@CListFiltreIP@@MBEPBUAFX_MSGMAP@@XZ 0043991a f   ListFiltreIP.obj
 0001:0003892a       ??0CListFiltreIP@@QAE@XZ   0043992a f   ListFiltreIP.obj
 0001:00038951       ??1CListFiltreIP@@UAE@XZ   00439951 f   ListFiltreIP.obj
 0001:0003896d       ?InitGrille@CListFiltreIP@@QAEXXZ 0043996d f   ListFiltreIP.obj
 0001:00038aa9       ?OnEditCell@CListFiltreIP@@UAEXHHI@Z 00439aa9 f   ListFiltreIP.obj
 0001:00038adc       ?OnEndEditCell@CListFiltreIP@@UAEXHHVCString@@@Z 00439adc f   ListFiltreIP.obj
 0001:00038caf       ?RazListe@CListFiltreIP@@QAEXXZ 00439caf f   ListFiltreIP.obj
 0001:00038d1e       ?InitListe@CListFiltreIP@@QAEXXZ 00439d1e f   ListFiltreIP.obj
 0001:00038ec9       ?OnKeyDown@CListFiltreIP@@IAEXIII@Z 00439ec9 f   ListFiltreIP.obj
 0001:00038f3e       ?SupprimeMasque@CListFiltreIP@@QAEXH@Z 00439f3e f   ListFiltreIP.obj
 0001:00038fbd       ?FormatOK@CListFiltreIP@@QAEHVCString@@@Z 00439fbd f   ListFiltreIP.obj
 0001:00039271       ?AnalyseNombreOK@CListFiltreIP@@QAEHVCString@@@Z 0043a271 f   ListFiltreIP.obj
 0001:00039610       ??_ECListFiltreIP@@UAEPAXI@Z 0043a610 f i ListFiltreIP.obj
 0001:00039610       ??_GCListFiltreIP@@UAEPAXI@Z 0043a610 f i ListFiltreIP.obj
 0001:00039650       ??0CSaisieDropTarget@@QAE@XZ 0043a650 f   SaisieDropTarget.obj
 0001:00039683       ??1CSaisieDropTarget@@UAE@XZ 0043a683 f   SaisieDropTarget.obj
 0001:0003969f       ?Register@CSaisieDropTarget@@QAEHPAVCSaisieNomElement@@@Z 0043a69f f   SaisieDropTarget.obj
 0001:000396f5       ?Revoke@CSaisieDropTarget@@UAEXXZ 0043a6f5 f   SaisieDropTarget.obj
 0001:00039712       ?_GetBaseMessageMap@CSaisieDropTarget@@KGPBUAFX_MSGMAP@@XZ 0043a712 f   SaisieDropTarget.obj
 0001:0003971c       ?GetMessageMap@CSaisieDropTarget@@MBEPBUAFX_MSGMAP@@XZ 0043a71c f   SaisieDropTarget.obj
 0001:0003972c       ?OnDragScroll@CSaisieDropTarget@@UAEKPAVCWnd@@KVCPoint@@@Z 0043a72c f   SaisieDropTarget.obj
 0001:0003976e       ?OnDragEnter@CSaisieDropTarget@@UAEKPAVCWnd@@PAVCOleDataObject@@KVCPoint@@@Z 0043a76e f   SaisieDropTarget.obj
 0001:000397e2       ?OnDragLeave@CSaisieDropTarget@@UAEXPAVCWnd@@@Z 0043a7e2 f   SaisieDropTarget.obj
 0001:00039842       ?OnDragOver@CSaisieDropTarget@@UAEKPAVCWnd@@PAVCOleDataObject@@KVCPoint@@@Z 0043a842 f   SaisieDropTarget.obj
 0001:00039892       ?OnDrop@CSaisieDropTarget@@UAEHPAVCWnd@@PAVCOleDataObject@@KVCPoint@@@Z 0043a892 f   SaisieDropTarget.obj
 0001:000399c0       ??_ECSaisieDropTarget@@UAEPAXI@Z 0043a9c0 f i SaisieDropTarget.obj
 0001:000399c0       ??_GCSaisieDropTarget@@UAEPAXI@Z 0043a9c0 f i SaisieDropTarget.obj
 0001:00039a00       ?CreateObject@CSaisieNomElement@@SGPAVCObject@@XZ 0043aa00 f   saisienomelement.obj
 0001:00039a67       ?_GetBaseClass@CSaisieNomElement@@KGPAUCRuntimeClass@@XZ 0043aa67 f   saisienomelement.obj
 0001:00039a71       ?GetRuntimeClass@CSaisieNomElement@@UBEPAUCRuntimeClass@@XZ 0043aa71 f   saisienomelement.obj
 0001:00039a81       ??0CSaisieNomElement@@QAE@XZ 0043aa81 f   saisienomelement.obj
 0001:00039b08       ??1CSaisieNomElement@@UAE@XZ 0043ab08 f   saisienomelement.obj
 0001:00039bae       ?_GetBaseMessageMap@CSaisieNomElement@@KGPBUAFX_MSGMAP@@XZ 0043abae f   saisienomelement.obj
 0001:00039bb8       ?GetMessageMap@CSaisieNomElement@@MBEPBUAFX_MSGMAP@@XZ 0043abb8 f   saisienomelement.obj
 0001:00039bc8       ?EcritListeType@CSaisieNomElement@@QAEXH@Z 0043abc8 f   saisienomelement.obj
 0001:00039c93       ?InitSaisieNom@CSaisieNomElement@@QAEHHHPBD@Z 0043ac93 f   saisienomelement.obj
 0001:00039d66       ?EstTypeAutorise@CSaisieNomElement@@QAEHH@Z 0043ad66 f   saisienomelement.obj
 0001:00039e6e       ?OnDragEnter@CSaisieNomElement@@UAEKPAVCOleDataObject@@KVCPoint@@@Z 0043ae6e f   saisienomelement.obj
 0001:00039e9e       ?OnDragLeave@CSaisieNomElement@@UAEXXZ 0043ae9e f   saisienomelement.obj
 0001:00039ea9       ?OnDragOver@CSaisieNomElement@@UAEKPAVCOleDataObject@@KVCPoint@@@Z 0043aea9 f   saisienomelement.obj
 0001:00039ed9       ?OnDrop@CSaisieNomElement@@UAEHPAVCOleDataObject@@KVCPoint@@@Z 0043aed9 f   saisienomelement.obj
 0001:0003a1f1       ?NomElementValide@CSaisieNomElement@@QAEHPBD@Z 0043b1f1 f   saisienomelement.obj
 0001:0003a655       ?OnKillfocus@CSaisieNomElement@@IAEXXZ 0043b655 f   saisienomelement.obj
 0001:0003a712       ?TestSaisieOK@CSaisieNomElement@@QAEHXZ 0043b712 f   saisienomelement.obj
 0001:0003a7a6       ?OnCreate@CSaisieNomElement@@IAEHPAUtagCREATESTRUCTA@@@Z 0043b7a6 f   saisienomelement.obj
 0001:0003a811       ?LitNomElement@CSaisieNomElement@@QAE?AVCString@@H@Z 0043b811 f   saisienomelement.obj
 0001:0003aa1a       ?CtlColor@CSaisieNomElement@@IAEPAUHBRUSH__@@PAVCDC@@I@Z 0043ba1a f   saisienomelement.obj
 0001:0003ac2e       ?OnChar@CSaisieNomElement@@IAEXIII@Z 0043bc2e f   saisienomelement.obj
 0001:0003ac8d       ?TestTypeOkDragAndDrop@CSaisieNomElement@@QAEHPAVCOleDataObject@@@Z 0043bc8d f   saisienomelement.obj
 0001:0003adfc       ?OnContextMenu@CSaisieNomElement@@IAEXPAVCWnd@@VCPoint@@@Z 0043bdfc f   saisienomelement.obj
 0001:0003ae76       ?OnEditClear@CSaisieNomElement@@IAEXXZ 0043be76 f   saisienomelement.obj
 0001:0003ae89       ?OnEditCopy@CSaisieNomElement@@IAEXXZ 0043be89 f   saisienomelement.obj
 0001:0003ae9c       ?OnEditCut@CSaisieNomElement@@IAEXXZ 0043be9c f   saisienomelement.obj
 0001:0003aec7       ?OnEditPaste@CSaisieNomElement@@IAEXXZ 0043bec7 f   saisienomelement.obj
 0001:0003aef2       ?OnEditUndo@CSaisieNomElement@@IAEXXZ 0043bef2 f   saisienomelement.obj
 0001:0003af1d       ?OnEditSelectAll@CSaisieNomElement@@IAEXXZ 0043bf1d f   saisienomelement.obj
 0001:0003af36       ?OnDefinition@CSaisieNomElement@@IAEXXZ 0043bf36 f   saisienomelement.obj
 0001:0003afdf       ?OnUpdateEditClear@CSaisieNomElement@@IAEXPAVCCmdUI@@@Z 0043bfdf f   saisienomelement.obj
 0001:0003afec       ?OnUpdateEditCopy@CSaisieNomElement@@IAEXPAVCCmdUI@@@Z 0043bfec f   saisienomelement.obj
 0001:0003aff9       ?OnUpdateEditCut@CSaisieNomElement@@IAEXPAVCCmdUI@@@Z 0043bff9 f   saisienomelement.obj
 0001:0003b006       ?OnUpdateEditPaste@CSaisieNomElement@@IAEXPAVCCmdUI@@@Z 0043c006 f   saisienomelement.obj
 0001:0003b013       ?OnUpdateEditUndo@CSaisieNomElement@@IAEXPAVCCmdUI@@@Z 0043c013 f   saisienomelement.obj
 0001:0003b020       ?OnKeyDown@CSaisieNomElement@@IAEXIII@Z 0043c020 f   saisienomelement.obj
 0001:0003b6a0       ??_ECSaisieNomElement@@UAEPAXI@Z 0043c6a0 f i saisienomelement.obj
 0001:0003b6a0       ??_GCSaisieNomElement@@UAEPAXI@Z 0043c6a0 f i saisienomelement.obj
 0001:0003b6e0       ?GetSel@CEdit@@QBEXAAH0@Z  0043c6e0 f i saisienomelement.obj
 0001:0003b710       ?Undo@CEdit@@QAEHXZ        0043c710 f i saisienomelement.obj
 0001:0003b740       ?Clear@CEdit@@QAEXXZ       0043c740 f i saisienomelement.obj
 0001:0003b770       ?Copy@CEdit@@QAEXXZ        0043c770 f i saisienomelement.obj
 0001:0003b7a0       ?Cut@CEdit@@QAEXXZ         0043c7a0 f i saisienomelement.obj
 0001:0003b7d0       ?Paste@CEdit@@QAEXXZ       0043c7d0 f i saisienomelement.obj
 0001:0003b800       ?Base64Code@CBase64@@SAHPADH0H@Z 0043c800 f   Base64.obj
 0001:0003b9f2       ?Base64Decode@CBase64@@SAHPADH0H@Z 0043c9f2 f   Base64.obj
 0001:0003bbe8       ?TailleExactChaineCodee@CBase64@@SAHH@Z 0043cbe8 f   Base64.obj
 0001:0003bc3c       ?CalculLongMiniChaineCode@CBase64@@SAHH@Z 0043cc3c f   Base64.obj
 0001:0003bc70       ?CalculLongMiniChaineDeCode@CBase64@@SAHH@Z 0043cc70 f   Base64.obj
 0001:0003bdd0       ??0CBaseSocket@@QAE@XZ     0043cdd0 f   BaseSocket.obj
 0001:0003be20       ?RendNumService@CBaseSocket@@QAEHPAD0@Z 0043ce20 f   BaseSocket.obj
 0001:0003be8a       ?RendNumService@CBaseSocket@@QAEHPAD@Z 0043ce8a f   BaseSocket.obj
 0001:0003beae       ?StartupSocket@CBaseSocket@@SAXXZ 0043ceae f   BaseSocket.obj
 0001:0003bef5       ?CleanupSocket@CBaseSocket@@SAXXZ 0043cef5 f   BaseSocket.obj
 0001:0003bf50       ??0CChaineTransfert@@QAE@XZ 0043cf50 f   ChaineTransfert.obj
 0001:0003bf5e       ?Code@CChaineTransfert@@SAXPADAAVCString@@@Z 0043cf5e f   ChaineTransfert.obj
 0001:0003c176       ?CodePourAffichage@CChaineTransfert@@SAXPADAAVCString@@@Z 0043d176 f   ChaineTransfert.obj
 0001:0003c315       ?Decode@CChaineTransfert@@SAXPAD@Z 0043d315 f   ChaineTransfert.obj
 0001:0003c5d0       ??0CMapIntToPtr@@QAE@H@Z   0043d5d0 f   CMapIntToPtr.obj
 0001:0003c61a       ?InitHashTable@CMapIntToPtr@@QAEXIH@Z 0043d61a f   CMapIntToPtr.obj
 0001:0003c68e       ?RemoveAll@CMapIntToPtr@@QAEXXZ 0043d68e f   CMapIntToPtr.obj
 0001:0003c6e9       ??1CMapIntToPtr@@QAE@XZ    0043d6e9 f   CMapIntToPtr.obj
 0001:0003c6fc       ?NewAssoc@CMapIntToPtr@@IAEPAUCAssoc@1@XZ 0043d6fc f   CMapIntToPtr.obj
 0001:0003c7c2       ?FreeAssoc@CMapIntToPtr@@IAEXPAUCAssoc@1@@Z 0043d7c2 f   CMapIntToPtr.obj
 0001:0003c803       ?GetAssocAt@CMapIntToPtr@@IBEPAUCAssoc@1@HAAI@Z 0043d803 f   CMapIntToPtr.obj
 0001:0003c86b       ?Lookup@CMapIntToPtr@@QBEHHAAPAX@Z 0043d86b f   CMapIntToPtr.obj
 0001:0003c8a7       ??ACMapIntToPtr@@QAEAAPAXH@Z 0043d8a7 f   CMapIntToPtr.obj
 0001:0003c920       ?RemoveKey@CMapIntToPtr@@QAEHH@Z 0043d920 f   CMapIntToPtr.obj
 0001:0003c9a4       ?GetNextAssoc@CMapIntToPtr@@QBEXAAPAU__POSITION@@AAHAAPAX@Z 0043d9a4 f   CMapIntToPtr.obj
 0001:0003cba0       ?HashKey@CMapIntToPtr@@QBEIH@Z 0043dba0 f i CMapIntToPtr.obj
 0001:0003cbc0       ??0CStringLangue@@QAE@XZ   0043dbc0 f   CStringLangue.obj
 0001:0003cbe5       ??1CStringLangue@@QAE@XZ   0043dbe5 f   CStringLangue.obj
 0001:0003cc3a       ?LitMessage@CStringLangue@@QAEXAAVCString@@PAD1@Z 0043dc3a f   CStringLangue.obj
 0001:0003ce0c       ?EcritMessage@CStringLangue@@QAEXAAVCString@@PAD@Z 0043de0c f   CStringLangue.obj
 0001:0003cee8       ?Recherche@CStringLangue@@QAEPAVCString@@PAD@Z 0043dee8 f   CStringLangue.obj
 0001:0003cfd4       ?SupprimeTous@CStringLangue@@QAEXXZ 0043dfd4 f   CStringLangue.obj
 0001:0003d046       ?LitArchive@CStringLangue@@QAEHAAVCInputArchive@@@Z 0043e046 f   CStringLangue.obj
 0001:0003d13f       ?EcritArchive@CStringLangue@@QAEHAAVCOutputArchive@@PAD@Z 0043e13f f   CStringLangue.obj
 0001:0003d2e7       ?LitPremier@CStringLangue@@QAEHAAVCString@@0@Z 0043e2e7 f   CStringLangue.obj
 0001:0003d42d       ?LitSuivant@CStringLangue@@QAEHAAVCString@@0@Z 0043e42d f   CStringLangue.obj
 0001:0003d562       ??YCStringLangue@@QAEAAV0@AAV0@@Z 0043e562 f   CStringLangue.obj
 0001:0003d8d0       ?GetTail@CPtrList@@QAEAAPAXXZ 0043e8d0 f i CStringLangue.obj
 0001:0003d8f0       ??0CDataArchive@@QAE@XZ    0043e8f0 f   DataArchive.obj
 0001:0003d925       ??1CDataArchive@@QAE@XZ    0043e925 f   DataArchive.obj
 0001:0003d938       ?LitType@CDataArchive@@QAEHXZ 0043e938 f   DataArchive.obj
 0001:0003d949       ?EcritType@CDataArchive@@QAEXH@Z 0043e949 f   DataArchive.obj
 0001:0003d967       ?EcritTypeSansEffacerDonnee@CDataArchive@@QAEXH@Z 0043e967 f   DataArchive.obj
 0001:0003d986       ?LitNumExec@CDataArchive@@QAEHXZ 0043e986 f   DataArchive.obj
 0001:0003d997       ?EcritNumExec@CDataArchive@@QAEXH@Z 0043e997 f   DataArchive.obj
 0001:0003d9ad       ?LitNumIdExp@CDataArchive@@QAEHXZ 0043e9ad f   DataArchive.obj
 0001:0003d9be       ?EcritNumIdExp@CDataArchive@@QAEXH@Z 0043e9be f   DataArchive.obj
 0001:0003d9d4       ?LitData@CDataArchive@@QAEPAXXZ 0043e9d4 f   DataArchive.obj
 0001:0003d9e4       ?NewDataRequete@CDataArchive@@QAEXXZ 0043e9e4 f   DataArchive.obj
 0001:0003da53       ?NewCString@CDataArchive@@QAEXXZ 0043ea53 f   DataArchive.obj
 0001:0003dac2       ?NewStructureBD@CDataArchive@@QAEXXZ 0043eac2 f   DataArchive.obj
 0001:0003db31       ?NewFenetre@CDataArchive@@QAEXXZ 0043eb31 f   DataArchive.obj
 0001:0003dba0       ?DeleteData@CDataArchive@@QAEXXZ 0043eba0 f   DataArchive.obj
 0001:0003dcc7       ?UtiliseId@CDataArchive@@QAEHH@Z 0043ecc7 f   DataArchive.obj
 0001:0003ddd3       ?EcritArchive@CDataArchive@@QAEHAAVCOutputArchive@@@Z 0043edd3 f   DataArchive.obj
 0001:0003e0df       ?LitArchive@CDataArchive@@QAEHAAVCInputArchive@@@Z 0043f0df f   DataArchive.obj
 0001:0003e49e       ??4CDataArchive@@QAEAAV0@ABV0@@Z 0043f49e f   DataArchive.obj
 0001:0003e890       ??_GCResultatRequete@@QAEPAXI@Z 0043f890 f i DataArchive.obj
 0001:0003e8d0       ??_GCListCStructureTable@@QAEPAXI@Z 0043f8d0 f i DataArchive.obj
 0001:0003e910       ?LitIdFen@CResultatFenetre@@QAEHXZ 0043f910 f i DataArchive.obj
 0001:0003e930       ?LitIdUser@CResultatFenetre@@QAEHXZ 0043f930 f i DataArchive.obj
 0001:0003e950       ??0CDefChampXml@@QAE@XZ    0043f950 f   DefChampXml.obj
 0001:0003e9a8       ??1CDefChampXml@@QAE@XZ    0043f9a8 f   DefChampXml.obj
 0001:0003e9f3       ?LitBaliseXml@CDefChampXml@@QAEXAAVCString@@@Z 0043f9f3 f   DefChampXml.obj
 0001:0003ea0c       ?EcritBaliseXml@CDefChampXml@@QAEXPAD@Z 0043fa0c f   DefChampXml.obj
 0001:0003ea25       ?LitNumColonne@CDefChampXml@@QAEHXZ 0043fa25 f   DefChampXml.obj
 0001:0003ea36       ?EcritNumColonne@CDefChampXml@@QAEXH@Z 0043fa36 f   DefChampXml.obj
 0001:0003ea4c       ?LitValeur@CDefChampXml@@QAEXAAVCString@@@Z 0043fa4c f   DefChampXml.obj
 0001:0003ea68       ?EcritValeur@CDefChampXml@@QAEXPAD@Z 0043fa68 f   DefChampXml.obj
 0001:0003eae0       ??0CDefEnregXml@@QAE@XZ    0043fae0 f   DefEnregXml.obj
 0001:0003eb62       ??1CDefEnregXml@@QAE@XZ    0043fb62 f   DefEnregXml.obj
 0001:0003ebf5       ?LitBaliseXml@CDefEnregXml@@QAEXAAVCString@@@Z 0043fbf5 f   DefEnregXml.obj
 0001:0003ec11       ?EcritBaliseXml@CDefEnregXml@@QAEXPAD@Z 0043fc11 f   DefEnregXml.obj
 0001:0003ec2d       ?EcritNiveau@CDefEnregXml@@QAEXH@Z 0043fc2d f   DefEnregXml.obj
 0001:0003ec42       ?LitNiveau@CDefEnregXml@@QAEHXZ 0043fc42 f   DefEnregXml.obj
 0001:0003ec52       ?EcritId@CDefEnregXml@@QAEXH@Z 0043fc52 f   DefEnregXml.obj
 0001:0003ec68       ?LitId@CDefEnregXml@@QAEHXZ 0043fc68 f   DefEnregXml.obj
 0001:0003ec79       ?LitValeur@CDefEnregXml@@QAEXAAVCString@@@Z 0043fc79 f   DefEnregXml.obj
 0001:0003ec95       ?EcritValeur@CDefEnregXml@@QAEXPAD@Z 0043fc95 f   DefEnregXml.obj
 0001:0003ecb1       ?LitType@CDefEnregXml@@QAEHXZ 0043fcb1 f   DefEnregXml.obj
 0001:0003ecc2       ?EcritType@CDefEnregXml@@QAEXH@Z 0043fcc2 f   DefEnregXml.obj
 0001:0003ecd8       ?SupprimeTout@CDefEnregXml@@QAEXXZ 0043fcd8 f   DefEnregXml.obj
 0001:0003ed42       ?AjouteChamp@CDefEnregXml@@QAEXPADH0@Z 0043fd42 f   DefEnregXml.obj
 0001:0003ee30       ?LitPremier@CDefEnregXml@@QAEPAVCDefChampXml@@XZ 0043fe30 f   DefEnregXml.obj
 0001:0003ee87       ?LitSuivant@CDefEnregXml@@QAEPAVCDefChampXml@@XZ 0043fe87 f   DefEnregXml.obj
 0001:0003eec7       ?EcritArchive@CDefEnregXml@@QAEHAAVCOutputArchive@@@Z 0043fec7 f   DefEnregXml.obj
 0001:0003f05b       ?Recherche@CDefEnregXml@@QAEPAVCDefChampXml@@H@Z 0044005b f   DefEnregXml.obj
 0001:0003f0c9       ?RechercheNomBalise@CDefEnregXml@@QAEPAVCDefChampXml@@PAD@Z 004400c9 f   DefEnregXml.obj
 0001:0003f1a6       ?ListeChampsExiste@CDefEnregXml@@QAEHXZ 004401a6 f   DefEnregXml.obj
 0001:0003f1c3       ?CopieRefChamp@CDefEnregXml@@QAEXAAV1@@Z 004401c3 f   DefEnregXml.obj
 0001:0003f490       ??_GCDefChampXml@@QAEPAXI@Z 00440490 f i DefEnregXml.obj
 0001:0003f4d0       ?GetHead@CPtrList@@QAEAAPAXXZ 004404d0 f i DefEnregXml.obj
 0001:0003f4f0       ??0CDefXml@@QAE@XZ         004404f0 f   DefXml.obj
 0001:0003f51c       ??1CDefXml@@QAE@XZ         0044051c f   DefXml.obj
 0001:0003f564       ?SupprimeTout@CDefXml@@QAEXXZ 00440564 f   DefXml.obj
 0001:0003f5bc       ?AjouteEnreg@CDefXml@@QAEXHPADHH0@Z 004405bc f   DefXml.obj
 0001:0003f67a       ?AjouteEnregChamp@CDefXml@@QAEXPADH0@Z 0044067a f   DefXml.obj
 0001:0003f6ae       ?RechDernierEnreg@CDefXml@@IAEPAVCDefEnregXml@@XZ 004406ae f   DefXml.obj
 0001:0003f6de       ?LitNiveau@CDefXml@@QAEHXZ 004406de f   DefXml.obj
 0001:0003f6ef       ?IncrementeNiveau@CDefXml@@QAEXXZ 004406ef f   DefXml.obj
 0001:0003f709       ?DecrementeNiveau@CDefXml@@QAEXXZ 00440709 f   DefXml.obj
 0001:0003f72c       ?LitPremier@CDefXml@@QAEPAVCDefEnregXml@@XZ 0044072c f   DefXml.obj
 0001:0003f771       ?LitSuivant@CDefXml@@QAEPAVCDefEnregXml@@XZ 00440771 f   DefXml.obj
 0001:0003f7a5       ?LitArchive@CDefXml@@QAEHAAVCInputArchive@@@Z 004407a5 f   DefXml.obj
 0001:0003fb27       ?EcritArchive@CDefXml@@QAEHAAVCOutputArchive@@@Z 00440b27 f   DefXml.obj
 0001:0003fd2a       ?RechEnregMemeNiveau@CDefXml@@IAEPAVCDefEnregXml@@PADHPAV1@@Z 00440d2a f   DefXml.obj
 0001:0003fe03       ?RechEnregNiveauPlusProche@CDefXml@@IAEPAVCDefEnregXml@@PADHPAV1@@Z 00440e03 f   DefXml.obj
 0001:0003ff1c       ?CopieRefBalise@CDefXml@@QAEXAAV1@@Z 00440f1c f   DefXml.obj
 0001:00040400       ??_GCDefEnregXml@@QAEPAXI@Z 00441400 f i DefXml.obj
 0001:00040440       ??0CDroit@@QAE@XZ          00441440 f   Droit.obj
 0001:000404e5       ??1CDroit@@QAE@XZ          004414e5 f   Droit.obj
 0001:0004051d       ?EcritDroitLecture@CDroit@@QAEHHH@Z 0044151d f   Droit.obj
 0001:00040599       ?EcritDroitAjout@CDroit@@QAEHHH@Z 00441599 f   Droit.obj
 0001:00040615       ?EcritDroitModification@CDroit@@UAEHHH@Z 00441615 f   Droit.obj
 0001:00040691       ?EcritDroitSuppression@CDroit@@QAEHHH@Z 00441691 f   Droit.obj
 0001:0004070d       ?EcritDroitExecution@CDroit@@QAEHHH@Z 0044170d f   Droit.obj
 0001:00040789       ?EcritDroitAdministration@CDroit@@QAEHHH@Z 00441789 f   Droit.obj
 0001:00040805       ?EcritDroit@CDroit@@QAEHHH@Z 00441805 f   Droit.obj
 0001:000408f0       ?LitDroitLecture@CDroit@@QAEHHH@Z 004418f0 f   Droit.obj
 0001:00040a02       ?LitDroitAjout@CDroit@@QAEHHH@Z 00441a02 f   Droit.obj
 0001:00040b14       ?LitDroitModification@CDroit@@UAEHHH@Z 00441b14 f   Droit.obj
 0001:00040c26       ?LitDroitSuppression@CDroit@@QAEHHH@Z 00441c26 f   Droit.obj
 0001:00040d38       ?LitDroitExecution@CDroit@@QAEHHH@Z 00441d38 f   Droit.obj
 0001:00040e4a       ?LitDroitAdministration@CDroit@@QAEHHH@Z 00441e4a f   Droit.obj
 0001:00040f5c       ?LitDroit@CDroit@@QAEHHH@Z 00441f5c f   Droit.obj
 0001:00041016       ?EcritArchive@CDroit@@QAEXAAVCOutputArchive@@@Z 00442016 f   Droit.obj
 0001:0004108b       ?EcritArchive@CDroit@@QAEXAAVCOutputArchive@@H@Z 0044208b f   Droit.obj
 0001:000410fa       ?LitArchive@CDroit@@QAEXAAVCInputArchive@@@Z 004420fa f   Droit.obj
 0001:000411fd       ?LitArchive@CDroit@@QAEXPAD@Z 004421fd f   Droit.obj
 0001:00041620       ??0CFichier@@QAE@XZ        00442620 f   Fichier.obj
 0001:0004164e       ??1CFichier@@UAE@XZ        0044264e f   Fichier.obj
 0001:00041689       ?Create@CFichier@@QAEHPADHH@Z 00442689 f   Fichier.obj
 0001:000416f3       ?Create@CFichier@@QAEHPADHHPAU_SECURITY_ATTRIBUTES@@KKPAX@Z 004426f3 f   Fichier.obj
 0001:00041762       ?Open@CFichier@@QAEHPADHH@Z 00442762 f   Fichier.obj
 0001:000417fe       ?Close@CFichier@@QAEHXZ    004427fe f   Fichier.obj
 0001:0004185c       ?DecodeModeAcces@CFichier@@AAEHH@Z 0044285c f   Fichier.obj
 0001:000418b1       ?DecodeModePartage@CFichier@@AAEHH@Z 004428b1 f   Fichier.obj
 0001:00041924       ?Size@CFichier@@QAEHXZ     00442924 f   Fichier.obj
 0001:00041951       ?Seek@CFichier@@QAEHHH@Z   00442951 f   Fichier.obj
 0001:000419a0       ?DecodePosPointeur@CFichier@@AAEHH@Z 004429a0 f   Fichier.obj
 0001:000419ec       ?Read@CFichier@@QAEHPADH@Z 004429ec f   Fichier.obj
 0001:00041a27       ?ReadCar@CFichier@@QAEHPAD@Z 00442a27 f   Fichier.obj
 0001:00041a66       ?ReadLigne@CFichier@@QAEHAAVCString@@H@Z 00442a66 f   Fichier.obj
 0001:00041b81       ?Write@CFichier@@QAEHPADH@Z 00442b81 f   Fichier.obj
 0001:00041bbc       ?Write@CFichier@@QAEHAAVCString@@@Z 00442bbc f   Fichier.obj
 0001:00041c16       ?WriteCar@CFichier@@QAEHD@Z 00442c16 f   Fichier.obj
 0001:00041c4f       ?WriteLigne@CFichier@@QAEHPAD@Z 00442c4f f   Fichier.obj
 0001:00041d00       ?LitHandleFic@CFichier@@QAEPAXXZ 00442d00 f   Fichier.obj
 0001:00041ed0       ??_GCFichier@@UAEPAXI@Z    00442ed0 f i Fichier.obj
 0001:00041ed0       ??_ECFichier@@UAEPAXI@Z    00442ed0 f i Fichier.obj
 0001:00041f10       ??0CFichierTemp@@QAE@XZ    00442f10 f   FichierTemp.obj
 0001:00041f27       ??1CFichierTemp@@UAE@XZ    00442f27 f   FichierTemp.obj
 0001:00041f3b       ?LitNomFicTemp@CFichierTemp@@QAEXAAVCString@@@Z 00442f3b f   FichierTemp.obj
 0001:00041fd3       ?LitNomFicTemp@CFichierTemp@@QAEXPADAAVCString@@@Z 00442fd3 f   FichierTemp.obj
 0001:0004207f       ?LitNomRepTemp@CFichierTemp@@QAEXAAVCString@@@Z 0044307f f   FichierTemp.obj
 0001:0004213a       ?LitCheminRepTemp@CFichierTemp@@MAEXAAVCString@@@Z 0044313a f   FichierTemp.obj
 0001:000421e5       ?ConstruitNomFicTemp@CFichierTemp@@IAEXPADAAVCString@@@Z 004431e5 f   FichierTemp.obj
 0001:000423c0       ??_GCFichierTemp@@UAEPAXI@Z 004433c0 f i FichierTemp.obj
 0001:000423c0       ??_ECFichierTemp@@UAEPAXI@Z 004433c0 f i FichierTemp.obj
 0001:00042400       ?RepertoireExiste@CRepertoire@@SAHVCString@@@Z 00443400 f i FichierTemp.obj
 0001:00042470       ?Mkdir@CRepertoire@@SAHVCString@@@Z 00443470 f i FichierTemp.obj
 0001:000424e0       ??0CImprime@@QAE@PAD00@Z   004434e0 f   Imprime.obj
 0001:0004260a       ??1CImprime@@UAE@XZ        0044360a f   Imprime.obj
 0001:0004268e       ?NiveauTitrePlus@CImprime@@QAEHXZ 0044368e f   Imprime.obj
 0001:000426bf       ?NiveauTitreMoins@CImprime@@QAEHXZ 004436bf f   Imprime.obj
 0001:000426f0       ?NiveauTitre@CImprime@@QAEHH@Z 004436f0 f   Imprime.obj
 0001:00042720       ?IndentPlus@CImprime@@QAEHXZ 00443720 f   Imprime.obj
 0001:00042748       ?IndentMoins@CImprime@@QAEHXZ 00443748 f   Imprime.obj
 0001:00042779       ?Indent@CImprime@@QAEHH@Z  00443779 f   Imprime.obj
 0001:000427a3       ?Style@CImprime@@QAEHH@Z   004437a3 f   Imprime.obj
 0001:000427d0       ?CouleurFond@CImprime@@QAEHH@Z 004437d0 f   Imprime.obj
 0001:000427f4       ?CouleurTexte@CImprime@@QAEHH@Z 004437f4 f   Imprime.obj
 0001:00042818       ?LitNumPolice@CImprime@@UAEHXZ 00443818 f   Imprime.obj
 0001:00042829       ?EcritNumPolice@CImprime@@QAEHH@Z 00443829 f   Imprime.obj
 0001:0004285f       ?IncrementeNumPolice@CImprime@@QAEHXZ 0044385f f   Imprime.obj
 0001:00042890       ?DecrementeNumPolice@CImprime@@QAEHXZ 00443890 f   Imprime.obj
 0001:000428c1       ?LitIndTaillePolice@CImprime@@UAEHXZ 004438c1 f   Imprime.obj
 0001:000428d2       ?EcritIndTaillePolice@CImprime@@QAEHH@Z 004438d2 f   Imprime.obj
 0001:000428fc       ?IncrementeIndTaillePolice@CImprime@@QAEHXZ 004438fc f   Imprime.obj
 0001:00042924       ?DecrementeIndTaillePolice@CImprime@@QAEHXZ 00443924 f   Imprime.obj
 0001:00042955       ?WriteLigne@CImprime@@QAEHPADH@Z 00443955 f   Imprime.obj
 0001:000429f5       ?WriteLignePrintf@CImprime@@QAAHHPADZZ 004439f5 f   Imprime.obj
 0001:00042acc       ?WriteChainePrintf@CImprime@@QAAHHPADZZ 00443acc f   Imprime.obj
 0001:00042ba3       ?WriteChaine@CImprime@@QAEHPADH@Z 00443ba3 f   Imprime.obj
 0001:00042ca9       ?LitTitreAppli@CImprime@@QAEXAAVCString@@@Z 00443ca9 f   Imprime.obj
 0001:00042cc5       ?EcritTitreAppli@CImprime@@QAEXPAD@Z 00443cc5 f   Imprime.obj
 0001:00042ce1       ?LitVersionAppli@CImprime@@QAEXAAVCString@@@Z 00443ce1 f   Imprime.obj
 0001:00042cfd       ?EcritVersionAppli@CImprime@@QAEXPAD@Z 00443cfd f   Imprime.obj
 0001:00042d19       ?LitNomFicDest@CImprime@@QAEXAAVCString@@@Z 00443d19 f   Imprime.obj
 0001:00042d35       ?LitTitre@CImprime@@QAEXPADAAVCString@@@Z 00443d35 f   Imprime.obj
 0001:00042dc0       ?LitNumTitre@CImprime@@IAEXAAVCString@@@Z 00443dc0 f   Imprime.obj
 0001:00042fbb       ?ModifChaine@CImprime@@IAEXPADAAVCString@@@Z 00443fbb f   Imprime.obj
 0001:000430cf       ?LitUnMot@CImprime@@IAEPADPADAAVCString@@@Z 004440cf f   Imprime.obj
 0001:00043560       ?WriteUnMot@CImprime@@UAEHPADH@Z 00444560 f i Imprime.obj
 0001:00043580       ?WriteTitre@CImprime@@UAEHPADH@Z 00444580 f i Imprime.obj
 0001:000435a0       ?AjouteAntiSlash@CImprime@@MAEXPADAAVCString@@@Z 004445a0 f i Imprime.obj
 0001:000435c0       ??_ECImprime@@UAEPAXI@Z    004445c0 f i Imprime.obj
 0001:000435c0       ??_GCImprime@@UAEPAXI@Z    004445c0 f i Imprime.obj
 0001:00043600       ??0CInputArchive@@QAE@PAVCInputOutputArchive@@@Z 00444600 f   InputArchive.obj
 0001:0004365e       ??1CInputArchive@@QAE@XZ   0044465e f   InputArchive.obj
 0001:00043699       ?FinLigne@CInputArchive@@QAEHXZ 00444699 f   InputArchive.obj
 0001:0004370f       ?ReadParamBase@CInputArchive@@IAEHPADH@Z 0044470f f   InputArchive.obj
 0001:000437b3       ?ReadParamBase@CInputArchive@@IAEHPAVCString@@@Z 004447b3 f   InputArchive.obj
 0001:0004396a       ?ReadNomPropriete@CInputArchive@@QAEHPADH@Z 0044496a f   InputArchive.obj
 0001:00043a1b       ?ReadNomPropriete@CInputArchive@@QAEHPAVCString@@@Z 00444a1b f   InputArchive.obj
 0001:00043a6a       ?ReadString@CInputArchive@@QAEHPADH@Z 00444a6a f   InputArchive.obj
 0001:00043ad0       ?ReadString@CInputArchive@@QAEHPAVCString@@@Z 00444ad0 f   InputArchive.obj
 0001:00043b4a       ?ReadLigneBrut@CInputArchive@@QAEHPADH@Z 00444b4a f   InputArchive.obj
 0001:00043ba4       ?ReadLigneBrut@CInputArchive@@QAEHPAVCString@@@Z 00444ba4 f   InputArchive.obj
 0001:00043c01       ?ReadLigne@CInputArchive@@QAEHPAVCString@@@Z 00444c01 f   InputArchive.obj
 0001:00043c48       ?ReadValeur@CInputArchive@@QAEHPAH@Z 00444c48 f   InputArchive.obj
 0001:00043e17       ?ReadId@CInputArchive@@QAEHPAH@Z 00444e17 f   InputArchive.obj
 0001:00043f42       ?ReadValeur@CInputArchive@@QAEHPAJ@Z 00444f42 f   InputArchive.obj
 0001:00044111       ?ReadValeur@CInputArchive@@QAEHPAF@Z 00445111 f   InputArchive.obj
 0001:000442e0       ?ReadValeur@CInputArchive@@QAEHPAM@Z 004452e0 f   InputArchive.obj
 0001:000443a7       ?ReadValeur@CInputArchive@@QAEHPAN@Z 004453a7 f   InputArchive.obj
 0001:0004446e       ?ReadValeur@CInputArchive@@QAEHPADD@Z 0044546e f   InputArchive.obj
 0001:000444be       ?ReadValeur@CInputArchive@@QAEHPAVCString@@@Z 004454be f   InputArchive.obj
 0001:0004451a       ?ReadValeur@CInputArchive@@QAEHPAVCListPeriph@@@Z 0044551a f   InputArchive.obj
 0001:000445f2       ?ReadValeur@CInputArchive@@QAEHPAVCRect@@@Z 004455f2 f   InputArchive.obj
 0001:0004467d       ?ReadValeur@CInputArchive@@QAEHPAKK@Z 0044567d f   InputArchive.obj
 0001:00044909       ?ReadValeur@CInputArchive@@QAEHPAVCStringArray@@@Z 00445909 f   InputArchive.obj
 0001:00044a23       ?LitCarSuivant@CInputArchive@@IAEHPAH@Z 00445a23 f   InputArchive.obj
 0001:00044b78       ?LitPremierCarValide@CInputArchive@@IAEHPAH@Z 00445b78 f   InputArchive.obj
 0001:00044c75       ?ReadDescPropriete@CInputArchive@@QAEXAAVCString@@@Z 00445c75 f   InputArchive.obj
 0001:00044e86       ?ReadSousPropriete@CInputArchive@@QAEHPADH@Z 00445e86 f   InputArchive.obj
 0001:00044f37       ?ReadSousPropriete@CInputArchive@@QAEHPAVCString@@@Z 00445f37 f   InputArchive.obj
 0001:00044f88       ?AttenteFin@CInputArchive@@QAEXXZ 00445f88 f   InputArchive.obj
 0001:0004502b       ?ReadFichier@CInputArchive@@QAEHAAVCString@@@Z 0044602b f   InputArchive.obj
 0001:000452cd       ?ReadFichier@CInputArchive@@QAEHPAD@Z 004462cd f   InputArchive.obj
 0001:00045cf0       ?SetRect@CRect@@QAEXHHHH@Z 00446cf0 f i InputArchive.obj
 0001:00045d20       ??0CInputOutputArchive@@QAE@H@Z 00446d20 f   InputOutputArchive.obj
 0001:00045e1c       ??0CInputOutputArchive@@QAE@PADHHH@Z 00446e1c f   InputOutputArchive.obj
 0001:00046040       ??1CInputOutputArchive@@QAE@XZ 00447040 f   InputOutputArchive.obj
 0001:000461b0       ?FermeArchive@CInputOutputArchive@@UAEHXZ 004471b0 f i InputOutputArchive.obj
 0001:000461e0       ?LitCar@CInputOutputArchive@@UAEHXZ 004471e0 f i InputOutputArchive.obj
 0001:00046230       ?EcritCar@CInputOutputArchive@@UAEHH@Z 00447230 f i InputOutputArchive.obj
 0001:00046280       ?EcritChaine@CInputOutputArchive@@UAEHPAD@Z 00447280 f i InputOutputArchive.obj
 0001:000462f0       ?EcritTrameBrut@CInputOutputArchive@@UAEHPADH@Z 004472f0 f i InputOutputArchive.obj
 0001:00046340       ?LitUneTrame@CInputOutputArchive@@UAEHPADH@Z 00447340 f i InputOutputArchive.obj
 0001:00046390       ?EcritFormater@CInputOutputArchive@@UAAHPBDZZ 00447390 f i InputOutputArchive.obj
 0001:00046470       ?EcritHistorique@CInputOutputArchive@@QAEXDD@Z 00447470 f i InputOutputArchive.obj
 0001:00046500       ?FichierExiste@CRepertoire@@SAHVCString@@@Z 00447500 f i InputOutputArchive.obj
 0001:00046570       ?EffaceFichier@CRepertoire@@SAHVCString@@@Z 00447570 f i InputOutputArchive.obj
 0001:000465e0       ?OuvreFichier@CInputOutputArchive@@QAEHPAD0@Z 004475e0 f i InputOutputArchive.obj
 0001:00046630       ??0CInputOutputStringArchive@@QAE@PADH@Z 00447630 f   InputOutputStringArchive.obj
 0001:0004670d       ??0CInputOutputStringArchive@@QAE@AAVCString@@H@Z 0044770d f   InputOutputStringArchive.obj
 0001:000467f1       ??1CInputOutputStringArchive@@QAE@XZ 004477f1 f   InputOutputStringArchive.obj
 0001:0004681d       ?GetStringArchive@CInputOutputStringArchive@@QAEPADXZ 0044781d f   InputOutputStringArchive.obj
 0001:0004682e       ?FermeArchive@CInputOutputStringArchive@@UAEHXZ 0044782e f   InputOutputStringArchive.obj
 0001:0004683b       ?LitCar@CInputOutputStringArchive@@UAEHXZ 0044783b f   InputOutputStringArchive.obj
 0001:00046892       ?EcritCar@CInputOutputStringArchive@@UAEHH@Z 00447892 f   InputOutputStringArchive.obj
 0001:0004693a       ?EcritChaine@CInputOutputStringArchive@@UAEHPAD@Z 0044793a f   InputOutputStringArchive.obj
 0001:0004697b       ?EcritTrameBrut@CInputOutputStringArchive@@UAEHPADH@Z 0044797b f   InputOutputStringArchive.obj
 0001:000469cc       ?LitUneTrame@CInputOutputStringArchive@@UAEHPADH@Z 004479cc f   InputOutputStringArchive.obj
 0001:00046a1c       ?EcritFormater@CInputOutputStringArchive@@UAAHPBDZZ 00447a1c f   InputOutputStringArchive.obj
 0001:00046ace       ?Raz@CInputOutputStringArchive@@QAEXXZ 00447ace f   InputOutputStringArchive.obj
 0001:00046c40       ??0CModification@@QAE@HJ@Z 00447c40 f   Modification.obj
 0001:00046cba       ??1CModification@@QAE@XZ   00447cba f   Modification.obj
 0001:00046cc5       ?LitArchive@CModification@@QAEXAAVCInputArchive@@@Z 00447cc5 f   Modification.obj
 0001:00046db3       ?EcritArchive@CModification@@QAEXAAVCOutputArchive@@@Z 00447db3 f   Modification.obj
 0001:00046e18       ?Modification@CModification@@QAEXHHJ@Z 00447e18 f   Modification.obj
 0001:00046f69       ?LitModification@CModification@@QAEXAAVCOutputArchive@@@Z 00447f69 f   Modification.obj
 0001:000470c0       ??0COutputArchive@@QAE@PAVCInputOutputArchive@@@Z 004480c0 f   OutputArchive.obj
 0001:000470f6       ??1COutputArchive@@QAE@XZ  004480f6 f   OutputArchive.obj
 0001:00047101       ?WriteEspace@COutputArchive@@QAEHXZ 00448101 f   OutputArchive.obj
 0001:0004716e       ?WriteFinDeLigne@COutputArchive@@QAEHXZ 0044816e f   OutputArchive.obj
 0001:000471c9       ?WriteFinPropriete@COutputArchive@@QAEHXZ 004481c9 f   OutputArchive.obj
 0001:0004723d       ?WriteDebutPropriete@COutputArchive@@QAEHXZ 0044823d f   OutputArchive.obj
 0001:0004729e       ?WriteNomPropriete@COutputArchive@@QAEHPAD@Z 0044829e f   OutputArchive.obj
 0001:00047355       ?WriteValeur@COutputArchive@@QAEHH@Z 00448355 f   OutputArchive.obj
 0001:000473c0       ?WriteValeur@COutputArchive@@QAEHJ@Z 004483c0 f   OutputArchive.obj
 0001:0004742b       ?WriteValeur@COutputArchive@@QAEHF@Z 0044842b f   OutputArchive.obj
 0001:00047497       ?WriteValeur@COutputArchive@@QAEHM@Z 00448497 f   OutputArchive.obj
 0001:00047507       ?WriteValeur@COutputArchive@@QAEHN@Z 00448507 f   OutputArchive.obj
 0001:00047576       ?WriteValeur@COutputArchive@@QAEHPAD@Z 00448576 f   OutputArchive.obj
 0001:000475ec       ?WriteValeur@COutputArchive@@QAEHVCString@@@Z 004485ec f   OutputArchive.obj
 0001:0004772e       ?WriteValeur@COutputArchive@@QAEHPADH@Z 0044872e f   OutputArchive.obj
 0001:000477a8       ?WriteValeur@COutputArchive@@QAEHVCString@@H@Z 004487a8 f   OutputArchive.obj
 0001:00047900       ?WriteValeur@COutputArchive@@QAEHVCListPeriph@@@Z 00448900 f   OutputArchive.obj
 0001:000479cb       ?WriteValeur@COutputArchive@@QAEHVCRect@@@Z 004489cb f   OutputArchive.obj
 0001:00047a85       ?WriteValeur@COutputArchive@@QAEHK@Z 00448a85 f   OutputArchive.obj
 0001:00047b14       ?WriteValeur@COutputArchive@@QAEHVCStringArray@@@Z 00448b14 f   OutputArchive.obj
 0001:00047be0       ?WriteString@COutputArchive@@QAEHPAD@Z 00448be0 f   OutputArchive.obj
 0001:00047c56       ?WriteString@COutputArchive@@QAEHVCString@@@Z 00448c56 f   OutputArchive.obj
 0001:00047d3c       ?WriteLigneBrut@COutputArchive@@QAEHPAD@Z 00448d3c f   OutputArchive.obj
 0001:00047db2       ?WriteLigneBrut@COutputArchive@@QAEHVCString@@@Z 00448db2 f   OutputArchive.obj
 0001:00047e81       ?WriteId@COutputArchive@@QAEHH@Z 00448e81 f   OutputArchive.obj
 0001:00047eec       ?WriteCouleur@COutputArchive@@QAEHJ@Z 00448eec f   OutputArchive.obj
 0001:00047f57       ?WriteDescPropriete@COutputArchive@@QAEHVCString@@@Z 00448f57 f   OutputArchive.obj
 0001:0004807f       ?WriteBrut@COutputArchive@@QAEHVCString@@@Z 0044907f f   OutputArchive.obj
 0001:00048197       ?WriteFichier@COutputArchive@@QAEHPAD@Z 00449197 f   OutputArchive.obj
 0001:00048840       ?GetSize@CStringArray@@QBEHXZ 00449840 f i OutputArchive.obj
 0001:00048860       ??0CListPeriph@@QAE@XZ     00449860 f   PERIPH.OBJ
 0001:00048876       ?Ajoute@CListPeriph@@QAEXH@Z 00449876 f   PERIPH.OBJ
 0001:000488cf       ?SupprimeTout@CListPeriph@@QAEXXZ 004498cf f   PERIPH.OBJ
 0001:00048903       ?Teste@CListPeriph@@QAEHH@Z 00449903 f   PERIPH.OBJ
 0001:00048962       ??HCListPeriph@@QAE?AV0@ABV0@@Z 00449962 f   PERIPH.OBJ
 0001:000489a5       ??4CListPeriph@@QAEAAV0@ABV0@@Z 004499a5 f   PERIPH.OBJ
 0001:000489c7       ??YCListPeriph@@QAEAAV0@ABV0@@Z 004499c7 f   PERIPH.OBJ
 0001:00048a1f       ?EstVide@CListPeriph@@QAEHXZ 00449a1f f   PERIPH.OBJ
 0001:00048a3b       ??8CListPeriph@@QAEHABV0@@Z 00449a3b f   PERIPH.OBJ
 0001:00048b10       ??0CRepertoire@@QAE@XZ     00449b10 f   Repertoire.obj
 0001:00048b3b       ??1CRepertoire@@UAE@XZ     00449b3b f   Repertoire.obj
 0001:00048b68       ?RepertoireExiste@CRepertoire@@SAHPAD@Z 00449b68 f   Repertoire.obj
 0001:00048baf       ?FichierExiste@CRepertoire@@SAHPAD@Z 00449baf f   Repertoire.obj
 0001:00048bf6       ?Mkdir@CRepertoire@@SAHPAD@Z 00449bf6 f   Repertoire.obj
 0001:00048c2c       ?DetruitRep@CRepertoire@@SAHPAD@Z 00449c2c f   Repertoire.obj
 0001:00048c78       ?EffaceFichier@CRepertoire@@SAHPAD@Z 00449c78 f   Repertoire.obj
 0001:00048caa       ?Construire@CRepertoire@@SAHPAVCString@@PAD1@Z 00449caa f   Repertoire.obj
 0001:00048d5b       ?Construire@CRepertoire@@SAHPAVCString@@V2@PAD@Z 00449d5b f   Repertoire.obj
 0001:00048e00       ?Construire@CRepertoire@@SAHPAVCString@@V2@1@Z 00449e00 f   Repertoire.obj
 0001:00048f72       ?CherchePremier@CRepertoire@@QAEHPAVCString@@PAD1H@Z 00449f72 f   Repertoire.obj
 0001:00049153       ?ChercheSuivant@CRepertoire@@QAEHPAVCString@@@Z 0044a153 f   Repertoire.obj
 0001:0004927a       ?ChangeExtension@CRepertoire@@SAHPAVCString@@V2@PAD@Z 0044a27a f   Repertoire.obj
 0001:0004936e       ?RenomeFichier@CRepertoire@@SAHVCString@@0@Z 0044a36e f   Repertoire.obj
 0001:000493dc       ?TailleFichier@CRepertoire@@SAJPAD@Z 0044a3dc f   Repertoire.obj
 0001:00049408       ?LitDateFic@CRepertoire@@SAJPAD@Z 0044a408 f   Repertoire.obj
 0001:0004942e       ?CopieFichier@CRepertoire@@SAHPAD0@Z 0044a42e f   Repertoire.obj
 0001:0004945b       ?CreerNomFicTemp@CRepertoire@@SAXAAVCString@@@Z 0044a45b f   Repertoire.obj
 0001:00049505       ?RepRelatif@CRepertoire@@SAHPAD@Z 0044a505 f   Repertoire.obj
 0001:0004964e       ?TestCreeRep@CRepertoire@@SAHPAD@Z 0044a64e f   Repertoire.obj
 0001:00049a28       ?TestRepFicSansEspace@CRepertoire@@SAHPAD@Z 0044aa28 f   Repertoire.obj
 0001:00049ea0       ??_ECRepertoire@@UAEPAXI@Z 0044aea0 f i Repertoire.obj
 0001:00049ea0       ??_GCRepertoire@@UAEPAXI@Z 0044aea0 f i Repertoire.obj
 0001:00049ee0       ?FonctionDeLancementDUnThreadCServeurArchive@@YAHPAX@Z 0044aee0 f   ServeurArchive.obj
 0001:00049efb       ??0CServeurArchive@@QAE@XZ 0044aefb f   ServeurArchive.obj
 0001:00049f96       ??1CServeurArchive@@QAE@XZ 0044af96 f   ServeurArchive.obj
 0001:0004a01d       ?Create@CServeurArchive@@QAEHHPAD@Z 0044b01d f   ServeurArchive.obj
 0001:0004a0c7       ?Close@CServeurArchive@@QAEHXZ 0044b0c7 f   ServeurArchive.obj
 0001:0004a1c2       ?BoucleDAttente@CServeurArchive@@QAEHXZ 0044b1c2 f   ServeurArchive.obj
 0001:0004a4f8       ?NewClient@CServeurArchive@@UAEPAVCSocketServeurArchive@@XZ 0044b4f8 f   ServeurArchive.obj
 0001:0004a56b       ?AnnonceMortSocketEchange@CServeurArchive@@QAEHPAVCSocketServeurArchive@@@Z 0044b56b f   ServeurArchive.obj
 0001:0004a62d       ?GestMessageErreur@CServeurArchive@@UAAXHPBDZZ 0044b62d f   ServeurArchive.obj
 0001:0004a664       ?SendAll@CServeurArchive@@UAEHPAD@Z 0044b664 f   ServeurArchive.obj
 0001:0004a688       ?SendAllBrut@CServeurArchive@@UAEHPAD@Z 0044b688 f   ServeurArchive.obj
 0001:0004a6ac       ?SendAllBrut@CServeurArchive@@UAEHPADH@Z 0044b6ac f   ServeurArchive.obj
 0001:0004a8d0       ??1CBaseSocket@@QAE@XZ     0044b8d0 f i ServeurArchive.obj
 0001:0004a8f0       ?AnnulePtPere@CSocketServeurArchive@@QAEXXZ 0044b8f0 f i ServeurArchive.obj
 0001:0004a910       ?osysPrintf@@YAXPBDZZ      0044b910 f i ServeurArchive.obj
 0001:0004a920       ?SetAdresse@CSocketServeurArchive@@QAEXPAD@Z 0044b920 f i ServeurArchive.obj
 0001:0004a950       ?FonctionDeLancementDUnThreadCServeurTCP@@YAHPAX@Z 0044b950 f   ServeurTCP.obj
 0001:0004a968       ??0CServeurTCP@@QAE@XZ     0044b968 f   ServeurTCP.obj
 0001:0004aa0d       ??1CServeurTCP@@UAE@XZ     0044ba0d f   ServeurTCP.obj
 0001:0004aa94       ?Create@CServeurTCP@@QAEHHPAD@Z 0044ba94 f   ServeurTCP.obj
 0001:0004abaa       ?Close@CServeurTCP@@QAEHXZ 0044bbaa f   ServeurTCP.obj
 0001:0004acd8       ?SendAll@CServeurTCP@@UAEHPAD@Z 0044bcd8 f   ServeurTCP.obj
 0001:0004ad9b       ?SendAllBrut@CServeurTCP@@UAEHPAD@Z 0044bd9b f   ServeurTCP.obj
 0001:0004ae5e       ?SendAllBrut@CServeurTCP@@UAEHPADH@Z 0044be5e f   ServeurTCP.obj
 0001:0004af25       ?BoucleDAttente@CServeurTCP@@QAEHXZ 0044bf25 f   ServeurTCP.obj
 0001:0004b1e1       ?NewClient@CServeurTCP@@UAEPAVCSocketTCP@@XZ 0044c1e1 f   ServeurTCP.obj
 0001:0004b251       ?AnnonceMortSocketEchange@CServeurTCP@@QAEHPAVCSocketTCP@@@Z 0044c251 f   ServeurTCP.obj
 0001:0004b313       ?GestMessageErreur@CServeurTCP@@UAAXHPBDZZ 0044c313 f   ServeurTCP.obj
 0001:0004b5d0       ??_ECServeurTCP@@UAEPAXI@Z 0044c5d0 f i ServeurTCP.obj
 0001:0004b5d0       ??_GCServeurTCP@@UAEPAXI@Z 0044c5d0 f i ServeurTCP.obj
 0001:0004b610       ?AnnulePtPere@CSocketTCP@@QAEXXZ 0044c610 f i ServeurTCP.obj
 0001:0004b630       ??_GCSocketTCP@@QAEPAXI@Z  0044c630 f i ServeurTCP.obj
 0001:0004b670       ?SetAdresseIPClient@CSocketTCP@@QAEXPAD@Z 0044c670 f i ServeurTCP.obj
 0001:0004b6a0       ??0CSocketArchive@@QAE@XZ  0044c6a0 f   SocketArchive.obj
 0001:0004b7de       ??0CSocketArchive@@QAE@H@Z 0044c7de f   SocketArchive.obj
 0001:0004b8ac       ??0CSocketArchive@@QAE@PADH0@Z 0044c8ac f   SocketArchive.obj
 0001:0004b979       ??1CSocketArchive@@UAE@XZ  0044c979 f   SocketArchive.obj
 0001:0004ba3c       ?Close@CSocketArchive@@QAEXXZ 0044ca3c f   SocketArchive.obj
 0001:0004bb75       ?Reception@CSocketArchive@@UAEXXZ 0044cb75 f   SocketArchive.obj
 0001:0004bb80       ?OuvreArchive@CSocketArchive@@QAEHPADH0@Z 0044cb80 f   SocketArchive.obj
 0001:0004bdff       ?Reconnecte@CSocketArchive@@QAEHXZ 0044cdff f   SocketArchive.obj
 0001:0004bf4c       ?LitCar@CSocketArchive@@UAEHXZ 0044cf4c f   SocketArchive.obj
 0001:0004bf62       ?EcritCar@CSocketArchive@@UAEHH@Z 0044cf62 f   SocketArchive.obj
 0001:0004bfbb       ?EcritChaine@CSocketArchive@@UAEHPAD@Z 0044cfbb f   SocketArchive.obj
 0001:0004c015       ?EcritTrameBrut@CSocketArchive@@UAEHPADH@Z 0044d015 f   SocketArchive.obj
 0001:0004c062       ?LitUneTrame@CSocketArchive@@UAEHPADH@Z 0044d062 f   SocketArchive.obj
 0001:0004c0af       ?EcritFormater@CSocketArchive@@UAAHPBDZZ 0044d0af f   SocketArchive.obj
 0001:0004c196       ?AttentReconnexion@CSocketArchive@@UAEXXZ 0044d196 f   SocketArchive.obj
 0001:0004c1c9       ?AttentEvtOuException@CSocketArchive@@QAEXH@Z 0044d1c9 f   SocketArchive.obj
 0001:0004c28a       ?ReEtablirConnexion@CSocketArchive@@QAEHPADH0@Z 0044d28a f   SocketArchive.obj
 0001:0004c40c       ?ReconnecteBis@CSocketArchive@@QAEHXZ 0044d40c f   SocketArchive.obj
 0001:0004c860       ??_ECSocketArchive@@UAEPAXI@Z 0044d860 f i SocketArchive.obj
 0001:0004c860       ??_GCSocketArchive@@UAEPAXI@Z 0044d860 f i SocketArchive.obj
 0001:0004c8a0       ??_GCOutputArchive@@QAEPAXI@Z 0044d8a0 f i SocketArchive.obj
 0001:0004c8e0       ??_GCInputArchive@@QAEPAXI@Z 0044d8e0 f i SocketArchive.obj
 0001:0004c920       ??0CGestErreurSocket@@QAE@XZ 0044d920 f   SocketMiniTCP.obj
 0001:0004c938       ??0CGestErreurSocket@@QAE@H@Z 0044d938 f   SocketMiniTCP.obj
 0001:0004c950       ?RendCodeErreur@CGestErreurSocket@@QAEHAAVCString@@@Z 0044d950 f   SocketMiniTCP.obj
 0001:0004c98b       ?Delete@CGestErreurSocket@@QAEXXZ 0044d98b f   SocketMiniTCP.obj
 0001:0004c9aa       ??0CSocketMiniTCP@@QAE@XZ  0044d9aa f   SocketMiniTCP.obj
 0001:0004ca91       ??0CSocketMiniTCP@@QAE@H@Z 0044da91 f   SocketMiniTCP.obj
 0001:0004cb9b       ??1CSocketMiniTCP@@QAE@XZ  0044db9b f   SocketMiniTCP.obj
 0001:0004cc45       ?Create@CSocketMiniTCP@@UAEHPADH0@Z 0044dc45 f   SocketMiniTCP.obj
 0001:0004ced8       ?Create@CSocketMiniTCP@@UAEHH@Z 0044ded8 f   SocketMiniTCP.obj
 0001:0004cf1f       ?Close@CSocketMiniTCP@@UAEHXZ 0044df1f f   SocketMiniTCP.obj
 0001:0004cfbb       ?EnvoiBuffer@CSocketMiniTCP@@QAEHXZ 0044dfbb f   SocketMiniTCP.obj
 0001:0004d14c       ?SendBrut@CSocketMiniTCP@@UAEHPADH@Z 0044e14c f   SocketMiniTCP.obj
 0001:0004d263       ?SendTrameBrut@CSocketMiniTCP@@UAEHPADH@Z 0044e263 f   SocketMiniTCP.obj
 0001:0004d388       ?LitCar@CSocketMiniTCP@@QAEHXZ 0044e388 f   SocketMiniTCP.obj
 0001:0004d4f5       ?LitUneTrame@CSocketMiniTCP@@UAEHPADH@Z 0044e4f5 f   SocketMiniTCP.obj
 0001:0004d65c       ?InitAdresseServeur@CSocketMiniTCP@@QAEHPADPAUin_addr@@@Z 0044e65c f   SocketMiniTCP.obj
 0001:0004d779       ?GestMessageErreur@CSocketMiniTCP@@UAAXHPBDZZ 0044e779 f   SocketMiniTCP.obj
 0001:0004db50       ?FonctionDeLancementDUnThreadCSocketServeurArchive@@YAHPAX@Z 0044eb50 f   SocketServeurArchive.obj
 0001:0004dc04       ??0CSocketServeurArchive@@QAE@XZ 0044ec04 f   SocketServeurArchive.obj
 0001:0004dce5       ??0CSocketServeurArchive@@QAE@HPAVCServeurArchive@@@Z 0044ece5 f   SocketServeurArchive.obj
 0001:0004dd99       ??1CSocketServeurArchive@@UAE@XZ 0044ed99 f   SocketServeurArchive.obj
 0001:0004dec4       ?Create@CSocketServeurArchive@@QAEHHPAVCServeurArchive@@@Z 0044eec4 f   SocketServeurArchive.obj
 0001:0004e05f       ?Close@CSocketServeurArchive@@UAEXXZ 0044f05f f   SocketServeurArchive.obj
 0001:0004e097       ?LitCar@CSocketServeurArchive@@UAEHXZ 0044f097 f   SocketServeurArchive.obj
 0001:0004e0ad       ?EcritCar@CSocketServeurArchive@@UAEHH@Z 0044f0ad f   SocketServeurArchive.obj
 0001:0004e100       ?EcritChaine@CSocketServeurArchive@@UAEHPAD@Z 0044f100 f   SocketServeurArchive.obj
 0001:0004e172       ?EcritTrameBrut@CSocketServeurArchive@@UAEHPADH@Z 0044f172 f   SocketServeurArchive.obj
 0001:0004e1d7       ?LitUneTrame@CSocketServeurArchive@@UAEHPADH@Z 0044f1d7 f   SocketServeurArchive.obj
 0001:0004e258       ?EcritFormater@CSocketServeurArchive@@UAAHPBDZZ 0044f258 f   SocketServeurArchive.obj
 0001:0004e345       ?BoucleDAttente@CSocketServeurArchive@@UAEXXZ 0044f345 f   SocketServeurArchive.obj
 0001:0004e361       ?PositionneEvenementFin@CSocketServeurArchive@@QAEXXZ 0044f361 f   SocketServeurArchive.obj
 0001:0004e36c       ?CloseConnexion@CSocketServeurArchive@@QAEXXZ 0044f36c f   SocketServeurArchive.obj
 0001:0004e5a0       ??_GCSocketServeurArchive@@UAEPAXI@Z 0044f5a0 f i SocketServeurArchive.obj
 0001:0004e5a0       ??_ECSocketServeurArchive@@UAEPAXI@Z 0044f5a0 f i SocketServeurArchive.obj
 0001:0004e5e0       ?LitFin@CSocketMiniTCP@@QAEHXZ 0044f5e0 f i SocketServeurArchive.obj
 0001:0004e600       ??0CSocketTCP@@QAE@XZ      0044f600 f   SocketTCP.obj
 0001:0004e6ba       ??1CSocketTCP@@QAE@XZ      0044f6ba f   SocketTCP.obj
 0001:0004e741       ?Create@CSocketTCP@@UAEHPADH0@Z 0044f741 f   SocketTCP.obj
 0001:0004e93f       ?Create@CSocketTCP@@UAEHHPAVCServeurTCP@@@Z 0044f93f f   SocketTCP.obj
 0001:0004e9ef       ?Create@CSocketTCP@@UAEHH@Z 0044f9ef f   SocketTCP.obj
 0001:0004ea0d       ?Close@CSocketTCP@@UAEHXZ  0044fa0d f   SocketTCP.obj
 0001:0004eaa2       ?Reception@CSocketTCP@@QAEHXZ 0044faa2 f   SocketTCP.obj
 0001:0004edc6       ?Send@CSocketTCP@@UAEHPAD@Z 0044fdc6 f   SocketTCP.obj
 0001:0004efd0       ?SendBrut@CSocketTCP@@UAEHPAD@Z 0044ffd0 f   SocketTCP.obj
 0001:0004f1ba       ?SendBrut@CSocketTCP@@UAEHPADH@Z 004501ba f   SocketTCP.obj
 0001:0004f31d       ?InitAdresseServeur@CSocketTCP@@QAEHPADPAUin_addr@@@Z 0045031d f   SocketTCP.obj
 0001:0004f43a       ?ServeurDeconnecte@CSocketTCP@@UAEXXZ 0045043a f   SocketTCP.obj
 0001:0004f456       ?Receive@CSocketTCP@@UAEHPAD@Z 00450456 f   SocketTCP.obj
 0001:0004f47a       ?GestMessageErreur@CSocketTCP@@UAAXHPBDZZ 0045047a f   SocketTCP.obj
 0001:0004f4b1       ?MajErreurSendInfoSocketTcp@CSocketTCP@@UAEXXZ 004504b1 f   SocketTCP.obj
 0001:0004f880       ??0CTabPtr@@QAE@H@Z        00450880 f   TabPtr.obj
 0001:0004f8ac       ??1CTabPtr@@QAE@XZ         004508ac f   TabPtr.obj
 0001:0004f8d5       ?LitIndiceMax@CTabPtr@@QAEHXZ 004508d5 f   TabPtr.obj
 0001:0004f8e6       ?EcritIndiceMax@CTabPtr@@QAEXH@Z 004508e6 f   TabPtr.obj
 0001:0004f8fc       ?LitTailleAgrandissement@CTabPtr@@QAEHXZ 004508fc f   TabPtr.obj
 0001:0004f90d       ?NouvDimTab@CTabPtr@@QAEXH@Z 0045090d f   TabPtr.obj
 0001:0004f9bc       ?SetAt@CTabPtr@@QAEXHH@Z   004509bc f   TabPtr.obj
 0001:0004fa3a       ?GetAt@CTabPtr@@QAEHH@Z    00450a3a f   TabPtr.obj
 0001:0004fa70       ?DeplaceValVersGauche@CTabPtr@@QAEHH@Z 00450a70 f   TabPtr.obj
 0001:0004fac1       ?DeplaceValVersDroite@CTabPtr@@QAEHH@Z 00450ac1 f   TabPtr.obj
 0001:0004fbe0       ?OteBlanc@CTexte@@QAEXXZ   00450be0 f   Texte.obj
 0001:0004fc3a       ?OteBlancDebut@CTexte@@QAEXXZ 00450c3a f   Texte.obj
 0001:0004fca5       ?OteBlancDebutFin@CTexte@@QAEXXZ 00450ca5 f   Texte.obj
 0001:0004fcc0       ??4CTexte@@QAEAAV0@ABVCString@@@Z 00450cc0 f   Texte.obj
 0001:0004fd6e       ??4CTexte@@QAEAAV0@ABV0@@Z 00450d6e f   Texte.obj
 0001:0004fe14       ??4CTexte@@QAEAAV0@PBD@Z   00450e14 f   Texte.obj
 0001:0004fe70       ?VFormatMessage@CTexte@@QAAXPBDZZ 00450e70 f   Texte.obj
 0001:000502f0       ?PFormatMessage@CTexte@@QAEXPBDPAPAD@Z 004512f0 f   Texte.obj
 0001:00050788       ?Filtre@CTexte@@QAEXAAVCString@@@Z 00451788 f   Texte.obj
 0001:0005086e       ?MFormatMessage@CTexte@@SAXPADPAVCTabPtr@@AAVCString@@@Z 0045186e f   Texte.obj
 0001:00050d20       ??0CVersionIntegrale@@QAE@XZ 00451d20 f   VersionIntegrale.obj
 0001:00050d4e       ??1CVersionIntegrale@@UAE@XZ 00451d4e f   VersionIntegrale.obj
 0001:00050d6f       ?isIntegrale@CVersionIntegrale@@QAEHXZ 00451d6f f   VersionIntegrale.obj
 0001:00050da2       ?isDroitIntegrale@CVersionIntegrale@@QAEHH@Z 00451da2 f   VersionIntegrale.obj
 0001:00050e17       ?initVersionIntegrale@CVersionIntegrale@@QAEXXZ 00451e17 f   VersionIntegrale.obj
 0001:00050e30       ?getKeyIntegrale@CVersionIntegrale@@IAEHXZ 00451e30 f   VersionIntegrale.obj
 0001:00050ed1       ?getRegistryValue@CVersionIntegrale@@IAEHPAUHKEY__@@PAD@Z 00451ed1 f   VersionIntegrale.obj
 0001:00050fe0       ??_ECVersionIntegrale@@UAEPAXI@Z 00451fe0 f i VersionIntegrale.obj
 0001:00050fe0       ??_GCVersionIntegrale@@UAEPAXI@Z 00451fe0 f i VersionIntegrale.obj
 0001:00051020       ?NouveauGroupe@ClientInterfaceOsys@@QAEHPAD0H@Z 00452020 f   CInterfaceOsys.obj
 0001:00051161       ?SupprimeGroupe@ClientInterfaceOsys@@QAEHHH@Z 00452161 f   CInterfaceOsys.obj
 0001:00051296       ?ModifierNomGroupe@ClientInterfaceOsys@@QAEHHPAD0H@Z 00452296 f   CInterfaceOsys.obj
 0001:000513e3       ?LitNomGroupe@ClientInterfaceOsys@@QAEHAAVCString@@HPADH@Z 004523e3 f   CInterfaceOsys.obj
 0001:00051572       ?RechercheNomGroupe@ClientInterfaceOsys@@QAEHPAD0H@Z 00452572 f   CInterfaceOsys.obj
 0001:000516d4       ?LitListeGroupe@ClientInterfaceOsys@@QAEHAAVCString@@PADH@Z 004526d4 f   CInterfaceOsys.obj
 0001:00051857       ?LitModifNomgroupe@ClientInterfaceOsys@@QAEHAAVCString@@HH@Z 00452857 f   CInterfaceOsys.obj
 0001:000519da       ?LitDateCreationGrp@ClientInterfaceOsys@@QAEHHH@Z 004529da f   CInterfaceOsys.obj
 0001:00051b0f       ?AjouteElement@ClientInterfaceOsys@@QAEHPADH000H@Z 00452b0f f   CInterfaceOsys.obj
 0001:00051caf       ?SupprimeElement@ClientInterfaceOsys@@QAEHAAVCString@@HH@Z 00452caf f   CInterfaceOsys.obj
 0001:00051e1d       ?ModifierElement@ClientInterfaceOsys@@QAEHPADHHH@Z 00452e1d f   CInterfaceOsys.obj
 0001:00051fa5       ?ModifierNomElement@ClientInterfaceOsys@@QAEHHPAD0H@Z 00452fa5 f   CInterfaceOsys.obj
 0001:000520ef       ?LitDefElement@ClientInterfaceOsys@@QAEHAAVCString@@HPADH@Z 004530ef f   CInterfaceOsys.obj
 0001:0005227e       ?LitDefExecElement@ClientInterfaceOsys@@QAEHAAVCString@@HPADH@Z 0045327e f   CInterfaceOsys.obj
 0001:0005240d       ?LitNomElement@ClientInterfaceOsys@@QAEHAAVCString@@HPADH@Z 0045340d f   CInterfaceOsys.obj
 0001:0005259c       ?LitListeElement@ClientInterfaceOsys@@QAEHAAVCString@@HPADH@Z 0045359c f   CInterfaceOsys.obj
 0001:0005272b       ?LitModifElement@ClientInterfaceOsys@@QAEHAAVCString@@HH@Z 0045372b f   CInterfaceOsys.obj
 0001:000528ae       ?ModifierDroit@ClientInterfaceOsys@@QAEHPADHH@Z 004538ae f   CInterfaceOsys.obj
 0001:00052a2a       ?LitDroit@ClientInterfaceOsys@@QAEHAAVCString@@HH@Z 00453a2a f   CInterfaceOsys.obj
 0001:00052bad       ?RechercheIDCreation@ClientInterfaceOsys@@QAEHHJH@Z 00453bad f   CInterfaceOsys.obj
 0001:00052cee       ?RechercheNomElement@ClientInterfaceOsys@@QAEHPAD0H@Z 00453cee f   CInterfaceOsys.obj
 0001:00052e50       ?RechercheIdElement@ClientInterfaceOsys@@QAEHPAD0H@Z 00453e50 f   CInterfaceOsys.obj
 0001:00052fb2       ?ModifierDroitTousGroupe@ClientInterfaceOsys@@QAEHPADHHH@Z 00453fb2 f   CInterfaceOsys.obj
 0001:0005313a       ??0ClientInterfaceOsys@@QAE@PAVClientOsysSrv@@@Z 0045413a f   CInterfaceOsys.obj
 0001:00053152       ??1ClientInterfaceOsys@@QAE@XZ 00454152 f   CInterfaceOsys.obj
 0001:000539c0       ?BloquerSectionCritiqueClient@CSocketArchive@@QAEXXZ 004549c0 f i CInterfaceOsys.obj
 0001:000539e0       ?DebloquerSectionCritiqueClient@CSocketArchive@@QAEXXZ 004549e0 f i CInterfaceOsys.obj
 0001:00053a00       ?BloquerSectionCritique@CSocketArchive@@QAEXXZ 00454a00 f i CInterfaceOsys.obj
 0001:00053a20       ?DebloquerSectionCritique@CSocketArchive@@QAEXXZ 00454a20 f i CInterfaceOsys.obj
 0001:00053a40       ?ArchiveSortie@CSocketArchive@@QAEPAVCOutputArchive@@XZ 00454a40 f i CInterfaceOsys.obj
 0001:00053a60       ?ReceptionValeurAck@ClientOsysSrv@@QAEHXZ 00454a60 f i CInterfaceOsys.obj
 0001:00053a80       ?ReceptionMessage@ClientOsysSrv@@QAE?AVCString@@XZ 00454a80 f i CInterfaceOsys.obj
 0001:00053ac0       ?Create@CClientTrace@@UAEHPADH0@Z 00454ac0 f   ClientTrace.obj
 0001:00053aea       ?Receive@CClientTrace@@UAEHPAD@Z 00454aea f   ClientTrace.obj
 0001:00053e95       ?ServeurDeconnecte@CClientTrace@@UAEXXZ 00454e95 f   ClientTrace.obj
 0001:00053ead       ?EnvoiIdUser@CClientTrace@@QAEHH@Z 00454ead f   ClientTrace.obj
 0001:00054100       ??0CMemoireRecu@@QAE@XZ    00455100 f   ClMemoire.obj
 0001:000541d7       ??1CMemoireRecu@@QAE@XZ    004551d7 f   ClMemoire.obj
 0001:0005423e       ?BloqueAccessMemoire@CMemoireRecu@@QAEXXZ 0045523e f   ClMemoire.obj
 0001:00054256       ?LibereAccessMemoire@CMemoireRecu@@QAEXXZ 00455256 f   ClMemoire.obj
 0001:0005426e       ?EcritIndexMaxMemoire@CMemoireRecu@@QAEXH@Z 0045526e f   ClMemoire.obj
 0001:0005429e       ?LitIndexMaxMemoire@CMemoireRecu@@QAEHXZ 0045529e f   ClMemoire.obj
 0001:000542d1       ?EcritNbMaxValeur@CMemoireRecu@@QAEXH@Z 004552d1 f   ClMemoire.obj
 0001:00054301       ?LitNbMaxValeur@CMemoireRecu@@QAEHXZ 00455301 f   ClMemoire.obj
 0001:00054334       ?EcritNumMemoire@CMemoireRecu@@QAEXH@Z 00455334 f   ClMemoire.obj
 0001:00054363       ?LitNumMemoire@CMemoireRecu@@QAEHXZ 00455363 f   ClMemoire.obj
 0001:00054395       ?EcritNumMemoireUser@CMemoireRecu@@QAEXH@Z 00455395 f   ClMemoire.obj
 0001:000543c5       ?LitNumMemoireUser@CMemoireRecu@@QAEHXZ 004553c5 f   ClMemoire.obj
 0001:000543f8       ?EcritVisibiliteMem@CMemoireRecu@@QAEXH@Z 004553f8 f   ClMemoire.obj
 0001:00054428       ?LitVisibiliteMem@CMemoireRecu@@QAEHXZ 00455428 f   ClMemoire.obj
 0001:0005445b       ?NbValeur@CMemoireRecu@@QAEHXZ 0045545b f   ClMemoire.obj
 0001:00054493       ?TypeDonnee@CMemoireRecu@@QAEHXZ 00455493 f   ClMemoire.obj
 0001:000544c6       ?ModeGestion@CMemoireRecu@@QAEHXZ 004554c6 f   ClMemoire.obj
 0001:000544f9       ?NbDemande@CMemoireRecu@@QAEHXZ 004554f9 f   ClMemoire.obj
 0001:0005452c       ?AjouteDemande@CMemoireRecu@@QAEXXZ 0045552c f   ClMemoire.obj
 0001:00054560       ?SupprimeDemande@CMemoireRecu@@QAEXXZ 00455560 f   ClMemoire.obj
 0001:00054594       ?EffaceTout@CMemoireRecu@@QAEXXZ 00455594 f   ClMemoire.obj
 0001:0005467a       ?Reception@CMemoireRecu@@QAEHAAVCString@@@Z 0045567a f   ClMemoire.obj
 0001:00054dcc       ?CodageArchive@CMemoireRecu@@QAEHAAVCString@@@Z 00455dcc f   ClMemoire.obj
 0001:000550aa       ?LitValeurMemoire@CMemoireRecu@@QAEHHAAHAAVCString@@AAJ@Z 004560aa f   ClMemoire.obj
 0001:000551e9       ?LitValeur@CMemoireRecu@@QAEHHAAHAAVCString@@AAJ@Z 004561e9 f   ClMemoire.obj
 0001:00055230       ??4CMemoireRecu@@QAEAAV0@AAV0@@Z 00456230 f   ClMemoire.obj
 0001:00055405       ??0CListMemoireRecu@@QAE@XZ 00456405 f   ClMemoire.obj
 0001:00055464       ??1CListMemoireRecu@@QAE@XZ 00456464 f   ClMemoire.obj
 0001:000554c8       ?EffaceTout@CListMemoireRecu@@QAEXXZ 004564c8 f   ClMemoire.obj
 0001:00055590       ?AjouteValeurMemoire@CListMemoireRecu@@QAEXHAAVCString@@H@Z 00456590 f   ClMemoire.obj
 0001:00055622       ?AjouteMemoire@CListMemoireRecu@@QAEXHAAVCString@@HH@Z 00456622 f   ClMemoire.obj
 0001:000557ac       ?SupprimeMemoire@CListMemoireRecu@@QAEXHH@Z 004567ac f   ClMemoire.obj
 0001:0005588e       ?TestMemoire@CListMemoireRecu@@QAEHHH@Z 0045688e f   ClMemoire.obj
 0001:0005592d       ?AjouteDemande@CListMemoireRecu@@QAEXHH@Z 0045692d f   ClMemoire.obj
 0001:000559bb       ?SupprimeDemande@CListMemoireRecu@@QAEXHH@Z 004569bb f   ClMemoire.obj
 0001:00055a49       ?CopieMemoireRecu@CListMemoireRecu@@QAEPAVCMemoireRecu@@HH@Z 00456a49 f   ClMemoire.obj
 0001:00055aea       ??0ClientMemoire@@QAE@PADH0@Z 00456aea f   ClMemoire.obj
 0001:00055bd7       ??0ClientMemoire@@QAE@XZ   00456bd7 f   ClMemoire.obj
 0001:00055c9d       ?InitConnexion@ClientMemoire@@QAEXPADH0@Z 00456c9d f   ClMemoire.obj
 0001:00055d37       ?InitConnexion@ClientMemoire@@QAEXHPAD0@Z 00456d37 f   ClMemoire.obj
 0001:00055d85       ??1ClientMemoire@@UAE@XZ   00456d85 f   ClMemoire.obj
 0001:00055e54       ?Reception@ClientMemoire@@UAEXXZ 00456e54 f   ClMemoire.obj
 0001:0005653c       ?NoticeModMem@ClientMemoire@@UAEXHPAVCMemoireRecu@@H@Z 0045753c f   ClMemoire.obj
 0001:0005664c       ?DeclareUtilisateur@ClientMemoire@@QAEHHPAD0@Z 0045764c f   ClMemoire.obj
 0001:0005679e       ?LitMemoire@ClientMemoire@@QAEHHAAVCString@@HH@Z 0045779e f   ClMemoire.obj
 0001:000569a8       ?DemandeMemoire@ClientMemoire@@QAEHHAAVCString@@HH@Z 004579a8 f   ClMemoire.obj
 0001:00056bd5       ?SupprimeDemandeMemoire@ClientMemoire@@QAEHHHH@Z 00457bd5 f   ClMemoire.obj
 0001:00056dcd       ?EcritMemoire@ClientMemoire@@QAEHHPADHH@Z 00457dcd f   ClMemoire.obj
 0001:00056f42       ?LitUneMemoire@ClientMemoire@@QAEHHAAVCString@@PAJHHH@Z 00457f42 f   ClMemoire.obj
 0001:0005716f       ?EcritUneMemoire@ClientMemoire@@QAEHHVCString@@JHHH@Z 0045816f f   ClMemoire.obj
 0001:00057321       ?EffaceUneMemoire@ClientMemoire@@QAEHHHH@Z 00458321 f   ClMemoire.obj
 0001:00057476       ?EffaceUneMemoireIndex@ClientMemoire@@QAEHHHHHH@Z 00458476 f   ClMemoire.obj
 0001:000575ef       ?LitIndexMaxMemoire@ClientMemoire@@QAEHHHH@Z 004585ef f   ClMemoire.obj
 0001:000577b5       ?OperationMemoire@ClientMemoire@@QAEHVCString@@H@Z 004587b5 f   ClMemoire.obj
 0001:0005791f       ?TestMemoire@ClientMemoire@@QAEHVCString@@H@Z 0045891f f   ClMemoire.obj
 0001:00057a89       ?Imprime@ClientMemoire@@QAEHPADH0H@Z 00458a89 f   ClMemoire.obj
 0001:00057bdd       ?Enregistre@ClientMemoire@@QAEHH@Z 00458bdd f   ClMemoire.obj
 0001:00057cf4       ?ArreteMemoire@ClientMemoire@@QAEHH@Z 00458cf4 f   ClMemoire.obj
 0001:00057e0b       ?ListeOperationMemoire@ClientMemoire@@QAEHAAVCString@@H@Z 00458e0b f   ClMemoire.obj
 0001:00057f51       ?ListeTestMemoire@ClientMemoire@@QAEHAAVCString@@H@Z 00458f51 f   ClMemoire.obj
 0001:00058097       ?AttentReconnexion@ClientMemoire@@UAEXXZ 00459097 f   ClMemoire.obj
 0001:000590b0       ?GetCount@CMapIntToPtr@@QBEHXZ 0045a0b0 f i ClMemoire.obj
 0001:000590d0       ?GetStartPosition@CMapIntToPtr@@QBEPAU__POSITION@@XZ 0045a0d0 f i ClMemoire.obj
 0001:000590f0       ??_Gt_valeur@@QAEPAXI@Z    0045a0f0 f i ClMemoire.obj
 0001:00059130       ??1t_valeur@@QAE@XZ        0045a130 f i ClMemoire.obj
 0001:00059150       ?SetAt@CMapIntToPtr@@QAEXHPAX@Z 0045a150 f i ClMemoire.obj
 0001:00059180       ??0t_valeur@@QAE@XZ        0045a180 f i ClMemoire.obj
 0001:000591a0       ?IsEmpty@CMapIntToPtr@@QBEHXZ 0045a1a0 f i ClMemoire.obj
 0001:000591c0       ??_EClientMemoire@@UAEPAXI@Z 0045a1c0 f i ClMemoire.obj
 0001:000591c0       ??_GClientMemoire@@UAEPAXI@Z 0045a1c0 f i ClMemoire.obj
 0001:00059200       ?NouveauGroupe@ClientOsysBd@@QAEHPAD0H@Z 0045a200 f   COsysBd.obj
 0001:00059341       ?SupprimeGroupe@ClientOsysBd@@QAEHHH@Z 0045a341 f   COsysBd.obj
 0001:00059476       ?ModifierNomGroupe@ClientOsysBd@@QAEHHPAD0H@Z 0045a476 f   COsysBd.obj
 0001:000595c3       ?LitNomGroupe@ClientOsysBd@@QAEHAAVCString@@HPADH@Z 0045a5c3 f   COsysBd.obj
 0001:00059752       ?RechercheNomGroupe@ClientOsysBd@@QAEHPAD0H@Z 0045a752 f   COsysBd.obj
 0001:000598b4       ?LitListeGroupe@ClientOsysBd@@QAEHAAVCString@@PADH@Z 0045a8b4 f   COsysBd.obj
 0001:00059a37       ?LitModifNomgroupe@ClientOsysBd@@QAEHAAVCString@@HH@Z 0045aa37 f   COsysBd.obj
 0001:00059bba       ?LitDateCreationGrp@ClientOsysBd@@QAEHHH@Z 0045abba f   COsysBd.obj
 0001:00059cef       ?AjouteElement@ClientOsysBd@@QAEHPADH000H@Z 0045acef f   COsysBd.obj
 0001:00059e8f       ?SupprimeElement@ClientOsysBd@@QAEHAAVCString@@HH@Z 0045ae8f f   COsysBd.obj
 0001:00059ffd       ?ModifierElement@ClientOsysBd@@QAEHPADHHH@Z 0045affd f   COsysBd.obj
 0001:0005a185       ?ModifierNomElement@ClientOsysBd@@QAEHHPAD0H@Z 0045b185 f   COsysBd.obj
 0001:0005a2cf       ?LitDefElement@ClientOsysBd@@QAEHAAVCString@@HPADH@Z 0045b2cf f   COsysBd.obj
 0001:0005a45e       ?LitDefExecElement@ClientOsysBd@@QAEHAAVCString@@HPADH@Z 0045b45e f   COsysBd.obj
 0001:0005a5ed       ?LitNomElement@ClientOsysBd@@QAEHAAVCString@@HPADH@Z 0045b5ed f   COsysBd.obj
 0001:0005a77c       ?LitListeElement@ClientOsysBd@@QAEHAAVCString@@HPADH@Z 0045b77c f   COsysBd.obj
 0001:0005a90b       ?LitModifElement@ClientOsysBd@@QAEHAAVCString@@HH@Z 0045b90b f   COsysBd.obj
 0001:0005aa8e       ?ModifierDroit@ClientOsysBd@@QAEHPADHH@Z 0045ba8e f   COsysBd.obj
 0001:0005ac0a       ?LitDroit@ClientOsysBd@@QAEHAAVCString@@HH@Z 0045bc0a f   COsysBd.obj
 0001:0005ad8d       ?RechercheIDCreation@ClientOsysBd@@QAEHHJH@Z 0045bd8d f   COsysBd.obj
 0001:0005aece       ?RechercheNomElement@ClientOsysBd@@QAEHPAD0H@Z 0045bece f   COsysBd.obj
 0001:0005b030       ?RechercheIdElement@ClientOsysBd@@QAEHPAD0H@Z 0045c030 f   COsysBd.obj
 0001:0005b192       ?ModifierDroitTousGroupe@ClientOsysBd@@QAEHPADHHH@Z 0045c192 f   COsysBd.obj
 0001:0005b31a       ??0ClientOsysBd@@QAE@PAVClientOsysSrv@@@Z 0045c31a f   COsysBd.obj
 0001:0005b332       ??1ClientOsysBd@@QAE@XZ    0045c332 f   COsysBd.obj
 0001:0005b346       ?ReserveCanal@ClientOsysBd@@QAEHH@Z 0045c346 f   COsysBd.obj
 0001:0005b46f       ?LibereCanal@ClientOsysBd@@QAEHHH@Z 0045c46f f   COsysBd.obj
 0001:0005b5a4       ?ExecuteRequete@ClientOsysBd@@QAEHHPADHHH0@Z 0045c5a4 f   COsysBd.obj
 0001:0005b71e       ?LitConfigBd@ClientOsysBd@@QAEHAAVCString@@H@Z 0045c71e f   COsysBd.obj
 0001:0005b895       ?EcritConfigBd@ClientOsysBd@@QAEHPADH@Z 0045c895 f   COsysBd.obj
 0001:0005ba05       ?LitTypeBd@ClientOsysBd@@QAEHPADH@Z 0045ca05 f   COsysBd.obj
 0001:0005bb3a       ?LitStructureBd@ClientOsysBd@@QAEHPADH@Z 0045cb3a f   COsysBd.obj
 0001:0005bca9       ?LitListeNomSGBD@ClientOsysBd@@QAEHAAVCString@@H@Z 0045cca9 f   COsysBd.obj
 0001:0005c930       ?NouveauGroupe@ClientOsysDecl@@QAEHPAD0H@Z 0045d930 f   COsysDecl.obj
 0001:0005ca71       ?SupprimeGroupe@ClientOsysDecl@@QAEHHH@Z 0045da71 f   COsysDecl.obj
 0001:0005cba6       ?ModifierNomGroupe@ClientOsysDecl@@QAEHHPAD0H@Z 0045dba6 f   COsysDecl.obj
 0001:0005ccf3       ?LitNomGroupe@ClientOsysDecl@@QAEHAAVCString@@HPADH@Z 0045dcf3 f   COsysDecl.obj
 0001:0005ce82       ?RechercheNomGroupe@ClientOsysDecl@@QAEHPAD0H@Z 0045de82 f   COsysDecl.obj
 0001:0005cfe4       ?LitListeGroupe@ClientOsysDecl@@QAEHAAVCString@@PADH@Z 0045dfe4 f   COsysDecl.obj
 0001:0005d167       ?LitModifNomgroupe@ClientOsysDecl@@QAEHAAVCString@@HH@Z 0045e167 f   COsysDecl.obj
 0001:0005d2ea       ?LitDateCreationGrp@ClientOsysDecl@@QAEHHH@Z 0045e2ea f   COsysDecl.obj
 0001:0005d41f       ?AjouteElement@ClientOsysDecl@@QAEHPADH000H@Z 0045e41f f   COsysDecl.obj
 0001:0005d5bf       ?SupprimeElement@ClientOsysDecl@@QAEHAAVCString@@HH@Z 0045e5bf f   COsysDecl.obj
 0001:0005d72d       ?ModifierElement@ClientOsysDecl@@QAEHPADHHH@Z 0045e72d f   COsysDecl.obj
 0001:0005d8b5       ?ModifierNomElement@ClientOsysDecl@@QAEHHPAD0H@Z 0045e8b5 f   COsysDecl.obj
 0001:0005d9ff       ?LitDefElement@ClientOsysDecl@@QAEHAAVCString@@HPADH@Z 0045e9ff f   COsysDecl.obj
 0001:0005db8e       ?LitDefExecElement@ClientOsysDecl@@QAEHAAVCString@@HPADH@Z 0045eb8e f   COsysDecl.obj
 0001:0005dd1d       ?LitNomElement@ClientOsysDecl@@QAEHAAVCString@@HPADH@Z 0045ed1d f   COsysDecl.obj
 0001:0005deac       ?LitListeElement@ClientOsysDecl@@QAEHAAVCString@@HPADH@Z 0045eeac f   COsysDecl.obj
 0001:0005e03b       ?LitModifElement@ClientOsysDecl@@QAEHAAVCString@@HH@Z 0045f03b f   COsysDecl.obj
 0001:0005e1be       ?ModifierDroit@ClientOsysDecl@@QAEHPADHH@Z 0045f1be f   COsysDecl.obj
 0001:0005e33a       ?LitDroit@ClientOsysDecl@@QAEHAAVCString@@HH@Z 0045f33a f   COsysDecl.obj
 0001:0005e4bd       ?RechercheIDCreation@ClientOsysDecl@@QAEHHJH@Z 0045f4bd f   COsysDecl.obj
 0001:0005e5fe       ?RechercheNomElement@ClientOsysDecl@@QAEHPAD0H@Z 0045f5fe f   COsysDecl.obj
 0001:0005e760       ?RechercheIdElement@ClientOsysDecl@@QAEHPAD0H@Z 0045f760 f   COsysDecl.obj
 0001:0005e8c2       ?ModifierDroitTousGroupe@ClientOsysDecl@@QAEHPADHHH@Z 0045f8c2 f   COsysDecl.obj
 0001:0005ea4a       ??0ClientOsysDecl@@QAE@PAVClientOsysSrv@@@Z 0045fa4a f   COsysDecl.obj
 0001:0005ea62       ??1ClientOsysDecl@@QAE@XZ  0045fa62 f   COsysDecl.obj
 0001:0005f2d0       ?NouveauGroupe@ClientOsysEtat@@QAEHPAD0H@Z 004602d0 f   COsysEtat.obj
 0001:0005f411       ?SupprimeGroupe@ClientOsysEtat@@QAEHHH@Z 00460411 f   COsysEtat.obj
 0001:0005f546       ?ModifierNomGroupe@ClientOsysEtat@@QAEHHPAD0H@Z 00460546 f   COsysEtat.obj
 0001:0005f693       ?LitNomGroupe@ClientOsysEtat@@QAEHAAVCString@@HPADH@Z 00460693 f   COsysEtat.obj
 0001:0005f822       ?RechercheNomGroupe@ClientOsysEtat@@QAEHPAD0H@Z 00460822 f   COsysEtat.obj
 0001:0005f984       ?LitListeGroupe@ClientOsysEtat@@QAEHAAVCString@@PADH@Z 00460984 f   COsysEtat.obj
 0001:0005fb07       ?LitModifNomgroupe@ClientOsysEtat@@QAEHAAVCString@@HH@Z 00460b07 f   COsysEtat.obj
 0001:0005fc8a       ?LitDateCreationGrp@ClientOsysEtat@@QAEHHH@Z 00460c8a f   COsysEtat.obj
 0001:0005fdbf       ?AjouteElement@ClientOsysEtat@@QAEHPADH000H@Z 00460dbf f   COsysEtat.obj
 0001:0005ff5f       ?SupprimeElement@ClientOsysEtat@@QAEHAAVCString@@HH@Z 00460f5f f   COsysEtat.obj
 0001:000600cd       ?ModifierElement@ClientOsysEtat@@QAEHPADHHH@Z 004610cd f   COsysEtat.obj
 0001:00060255       ?ModifierNomElement@ClientOsysEtat@@QAEHHPAD0H@Z 00461255 f   COsysEtat.obj
 0001:0006039f       ?LitDefElement@ClientOsysEtat@@QAEHAAVCString@@HPADH@Z 0046139f f   COsysEtat.obj
 0001:0006052e       ?LitDefExecElement@ClientOsysEtat@@QAEHAAVCString@@HPADH@Z 0046152e f   COsysEtat.obj
 0001:000606bd       ?LitNomElement@ClientOsysEtat@@QAEHAAVCString@@HPADH@Z 004616bd f   COsysEtat.obj
 0001:0006084c       ?LitListeElement@ClientOsysEtat@@QAEHAAVCString@@HPADH@Z 0046184c f   COsysEtat.obj
 0001:000609db       ?LitModifElement@ClientOsysEtat@@QAEHAAVCString@@HH@Z 004619db f   COsysEtat.obj
 0001:00060b5e       ?ModifierDroit@ClientOsysEtat@@QAEHPADHH@Z 00461b5e f   COsysEtat.obj
 0001:00060cda       ?LitDroit@ClientOsysEtat@@QAEHAAVCString@@HH@Z 00461cda f   COsysEtat.obj
 0001:00060e5d       ?RechercheIDCreation@ClientOsysEtat@@QAEHHJH@Z 00461e5d f   COsysEtat.obj
 0001:00060f9e       ?RechercheNomElement@ClientOsysEtat@@QAEHPAD0H@Z 00461f9e f   COsysEtat.obj
 0001:00061100       ?RechercheIdElement@ClientOsysEtat@@QAEHPAD0H@Z 00462100 f   COsysEtat.obj
 0001:00061262       ?ModifierDroitTousGroupe@ClientOsysEtat@@QAEHPADHHH@Z 00462262 f   COsysEtat.obj
 0001:000613ea       ??0ClientOsysEtat@@QAE@PAVClientOsysSrv@@@Z 004623ea f   COsysEtat.obj
 0001:00061402       ??1ClientOsysEtat@@QAE@XZ  00462402 f   COsysEtat.obj
 0001:00061416       ?LitNomFichierEtat@ClientOsysEtat@@QAEHAAVCString@@HH@Z 00462416 f   COsysEtat.obj
 0001:00061e50       ?NouveauGroupe@ClientOsysEvt@@QAEHPAD0H@Z 00462e50 f   COsysEvt.obj
 0001:00061f91       ?SupprimeGroupe@ClientOsysEvt@@QAEHHH@Z 00462f91 f   COsysEvt.obj
 0001:000620c6       ?ModifierNomGroupe@ClientOsysEvt@@QAEHHPAD0H@Z 004630c6 f   COsysEvt.obj
 0001:00062213       ?LitNomGroupe@ClientOsysEvt@@QAEHAAVCString@@HPADH@Z 00463213 f   COsysEvt.obj
 0001:000623a2       ?RechercheNomGroupe@ClientOsysEvt@@QAEHPAD0H@Z 004633a2 f   COsysEvt.obj
 0001:00062504       ?LitListeGroupe@ClientOsysEvt@@QAEHAAVCString@@PADH@Z 00463504 f   COsysEvt.obj
 0001:00062687       ?LitModifNomgroupe@ClientOsysEvt@@QAEHAAVCString@@HH@Z 00463687 f   COsysEvt.obj
 0001:0006280a       ?LitDateCreationGrp@ClientOsysEvt@@QAEHHH@Z 0046380a f   COsysEvt.obj
 0001:0006293f       ?AjouteElement@ClientOsysEvt@@QAEHPADH000H@Z 0046393f f   COsysEvt.obj
 0001:00062adf       ?SupprimeElement@ClientOsysEvt@@QAEHAAVCString@@HH@Z 00463adf f   COsysEvt.obj
 0001:00062c4d       ?ModifierElement@ClientOsysEvt@@QAEHPADHHH@Z 00463c4d f   COsysEvt.obj
 0001:00062dd5       ?ModifierNomElement@ClientOsysEvt@@QAEHHPAD0H@Z 00463dd5 f   COsysEvt.obj
 0001:00062f1f       ?LitDefElement@ClientOsysEvt@@QAEHAAVCString@@HPADH@Z 00463f1f f   COsysEvt.obj
 0001:000630ae       ?LitDefExecElement@ClientOsysEvt@@QAEHAAVCString@@HPADH@Z 004640ae f   COsysEvt.obj
 0001:0006323d       ?LitNomElement@ClientOsysEvt@@QAEHAAVCString@@HPADH@Z 0046423d f   COsysEvt.obj
 0001:000633cc       ?LitListeElement@ClientOsysEvt@@QAEHAAVCString@@HPADH@Z 004643cc f   COsysEvt.obj
 0001:0006355b       ?LitModifElement@ClientOsysEvt@@QAEHAAVCString@@HH@Z 0046455b f   COsysEvt.obj
 0001:000636de       ?ModifierDroit@ClientOsysEvt@@QAEHPADHH@Z 004646de f   COsysEvt.obj
 0001:0006385a       ?LitDroit@ClientOsysEvt@@QAEHAAVCString@@HH@Z 0046485a f   COsysEvt.obj
 0001:000639dd       ?RechercheIDCreation@ClientOsysEvt@@QAEHHJH@Z 004649dd f   COsysEvt.obj
 0001:00063b1e       ?RechercheNomElement@ClientOsysEvt@@QAEHPAD0H@Z 00464b1e f   COsysEvt.obj
 0001:00063c80       ?RechercheIdElement@ClientOsysEvt@@QAEHPAD0H@Z 00464c80 f   COsysEvt.obj
 0001:00063de2       ?ModifierDroitTousGroupe@ClientOsysEvt@@QAEHPADHHH@Z 00464de2 f   COsysEvt.obj
 0001:00063f6a       ??0ClientOsysEvt@@QAE@PAVClientOsysSrv@@@Z 00464f6a f   COsysEvt.obj
 0001:00063f82       ??1ClientOsysEvt@@QAE@XZ   00464f82 f   COsysEvt.obj
 0001:000647f0       ??0ClientOsysFichier@@QAE@PAVClientOsysSrv@@@Z 004657f0 f   COsysFichier.obj
 0001:00064813       ??1ClientOsysFichier@@QAE@XZ 00465813 f   COsysFichier.obj
 0001:0006486a       ?LitFichier@ClientOsysFichier@@QAEHAAVCFichierLocal@@PAD1HHH@Z 0046586a f   COsysFichier.obj
 0001:000649ce       ?LitInfoFic@ClientOsysFichier@@QAEHAAVCString@@PAD1HH@Z 004659ce f   COsysFichier.obj
 0001:00064b69       ?InsereDonneeFicLocal@ClientOsysFichier@@IAEXAAVCFichierLocal@@AAVCString@@@Z 00465b69 f   COsysFichier.obj
 0001:00064bf5       ?LitContenuFichier@ClientOsysFichier@@QAEHAAVCString@@PAD1HH@Z 00465bf5 f   COsysFichier.obj
 0001:00064d90       ?TestFichierDroitEcriture@ClientOsysFichier@@QAEHAAVCFichierLocal@@PAD1HH@Z 00465d90 f   COsysFichier.obj
 0001:00064f20       ?EcritFichier@ClientOsysFichier@@QAEHPAD00HH@Z 00465f20 f   COsysFichier.obj
 0001:00065081       ?AjoutRep@ClientOsysFichier@@QAEHPAD0HH@Z 00466081 f   COsysFichier.obj
 0001:000651ce       ?SupprimeFic@ClientOsysFichier@@QAEHPAD0HH@Z 004661ce f   COsysFichier.obj
 0001:0006531b       ?SupprimeRep@ClientOsysFichier@@QAEHPAD0HH@Z 0046631b f   COsysFichier.obj
 0001:00065468       ?LitListeFicRep@ClientOsysFichier@@QAEHAAVCString@@PADH1H@Z 00466468 f   COsysFichier.obj
 0001:00065603       ?RenommeFic@ClientOsysFichier@@QAEHPAD00HH@Z 00466603 f   COsysFichier.obj
 0001:0006575c       ?RenommeRep@ClientOsysFichier@@QAEHPAD00HH@Z 0046675c f   COsysFichier.obj
 0001:00065cf0       ?NouveauGroupe@ClientOsysLPX@@QAEHPAD0H@Z 00466cf0 f   COsysLPX.obj
 0001:00065e31       ?SupprimeGroupe@ClientOsysLPX@@QAEHHH@Z 00466e31 f   COsysLPX.obj
 0001:00065f66       ?ModifierNomGroupe@ClientOsysLPX@@QAEHHPAD0H@Z 00466f66 f   COsysLPX.obj
 0001:000660b3       ?LitNomGroupe@ClientOsysLPX@@QAEHAAVCString@@HPADH@Z 004670b3 f   COsysLPX.obj
 0001:00066242       ?RechercheNomGroupe@ClientOsysLPX@@QAEHPAD0H@Z 00467242 f   COsysLPX.obj
 0001:000663a4       ?LitListeGroupe@ClientOsysLPX@@QAEHAAVCString@@PADH@Z 004673a4 f   COsysLPX.obj
 0001:00066527       ?LitModifNomgroupe@ClientOsysLPX@@QAEHAAVCString@@HH@Z 00467527 f   COsysLPX.obj
 0001:000666aa       ?LitDateCreationGrp@ClientOsysLPX@@QAEHHH@Z 004676aa f   COsysLPX.obj
 0001:000667df       ?AjouteElement@ClientOsysLPX@@QAEHPADH000H@Z 004677df f   COsysLPX.obj
 0001:0006697f       ?SupprimeElement@ClientOsysLPX@@QAEHAAVCString@@HH@Z 0046797f f   COsysLPX.obj
 0001:00066aed       ?ModifierElement@ClientOsysLPX@@QAEHPADHHH@Z 00467aed f   COsysLPX.obj
 0001:00066c75       ?ModifierNomElement@ClientOsysLPX@@QAEHHPAD0H@Z 00467c75 f   COsysLPX.obj
 0001:00066dbf       ?LitDefElement@ClientOsysLPX@@QAEHAAVCString@@HPADH@Z 00467dbf f   COsysLPX.obj
 0001:00066f4e       ?LitDefExecElement@ClientOsysLPX@@QAEHAAVCString@@HPADH@Z 00467f4e f   COsysLPX.obj
 0001:000670dd       ?LitNomElement@ClientOsysLPX@@QAEHAAVCString@@HPADH@Z 004680dd f   COsysLPX.obj
 0001:0006726c       ?LitListeElement@ClientOsysLPX@@QAEHAAVCString@@HPADH@Z 0046826c f   COsysLPX.obj
 0001:000673fb       ?LitModifElement@ClientOsysLPX@@QAEHAAVCString@@HH@Z 004683fb f   COsysLPX.obj
 0001:0006757e       ?ModifierDroit@ClientOsysLPX@@QAEHPADHH@Z 0046857e f   COsysLPX.obj
 0001:000676fa       ?LitDroit@ClientOsysLPX@@QAEHAAVCString@@HH@Z 004686fa f   COsysLPX.obj
 0001:0006787d       ?RechercheIDCreation@ClientOsysLPX@@QAEHHJH@Z 0046887d f   COsysLPX.obj
 0001:000679be       ?RechercheNomElement@ClientOsysLPX@@QAEHPAD0H@Z 004689be f   COsysLPX.obj
 0001:00067b20       ?RechercheIdElement@ClientOsysLPX@@QAEHPAD0H@Z 00468b20 f   COsysLPX.obj
 0001:00067c82       ?ModifierDroitTousGroupe@ClientOsysLPX@@QAEHPADHHH@Z 00468c82 f   COsysLPX.obj
 0001:00067e0a       ??0ClientOsysLPX@@QAE@PAVClientOsysSrv@@@Z 00468e0a f   COsysLPX.obj
 0001:00067e22       ??1ClientOsysLPX@@QAE@XZ   00468e22 f   COsysLPX.obj
 0001:00067e36       ?CompileFic@ClientOsysLPX@@QAEHHHH@Z 00468e36 f   COsysLPX.obj
 0001:00067f77       ?CompileUnFicLPX@ClientOsysLPX@@QAEHAAVCString@@HHH@Z 00468f77 f   COsysLPX.obj
 0001:00068106       ?AjouteLpxLocal@ClientOsysLPX@@QAEHPADHH@Z 00469106 f   COsysLPX.obj
 0001:00068282       ?SupprimeLpxLocal@ClientOsysLPX@@QAEHHHH@Z 00469282 f   COsysLPX.obj
 0001:000683c3       ?ModifierLpxLocal@ClientOsysLPX@@QAEHPADHHH@Z 004693c3 f   COsysLPX.obj
 0001:0006854b       ?LitLpxLocal@ClientOsysLPX@@QAEHAAVCString@@HHPADH@Z 0046954b f   COsysLPX.obj
 0001:000686e6       ?LitErreurLpxLocal@ClientOsysLPX@@QAEHAAVCString@@HHH@Z 004696e6 f   COsysLPX.obj
 0001:00068875       ?LitListeLpxLocal@ClientOsysLPX@@QAEHAAVCString@@HPADH@Z 00469875 f   COsysLPX.obj
 0001:00068a04       ?ExecuteLpx@ClientOsysLPX@@QAEHHPAD0VCListPeriph@@H@Z 00469a04 f   COsysLPX.obj
 0001:00068b68       ?LitListeScenEncours@ClientOsysLPX@@QAEHAAVCString@@H@Z 00469b68 f   COsysLPX.obj
 0001:00068cdf       ?ArretScenario@ClientOsysLPX@@QAEHHH@Z 00469cdf f   COsysLPX.obj
 0001:00068e14       ?LitFicLPXErreur@ClientOsysLPX@@QAEHAAVCString@@HH@Z 00469e14 f   COsysLPX.obj
 0001:00068f97       ?UtiliseAction@ClientOsysLPX@@QAEHAAVCString@@HHPADH@Z 00469f97 f   COsysLPX.obj
 0001:00069132       ?LitConfigScenAttente@ClientOsysLPX@@QAEHAAVCString@@H@Z 0046a132 f   COsysLPX.obj
 0001:000692a9       ?EcritConfigScenAttente@ClientOsysLPX@@QAEHPADH@Z 0046a2a9 f   COsysLPX.obj
 0001:0006a1f0       ?NouveauGroupe@ClientOsysMem@@QAEHPAD0H@Z 0046b1f0 f   COsysMem.obj
 0001:0006a331       ?SupprimeGroupe@ClientOsysMem@@QAEHHH@Z 0046b331 f   COsysMem.obj
 0001:0006a466       ?ModifierNomGroupe@ClientOsysMem@@QAEHHPAD0H@Z 0046b466 f   COsysMem.obj
 0001:0006a5b3       ?LitNomGroupe@ClientOsysMem@@QAEHAAVCString@@HPADH@Z 0046b5b3 f   COsysMem.obj
 0001:0006a742       ?RechercheNomGroupe@ClientOsysMem@@QAEHPAD0H@Z 0046b742 f   COsysMem.obj
 0001:0006a8a4       ?LitListeGroupe@ClientOsysMem@@QAEHAAVCString@@PADH@Z 0046b8a4 f   COsysMem.obj
 0001:0006aa27       ?LitModifNomgroupe@ClientOsysMem@@QAEHAAVCString@@HH@Z 0046ba27 f   COsysMem.obj
 0001:0006abaa       ?LitDateCreationGrp@ClientOsysMem@@QAEHHH@Z 0046bbaa f   COsysMem.obj
 0001:0006acdf       ?AjouteElement@ClientOsysMem@@QAEHPADH000H@Z 0046bcdf f   COsysMem.obj
 0001:0006ae7f       ?SupprimeElement@ClientOsysMem@@QAEHAAVCString@@HH@Z 0046be7f f   COsysMem.obj
 0001:0006afed       ?ModifierElement@ClientOsysMem@@QAEHPADHHH@Z 0046bfed f   COsysMem.obj
 0001:0006b175       ?ModifierNomElement@ClientOsysMem@@QAEHHPAD0H@Z 0046c175 f   COsysMem.obj
 0001:0006b2bf       ?LitDefElement@ClientOsysMem@@QAEHAAVCString@@HPADH@Z 0046c2bf f   COsysMem.obj
 0001:0006b44e       ?LitDefExecElement@ClientOsysMem@@QAEHAAVCString@@HPADH@Z 0046c44e f   COsysMem.obj
 0001:0006b5dd       ?LitNomElement@ClientOsysMem@@QAEHAAVCString@@HPADH@Z 0046c5dd f   COsysMem.obj
 0001:0006b76c       ?LitListeElement@ClientOsysMem@@QAEHAAVCString@@HPADH@Z 0046c76c f   COsysMem.obj
 0001:0006b8fb       ?LitModifElement@ClientOsysMem@@QAEHAAVCString@@HH@Z 0046c8fb f   COsysMem.obj
 0001:0006ba7e       ?ModifierDroit@ClientOsysMem@@QAEHPADHH@Z 0046ca7e f   COsysMem.obj
 0001:0006bbfa       ?LitDroit@ClientOsysMem@@QAEHAAVCString@@HH@Z 0046cbfa f   COsysMem.obj
 0001:0006bd7d       ?RechercheIDCreation@ClientOsysMem@@QAEHHJH@Z 0046cd7d f   COsysMem.obj
 0001:0006bebe       ?RechercheNomElement@ClientOsysMem@@QAEHPAD0H@Z 0046cebe f   COsysMem.obj
 0001:0006c020       ?RechercheIdElement@ClientOsysMem@@QAEHPAD0H@Z 0046d020 f   COsysMem.obj
 0001:0006c182       ?ModifierDroitTousGroupe@ClientOsysMem@@QAEHPADHHH@Z 0046d182 f   COsysMem.obj
 0001:0006c30a       ??0ClientOsysMem@@QAE@PAVClientOsysSrv@@@Z 0046d30a f   COsysMem.obj
 0001:0006c322       ??1ClientOsysMem@@QAE@XZ   0046d322 f   COsysMem.obj
 0001:0006cb90       ?NouveauGroupe@ClientOsysPageHTML@@QAEHPAD0H@Z 0046db90 f   COsysPageHTML.obj
 0001:0006ccd1       ?SupprimeGroupe@ClientOsysPageHTML@@QAEHHH@Z 0046dcd1 f   COsysPageHTML.obj
 0001:0006ce06       ?ModifierNomGroupe@ClientOsysPageHTML@@QAEHHPAD0H@Z 0046de06 f   COsysPageHTML.obj
 0001:0006cf53       ?LitNomGroupe@ClientOsysPageHTML@@QAEHAAVCString@@HPADH@Z 0046df53 f   COsysPageHTML.obj
 0001:0006d0e2       ?RechercheNomGroupe@ClientOsysPageHTML@@QAEHPAD0H@Z 0046e0e2 f   COsysPageHTML.obj
 0001:0006d244       ?LitListeGroupe@ClientOsysPageHTML@@QAEHAAVCString@@PADH@Z 0046e244 f   COsysPageHTML.obj
 0001:0006d3c7       ?LitModifNomgroupe@ClientOsysPageHTML@@QAEHAAVCString@@HH@Z 0046e3c7 f   COsysPageHTML.obj
 0001:0006d54a       ?LitDateCreationGrp@ClientOsysPageHTML@@QAEHHH@Z 0046e54a f   COsysPageHTML.obj
 0001:0006d67f       ?AjouteElement@ClientOsysPageHTML@@QAEHPADH000H@Z 0046e67f f   COsysPageHTML.obj
 0001:0006d81f       ?SupprimeElement@ClientOsysPageHTML@@QAEHAAVCString@@HH@Z 0046e81f f   COsysPageHTML.obj
 0001:0006d98d       ?ModifierElement@ClientOsysPageHTML@@QAEHPADHHH@Z 0046e98d f   COsysPageHTML.obj
 0001:0006db15       ?ModifierNomElement@ClientOsysPageHTML@@QAEHHPAD0H@Z 0046eb15 f   COsysPageHTML.obj
 0001:0006dc5f       ?LitDefElement@ClientOsysPageHTML@@QAEHAAVCString@@HPADH@Z 0046ec5f f   COsysPageHTML.obj
 0001:0006ddee       ?LitDefExecElement@ClientOsysPageHTML@@QAEHAAVCString@@HPADH@Z 0046edee f   COsysPageHTML.obj
 0001:0006df7d       ?LitNomElement@ClientOsysPageHTML@@QAEHAAVCString@@HPADH@Z 0046ef7d f   COsysPageHTML.obj
 0001:0006e10c       ?LitListeElement@ClientOsysPageHTML@@QAEHAAVCString@@HPADH@Z 0046f10c f   COsysPageHTML.obj
 0001:0006e29b       ?LitModifElement@ClientOsysPageHTML@@QAEHAAVCString@@HH@Z 0046f29b f   COsysPageHTML.obj
 0001:0006e41e       ?ModifierDroit@ClientOsysPageHTML@@QAEHPADHH@Z 0046f41e f   COsysPageHTML.obj
 0001:0006e59a       ?LitDroit@ClientOsysPageHTML@@QAEHAAVCString@@HH@Z 0046f59a f   COsysPageHTML.obj
 0001:0006e71d       ?RechercheIDCreation@ClientOsysPageHTML@@QAEHHJH@Z 0046f71d f   COsysPageHTML.obj
 0001:0006e85e       ?RechercheNomElement@ClientOsysPageHTML@@QAEHPAD0H@Z 0046f85e f   COsysPageHTML.obj
 0001:0006e9c0       ?RechercheIdElement@ClientOsysPageHTML@@QAEHPAD0H@Z 0046f9c0 f   COsysPageHTML.obj
 0001:0006eb22       ?ModifierDroitTousGroupe@ClientOsysPageHTML@@QAEHPADHHH@Z 0046fb22 f   COsysPageHTML.obj
 0001:0006ecaa       ??0ClientOsysPageHTML@@QAE@PAVClientOsysSrv@@@Z 0046fcaa f   COsysPageHTML.obj
 0001:0006ecc2       ??1ClientOsysPageHTML@@QAE@XZ 0046fcc2 f   COsysPageHTML.obj
 0001:0006f530       ??0ClientOsysSrv@@QAE@PADH0@Z 00470530 f   COsysSrv.obj
 0001:0006f680       ??0ClientOsysSrv@@QAE@HPAD0@Z 00470680 f   COsysSrv.obj
 0001:0006f776       ??1ClientOsysSrv@@UAE@XZ   00470776 f   COsysSrv.obj
 0001:0006f85d       ?Reception@ClientOsysSrv@@UAEXXZ 0047085d f   COsysSrv.obj
 0001:000703fa       ?DeclareUtilisateur@ClientOsysSrv@@QAEHHPAD000@Z 004713fa f   COsysSrv.obj
 0001:0007056c       ?LectureConfiguration@ClientOsysSrv@@QAEHHAAVCString@@@Z 0047156c f   COsysSrv.obj
 0001:000706dc       ?EcritureConfiguration@ClientOsysSrv@@QAEHHVCString@@@Z 004716dc f   COsysSrv.obj
 0001:00070857       ?LitMessage@ClientOsysSrv@@QAEHAAVCString@@HPADH@Z 00471857 f   COsysSrv.obj
 0001:000709c6       ?LitMessageDictionnaire@ClientOsysSrv@@QAEHAAVCString@@PAD1H@Z 004719c6 f   COsysSrv.obj
 0001:00070b47       ?EventData@ClientOsysSrv@@UAEXPAVCDataArchive@@@Z 00471b47 f   COsysSrv.obj
 0001:00070e06       ?LitResultatRequete@ClientOsysSrv@@QAEXAAVCResultatRequete@@@Z 00471e06 f   COsysSrv.obj
 0001:00070e43       ?EcritResultatRequete@ClientOsysSrv@@QAEXAAVCResultatRequete@@@Z 00471e43 f   COsysSrv.obj
 0001:00070f23       ?AttentReconnexion@ClientOsysSrv@@UAEXXZ 00471f23 f   COsysSrv.obj
 0001:00070f4c       ?ArretServeur@ClientOsysSrv@@QAEHHHH@Z 00471f4c f   COsysSrv.obj
 0001:000710a1       ?LectureLstUserConnecte@ClientOsysSrv@@QAEHAAVCString@@PADH@Z 004720a1 f   COsysSrv.obj
 0001:00071222       ?SupprimeConnexion@ClientOsysSrv@@QAEHHJH@Z 00472222 f   COsysSrv.obj
 0001:0007138a       ?LitVersionInterneMoteur@ClientOsysSrv@@QAEHH@Z 0047238a f   COsysSrv.obj
 0001:000714b9       ?LitVersionMoteur@ClientOsysSrv@@QAEHAAVCString@@H@Z 004724b9 f   COsysSrv.obj
 0001:00071615       ?LitNbLicence@ClientOsysSrv@@QAEHAAVCString@@H@Z 00472615 f   COsysSrv.obj
 0001:00071771       ?EnvoiInitOK@ClientOsysSrv@@QAEHH@Z 00472771 f   COsysSrv.obj
 0001:000718a0       ?ActualiseLstFicLangue@ClientOsysSrv@@QAEHH@Z 004728a0 f   COsysSrv.obj
 0001:000722c0       ??_GClientOsysSrv@@UAEPAXI@Z 004732c0 f i COsysSrv.obj
 0001:000722c0       ??_EClientOsysSrv@@UAEPAXI@Z 004732c0 f i COsysSrv.obj
 0001:00072300       ?LitErreur@CListCStructureTable@@QAEHXZ 00473300 f i COsysSrv.obj
 0001:00072320       ??_GCDataArchive@@QAEPAXI@Z 00473320 f i COsysSrv.obj
 0001:00072360       ??0ClientOsysSrvWeb@@QAE@PAVClientOsysSrv@@@Z 00473360 f   COsysSrvWeb.obj
 0001:00072378       ??1ClientOsysSrvWeb@@QAE@XZ 00473378 f   COsysSrvWeb.obj
 0001:0007238c       ?LitConfSrvHTTP@ClientOsysSrvWeb@@QAEHAAVCString@@H@Z 0047338c f   COsysSrvWeb.obj
 0001:00072503       ?ModifierConfSrvWEB@ClientOsysSrvWeb@@QAEHPADH@Z 00473503 f   COsysSrvWeb.obj
 0001:00072673       ?PortSrvWeb@ClientOsysSrvWeb@@QAEHH@Z 00473673 f   COsysSrvWeb.obj
 0001:000728e0       ??0ClientOsysTrc@@QAE@PAVClientOsysSrv@@@Z 004738e0 f   COsysTrace.obj
 0001:000728f8       ??1ClientOsysTrc@@QAE@XZ   004738f8 f   COsysTrace.obj
 0001:0007290c       ?LitNiveauDebug@ClientOsysTrc@@QAEHHH@Z 0047390c f   COsysTrace.obj
 0001:00072a41       ?EcritNiveauDebug@ClientOsysTrc@@QAEHHHHH@Z 00473a41 f   COsysTrace.obj
 0001:00072b8e       ?SupprimeDebug@ClientOsysTrc@@QAEHHHH@Z 00473b8e f   COsysTrace.obj
 0001:00072ccf       ?LitConfiguration@ClientOsysTrc@@QAEHAAVCString@@H@Z 00473ccf f   COsysTrace.obj
 0001:00072e46       ?EcritConfiguration@ClientOsysTrc@@QAEHPADH@Z 00473e46 f   COsysTrace.obj
 0001:00072fb6       ?ListeDebug@ClientOsysTrc@@QAEHAAVCString@@PADH@Z 00473fb6 f   COsysTrace.obj
 0001:00073139       ?EcritInfoDebug@ClientOsysTrc@@QAEHHHHPADHPAPADHH@Z 00474139 f   COsysTrace.obj
 0001:00073560       ?NouveauGroupe@ClientOsysUser@@QAEHPAD0H@Z 00474560 f   COsysUser.obj
 0001:000736a1       ?SupprimeGroupe@ClientOsysUser@@QAEHHH@Z 004746a1 f   COsysUser.obj
 0001:000737d6       ?ModifierNomGroupe@ClientOsysUser@@QAEHHPAD0H@Z 004747d6 f   COsysUser.obj
 0001:00073923       ?LitNomGroupe@ClientOsysUser@@QAEHAAVCString@@HPADH@Z 00474923 f   COsysUser.obj
 0001:00073ab2       ?RechercheNomGroupe@ClientOsysUser@@QAEHPAD0H@Z 00474ab2 f   COsysUser.obj
 0001:00073c14       ?LitListeGroupe@ClientOsysUser@@QAEHAAVCString@@PADH@Z 00474c14 f   COsysUser.obj
 0001:00073d97       ?LitModifNomgroupe@ClientOsysUser@@QAEHAAVCString@@HH@Z 00474d97 f   COsysUser.obj
 0001:00073f1a       ?LitDateCreationGrp@ClientOsysUser@@QAEHHH@Z 00474f1a f   COsysUser.obj
 0001:0007404f       ?AjouteElement@ClientOsysUser@@QAEHPADH000H@Z 0047504f f   COsysUser.obj
 0001:000741ef       ?SupprimeElement@ClientOsysUser@@QAEHAAVCString@@HH@Z 004751ef f   COsysUser.obj
 0001:0007435d       ?ModifierElement@ClientOsysUser@@QAEHPADHHH@Z 0047535d f   COsysUser.obj
 0001:000744e5       ?ModifierNomElement@ClientOsysUser@@QAEHHPAD0H@Z 004754e5 f   COsysUser.obj
 0001:0007462f       ?LitDefElement@ClientOsysUser@@QAEHAAVCString@@HPADH@Z 0047562f f   COsysUser.obj
 0001:000747be       ?LitDefExecElement@ClientOsysUser@@QAEHAAVCString@@HPADH@Z 004757be f   COsysUser.obj
 0001:0007494d       ?LitNomElement@ClientOsysUser@@QAEHAAVCString@@HPADH@Z 0047594d f   COsysUser.obj
 0001:00074adc       ?LitListeElement@ClientOsysUser@@QAEHAAVCString@@HPADH@Z 00475adc f   COsysUser.obj
 0001:00074c6b       ?LitModifElement@ClientOsysUser@@QAEHAAVCString@@HH@Z 00475c6b f   COsysUser.obj
 0001:00074dee       ?ModifierDroit@ClientOsysUser@@QAEHPADHH@Z 00475dee f   COsysUser.obj
 0001:00074f6a       ?LitDroit@ClientOsysUser@@QAEHAAVCString@@HH@Z 00475f6a f   COsysUser.obj
 0001:000750ed       ?RechercheIDCreation@ClientOsysUser@@QAEHHJH@Z 004760ed f   COsysUser.obj
 0001:0007522e       ?RechercheNomElement@ClientOsysUser@@QAEHPAD0H@Z 0047622e f   COsysUser.obj
 0001:00075390       ?RechercheIdElement@ClientOsysUser@@QAEHPAD0H@Z 00476390 f   COsysUser.obj
 0001:000754f2       ?ModifierDroitTousGroupe@ClientOsysUser@@QAEHPADHHH@Z 004764f2 f   COsysUser.obj
 0001:0007567a       ??0ClientOsysUser@@QAE@PAVClientOsysSrv@@@Z 0047667a f   COsysUser.obj
 0001:00075692       ??1ClientOsysUser@@QAE@XZ  00476692 f   COsysUser.obj
 0001:000756a6       ?LitListeIP@ClientOsysUser@@QAEHAAVCString@@H@Z 004766a6 f   COsysUser.obj
 0001:0007581d       ?AjoutMasqueIP@ClientOsysUser@@QAEHPADH@Z 0047681d f   COsysUser.obj
 0001:00075952       ?SupprimeMasqueIp@ClientOsysUser@@QAEHPADH@Z 00476952 f   COsysUser.obj
 0001:00075a87       ?LitDescUser@ClientOsysUser@@QAEHAAVCString@@HPADH@Z 00476a87 f   COsysUser.obj
 0001:00075c16       ?LitIdFenetreDefaut@ClientOsysUser@@QAEHH@Z 00476c16 f   COsysUser.obj
 0001:00075d60       ?LitLangueUser@ClientOsysUser@@QAEHAAVCString@@H@Z 00476d60 f   COsysUser.obj
 0001:00075ed7       ?LitDroitAdministration@ClientOsysUser@@QAEHAAVCString@@H@Z 00476ed7 f   COsysUser.obj
 0001:0007604e       ?ModifierDroitAdm@ClientOsysUser@@QAEHPADH@Z 0047704e f   COsysUser.obj
 0001:000761be       ?EnvoiMessageDriver@ClientOsysUser@@QAEHHPADJHH@Z 004771be f   COsysUser.obj
 0001:0007635c       ?LitListeDrivers@ClientOsysUser@@QAEHAAVCString@@PADH@Z 0047735c f   COsysUser.obj
 0001:000764df       ?LitPropDriver@ClientOsysUser@@QAEHAAVCString@@PADH@Z 004774df f   COsysUser.obj
 0001:00076662       ?LitCfgDriver@ClientOsysUser@@QAEHAAVCString@@H@Z 00477662 f   COsysUser.obj
 0001:000767d9       ?ArretDriver@ClientOsysUser@@QAEHH@Z 004777d9 f   COsysUser.obj
 0001:00076902       ?UtiliseNomMachine@ClientOsysUser@@QAEHPADHH@Z 00477902 f   COsysUser.obj
 0001:00076a43       ?ModifierUser@ClientOsysUser@@QAEHPAD0HH@Z 00477a43 f   COsysUser.obj
 0001:00076a8b       ?LitLancDriver@ClientOsysUser@@QAEHH@Z 00477a8b f   COsysUser.obj
 0001:00076bb4       ?LitTimeoutFenetreDefaut@ClientOsysUser@@QAEHH@Z 00477bb4 f   COsysUser.obj
 0001:00076cfe       ?LitTypeLancementDriver@ClientOsysUser@@QAEHH@Z 00477cfe f   COsysUser.obj
 0001:00077c60       ?FiltreLangue@CGestionLangue@@SAXPADAAVCString@@@Z 00478c60 f   GestionLangue.obj
 0001:00077da0       ??0CListDateFormat@@QAE@XZ 00478da0 f   ListDateFormat.obj
 0001:00077e1e       ??1CListDateFormat@@QAE@XZ 00478e1e f   ListDateFormat.obj
 0001:00077e6d       ?FormateDateAvecFormat@CListDateFormat@@SAXPADJAAVCString@@@Z 00478e6d f   ListDateFormat.obj
 0001:00077f83       ?Ajoute@CListDateFormat@@QAEXPAD0@Z 00478f83 f   ListDateFormat.obj
 0001:000780af       ?SupprimeTout@CListDateFormat@@QAEXXZ 004790af f   ListDateFormat.obj
 0001:00078170       ?FormateDate@CListDateFormat@@QAEXPADJAAVCString@@@Z 00479170 f   ListDateFormat.obj
 0001:00078251       ?FormateDateHeure@CListDateFormat@@QAEXPADJAAVCString@@@Z 00479251 f   ListDateFormat.obj
 0001:000782ba       ?FormateDateMemoire@CListDateFormat@@SAXJAAVCString@@PAD@Z 004792ba f   ListDateFormat.obj
 0001:000782d4       ?FormateDateHeureMemoire@CListDateFormat@@SAXJAAVCString@@PAD@Z 004792d4 f   ListDateFormat.obj
 0001:00078354       ?FormateHeureMemoire@CListDateFormat@@SAXJAAVCString@@PAD@Z 00479354 f   ListDateFormat.obj
 0001:000783a4       ?FormateDureeMemoire@CListDateFormat@@SAXJAAVCString@@PAD@Z 004793a4 f   ListDateFormat.obj
 0001:00078415       ?EcritArchive@CListDateFormat@@QAEXAAVCOutputArchive@@@Z 00479415 f   ListDateFormat.obj
 0001:0007850e       ?LitArchive@CListDateFormat@@QAEXAAVCInputArchive@@@Z 0047950e f   ListDateFormat.obj
 0001:0007861f       ?Imprime@CListDateFormat@@QAEXAAVCImprime@@@Z 0047961f f   ListDateFormat.obj
 0001:00078960       ?SetAt@CMapStringToPtr@@QAEXPBDPAX@Z 00479960 f i ListDateFormat.obj
 0001:00078990       ?GetStartPosition@CMapStringToPtr@@QBEPAU__POSITION@@XZ 00479990 f i ListDateFormat.obj
 0001:000789b0       ??0CListUser@@QAE@XZ       004799b0 f   ListUser.obj
 0001:00078a2e       ??1CListUser@@UAE@XZ       00479a2e f   ListUser.obj
 0001:00078a77       ?SupprimeTout@CListUser@@QAEXXZ 00479a77 f   ListUser.obj
 0001:00078ae9       ?AjouteElement@CListUser@@QAEXHHH@Z 00479ae9 f   ListUser.obj
 0001:00078b2f       ?LitArchive@CListUser@@QAEHAAVCInputArchive@@@Z 00479b2f f   ListUser.obj
 0001:00078c66       ?EcritArchive@CListUser@@QAEHAAVCOutputArchive@@@Z 00479c66 f   ListUser.obj
 0001:00078d12       ?Test@CListUser@@QAEHH@Z   00479d12 f   ListUser.obj
 0001:00078e90       ??_GCListUser@@UAEPAXI@Z   00479e90 f i ListUser.obj
 0001:00078e90       ??_ECListUser@@UAEPAXI@Z   00479e90 f i ListUser.obj
 0001:00078ed0       ??_GCTabPtr@@QAEPAXI@Z     00479ed0 f i ListUser.obj
 0001:00078f10       ??0CConfOsysBd@@QAE@XZ     00479f10 f   ConfOsysBd.obj
 0001:00078fac       ??1CConfOsysBd@@QAE@XZ     00479fac f   ConfOsysBd.obj
 0001:00079037       ?LitArchive@CConfOsysBd@@QAEHAAVCInputArchive@@@Z 0047a037 f   ConfOsysBd.obj
 0001:00079525       ?EcritArchive@CConfOsysBd@@QAEHAAVCOutputArchive@@@Z 0047a525 f   ConfOsysBd.obj
 0001:000797da       ?SupprimeTout@CConfOsysBd@@QAEXXZ 0047a7da f   ConfOsysBd.obj
 0001:00079889       ?LitNbSGBD@CConfOsysBd@@QAEHXZ 0047a889 f   ConfOsysBd.obj
 0001:000798b6       ?NewConnexion@CConfOsysBd@@QAEPAVCConnexion@@PAD000HHH@Z 0047a8b6 f   ConfOsysBd.obj
 0001:0007997c       ?Ajout@CConfOsysBd@@QAEXPAVCConnexion@@@Z 0047a97c f   ConfOsysBd.obj
 0001:000799cb       ?LitNomSGBDDefaut@CConfOsysBd@@QAEPADXZ 0047a9cb f   ConfOsysBd.obj
 0001:00079a4f       ?LitNomSGBDDefaut@CConfOsysBd@@QAEXAAVCString@@@Z 0047aa4f f   ConfOsysBd.obj
 0001:00079a86       ?EcritNomSGBDDefaut@CConfOsysBd@@QAEXPAD@Z 0047aa86 f   ConfOsysBd.obj
 0001:00079ab6       ?LitNbMaxSGBD@CConfOsysBd@@QAEHXZ 0047aab6 f   ConfOsysBd.obj
 0001:00079ae3       ?LitValSGBD@CConfOsysBd@@QAEHHAAVCString@@000AAH11@Z 0047aae3 f   ConfOsysBd.obj
 0001:00079bd0       ?LitSGBD@CConfOsysBd@@QAEHPADAAVCString@@11AAH2H@Z 0047abd0 f   ConfOsysBd.obj
 0001:0007a0e0       ??_GCConnexion@@QAEPAXI@Z  0047b0e0 f i ConfOsysBd.obj
 0001:0007a120       ??0CConnexion@@QAE@XZ      0047b120 f i ConfOsysBd.obj
 0001:0007a220       ??1CConnexion@@QAE@XZ      0047b220 f i ConfOsysBd.obj
 0001:0007a2b0       ??0CLigneRequete@@QAE@XZ   0047b2b0 f   LigneRequete.obj
 0001:0007a2c8       ??1CLigneRequete@@QAE@XZ   0047b2c8 f   LigneRequete.obj
 0001:0007a310       ?AjouteElement@CLigneRequete@@QAEXPAD@Z 0047b310 f   LigneRequete.obj
 0001:0007a38f       ?SupprimeTout@CLigneRequete@@QAEXXZ 0047b38f f   LigneRequete.obj
 0001:0007a3f0       ?SupprimeUnElement@CLigneRequete@@QAEHH@Z 0047b3f0 f   LigneRequete.obj
 0001:0007a463       ?NombreLigne@CLigneRequete@@QAEHXZ 0047b463 f   LigneRequete.obj
 0001:0007a476       ?LitElement@CLigneRequete@@QAEHHAAVCString@@@Z 0047b476 f   LigneRequete.obj
 0001:0007a550       ?GetAt@CPtrList@@QAEAAPAXPAU__POSITION@@@Z 0047b550 f i LigneRequete.obj
 0001:0007a580       ??0CListeParametre@@QAE@XZ 0047b580 f   ListeParametre.obj
 0001:0007a5a2       ??1CListeParametre@@QAE@XZ 0047b5a2 f   ListeParametre.obj
 0001:0007a5ea       ?Ajoute@CListeParametre@@QAEHHHVCString@@@Z 0047b5ea f   ListeParametre.obj
 0001:0007a6ce       ?Ajoute@CListeParametre@@QAEHH@Z 0047b6ce f   ListeParametre.obj
 0001:0007a704       ?RechercheType@CListeParametre@@QAEHH@Z 0047b704 f   ListeParametre.obj
 0001:0007a768       ?Supprime@CListeParametre@@QAEHH@Z 0047b768 f   ListeParametre.obj
 0001:0007a7fe       ?SupprimeTout@CListeParametre@@QAEHXZ 0047b7fe f   ListeParametre.obj
 0001:0007a86d       ?EcritArchive@CListeParametre@@QAEHAAVCOutputArchive@@@Z 0047b86d f   ListeParametre.obj
 0001:0007a909       ?LitArchive@CListeParametre@@QAEHAAVCInputArchive@@@Z 0047b909 f   ListeParametre.obj
 0001:0007aa73       ?UtiliseId@CListeParametre@@QAEHH@Z 0047ba73 f   ListeParametre.obj
 0001:0007aac7       ?LitPremier@CListeParametre@@QAEHAAH0@Z 0047bac7 f   ListeParametre.obj
 0001:0007ab2e       ?LitSuivant@CListeParametre@@QAEHAAH0@Z 0047bb2e f   ListeParametre.obj
 0001:0007ab96       ?LitPremier@CListeParametre@@QAEPAVCParametre@@XZ 0047bb96 f   ListeParametre.obj
 0001:0007abe5       ?LitSuivant@CListeParametre@@QAEPAVCParametre@@XZ 0047bbe5 f   ListeParametre.obj
 0001:0007adf0       ??0CParametre@@QAE@XZ      0047bdf0 f i ListeParametre.obj
 0001:0007ae10       ??_GCParametre@@QAEPAXI@Z  0047be10 f i ListeParametre.obj
 0001:0007ae50       ??1CParametre@@QAE@XZ      0047be50 f i ListeParametre.obj
 0001:0007ae70       ??0CRequete@@QAE@HH@Z      0047be70 f   Requete.obj
 0001:0007aef8       ??1CRequete@@UAE@XZ        0047bef8 f   Requete.obj
 0001:0007af73       ?EcritSQL@CRequete@@QAEXVCString@@@Z 0047bf73 f   Requete.obj
 0001:0007afc7       ?LitSQL@CRequete@@QAEPAVCString@@XZ 0047bfc7 f   Requete.obj
 0001:0007afda       ?EcritArchive@CRequete@@UAEXAAVCOutputArchive@@PADH@Z 0047bfda f   Requete.obj
 0001:0007b41d       ?LitArchive@CRequete@@UAEHAAVCInputArchive@@H@Z 0047c41d f   Requete.obj
 0001:0007b928       ?UtiliseId@CRequete@@UAEHHAAVCOutputArchive@@PAD@Z 0047c928 f   Requete.obj
 0001:0007ba04       ?EcritNomSGBD@CRequete@@QAEXPAD@Z 0047ca04 f   Requete.obj
 0001:0007ba23       ?LitNomSGBD@CRequete@@QAEXAAVCString@@@Z 0047ca23 f   Requete.obj
 0001:0007ba41       ?LitNomSGBD@CRequete@@QAEPADXZ 0047ca41 f   Requete.obj
 0001:0007bd60       ??_GCRequete@@UAEPAXI@Z    0047cd60 f i Requete.obj
 0001:0007bd60       ??_ECRequete@@UAEPAXI@Z    0047cd60 f i Requete.obj
 0001:0007bda0       ??_GCStringLangue@@QAEPAXI@Z 0047cda0 f i Requete.obj
 0001:0007bde0       ??0CElement@@QAE@HH@Z      0047cde0 f i Requete.obj
 0001:0007bf10       ??1CElement@@UAE@XZ        0047cf10 f i Requete.obj
 0001:0007bfb0       ?EcritArchive@CElement@@UAEXAAVCOutputArchive@@PADH@Z 0047cfb0 f i Requete.obj
 0001:0007c020       ?LitArchive@CElement@@UAEHAAVCInputArchive@@H@Z 0047d020 f i Requete.obj
 0001:0007c110       ?LitId@CElement@@QAEHXZ    0047d110 f i Requete.obj
 0001:0007c130       ?LitNomElement@CElement@@QAEPAVCStringLangue@@XZ 0047d130 f i Requete.obj
 0001:0007c150       ?LitNomElement@CElement@@UAEXAAVCString@@PAD@Z 0047d150 f i Requete.obj
 0001:0007c180       ?EcritNomElement@CElement@@UAEXAAVCString@@PAD@Z 0047d180 f i Requete.obj
 0001:0007c1b0       ?LitDescElement@CElement@@QAEPAVCStringLangue@@XZ 0047d1b0 f i Requete.obj
 0001:0007c1d0       ?LitModif@CElement@@QAEPAVCModification@@XZ 0047d1d0 f i Requete.obj
 0001:0007c1f0       ?LitEtatElement@CElement@@QAEXAAVCString@@@Z 0047d1f0 f i Requete.obj
 0001:0007c220       ?EcritEtatElement@CElement@@QAEXPAD@Z 0047d220 f i Requete.obj
 0001:0007c250       ?LitIdCreation@CElement@@QAEHXZ 0047d250 f i Requete.obj
 0001:0007c270       ?EcritIdCreation@CElement@@QAEXH@Z 0047d270 f i Requete.obj
 0001:0007c290       ?LitDateCreation@CElement@@QAEJXZ 0047d290 f i Requete.obj
 0001:0007c2b0       ?EcritDateCreation@CElement@@QAEXJ@Z 0047d2b0 f i Requete.obj
 0001:0007c2d0       ?UtiliseId@CElement@@UAEHHAAVCOutputArchive@@PAD@Z 0047d2d0 f i Requete.obj
 0001:0007c2f0       ??_ECElement@@UAEPAXI@Z    0047d2f0 f i Requete.obj
 0001:0007c2f0       ??_GCElement@@UAEPAXI@Z    0047d2f0 f i Requete.obj
 0001:0007c330       ?LitParametre@CRequete@@QAEPAVCListeParametre@@XZ 0047d330 f i Requete.obj
 0001:0007c350       ??0CResultatRequete@@QAE@XZ 0047d350 f   ResultatRequete.obj
 0001:0007c444       ??1CResultatRequete@@QAE@XZ 0047d444 f   ResultatRequete.obj
 0001:0007c526       ?DestructionFicTemp@CResultatRequete@@AAEXXZ 0047d526 f   ResultatRequete.obj
 0001:0007c56b       ?AjouteElement@CResultatRequete@@QAEXHPAD@Z 0047d56b f   ResultatRequete.obj
 0001:0007c8c3       ?SupprimeTout@CResultatRequete@@QAEXXZ 0047d8c3 f   ResultatRequete.obj
 0001:0007c937       ?NombreLigne@CResultatRequete@@QAEHXZ 0047d937 f   ResultatRequete.obj
 0001:0007c948       ?NombreColonne@CResultatRequete@@QAEHXZ 0047d948 f   ResultatRequete.obj
 0001:0007c95e       ?LitNbEnregistrement@CResultatRequete@@QAEHXZ 0047d95e f   ResultatRequete.obj
 0001:0007c987       ?LitElement@CResultatRequete@@QAEHHHAAVCString@@@Z 0047d987 f   ResultatRequete.obj
 0001:0007cca1       ?LitElement@CResultatRequete@@QAEHHHPADH@Z 0047dca1 f   ResultatRequete.obj
 0001:0007d008       ?EcritSourceErreur@CResultatRequete@@QAEXPAD@Z 0047e008 f   ResultatRequete.obj
 0001:0007d024       ?LitSourceErreur@CResultatRequete@@QAEXAAVCString@@@Z 0047e024 f   ResultatRequete.obj
 0001:0007d040       ?EcritDescriptionErreur@CResultatRequete@@QAEXPAD@Z 0047e040 f   ResultatRequete.obj
 0001:0007d05c       ?LitDescriptionErreur@CResultatRequete@@QAEXAAVCString@@@Z 0047e05c f   ResultatRequete.obj
 0001:0007d078       ?DeclareErreurExecution@CResultatRequete@@QAEXXZ 0047e078 f   ResultatRequete.obj
 0001:0007d08d       ?ErreurExecution@CResultatRequete@@QAEHXZ 0047e08d f   ResultatRequete.obj
 0001:0007d09e       ?LitNumErreur@CResultatRequete@@QAEHXZ 0047e09e f   ResultatRequete.obj
 0001:0007d0af       ?EcritNumErreur@CResultatRequete@@QAEXH@Z 0047e0af f   ResultatRequete.obj
 0001:0007d0c5       ?EcritNumCanal@CResultatRequete@@QAEXH@Z 0047e0c5 f   ResultatRequete.obj
 0001:0007d0db       ?LitNumCanal@CResultatRequete@@QAEHXZ 0047e0db f   ResultatRequete.obj
 0001:0007d0ec       ?LitArchive@CResultatRequete@@QAEHAAVCInputArchive@@@Z 0047e0ec f   ResultatRequete.obj
 0001:0007d536       ?EcritArchive@CResultatRequete@@QAEHAAVCOutputArchive@@@Z 0047e536 f   ResultatRequete.obj
 0001:0007db32       ?CreerFicTemp@CResultatRequete@@AAEXXZ 0047eb32 f   ResultatRequete.obj
 0001:0007db8b       ?AjoutDansIndexFic@CResultatRequete@@AAEXHPAU_iobuf@@@Z 0047eb8b f   ResultatRequete.obj
 0001:0007dbed       ?TransfertDonnees@CResultatRequete@@AAEXPAU_iobuf@@@Z 0047ebed f   ResultatRequete.obj
 0001:0007dd10       ?SupprimeUnElement@CResultatRequete@@QAEHHH@Z 0047ed10 f   ResultatRequete.obj
 0001:0007dd4d       ?LitNomColonne@CResultatRequete@@QAEHHAAVCString@@@Z 0047ed4d f   ResultatRequete.obj
 0001:0007dd74       ?LitTypeColonne@CResultatRequete@@QAEHHAAVCString@@@Z 0047ed74 f   ResultatRequete.obj
 0001:0007dd9b       ?LitElementEnMemoire@CResultatRequete@@AAEHHHAAVCString@@@Z 0047ed9b f   ResultatRequete.obj
 0001:0007ddf8       ?LitSupprimeElementPourTransfert@CResultatRequete@@AAEHHHAAVCString@@@Z 0047edf8 f   ResultatRequete.obj
 0001:0007de6b       ?LitNomFicTemp@CResultatRequete@@QAEXAAVCString@@@Z 0047ee6b f   ResultatRequete.obj
 0001:0007de87       ?LitFic@CResultatRequete@@QAEHAAVCOutputArchive@@@Z 0047ee87 f   ResultatRequete.obj
 0001:0007e05e       ?EcritFic@CResultatRequete@@QAEHAAVCInputArchive@@@Z 0047f05e f   ResultatRequete.obj
 0001:0007e389       ??4CResultatRequete@@QAEAAV0@AAV0@@Z 0047f389 f   ResultatRequete.obj
 0001:0007e55e       ?CopyTabDyn@CResultatRequete@@AAEXAAV1@@Z 0047f55e f   ResultatRequete.obj
 0001:0007e65d       ?LitLigneElement@CResultatRequete@@QAEHHAAVCString@@@Z 0047f65d f   ResultatRequete.obj
 0001:0007e75e       ?EcritListeEnregArchive@CResultatRequete@@QAEHAAVCOutputArchive@@@Z 0047f75e f   ResultatRequete.obj
 0001:0007e8ea       ?FermeFicTemp@CResultatRequete@@QAEXXZ 0047f8ea f   ResultatRequete.obj
 0001:0007e918       ?DeclarePerteConnexion@CResultatRequete@@QAEXXZ 0047f918 f   ResultatRequete.obj
 0001:0007e92d       ?LitPerteConnexion@CResultatRequete@@QAEHXZ 0047f92d f   ResultatRequete.obj
 0001:0007f2c0       ?RendNomTypeDonnee@CResultatRequete@@UAEPADXZ 004802c0 f i ResultatRequete.obj
 0001:0007f2e0       ??_GCLigneRequete@@QAEPAXI@Z 004802e0 f i ResultatRequete.obj
 0001:0007f320       ??0CStructureDefChamp@@QAE@XZ 00480320 f   StructureDB.obj
 0001:0007f3d1       ??1CStructureDefChamp@@UAE@XZ 004803d1 f   StructureDB.obj
 0001:0007f437       ?EcritDefChamp@CStructureDefChamp@@QAEHPADH0H@Z 00480437 f   StructureDB.obj
 0001:0007f474       ?TypeChamp@CStructureDefChamp@@QAEHXZ 00480474 f   StructureDB.obj
 0001:0007f485       ?LitArchive@CStructureDefChamp@@QAEHAAVCInputArchive@@@Z 00480485 f   StructureDB.obj
 0001:0007f64b       ?EcritArchive@CStructureDefChamp@@QAEHAAVCOutputArchive@@@Z 0048064b f   StructureDB.obj
 0001:0007f78c       ??0CListCStructureChamp@@QAE@XZ 0048078c f   StructureDB.obj
 0001:0007f7f7       ??1CListCStructureChamp@@QAE@XZ 004807f7 f   StructureDB.obj
 0001:0007f84e       ?AjouteChamp@CListCStructureChamp@@QAEHPADPAVCStructureDefChamp@@@Z 0048084e f   StructureDB.obj
 0001:0007f86e       ?RechercheChamp@CListCStructureChamp@@QAEPAVCStructureDefChamp@@VCString@@@Z 0048086e f   StructureDB.obj
 0001:0007f8eb       ?SupprimeTous@CListCStructureChamp@@QAEXXZ 004808eb f   StructureDB.obj
 0001:0007f9c5       ?LitPremier@CListCStructureChamp@@QAEPAVCStructureDefChamp@@XZ 004809c5 f   StructureDB.obj
 0001:0007fa59       ?LitSuivant@CListCStructureChamp@@QAEPAVCStructureDefChamp@@XZ 00480a59 f   StructureDB.obj
 0001:0007fad6       ?LitArchive@CListCStructureChamp@@QAEHAAVCInputArchive@@@Z 00480ad6 f   StructureDB.obj
 0001:0007fc6d       ?EcritArchive@CListCStructureChamp@@QAEHAAVCOutputArchive@@@Z 00480c6d f   StructureDB.obj
 0001:0007fcf0       ??0CListCStructureTable@@QAE@XZ 00480cf0 f   StructureDB.obj
 0001:0007fd60       ??1CListCStructureTable@@QAE@XZ 00480d60 f   StructureDB.obj
 0001:0007fdba       ?AjouteTable@CListCStructureTable@@QAEHPADPAVCListCStructureChamp@@@Z 00480dba f   StructureDB.obj
 0001:0007fdda       ?RechercheTable@CListCStructureTable@@QAEPAVCListCStructureChamp@@VCString@@@Z 00480dda f   StructureDB.obj
 0001:0007fe57       ?SupprimeTous@CListCStructureTable@@QAEXXZ 00480e57 f   StructureDB.obj
 0001:0007ff33       ?LitPremier@CListCStructureTable@@QAEPAVCListCStructureChamp@@XZ 00480f33 f   StructureDB.obj
 0001:0007ffc3       ?LitSuivant@CListCStructureTable@@QAEPAVCListCStructureChamp@@XZ 00480fc3 f   StructureDB.obj
 0001:0008003c       ?RechercheChampFonctionTable@CListCStructureTable@@QAEPAVCStructureDefChamp@@VCString@@0@Z 0048103c f   StructureDB.obj
 0001:00080115       ?RechercheTableFonctionChamp@CListCStructureTable@@QAEPAVCListCStructureChamp@@VCString@@@Z 00481115 f   StructureDB.obj
 0001:000801c4       ?LitArchive@CListCStructureTable@@QAEHAAVCInputArchive@@@Z 004811c4 f   StructureDB.obj
 0001:0008043d       ?EcritArchive@CListCStructureTable@@QAEHAAVCOutputArchive@@@Z 0048143d f   StructureDB.obj
 0001:0008059e       ??4CListCStructureTable@@QAEAAV0@AAV0@@Z 0048159e f   StructureDB.obj
 0001:00080750       ??0CListStructureBase@@QAE@XZ 00481750 f   StructureDB.obj
 0001:00080768       ??1CListStructureBase@@QAE@XZ 00481768 f   StructureDB.obj
 0001:000807b0       ?Ajout@CListStructureBase@@QAEXPADPAVCListCStructureTable@@@Z 004817b0 f   StructureDB.obj
 0001:00080874       ?SupprimeTous@CListStructureBase@@QAEXXZ 00481874 f   StructureDB.obj
 0001:00080940       ?RechercheStructureBase@CListStructureBase@@QAEPAVCListCStructureTable@@PAD@Z 00481940 f   StructureDB.obj
 0001:00080f90       ??_ECStructureDefChamp@@UAEPAXI@Z 00481f90 f i StructureDB.obj
 0001:00080f90       ??_GCStructureDefChamp@@UAEPAXI@Z 00481f90 f i StructureDB.obj
 0001:00080fd0       ??_GCListCStructureChamp@@QAEPAXI@Z 00481fd0 f i StructureDB.obj
 0001:00081010       ?IsEmpty@CMapStringToPtr@@QBEHXZ 00482010 f i StructureDB.obj
 0001:00081030       ?CreateObject@CEditLpxDoc@@SGPAVCObject@@XZ 00482030 f   editlpxdoc.obj
 0001:00081094       ?_GetBaseClass@CEditLpxDoc@@KGPAUCRuntimeClass@@XZ 00482094 f   editlpxdoc.obj
 0001:0008109e       ?GetRuntimeClass@CEditLpxDoc@@UBEPAUCRuntimeClass@@XZ 0048209e f   editlpxdoc.obj
 0001:000810ae       ??0CEditLpxDoc@@IAE@XZ     004820ae f   editlpxdoc.obj
 0001:000810d7       ??1CEditLpxDoc@@UAE@XZ     004820d7 f   editlpxdoc.obj
 0001:00081158       ?_GetBaseMessageMap@CEditLpxDoc@@KGPBUAFX_MSGMAP@@XZ 00482158 f   editlpxdoc.obj
 0001:00081162       ?GetMessageMap@CEditLpxDoc@@MBEPBUAFX_MSGMAP@@XZ 00482162 f   editlpxdoc.obj
 0001:00081172       ?Serialize@CEditLpxDoc@@UAEXAAVCArchive@@@Z 00482172 f   editlpxdoc.obj
 0001:00081187       ?OnNewDocument@CEditLpxDoc@@MAEHXZ 00482187 f   editlpxdoc.obj
 0001:000815e5       ?InitView@CEditLpxDoc@@UAEXXZ 004825e5 f   editlpxdoc.obj
 0001:0008163a       ?DoFileSave@CEditLpxDoc@@UAEHXZ 0048263a f   editlpxdoc.obj
 0001:00081655       ?OnSaveDocument@CEditLpxDoc@@UAEHPBD@Z 00482655 f   editlpxdoc.obj
 0001:00081a4c       ?OnCompilationCompile@CEditLpxDoc@@IAEXXZ 00482a4c f   editlpxdoc.obj
 0001:00081c22       ?OnCompilationCompiletout@CEditLpxDoc@@IAEXXZ 00482c22 f   editlpxdoc.obj
 0001:00081d14       ?OnCompilationRecompiletout@CEditLpxDoc@@IAEXXZ 00482d14 f   editlpxdoc.obj
 0001:00081dee       ?OnExecute@CEditLpxDoc@@IAEXXZ 00482dee f   editlpxdoc.obj
 0001:00081ec3       ?SauveFichierLpxModifie@CEditLpxDoc@@QAEXXZ 00482ec3 f   editlpxdoc.obj
 0001:00081fd7       ?OnUpdateExecute@CEditLpxDoc@@IAEXPAVCCmdUI@@@Z 00482fd7 f   editlpxdoc.obj
 0001:00082000       ?OnUpdateCompilationCompile@CEditLpxDoc@@IAEXPAVCCmdUI@@@Z 00483000 f   editlpxdoc.obj
 0001:00082027       ?OnUpdateCompilationCompiletout@CEditLpxDoc@@IAEXPAVCCmdUI@@@Z 00483027 f   editlpxdoc.obj
 0001:0008204e       ?OnUpdateCompilationRecompiletout@CEditLpxDoc@@IAEXPAVCCmdUI@@@Z 0048304e f   editlpxdoc.obj
 0001:00082490       ??_GCEditLpxDoc@@UAEPAXI@Z 00483490 f i editlpxdoc.obj
 0001:00082490       ??_ECEditLpxDoc@@UAEPAXI@Z 00483490 f i editlpxdoc.obj
 0001:000824d0       ?GetTreeCtrl@CTreeView@@QBEAAVCTreeCtrl@@XZ 004834d0 f i editlpxdoc.obj
 0001:000824f0       ?EcritIdElement@COsysDocument@@QAEXH@Z 004834f0 f i editlpxdoc.obj
 0001:00082510       ?LitIdElement@COsysDocument@@QAEHXZ 00483510 f i editlpxdoc.obj
 0001:00082530       ?EcritFinInitialisation@CEditLpxView@@QAEXXZ 00483530 f i editlpxdoc.obj
 0001:00082550       ?LitNomElement@CDefElement@@QAEAAVCString@@XZ 00483550 f i editlpxdoc.obj
 0001:00082570       ?LitStatutElement@CDefElement@@QAEAAVCString@@XZ 00483570 f i editlpxdoc.obj
 0001:00082590       ??8@YG_NABVCString@@0@Z    00483590 f i editlpxdoc.obj
 0001:000825c0       ?AfxGetApp@@YGPAVCWinApp@@XZ 004835c0 f i editlpxdoc.obj
 0001:000825d0       ?GetTitle@CDocument@@QBEABVCString@@XZ 004835d0 f i editlpxdoc.obj
 0001:000825f0       ?IsModified@CDocument@@UAEHXZ 004835f0 f i editlpxdoc.obj
 0001:00082610       ?SetModifiedFlag@CDocument@@UAEXH@Z 00483610 f i editlpxdoc.obj
 0001:00082630       ?GetSelectedItem@CTreeCtrl@@QBEPAU_TREEITEM@@XZ 00483630 f i editlpxdoc.obj
 0001:00082660       ?CreateObject@CEditLpxFrm@@SGPAVCObject@@XZ 00483660 f   editlpxfrm.obj
 0001:000826c7       ?_GetBaseClass@CEditLpxFrm@@KGPAUCRuntimeClass@@XZ 004836c7 f   editlpxfrm.obj
 0001:000826d1       ?GetRuntimeClass@CEditLpxFrm@@UBEPAUCRuntimeClass@@XZ 004836d1 f   editlpxfrm.obj
 0001:000826e1       ??0CEditLpxFrm@@IAE@XZ     004836e1 f   editlpxfrm.obj
 0001:00082700       ??1CEditLpxFrm@@MAE@XZ     00483700 f   editlpxfrm.obj
 0001:0008271c       ?_GetBaseMessageMap@CEditLpxFrm@@KGPBUAFX_MSGMAP@@XZ 0048371c f   editlpxfrm.obj
 0001:00082726       ?GetMessageMap@CEditLpxFrm@@MBEPBUAFX_MSGMAP@@XZ 00483726 f   editlpxfrm.obj
 0001:00082770       ??_ECEditLpxFrm@@MAEPAXI@Z 00483770 f i editlpxfrm.obj
 0001:00082770       ??_GCEditLpxFrm@@MAEPAXI@Z 00483770 f i editlpxfrm.obj
 0001:000827b0       ??1CMDIChildWnd@@UAE@XZ    004837b0 f i editlpxfrm.obj
 0001:000827d0       ?CreateObject@CEditLpxView@@SGPAVCObject@@XZ 004837d0 f   editlpxview.obj
 0001:00082837       ?_GetBaseClass@CEditLpxView@@KGPAUCRuntimeClass@@XZ 00483837 f   editlpxview.obj
 0001:00082841       ?GetRuntimeClass@CEditLpxView@@UBEPAUCRuntimeClass@@XZ 00483841 f   editlpxview.obj
 0001:00082851       ?_GetBaseMessageMap@CEditLpxView@@KGPBUAFX_MSGMAP@@XZ 00483851 f   editlpxview.obj
 0001:0008285b       ?GetMessageMap@CEditLpxView@@MBEPBUAFX_MSGMAP@@XZ 0048385b f   editlpxview.obj
 0001:0008286b       ??0CEditLpxView@@IAE@XZ    0048386b f   editlpxview.obj
 0001:00082a06       ??1CEditLpxView@@UAE@XZ    00483a06 f   editlpxview.obj
 0001:00082adb       ?PreCreateWindow@CEditLpxView@@UAEHAAUtagCREATESTRUCTA@@@Z 00483adb f   editlpxview.obj
 0001:00082af4       ?OnInitialUpdate@CEditLpxView@@MAEXXZ 00483af4 f   editlpxview.obj
 0001:00082b2e       ?OnPreparePrinting@CEditLpxView@@MAEHPAUCPrintInfo@@@Z 00483b2e f   editlpxview.obj
 0001:00082b47       ?Initialize@CEditLpxView@@QAEXXZ 00483b47 f   editlpxview.obj
 0001:00082c42       ?SetSLComment@CEditLpxView@@QAEXDD@Z 00483c42 f   editlpxview.obj
 0001:00082c67       ?SetSLComment@CEditLpxView@@QAEXPBD@Z 00483c67 f   editlpxview.obj
 0001:00082c86       ?AddKeywords@CEditLpxView@@QAEXPBD@Z 00483c86 f   editlpxview.obj
 0001:00082d2e       ?ClearKeywords@CEditLpxView@@QAEXXZ 00483d2e f   editlpxview.obj
 0001:00082d55       ?AddConstants@CEditLpxView@@QAEXPBD@Z 00483d55 f   editlpxview.obj
 0001:00082dfd       ?ClearConstants@CEditLpxView@@QAEXXZ 00483dfd f   editlpxview.obj
 0001:00082e24       ?AddFonctionsLPX@CEditLpxView@@QAEXPBD@Z 00483e24 f   editlpxview.obj
 0001:00082ecc       ?ClearFonctionsLPX@CEditLpxView@@QAEXXZ 00483ecc f   editlpxview.obj
 0001:00082ef3       ?SetCaseSensitive@CEditLpxView@@QAEXH@Z 00483ef3 f   editlpxview.obj
 0001:00082f0c       ?SetChangeCase@CEditLpxView@@QAEXH@Z 00483f0c f   editlpxview.obj
 0001:00082f25       ?SetStringQuotes@CEditLpxView@@QAEXPBD@Z 00483f25 f   editlpxview.obj
 0001:00082f44       ?SetKeywordColor@CEditLpxView@@QAEXKH@Z 00483f44 f   editlpxview.obj
 0001:00082f69       ?SetConstantColor@CEditLpxView@@QAEXKH@Z 00483f69 f   editlpxview.obj
 0001:00082f8e       ?SetCommentColor@CEditLpxView@@QAEXKH@Z 00483f8e f   editlpxview.obj
 0001:00082fb3       ?SetNumberColor@CEditLpxView@@QAEXKH@Z 00483fb3 f   editlpxview.obj
 0001:00082fd8       ?SetStringColor@CEditLpxView@@QAEXKH@Z 00483fd8 f   editlpxview.obj
 0001:00082ffd       ?SetFonctionsLPXColor@CEditLpxView@@QAEXKH@Z 00483ffd f   editlpxview.obj
 0001:00083022       ?IsKeyword@CEditLpxView@@IAEHPBD@Z 00484022 f   editlpxview.obj
 0001:000830b4       ?IsConstant@CEditLpxView@@IAEHPBD@Z 004840b4 f   editlpxview.obj
 0001:00083146       ?IsStringQuote@CEditLpxView@@IAEHD@Z 00484146 f   editlpxview.obj
 0001:0008316e       ?IsFonctionsLPX@CEditLpxView@@IAEHPBD@Z 0048416e f   editlpxview.obj
 0001:00083200       ?SetFormatRange@CEditLpxView@@IAEXHHHK@Z 00484200 f   editlpxview.obj
 0001:000832ab       ?ChangeCase@CEditLpxView@@IAEXHHPBD@Z 004842ab f   editlpxview.obj
 0001:000832fc       ?FormatTextRange@CEditLpxView@@IAEXHH@Z 004842fc f   editlpxview.obj
 0001:00083923       ?FormatTextLines@CEditLpxView@@IAEXHH@Z 00484923 f   editlpxview.obj
 0001:000839a9       ?FormatAll@CEditLpxView@@QAEXXZ 004849a9 f   editlpxview.obj
 0001:000839c7       ?OnSetText@CEditLpxView@@IAEJIJ@Z 004849c7 f   editlpxview.obj
 0001:000839e4       ?OnChange@CEditLpxView@@IAEXXZ 004849e4 f   editlpxview.obj
 0001:00083bd4       ?OnProtected@CEditLpxView@@IAEXPAUtagNMHDR@@PAJ@Z 00484bd4 f   editlpxview.obj
 0001:00083d0a       ?OnCreate@CEditLpxView@@IAEHPAUtagCREATESTRUCTA@@@Z 00484d0a f   editlpxview.obj
 0001:00083e3a       ?EcritCodeLpx@CEditLpxView@@QAEXPBD@Z 00484e3a f   editlpxview.obj
 0001:00083ede       ?LitCodeLpx@CEditLpxView@@QAE?AVCString@@XZ 00484ede f   editlpxview.obj
 0001:00083f6b       ?OnRButtonDown@CEditLpxView@@IAEXIVCPoint@@@Z 00484f6b f   editlpxview.obj
 0001:00084052       ?OnActivateView@CEditLpxView@@MAEXHPAVCView@@0@Z 00485052 f   editlpxview.obj
 0001:00084155       ?PositionneErreur@CEditLpxView@@QAEXAAVCString@@@Z 00485155 f   editlpxview.obj
 0001:000841f4       ?RechercheIndexPosition@CEditLpxView@@QAEXAAVCString@@PAH1@Z 004851f4 f   editlpxview.obj
 0001:0008436a       ?QueryAcceptData@CEditLpxView@@UAEJPAUIDataObject@@PAGKHPAX@Z 0048536a f   editlpxview.obj
 0001:000844de       ?TraiteDrop@CEditLpxView@@QAEHPAVCOleDataObject@@@Z 004854de f   editlpxview.obj
 0001:000847c3       ?GetClipboardData@CEditLpxView@@UAEJPAU_charrange@@KPAUIDataObject@@PAPAU3@@Z 004857c3 f   editlpxview.obj
 0001:000848aa       ?OnHelpInfo@CEditLpxView@@IAEHPAUtagHELPINFO@@@Z 004858aa f   editlpxview.obj
 0001:00084b2f       ?ExtractionMotSuivant@CEditLpxView@@QAEXAAVCString@@H0@Z 00485b2f f   editlpxview.obj
 0001:00084d55       ?ExtractionMotPrecedent@CEditLpxView@@QAEXAAVCString@@H0@Z 00485d55 f   editlpxview.obj
 0001:00084f98       ?ExtractionMotCourant@CEditLpxView@@QAEXAAVCString@@H0@Z 00485f98 f   editlpxview.obj
 0001:00085307       ?InverseChaine@CEditLpxView@@QAEXAAVCString@@@Z 00486307 f   editlpxview.obj
 0001:0008539c       ?TraitementEspaceTabulation@CEditLpxView@@QAEXAAVCString@@H0@Z 0048639c f   editlpxview.obj
 0001:00085f70       ??_GCEditLpxView@@UAEPAXI@Z 00486f70 f i editlpxview.obj
 0001:00085f70       ??_ECEditLpxView@@UAEPAXI@Z 00486f70 f i editlpxview.obj
 0001:00085fb0       ?SetMargins@CRichEditView@@QAEXABVCRect@@@Z 00486fb0 f i editlpxview.obj
 0001:00085ff0       ?GetTextLength@CRichEditView@@QBEJXZ 00486ff0 f i editlpxview.obj
 0001:00086010       ?GetDocument@CEditLpxView@@QAEPAVCEditLpxDoc@@XZ 00487010 f i editlpxview.obj
 0001:00086030       ??1COleDataObject@@QAE@XZ  00487030 f i editlpxview.obj
 0001:00086050       ?ReplaceSel@CRichEditCtrl@@QAEXPBDH@Z 00487050 f i editlpxview.obj
 0001:00086080       ?GetFirstVisibleLine@CRichEditCtrl@@QBEHXZ 00487080 f i editlpxview.obj
 0001:000860b0       ?GetSel@CRichEditCtrl@@QBEXAAU_charrange@@@Z 004870b0 f i editlpxview.obj
 0001:000860e0       ?LineFromChar@CRichEditCtrl@@QBEJJ@Z 004870e0 f i editlpxview.obj
 0001:00086110       ?SetSel@CRichEditCtrl@@QAEXAAU_charrange@@@Z 00487110 f i editlpxview.obj
 0001:00086140       ?GetSelText@CRichEditCtrl@@QBEJPAD@Z 00487140 f i editlpxview.obj
 0001:00086170       ?HideSelection@CRichEditCtrl@@QAEXHH@Z 00487170 f i editlpxview.obj
 0001:000861a0       ?SetEventMask@CRichEditCtrl@@QAEKK@Z 004871a0 f i editlpxview.obj
 0001:000861d0       ?SetTargetDevice@CRichEditCtrl@@QAEHPAUHDC__@@J@Z 004871d0 f i editlpxview.obj
 0001:00086200       ?GetTextLength@CRichEditCtrl@@QBEJXZ 00487200 f i editlpxview.obj
 0001:00086230       ?InitMemoire@CMemoire@@QAEXXZ 00487230 f   Memoire.obj
 0001:000862d9       ??0CMemoire@@QAE@HH@Z      004872d9 f   Memoire.obj
 0001:0008635b       ??1CMemoire@@UAE@XZ        0048735b f   Memoire.obj
 0001:000863d4       ?EcritMaxValeur@CMemoire@@QAEXH@Z 004873d4 f   Memoire.obj
 0001:000863ed       ?EcritType@CMemoire@@QAEXH@Z 004873ed f   Memoire.obj
 0001:00086406       ?EcritMode@CMemoire@@QAEXH@Z 00487406 f   Memoire.obj
 0001:0008641f       ?LitFormuleCalcul@CMemoire@@QAEXAAVCString@@@Z 0048741f f   Memoire.obj
 0001:0008643d       ?EcritFormuleCalcul@CMemoire@@QAEXPAD@Z 0048743d f   Memoire.obj
 0001:0008645c       ?EcritVisibilite@CMemoire@@QAEXH@Z 0048745c f   Memoire.obj
 0001:00086475       ?LitValeurDefaut@CMemoire@@QAEXAAVCString@@@Z 00487475 f   Memoire.obj
 0001:00086493       ?EcritValeurDefaut@CMemoire@@QAEXPAD@Z 00487493 f   Memoire.obj
 0001:000864b2       ?EcritSauvegarde@CMemoire@@QAEXH@Z 004874b2 f   Memoire.obj
 0001:000864cb       ?EcritDetruit@CMemoire@@QAEXH@Z 004874cb f   Memoire.obj
 0001:000864e4       ?EcritGestionFichier@CMemoire@@QAEXH@Z 004874e4 f   Memoire.obj
 0001:000864fd       ?EcritTailleMax@CMemoire@@QAEXH@Z 004874fd f   Memoire.obj
 0001:00086516       ?EcritArchive@CMemoire@@UAEXAAVCOutputArchive@@PADH@Z 00487516 f   Memoire.obj
 0001:00086c5b       ?LitArchive@CMemoire@@UAEHAAVCInputArchive@@H@Z 00487c5b f   Memoire.obj
 0001:00087369       ?AjusteNumUtilisateur@CMemoire@@QAEHH@Z 00488369 f   Memoire.obj
 0001:000873c0       ?UtiliseId@CMemoire@@UAEHHAAVCOutputArchive@@PAD@Z 004883c0 f   Memoire.obj
 0001:000879f0       ??_GCMemoire@@UAEPAXI@Z    004889f0 f i Memoire.obj
 0001:000879f0       ??_ECMemoire@@UAEPAXI@Z    004889f0 f i Memoire.obj
 0001:00087a30       ?LitType@CMemoire@@QAEHXZ  00488a30 f i Memoire.obj
 0001:00087a50       ?LitSauvegarde@CMemoire@@QAEHXZ 00488a50 f i Memoire.obj
 0001:00087a70       ?LitGestionFichier@CMemoire@@QAEHXZ 00488a70 f i Memoire.obj
 0001:00087a90       ?LitTailleMax@CMemoire@@QAEHXZ 00488a90 f i Memoire.obj
 0001:00087ab0       ?CreateObject@CMemoireDoc@@SGPAVCObject@@XZ 00488ab0 f   memoiredoc.obj
 0001:00087b14       ?_GetBaseClass@CMemoireDoc@@KGPAUCRuntimeClass@@XZ 00488b14 f   memoiredoc.obj
 0001:00087b1e       ?GetRuntimeClass@CMemoireDoc@@UBEPAUCRuntimeClass@@XZ 00488b1e f   memoiredoc.obj
 0001:00087b2e       ??0CMemoireDoc@@IAE@XZ     00488b2e f   memoiredoc.obj
 0001:00087b57       ??1CMemoireDoc@@UAE@XZ     00488b57 f   memoiredoc.obj
 0001:00087bd8       ?_GetBaseMessageMap@CMemoireDoc@@KGPBUAFX_MSGMAP@@XZ 00488bd8 f   memoiredoc.obj
 0001:00087be2       ?GetMessageMap@CMemoireDoc@@MBEPBUAFX_MSGMAP@@XZ 00488be2 f   memoiredoc.obj
 0001:00087bf2       ?Serialize@CMemoireDoc@@UAEXAAVCArchive@@@Z 00488bf2 f   memoiredoc.obj
 0001:00087c07       ?OnNewDocument@CMemoireDoc@@MAEHXZ 00488c07 f   memoiredoc.obj
 0001:00087fce       ?InitView@CMemoireDoc@@UAEXXZ 00488fce f   memoiredoc.obj
 0001:000881a4       ?OnSaveDocument@CMemoireDoc@@UAEHPBD@Z 004891a4 f   memoiredoc.obj
 0001:0008876c       ?DoFileSave@CMemoireDoc@@UAEHXZ 0048976c f   memoiredoc.obj
 0001:00088ac0       ??_GCMemoireDoc@@UAEPAXI@Z 00489ac0 f i memoiredoc.obj
 0001:00088ac0       ??_ECMemoireDoc@@UAEPAXI@Z 00489ac0 f i memoiredoc.obj
 0001:00088b00       ?EcritDescription@CMemoireView@@QAEXPBD@Z 00489b00 f i memoiredoc.obj
 0001:00088b30       ?EcritMaxContenu@CMemoireView@@QAEXH@Z 00489b30 f i memoiredoc.obj
 0001:00088b50       ?EcritValDefaut@CMemoireView@@QAEXPBD@Z 00489b50 f i memoiredoc.obj
 0001:00088b80       ?EcritFormuleCalcul@CMemoireView@@QAEXPBD@Z 00489b80 f i memoiredoc.obj
 0001:00088bb0       ?EcritSauvegardeContexte@CMemoireView@@QAEXH@Z 00489bb0 f i memoiredoc.obj
 0001:00088bd0       ?EcritGestionValeurFichier@CMemoireView@@QAEXH@Z 00489bd0 f i memoiredoc.obj
 0001:00088bf0       ?EcritTailleMaxValeur@CMemoireView@@QAEXH@Z 00489bf0 f i memoiredoc.obj
 0001:00088c10       ?LitDescription@CMemoireView@@QAE?AVCString@@XZ 00489c10 f i memoiredoc.obj
 0001:00088c50       ?LitMaxContenu@CMemoireView@@QAEHXZ 00489c50 f i memoiredoc.obj
 0001:00088c70       ?LitValDefaut@CMemoireView@@QAE?AVCString@@XZ 00489c70 f i memoiredoc.obj
 0001:00088cb0       ?LitFormuleCalcul@CMemoireView@@QAE?AVCString@@XZ 00489cb0 f i memoiredoc.obj
 0001:00088cf0       ?LitSauvegardeContexte@CMemoireView@@QAEHXZ 00489cf0 f i memoiredoc.obj
 0001:00088d10       ?LitGestionValeurFichier@CMemoireView@@QAEHXZ 00489d10 f i memoiredoc.obj
 0001:00088d30       ?LitTailleMaxValeur@CMemoireView@@QAEHXZ 00489d30 f i memoiredoc.obj
 0001:00088d50       ?CreateObject@CMemoireFrm@@SGPAVCObject@@XZ 00489d50 f   memoirefrm.obj
 0001:00088db7       ?_GetBaseClass@CMemoireFrm@@KGPAUCRuntimeClass@@XZ 00489db7 f   memoirefrm.obj
 0001:00088dc1       ?GetRuntimeClass@CMemoireFrm@@UBEPAUCRuntimeClass@@XZ 00489dc1 f   memoirefrm.obj
 0001:00088dd1       ??0CMemoireFrm@@IAE@XZ     00489dd1 f   memoirefrm.obj
 0001:00088df0       ??1CMemoireFrm@@MAE@XZ     00489df0 f   memoirefrm.obj
 0001:00088e0c       ?_GetBaseMessageMap@CMemoireFrm@@KGPBUAFX_MSGMAP@@XZ 00489e0c f   memoirefrm.obj
 0001:00088e16       ?GetMessageMap@CMemoireFrm@@MBEPBUAFX_MSGMAP@@XZ 00489e16 f   memoirefrm.obj
 0001:00088e60       ??_GCMemoireFrm@@MAEPAXI@Z 00489e60 f i memoirefrm.obj
 0001:00088e60       ??_ECMemoireFrm@@MAEPAXI@Z 00489e60 f i memoirefrm.obj
 0001:00088ea0       ?CreateObject@CMemoireView@@SGPAVCObject@@XZ 00489ea0 f   memoireview.obj
 0001:00088f07       ?_GetBaseClass@CMemoireView@@KGPAUCRuntimeClass@@XZ 00489f07 f   memoireview.obj
 0001:00088f11       ?GetRuntimeClass@CMemoireView@@UBEPAUCRuntimeClass@@XZ 00489f11 f   memoireview.obj
 0001:00088f21       ??0CMemoireView@@IAE@XZ    00489f21 f   memoireview.obj
 0001:0008904b       ??1CMemoireView@@MAE@XZ    0048a04b f   memoireview.obj
 0001:000890fc       ?DoDataExchange@CMemoireView@@MAEXPAVCDataExchange@@@Z 0048a0fc f   memoireview.obj
 0001:0008921c       ?_GetBaseMessageMap@CMemoireView@@KGPBUAFX_MSGMAP@@XZ 0048a21c f   memoireview.obj
 0001:00089226       ?GetMessageMap@CMemoireView@@MBEPBUAFX_MSGMAP@@XZ 0048a226 f   memoireview.obj
 0001:00089236       ?OnDataChange@CMemoireView@@IAEXXZ 0048a236 f   memoireview.obj
 0001:000892e3       ?OnInitialUpdate@CMemoireView@@UAEXXZ 0048a2e3 f   memoireview.obj
 0001:00089327       ?OnUpdate@CMemoireView@@MAEXPAVCView@@JPAVCObject@@@Z 0048a327 f   memoireview.obj
 0001:0008934e       ?EcritType@CMemoireView@@QAEXH@Z 0048a34e f   memoireview.obj
 0001:0008944d       ?LitType@CMemoireView@@QAEHXZ 0048a44d f   memoireview.obj
 0001:0008946e       ?EcritMode@CMemoireView@@QAEXH@Z 0048a46e f   memoireview.obj
 0001:000894d7       ?LitMode@CMemoireView@@QAEHXZ 0048a4d7 f   memoireview.obj
 0001:000894fb       ?EcritVisibilite@CMemoireView@@QAEXH@Z 0048a4fb f   memoireview.obj
 0001:00089579       ?LitVisibilite@CMemoireView@@QAEHXZ 0048a579 f   memoireview.obj
 0001:0008959d       ?OnSelchangeMode@CMemoireView@@IAEXXZ 0048a59d f   memoireview.obj
 0001:000895b8       ?GestionFormuleCalcul@CMemoireView@@QAEXXZ 0048a5b8 f   memoireview.obj
 0001:0008968e       ?OnGestionValeursFichier@CMemoireView@@IAEXXZ 0048a68e f   memoireview.obj
 0001:000896b3       ?GestionTailleMaxValeur@CMemoireView@@QAEXXZ 0048a6b3 f   memoireview.obj
 0001:0008973d       ?OnActivateView@CMemoireView@@MAEXHPAVCView@@0@Z 0048a73d f   memoireview.obj
 0001:0008975e       ?NbValeurMemoireOk@CMemoireView@@QAEHXZ 0048a75e f   memoireview.obj
 0001:00089888       ?OnKillfocusMaxContenu@CMemoireView@@IAEXXZ 0048a888 f   memoireview.obj
 0001:00089b20       ??_GCMemoireView@@MAEPAXI@Z 0048ab20 f i memoireview.obj
 0001:00089b20       ??_ECMemoireView@@MAEPAXI@Z 0048ab20 f i memoireview.obj
 0001:00089b60       ??1CFormView@@UAE@XZ       0048ab60 f i memoireview.obj
 0001:00089b80       ??0CDefType@@QAE@XZ        0048ab80 f   DefType.obj
 0001:00089ba2       ??1CDefType@@UAE@XZ        0048aba2 f   DefType.obj
 0001:00089bc1       ??0CDefGroupe@@QAE@XZ      0048abc1 f   DefType.obj
 0001:00089be0       ??1CDefGroupe@@UAE@XZ      0048abe0 f   DefType.obj
 0001:00089bfc       ??0CDefElement@@QAE@XZ     0048abfc f   DefType.obj
 0001:00089c62       ??1CDefElement@@UAE@XZ     0048ac62 f   DefType.obj
 0001:00089d20       ??_GCDefType@@UAEPAXI@Z    0048ad20 f i DefType.obj
 0001:00089d20       ??_ECDefType@@UAEPAXI@Z    0048ad20 f i DefType.obj
 0001:00089d60       ??_GCDefGroupe@@UAEPAXI@Z  0048ad60 f i DefType.obj
 0001:00089d60       ??_ECDefGroupe@@UAEPAXI@Z  0048ad60 f i DefType.obj
 0001:00089da0       ??_GCDefElement@@UAEPAXI@Z 0048ada0 f i DefType.obj
 0001:00089da0       ??_ECDefElement@@UAEPAXI@Z 0048ada0 f i DefType.obj
 0001:00089de0       ?CreateObject@CEspaceView@@SGPAVCObject@@XZ 0048ade0 f   espaceview.obj
 0001:00089e47       ?_GetBaseClass@CEspaceView@@KGPAUCRuntimeClass@@XZ 0048ae47 f   espaceview.obj
 0001:00089e51       ?GetRuntimeClass@CEspaceView@@UBEPAUCRuntimeClass@@XZ 0048ae51 f   espaceview.obj
 0001:00089e61       ??0CEspaceView@@IAE@XZ     0048ae61 f   espaceview.obj
 0001:00089f61       ??1CEspaceView@@MAE@XZ     0048af61 f   espaceview.obj
 0001:00089fe5       ?_GetBaseMessageMap@CEspaceView@@KGPBUAFX_MSGMAP@@XZ 0048afe5 f   espaceview.obj
 0001:00089fef       ?GetMessageMap@CEspaceView@@MBEPBUAFX_MSGMAP@@XZ 0048afef f   espaceview.obj
 0001:00089fff       ?OnDraw@CEspaceView@@MAEXPAVCDC@@@Z 0048afff f   espaceview.obj
 0001:0008a019       ?OnCreate@CEspaceView@@IAEHPAUtagCREATESTRUCTA@@@Z 0048b019 f   espaceview.obj
 0001:0008a0e1       ?PreTranslateMessage@CEspaceView@@UAEHPAUtagMSG@@@Z 0048b0e1 f   espaceview.obj
 0001:0008a2e6       ?InitEspaceView@CEspaceView@@QAEXXZ 0048b2e6 f   espaceview.obj
 0001:0008a7e6       ?AjouteType@CEspaceView@@QAEPAU_TREEITEM@@HPAVCDefType@@@Z 0048b7e6 f   espaceview.obj
 0001:0008a8fb       ?SupprimeDefType@CEspaceView@@QAEHPAU_TREEITEM@@@Z 0048b8fb f   espaceview.obj
 0001:0008a971       ?LitGroupe@CEspaceView@@QAEXH@Z 0048b971 f   espaceview.obj
 0001:0008aeb1       ?AjouteGroupe@CEspaceView@@QAEPAU_TREEITEM@@HPAVCDefGroupe@@@Z 0048beb1 f   espaceview.obj
 0001:0008b05d       ?LitElement@CEspaceView@@QAEXHPAU_TREEITEM@@@Z 0048c05d f   espaceview.obj
 0001:0008b5dc       ?AjouteElement@CEspaceView@@QAEPAU_TREEITEM@@HPAU2@PAVCDefElement@@@Z 0048c5dc f   espaceview.obj
 0001:0008b82e       ?SupprimeDefTypeGroupeElement@CEspaceView@@QAEXXZ 0048c82e f   espaceview.obj
 0001:0008b90d       ?SupprimeDefElement@CEspaceView@@QAEHPAU_TREEITEM@@@Z 0048c90d f   espaceview.obj
 0001:0008b983       ?SupprimeDefGroupe@CEspaceView@@QAEHPAU_TREEITEM@@@Z 0048c983 f   espaceview.obj
 0001:0008b9f9       ?SupprimeDefModule@CEspaceView@@QAEHPAU_TREEITEM@@H@Z 0048c9f9 f   espaceview.obj
 0001:0008bb61       ?HelpInfoModuleGrpElement@CEspaceView@@QAEHPAUtagHELPINFO@@@Z 0048cb61 f   espaceview.obj
 0001:0008bea2       ?OnDblclk@CEspaceView@@IAEXPAUtagNMHDR@@PAJ@Z 0048cea2 f   espaceview.obj
 0001:0008bf64       ?OuvreActiveElement@CEspaceView@@QAEXPAU_TREEITEM@@@Z 0048cf64 f   espaceview.obj
 0001:0008c3cd       ?IdElement@CEspaceView@@QAEHPAU_TREEITEM@@@Z 0048d3cd f   espaceview.obj
 0001:0008c41d       ?IdGroupe@CEspaceView@@QAEHPAU_TREEITEM@@@Z 0048d41d f   espaceview.obj
 0001:0008c46d       ?OnRButtonDown@CEspaceView@@IAEXIVCPoint@@@Z 0048d46d f   espaceview.obj
 0001:0008c742       ?OnNouveauElement@CEspaceView@@IAEXXZ 0048d742 f   espaceview.obj
 0001:0008d92f       ?InsereNouvelElement@CEspaceView@@QAEXPAVCDefElement@@PAU_TREEITEM@@@Z 0048e92f f   espaceview.obj
 0001:0008d9d2       ?GetItemByName@@YAPAU_TREEITEM@@PAUHWND__@@PAU1@PBD@Z 0048e9d2 f   espaceview.obj
 0001:0008dac2       ?RechercheItem@CEspaceView@@QAEPAU_TREEITEM@@PBDPAU2@@Z 0048eac2 f   espaceview.obj
 0001:0008dafe       ?RechercheItemId@CEspaceView@@QAEPAU_TREEITEM@@HPAU2@@Z 0048eafe f   espaceview.obj
 0001:0008db9f       ?OnSupprimerElement@CEspaceView@@IAEXXZ 0048eb9f f   espaceview.obj
 0001:0008dec8       ?ConfirmationSuppression@CEspaceView@@QAEHPBD@Z 0048eec8 f   espaceview.obj
 0001:0008dfa5       ?ItemDefElement@CEspaceView@@QAEPAVCDefElement@@PAU_TREEITEM@@@Z 0048efa5 f   espaceview.obj
 0001:0008dfe8       ?FermeViewElement@CEspaceView@@QAEXPAU_TREEITEM@@@Z 0048efe8 f   espaceview.obj
 0001:0008e0ae       ?OnOuvrirElement@CEspaceView@@IAEXXZ 0048f0ae f   espaceview.obj
 0001:0008e0d9       ?RetourneDefElement@CEspaceView@@QAEPAVCDefElement@@H@Z 0048f0d9 f   espaceview.obj
 0001:0008e26b       ?OnRenommerGroupe@CEspaceView@@IAEXXZ 0048f26b f   espaceview.obj
 0001:0008e918       ?OnNouveauGroupe@CEspaceView@@IAEXXZ 0048f918 f   espaceview.obj
 0001:0008f446       ?InsereNouveauGroupe@CEspaceView@@QAEXHPBDPAU_TREEITEM@@@Z 00490446 f   espaceview.obj
 0001:0008f5a1       ?OnSupprimerGroupe@CEspaceView@@IAEXXZ 004905a1 f   espaceview.obj
 0001:0008f882       ?RetourneDefGroupe@CEspaceView@@QAEPAVCDefGroupe@@H@Z 00490882 f   espaceview.obj
 0001:0008f9d3       ?ItemDefGroupe@CEspaceView@@QAEPAVCDefGroupe@@PAU_TREEITEM@@@Z 004909d3 f   espaceview.obj
 0001:0008fa12       ?OnRenommerElement@CEspaceView@@IAEXXZ 00490a12 f   espaceview.obj
 0001:00090009       ?OnProprietesElement@CEspaceView@@IAEXXZ 00491009 f   espaceview.obj
 0001:000903cc       ?OnProprietesGroupe@CEspaceView@@IAEXXZ 004913cc f   espaceview.obj
 0001:0009078f       ?MajViewElement@CEspaceView@@QAEXPAU_TREEITEM@@@Z 0049178f f   espaceview.obj
 0001:000908b7       ?OnBegindrag@CEspaceView@@IAEXPAUtagNMHDR@@PAJ@Z 004918b7 f   espaceview.obj
 0001:00090bf1       ?DecodeMemoireUser@CEspaceView@@QAEHPBDAAH1@Z 00491bf1 f   espaceview.obj
 0001:00090e41       ?RechercheIdElement@CEspaceView@@QAEHPBDPAU_TREEITEM@@@Z 00491e41 f   espaceview.obj
 0001:00090ef5       ?MajEtatLpx@CEspaceView@@QAEXXZ 00491ef5 f   espaceview.obj
 0001:00091019       ?LitEtatElement@CEspaceView@@QAE?AVCString@@PBD@Z 00492019 f   espaceview.obj
 0001:0009113d       ?MajEtatElementArborescense@CEspaceView@@QAEXPAU_TREEITEM@@PAVCDefElement@@@Z 0049213d f   espaceview.obj
 0001:0009128a       ?OnDefinitionElement@CEspaceView@@IAEJIJ@Z 0049228a f   espaceview.obj
 0001:000912f2       ?LitNomElement@CEspaceView@@QAEHAAVCString@@HPADH@Z 004922f2 f   espaceview.obj
 0001:0009136e       ?LitNomGroupe@CEspaceView@@QAEHAAVCString@@HPADH@Z 0049236e f   espaceview.obj
 0001:000913e7       ?LitNomApplication@CEspaceView@@QAEHAAVCString@@HPADH@Z 004923e7 f   espaceview.obj
 0001:00091477       ?LitTerminaux@CEspaceView@@QAEXHPAU_TREEITEM@@@Z 00492477 f   espaceview.obj
 0001:000915d4       ?OnSecuriteGrp@CEspaceView@@IAEXXZ 004925d4 f   espaceview.obj
 0001:0009168d       ?OnSecuriteModule@CEspaceView@@IAEXXZ 0049268d f   espaceview.obj
 0001:00091746       ?LitGroupeUserPremier@CEspaceView@@QAEHAAHAAVCString@@@Z 00492746 f   espaceview.obj
 0001:000917de       ?LitGroupeUserSuivant@CEspaceView@@QAEHAAHAAVCString@@@Z 004927de f   espaceview.obj
 0001:00091876       ?OnImpression@CEspaceView@@IAEXXZ 00492876 f   espaceview.obj
 0001:00091929       ?OnContextMenu@CEspaceView@@IAEXPAVCWnd@@VCPoint@@@Z 00492929 f   espaceview.obj
 0001:00091be8       ?OnKeyDown@CEspaceView@@IAEXIII@Z 00492be8 f   espaceview.obj
 0001:00091ce0       ?OnChar@CEspaceView@@IAEXIII@Z 00492ce0 f   espaceview.obj
 0001:00091d09       ?PreCreateWindow@CEspaceView@@MAEHAAUtagCREATESTRUCTA@@@Z 00492d09 f   espaceview.obj
 0001:00091d22       ?MajEtatScenarioLpx@CEspaceView@@QAEHH@Z 00492d22 f   espaceview.obj
 0001:00091ec0       ?LitNomElementArch@CEspaceView@@QAE?AVCString@@PBD@Z 00492ec0 f   espaceview.obj
 0001:00091fe4       ?RechercheIdUtilisateur@CEspaceView@@QAEHPBD@Z 00492fe4 f   espaceview.obj
 0001:000921b1       ?WinHelpA@CEspaceView@@UAEXKI@Z 004931b1 f   espaceview.obj
 0001:000921ce       ?LitNomEtatElement@CEspaceView@@QAEXPBDAAVCString@@1@Z 004931ce f   espaceview.obj
 0001:000922db       ?AfficheGrpScenErrComp@CEspaceView@@QAEXXZ 004932db f   espaceview.obj
 0001:0009241d       ?LitGroupeLPX@CEspaceView@@QAEXXZ 0049341d f   espaceview.obj
 0001:000926be       ?LitElementLPX@CEspaceView@@QAEHHPAU_TREEITEM@@@Z 004936be f   espaceview.obj
 0001:00094f00       ??0CTreeView@@QAE@XZ       00495f00 f i espaceview.obj
 0001:00094f40       ??_GCTreeView@@UAEPAXI@Z   00495f40 f i espaceview.obj
 0001:00094f40       ??_ECTreeView@@UAEPAXI@Z   00495f40 f i espaceview.obj
 0001:00094f80       ??1CTreeView@@UAE@XZ       00495f80 f i espaceview.obj
 0001:00094fa0       ??_GCEspaceView@@MAEPAXI@Z 00495fa0 f i espaceview.obj
 0001:00094fa0       ??_ECEspaceView@@MAEPAXI@Z 00495fa0 f i espaceview.obj
 0001:00094fe0       ?LitDescriptionElement@CDefElement@@QAEAAVCString@@XZ 00495fe0 f i espaceview.obj
 0001:00095000       ?EcritId@CDefType@@QAEXH@Z 00496000 f i espaceview.obj
 0001:00095020       ?EcritNom@CDefType@@QAEXPBD@Z 00496020 f i espaceview.obj
 0001:00095050       ?SetAt@CMapPtrToPtr@@QAEXPAX0@Z 00496050 f i espaceview.obj
 0001:00095080       ?EcritIdGroupe@CDefGroupe@@QAEXH@Z 00496080 f i espaceview.obj
 0001:000950a0       ?EcritNomGroupe@CDefGroupe@@QAEXPBD@Z 004960a0 f i espaceview.obj
 0001:000950d0       ?LitIdGroupe@CDefGroupe@@QAEHXZ 004960d0 f i espaceview.obj
 0001:000950f0       ?LitNomGroupe@CDefGroupe@@QAEAAVCString@@XZ 004960f0 f i espaceview.obj
 0001:00095110       ?EcritIdElement@CDefElement@@QAEXH@Z 00496110 f i espaceview.obj
 0001:00095130       ?EcritNomElement@CDefElement@@QAEXPBD@Z 00496130 f i espaceview.obj
 0001:00095160       ?EcritDescriptionElement@CDefElement@@QAEXPBD@Z 00496160 f i espaceview.obj
 0001:00095190       ?EcritStatutElement@CDefElement@@QAEXPBD@Z 00496190 f i espaceview.obj
 0001:000951c0       ?LitIdElement@CDefElement@@QAEHXZ 004961c0 f i espaceview.obj
 0001:000951e0       ?LitNom@CDNom@@QAE?AVCString@@XZ 004961e0 f i espaceview.obj
 0001:00095220       ?EcritTitre@CDNom@@QAEXPBD@Z 00496220 f i espaceview.obj
 0001:00095250       ?LitGraphique@CDNom@@QAEHXZ 00496250 f i espaceview.obj
 0001:00095270       ?LitModule@CDNom@@QAEHXZ   00496270 f i espaceview.obj
 0001:00095290       ?LitTypeRequeteEtat@CDNom@@QAEHXZ 00496290 f i espaceview.obj
 0001:000952b0       ?LitTypeRequeteCodeSQL@CDNom@@QAEHXZ 004962b0 f i espaceview.obj
 0001:000952d0       ?EcritFlagScenario@CDNom@@QAEXH@Z 004962d0 f i espaceview.obj
 0001:000952f0       ?EcritFlagRequete@CDNom@@QAEXH@Z 004962f0 f i espaceview.obj
 0001:00095310       ?EcritFlagEtat@CDNom@@QAEXH@Z 00496310 f i espaceview.obj
 0001:00095330       ?LitNomSGBD@CDNom@@QAEXAAVCString@@@Z 00496330 f i espaceview.obj
 0001:00095360       ?EcritNom@CDNom@@QAEXPBD@Z 00496360 f i espaceview.obj
 0001:00095390       ?SendMessageA@CWnd@@QAEJIIJ@Z 00496390 f i espaceview.obj
 0001:000953c0       ?EcritProprietes@CDProprietes@@QAEXPBD@Z 004963c0 f i espaceview.obj
 0001:000953f0       ?EcritTitre@CDProprietes@@QAEXPBD@Z 004963f0 f i espaceview.obj
 0001:00095420       ??0?$CMap@PAU_TREEITEM@@AAPAU1@VCString@@AAV2@@@QAE@H@Z 00496420 f i espaceview.obj
 0001:000954a0       ??1?$CMap@PAU_TREEITEM@@AAPAU1@VCString@@AAV2@@@UAE@XZ 004964a0 f i espaceview.obj
 0001:00095510       ?Serialize@?$CMap@PAU_TREEITEM@@AAPAU1@VCString@@AAV2@@@UAEXAAVCArchive@@@Z 00496510 f i espaceview.obj
 0001:000956a0       ?MDIDestroy@CMDIChildWnd@@QAEXXZ 004966a0 f i espaceview.obj
 0001:000956e0       ?MDIActivate@CMDIChildWnd@@QAEXXZ 004966e0 f i espaceview.obj
 0001:00095720       ??_E?$CMap@PAU_TREEITEM@@AAPAU1@VCString@@AAV2@@@UAEPAXI@Z 00496720 f i espaceview.obj
 0001:00095720       ??_G?$CMap@PAU_TREEITEM@@AAPAU1@VCString@@AAV2@@@UAEPAXI@Z 00496720 f i espaceview.obj
 0001:00095760       ?SetAt@?$CMap@PAU_TREEITEM@@AAPAU1@VCString@@AAV2@@@QAEXAAPAU_TREEITEM@@AAVCString@@@Z 00496760 f i espaceview.obj
 0001:00095790       ?RemoveAll@?$CMap@PAU_TREEITEM@@AAPAU1@VCString@@AAV2@@@QAEXXZ 00496790 f i espaceview.obj
 0001:00095880       ?SerializeElements@@YGXAAVCArchive@@PAPAU_TREEITEM@@H@Z 00496880 f i espaceview.obj
 0001:000958d0       ??A?$CMap@PAU_TREEITEM@@AAPAU1@VCString@@AAV2@@@QAEAAVCString@@AAPAU_TREEITEM@@@Z 004968d0 f i espaceview.obj
 0001:00095980       ?DestructElements@@YGXPAPAU_TREEITEM@@H@Z 00496980 f i espaceview.obj
 0001:000959b0       ?InitHashTable@?$CMap@PAU_TREEITEM@@AAPAU1@VCString@@AAV2@@@QAEXIH@Z 004969b0 f i espaceview.obj
 0001:00095a50       ?NewAssoc@?$CMap@PAU_TREEITEM@@AAPAU1@VCString@@AAV2@@@IAEPAUCAssoc@1@XZ 00496a50 f i espaceview.obj
 0001:00095b60       ?GetAssocAt@?$CMap@PAU_TREEITEM@@AAPAU1@VCString@@AAV2@@@IBEPAUCAssoc@1@AAPAU_TREEITEM@@AAI@Z 00496b60 f i espaceview.obj
 0001:00095bf0       ?ConstructElements@@YGXPAPAU_TREEITEM@@H@Z 00496bf0 f i espaceview.obj
 0001:00095c50       ?HashKey@@YGIAAPAU_TREEITEM@@@Z 00496c50 f i espaceview.obj
 0001:00095c70       ?CompareElements@@YGHPBQAU_TREEITEM@@0@Z 00496c70 f i espaceview.obj
 0001:00095c90       ?DeleteItem@CTreeCtrl@@QAEHPAU_TREEITEM@@@Z 00496c90 f i espaceview.obj
 0001:00095cc0       ?DeleteAllItems@CTreeCtrl@@QAEHXZ 00496cc0 f i espaceview.obj
 0001:00095cf0       ?Expand@CTreeCtrl@@QAEHPAU_TREEITEM@@I@Z 00496cf0 f i espaceview.obj
 0001:00095d20       ?SetImageList@CTreeCtrl@@QAEPAVCImageList@@PAV2@H@Z 00496d20 f i espaceview.obj
 0001:00095d60       ?GetNextItem@CTreeCtrl@@QBEPAU_TREEITEM@@PAU2@I@Z 00496d60 f i espaceview.obj
 0001:00095d90       ?GetChildItem@CTreeCtrl@@QBEPAU_TREEITEM@@PAU2@@Z 00496d90 f i espaceview.obj
 0001:00095dc0       ?GetNextSiblingItem@CTreeCtrl@@QBEPAU_TREEITEM@@PAU2@@Z 00496dc0 f i espaceview.obj
 0001:00095df0       ?GetParentItem@CTreeCtrl@@QBEPAU_TREEITEM@@PAU2@@Z 00496df0 f i espaceview.obj
 0001:00095e20       ?GetRootItem@CTreeCtrl@@QBEPAU_TREEITEM@@XZ 00496e20 f i espaceview.obj
 0001:00095e50       ?SelectItem@CTreeCtrl@@QAEHPAU_TREEITEM@@@Z 00496e50 f i espaceview.obj
 0001:00095e80       ?SelectSetFirstVisible@CTreeCtrl@@QAEHPAU_TREEITEM@@@Z 00496e80 f i espaceview.obj
 0001:00095eb0       ?GetItem@CTreeCtrl@@QBEHPAUtagTVITEMA@@@Z 00496eb0 f i espaceview.obj
 0001:00095ee0       ?SetItemText@CTreeCtrl@@QAEHPAU_TREEITEM@@PBD@Z 00496ee0 f i espaceview.obj
 0001:00095f20       ?SetItemImage@CTreeCtrl@@QAEHPAU_TREEITEM@@HH@Z 00496f20 f i espaceview.obj
 0001:00095f60       ?Activate@CToolTipCtrl@@QAEXH@Z 00496f60 f i espaceview.obj
 0001:00095f90       ?RelayEvent@CToolTipCtrl@@QAEXPAUtagMSG@@@Z 00496f90 f i espaceview.obj
 0001:00095fc0       ?Pop@CToolTipCtrl@@QAEXXZ  00496fc0 f i espaceview.obj
 0001:00095ff0       ??0CWorkSpaceCtrl@@QAE@XZ  00496ff0 f   WorkSpaceCtrl.obj
 0001:0009607d       ??1CWorkSpaceCtrl@@UAE@XZ  0049707d f   WorkSpaceCtrl.obj
 0001:00096135       ?_GetBaseMessageMap@CWorkSpaceCtrl@@KGPBUAFX_MSGMAP@@XZ 00497135 f   WorkSpaceCtrl.obj
 0001:0009613f       ?GetMessageMap@CWorkSpaceCtrl@@MBEPBUAFX_MSGMAP@@XZ 0049713f f   WorkSpaceCtrl.obj
 0001:0009614f       ?OnCreate@CWorkSpaceCtrl@@IAEHPAUtagCREATESTRUCTA@@@Z 0049714f f   WorkSpaceCtrl.obj
 0001:000961f3       ?OnSize@CWorkSpaceCtrl@@IAEXIHH@Z 004971f3 f   WorkSpaceCtrl.obj
 0001:000962c9       ?AddView@CWorkSpaceCtrl@@QAEHPBDPAUCRuntimeClass@@PAUCCreateContext@@@Z 004972c9 f   WorkSpaceCtrl.obj
 0001:000964e6       ?RemoveView@CWorkSpaceCtrl@@QAEXH@Z 004974e6 f   WorkSpaceCtrl.obj
 0001:00096514       ?OnTabSelChange@CWorkSpaceCtrl@@IAEXPAUtagNMHDR@@PAJ@Z 00497514 f   WorkSpaceCtrl.obj
 0001:00096538       ?SetActiveView@CWorkSpaceCtrl@@QAEXH@Z 00497538 f   WorkSpaceCtrl.obj
 0001:0009664f       ?SetActiveView@CWorkSpaceCtrl@@QAEXPAUCRuntimeClass@@@Z 0049764f f   WorkSpaceCtrl.obj
 0001:0009676c       ?GetActiveView@CWorkSpaceCtrl@@QAEPAVCView@@XZ 0049776c f   WorkSpaceCtrl.obj
 0001:00096780       ?GetView@CWorkSpaceCtrl@@QAEPAVCView@@H@Z 00497780 f   WorkSpaceCtrl.obj
 0001:000967c4       ?GetView@CWorkSpaceCtrl@@QAEPAVCView@@PAUCRuntimeClass@@@Z 004977c4 f   WorkSpaceCtrl.obj
 0001:00096832       ?OnClose@CWorkSpaceCtrl@@IAEXXZ 00497832 f   WorkSpaceCtrl.obj
 0001:00096a60       ??_ECWorkSpaceCtrl@@UAEPAXI@Z 00497a60 f i WorkSpaceCtrl.obj
 0001:00096a60       ??_GCWorkSpaceCtrl@@UAEPAXI@Z 00497a60 f i WorkSpaceCtrl.obj
 0001:00096abf       ??0AjouteTable@@QAE@PAVCWnd@@@Z 00497abf f   ajoutetable.obj
 0001:00096b3a       ?DoDataExchange@AjouteTable@@MAEXPAVCDataExchange@@@Z 00497b3a f   ajoutetable.obj
 0001:00096b68       ?_GetBaseMessageMap@AjouteTable@@KGPBUAFX_MSGMAP@@XZ 00497b68 f   ajoutetable.obj
 0001:00096b72       ?GetMessageMap@AjouteTable@@MBEPBUAFX_MSGMAP@@XZ 00497b72 f   ajoutetable.obj
 0001:00096b82       ?OnAjouter@AjouteTable@@IAEXXZ 00497b82 f   ajoutetable.obj
 0001:00096c6f       ?OnDblclkListbox@AjouteTable@@IAEXXZ 00497c6f f   ajoutetable.obj
 0001:00096d5c       ?OnInitDialog@AjouteTable@@MAEHXZ 00497d5c f   ajoutetable.obj
 0001:00096e3a       ??0CAjoutTableSimple@@QAE@PAVCWnd@@@Z 00497e3a f   ajoutetable.obj
 0001:00096ed4       ?DoDataExchange@CAjoutTableSimple@@MAEXPAVCDataExchange@@@Z 00497ed4 f   ajoutetable.obj
 0001:00096f2e       ?_GetBaseMessageMap@CAjoutTableSimple@@KGPBUAFX_MSGMAP@@XZ 00497f2e f   ajoutetable.obj
 0001:00096f38       ?GetMessageMap@CAjoutTableSimple@@MBEPBUAFX_MSGMAP@@XZ 00497f38 f   ajoutetable.obj
 0001:00096f48       ?OnInitDialog@CAjoutTableSimple@@MAEHXZ 00497f48 f   ajoutetable.obj
 0001:0009702e       ?OnOK@CAjoutTableSimple@@MAEXXZ 0049802e f   ajoutetable.obj
 0001:0009711d       ?OnCloseupListTables@CAjoutTableSimple@@IAEXXZ 0049811d f   ajoutetable.obj
 0001:00097310       ??_GAjouteTable@@UAEPAXI@Z 00498310 f i ajoutetable.obj
 0001:00097310       ??_EAjouteTable@@UAEPAXI@Z 00498310 f i ajoutetable.obj
 0001:00097350       ??1AjouteTable@@UAE@XZ     00498350 f i ajoutetable.obj
 0001:000973b0       ??_GCAjoutTableSimple@@UAEPAXI@Z 004983b0 f i ajoutetable.obj
 0001:000973b0       ??_ECAjoutTableSimple@@UAEPAXI@Z 004983b0 f i ajoutetable.obj
 0001:000973f0       ??1CAjoutTableSimple@@UAE@XZ 004983f0 f i ajoutetable.obj
 0001:00097470       ??0CListBox@@QAE@XZ        00498470 f i ajoutetable.obj
 0001:000974a0       ??_ECListBox@@UAEPAXI@Z    004984a0 f i ajoutetable.obj
 0001:000974a0       ??_GCListBox@@UAEPAXI@Z    004984a0 f i ajoutetable.obj
 0001:000974e0       ?GetCount@CListBox@@QBEHXZ 004984e0 f i ajoutetable.obj
 0001:00097510       ?GetCurSel@CListBox@@QBEHXZ 00498510 f i ajoutetable.obj
 0001:00097540       ?AddString@CListBox@@QAEHPBD@Z 00498540 f i ajoutetable.obj
 0001:00097570       _WinMain@16                00498570 f   APPMODUL.OBJ
 0001:0009758c       ?AfxInitialize@@YGHHK@Z    0049858c f   APPMODUL.OBJ
 0001:00097610       ??0DialogCritere@@QAE@PAVCWnd@@@Z 00498610 f   boitedialog.obj
 0001:00097686       ?DoDataExchange@DialogCritere@@MAEXPAVCDataExchange@@@Z 00498686 f   boitedialog.obj
 0001:000976b4       ?_GetBaseMessageMap@DialogCritere@@KGPBUAFX_MSGMAP@@XZ 004986b4 f   boitedialog.obj
 0001:000976be       ?GetMessageMap@DialogCritere@@MBEPBUAFX_MSGMAP@@XZ 004986be f   boitedialog.obj
 0001:000976ce       ??0CDialogJointure@@QAE@PAVCWnd@@@Z 004986ce f   boitedialog.obj
 0001:0009778c       ?DoDataExchange@CDialogJointure@@MAEXPAVCDataExchange@@@Z 0049878c f   boitedialog.obj
 0001:000977f9       ?_GetBaseMessageMap@CDialogJointure@@KGPBUAFX_MSGMAP@@XZ 004987f9 f   boitedialog.obj
 0001:00097803       ?GetMessageMap@CDialogJointure@@MBEPBUAFX_MSGMAP@@XZ 00498803 f   boitedialog.obj
 0001:00097813       ??0CDesTable@@QAE@PAVCWnd@@@Z 00498813 f   boitedialog.obj
 0001:000978a8       ?DoDataExchange@CDesTable@@MAEXPAVCDataExchange@@@Z 004988a8 f   boitedialog.obj
 0001:000978eb       ?_GetBaseMessageMap@CDesTable@@KGPBUAFX_MSGMAP@@XZ 004988eb f   boitedialog.obj
 0001:000978f5       ?GetMessageMap@CDesTable@@MBEPBUAFX_MSGMAP@@XZ 004988f5 f   boitedialog.obj
 0001:000979d0       ??_GDialogCritere@@UAEPAXI@Z 004989d0 f i boitedialog.obj
 0001:000979d0       ??_EDialogCritere@@UAEPAXI@Z 004989d0 f i boitedialog.obj
 0001:00097a10       ??1DialogCritere@@UAE@XZ   00498a10 f i boitedialog.obj
 0001:00097a70       ??_ECDialogJointure@@UAEPAXI@Z 00498a70 f i boitedialog.obj
 0001:00097a70       ??_GCDialogJointure@@UAEPAXI@Z 00498a70 f i boitedialog.obj
 0001:00097ab0       ??1CDialogJointure@@UAE@XZ 00498ab0 f i boitedialog.obj
 0001:00097b40       ??_ECDesTable@@UAEPAXI@Z   00498b40 f i boitedialog.obj
 0001:00097b40       ??_GCDesTable@@UAEPAXI@Z   00498b40 f i boitedialog.obj
 0001:00097b80       ??1CDesTable@@UAE@XZ       00498b80 f i boitedialog.obj
 0001:00097bf0       ??0CDparam@@QAE@PAVCWnd@@@Z 00498bf0 f   Dparam.obj
 0001:00097c85       ?DoDataExchange@CDparam@@MAEXPAVCDataExchange@@@Z 00498c85 f   Dparam.obj
 0001:00097cc8       ?_GetBaseMessageMap@CDparam@@KGPBUAFX_MSGMAP@@XZ 00498cc8 f   Dparam.obj
 0001:00097cd2       ?GetMessageMap@CDparam@@MBEPBUAFX_MSGMAP@@XZ 00498cd2 f   Dparam.obj
 0001:00097ce2       ?EcritParam@CDparam@@QAEXPBD@Z 00498ce2 f   Dparam.obj
 0001:00097cfe       ?LitValParam@CDparam@@QAEXAAVCString@@@Z 00498cfe f   Dparam.obj
 0001:00097d1a       ?EcritValParam@CDparam@@QAEXPBD@Z 00498d1a f   Dparam.obj
 0001:00097d90       ??_ECDparam@@UAEPAXI@Z     00498d90 f i Dparam.obj
 0001:00097d90       ??_GCDparam@@UAEPAXI@Z     00498d90 f i Dparam.obj
 0001:00097dd0       ??1CDparam@@UAE@XZ         00498dd0 f i Dparam.obj
 0001:00097e5f       ??0CTWScriptEdit@@QAE@XZ   00498e5f f   TWScriptEdit.obj
 0001:00097fca       ??1CTWScriptEdit@@UAE@XZ   00498fca f   TWScriptEdit.obj
 0001:00098087       ?_GetBaseMessageMap@CTWScriptEdit@@KGPBUAFX_MSGMAP@@XZ 00499087 f   TWScriptEdit.obj
 0001:00098091       ?GetMessageMap@CTWScriptEdit@@MBEPBUAFX_MSGMAP@@XZ 00499091 f   TWScriptEdit.obj
 0001:000980a1       ?OnSize@CTWScriptEdit@@IAEXIHH@Z 004990a1 f   TWScriptEdit.obj
 0001:000980ee       ?OnRButtonDown@CTWScriptEdit@@IAEXIVCPoint@@@Z 004990ee f   TWScriptEdit.obj
 0001:00098188       ?OnHelpInfo@CTWScriptEdit@@IAEHPAUtagHELPINFO@@@Z 00499188 f   TWScriptEdit.obj
 0001:000983d9       ?ExtractionMotSuivant@CTWScriptEdit@@QAEXAAVCString@@H0@Z 004993d9 f   TWScriptEdit.obj
 0001:000985ff       ?ExtractionMotPrecedent@CTWScriptEdit@@QAEXAAVCString@@H0@Z 004995ff f   TWScriptEdit.obj
 0001:00098842       ?ExtractionMotCourant@CTWScriptEdit@@QAEXAAVCString@@H0@Z 00499842 f   TWScriptEdit.obj
 0001:00098bb1       ?InverseChaine@CTWScriptEdit@@QAEXAAVCString@@@Z 00499bb1 f   TWScriptEdit.obj
 0001:00098c46       ?TraitementEspaceTabulation@CTWScriptEdit@@QAEXAAVCString@@H0@Z 00499c46 f   TWScriptEdit.obj
 0001:00098cf7       ?ChangePolice@CTWScriptEdit@@QAEXJ@Z 00499cf7 f   TWScriptEdit.obj
 0001:00098d56       ?PositionneErreur@CTWScriptEdit@@QAEXAAVCString@@@Z 00499d56 f   TWScriptEdit.obj
 0001:00098dd9       ?RechercheIndexPosition@CTWScriptEdit@@QAEXAAVCString@@PAH1@Z 00499dd9 f   TWScriptEdit.obj
 0001:00098f4f       ?Initialize@CTWScriptEdit@@QAEXXZ 00499f4f f   TWScriptEdit.obj
 0001:00099026       ?SetSLComment@CTWScriptEdit@@QAEXDD@Z 0049a026 f   TWScriptEdit.obj
 0001:00099045       ?SetSLComment@CTWScriptEdit@@QAEXPBD@Z 0049a045 f   TWScriptEdit.obj
 0001:00099061       ?AddKeywords@CTWScriptEdit@@QAEXPBD@Z 0049a061 f   TWScriptEdit.obj
 0001:000990f7       ?ClearKeywords@CTWScriptEdit@@QAEXXZ 0049a0f7 f   TWScriptEdit.obj
 0001:00099118       ?AddConstants@CTWScriptEdit@@QAEXPBD@Z 0049a118 f   TWScriptEdit.obj
 0001:000991ae       ?ClearConstants@CTWScriptEdit@@QAEXXZ 0049a1ae f   TWScriptEdit.obj
 0001:000991cf       ?AddFonctionsLPX@CTWScriptEdit@@QAEXPBD@Z 0049a1cf f   TWScriptEdit.obj
 0001:00099265       ?ClearFonctionsLPX@CTWScriptEdit@@QAEXXZ 0049a265 f   TWScriptEdit.obj
 0001:00099286       ?SetCaseSensitive@CTWScriptEdit@@QAEXH@Z 0049a286 f   TWScriptEdit.obj
 0001:0009929c       ?SetChangeCase@CTWScriptEdit@@QAEXH@Z 0049a29c f   TWScriptEdit.obj
 0001:000992b2       ?SetStringQuotes@CTWScriptEdit@@QAEXPBD@Z 0049a2b2 f   TWScriptEdit.obj
 0001:000992ce       ?SetKeywordColor@CTWScriptEdit@@QAEXKH@Z 0049a2ce f   TWScriptEdit.obj
 0001:000992f3       ?SetConstantColor@CTWScriptEdit@@QAEXKH@Z 0049a2f3 f   TWScriptEdit.obj
 0001:00099318       ?SetCommentColor@CTWScriptEdit@@QAEXKH@Z 0049a318 f   TWScriptEdit.obj
 0001:00099337       ?SetNumberColor@CTWScriptEdit@@QAEXKH@Z 0049a337 f   TWScriptEdit.obj
 0001:00099356       ?SetStringColor@CTWScriptEdit@@QAEXKH@Z 0049a356 f   TWScriptEdit.obj
 0001:00099378       ?SetFonctionsLPXColor@CTWScriptEdit@@QAEXKH@Z 0049a378 f   TWScriptEdit.obj
 0001:0009939d       ?OnGetDlgCode@CTWScriptEdit@@IAEIXZ 0049a39d f   TWScriptEdit.obj
 0001:000993bf       ?OnChar@CTWScriptEdit@@IAEXIII@Z 0049a3bf f   TWScriptEdit.obj
 0001:000993e0       ?IsKeyword@CTWScriptEdit@@IAEHPBD@Z 0049a3e0 f   TWScriptEdit.obj
 0001:0009946c       ?IsConstant@CTWScriptEdit@@IAEHPBD@Z 0049a46c f   TWScriptEdit.obj
 0001:000994f8       ?IsFonctionsLPX@CTWScriptEdit@@IAEHPBD@Z 0049a4f8 f   TWScriptEdit.obj
 0001:00099584       ?IsStringQuote@CTWScriptEdit@@IAEHD@Z 0049a584 f   TWScriptEdit.obj
 0001:000995a9       ?SetFormatRange@CTWScriptEdit@@IAEXHHHK@Z 0049a5a9 f   TWScriptEdit.obj
 0001:0009963c       ?ChangeCase@CTWScriptEdit@@IAEXHHPBD@Z 0049a63c f   TWScriptEdit.obj
 0001:00099679       ?FormatTextRange@CTWScriptEdit@@IAEXHH@Z 0049a679 f   TWScriptEdit.obj
 0001:00099c43       ?FormatTextLines@CTWScriptEdit@@IAEXHH@Z 0049ac43 f   TWScriptEdit.obj
 0001:00099ca6       ?FormatAll@CTWScriptEdit@@QAEXXZ 0049aca6 f   TWScriptEdit.obj
 0001:00099cd4       ?OnSetText@CTWScriptEdit@@IAEJIJ@Z 0049acd4 f   TWScriptEdit.obj
 0001:00099cf9       ?OnChange@CTWScriptEdit@@IAEXXZ 0049acf9 f   TWScriptEdit.obj
 0001:00099e53       ?OnProtected@CTWScriptEdit@@IAEXPAUtagNMHDR@@PAJ@Z 0049ae53 f   TWScriptEdit.obj
 0001:00099f89       ?OnSelChange@CTWScriptEdit@@IAEXPAUtagNMHDR@@PAJ@Z 0049af89 f   TWScriptEdit.obj
 0001:00099f9f       ?OnCreate@CTWScriptEdit@@IAEHPAUtagCREATESTRUCTA@@@Z 0049af9f f   TWScriptEdit.obj
 0001:00099fef       ?OnDeroulantColler@CTWScriptEdit@@IAEXXZ 0049afef f   TWScriptEdit.obj
 0001:0009a008       ?OnDeroulantCopier@CTWScriptEdit@@IAEXXZ 0049b008 f   TWScriptEdit.obj
 0001:0009a01b       ?OnDeroulantCouper@CTWScriptEdit@@IAEXXZ 0049b01b f   TWScriptEdit.obj
 0001:0009a02e       ?OnUpdateDeroulantColler@CTWScriptEdit@@IAEXPAVCCmdUI@@@Z 0049b02e f   TWScriptEdit.obj
 0001:0009a050       ?OnUpdateDeroulantCopier@CTWScriptEdit@@IAEXPAVCCmdUI@@@Z 0049b050 f   TWScriptEdit.obj
 0001:0009a07a       ?OnUpdateDeroulantCouper@CTWScriptEdit@@IAEXPAVCCmdUI@@@Z 0049b07a f   TWScriptEdit.obj
 0001:0009a0a4       ?OnInitMenuPopup@CTWScriptEdit@@IAEXPAVCMenu@@IH@Z 0049b0a4 f   TWScriptEdit.obj
 0001:0009a1d0       ?OnKeyDown@CTWScriptEdit@@IAEXIII@Z 0049b1d0 f   TWScriptEdit.obj
 0001:0009aaf0       ??_ECTWScriptEdit@@UAEPAXI@Z 0049baf0 f i TWScriptEdit.obj
 0001:0009aaf0       ??_GCTWScriptEdit@@UAEPAXI@Z 0049baf0 f i TWScriptEdit.obj
 0001:0009ab30       ?GetMenuItemCount@CMenu@@QBEIXZ 0049bb30 f i TWScriptEdit.obj
 0001:0009ab50       ?GetMenuItemID@CMenu@@QBEIH@Z 0049bb50 f i TWScriptEdit.obj
 0001:0009ab80       ?OnInitMenuPopup@CWnd@@IAEXPAVCMenu@@IH@Z 0049bb80 f i TWScriptEdit.obj
 0001:0009aba0       ?OnGetDlgCode@CWnd@@IAEIXZ 0049bba0 f i TWScriptEdit.obj
 0001:0009abc0       ??0CRichEditCtrl@@QAE@XZ   0049bbc0 f i TWScriptEdit.obj
 0001:0009abf0       ??_GCRichEditCtrl@@UAEPAXI@Z 0049bbf0 f i TWScriptEdit.obj
 0001:0009abf0       ??_ECRichEditCtrl@@UAEPAXI@Z 0049bbf0 f i TWScriptEdit.obj
 0001:0009ac30       ?Cut@CRichEditCtrl@@QAEXXZ 0049bc30 f i TWScriptEdit.obj
 0001:0009ac60       ??0CSelectClause@@QAE@XZ   0049bc60 f   DescRequete.obj
 0001:0009ad26       ??1CSelectClause@@UAE@XZ   0049bd26 f   DescRequete.obj
 0001:0009ad9b       ??0CListSlectClause@@QAE@XZ 0049bd9b f   DescRequete.obj
 0001:0009adc9       ??1CListSlectClause@@UAE@XZ 0049bdc9 f   DescRequete.obj
 0001:0009ae1d       ?SupprimeTous@CListSlectClause@@QAEXXZ 0049be1d f   DescRequete.obj
 0001:0009ae8a       ?AjouteSelection@CListSlectClause@@QAEXPAVCSelectClause@@@Z 0049be8a f   DescRequete.obj
 0001:0009aea6       ?LitPremier@CListSlectClause@@QAEPAVCSelectClause@@XZ 0049bea6 f   DescRequete.obj
 0001:0009aef1       ?LitSuivant@CListSlectClause@@QAEPAVCSelectClause@@XZ 0049bef1 f   DescRequete.obj
 0001:0009af38       ??0CFromClause@@QAE@XZ     0049bf38 f   DescRequete.obj
 0001:0009afb6       ??1CFromClause@@UAE@XZ     0049bfb6 f   DescRequete.obj
 0001:0009b00d       ??0CListFromClause@@QAE@XZ 0049c00d f   DescRequete.obj
 0001:0009b03b       ??1CListFromClause@@UAE@XZ 0049c03b f   DescRequete.obj
 0001:0009b08f       ?SupprimeTous@CListFromClause@@QAEXXZ 0049c08f f   DescRequete.obj
 0001:0009b0fc       ?AjouteFromClause@CListFromClause@@QAEXPAVCFromClause@@@Z 0049c0fc f   DescRequete.obj
 0001:0009b118       ?LitPremier@CListFromClause@@QAEPAVCFromClause@@XZ 0049c118 f   DescRequete.obj
 0001:0009b163       ?LitSuivant@CListFromClause@@QAEPAVCFromClause@@XZ 0049c163 f   DescRequete.obj
 0001:0009b1aa       ??0CJointureClause@@QAE@XZ 0049c1aa f   DescRequete.obj
 0001:0009b270       ??1CJointureClause@@UAE@XZ 0049c270 f   DescRequete.obj
 0001:0009b2e5       ??0CListJointureClause@@QAE@XZ 0049c2e5 f   DescRequete.obj
 0001:0009b313       ??1CListJointureClause@@UAE@XZ 0049c313 f   DescRequete.obj
 0001:0009b367       ?SupprimeTous@CListJointureClause@@QAEXXZ 0049c367 f   DescRequete.obj
 0001:0009b3d4       ?AjouteFromClause@CListJointureClause@@QAEXPAVCJointureClause@@@Z 0049c3d4 f   DescRequete.obj
 0001:0009b3f0       ?LitPremier@CListJointureClause@@QAEPAVCJointureClause@@XZ 0049c3f0 f   DescRequete.obj
 0001:0009b43b       ?LitSuivant@CListJointureClause@@QAEPAVCJointureClause@@XZ 0049c43b f   DescRequete.obj
 0001:0009b482       ??0CWhereClause@@QAE@XZ    0049c482 f   DescRequete.obj
 0001:0009b500       ??1CWhereClause@@QAE@XZ    0049c500 f   DescRequete.obj
 0001:0009b55a       ??0CListWhereClause@@QAE@XZ 0049c55a f   DescRequete.obj
 0001:0009b588       ??1CListWhereClause@@UAE@XZ 0049c588 f   DescRequete.obj
 0001:0009b5dc       ?SupprimeTous@CListWhereClause@@QAEXXZ 0049c5dc f   DescRequete.obj
 0001:0009b647       ?AjouteWhereClause@CListWhereClause@@QAEXPAVCWhereClause@@@Z 0049c647 f   DescRequete.obj
 0001:0009b663       ?LitPremier@CListWhereClause@@QAEPAVCWhereClause@@XZ 0049c663 f   DescRequete.obj
 0001:0009b6ae       ?LitSuivant@CListWhereClause@@QAEPAVCWhereClause@@XZ 0049c6ae f   DescRequete.obj
 0001:0009b6f5       ??0CGroupByClause@@QAE@XZ  0049c6f5 f   DescRequete.obj
 0001:0009b773       ??1CGroupByClause@@UAE@XZ  0049c773 f   DescRequete.obj
 0001:0009b7ca       ??0CListGroupByClause@@QAE@XZ 0049c7ca f   DescRequete.obj
 0001:0009b7f8       ??1CListGroupByClause@@UAE@XZ 0049c7f8 f   DescRequete.obj
 0001:0009b84c       ?SupprimeTous@CListGroupByClause@@QAEXXZ 0049c84c f   DescRequete.obj
 0001:0009b8b9       ?AjouteGroupByClause@CListGroupByClause@@QAEXPAVCGroupByClause@@@Z 0049c8b9 f   DescRequete.obj
 0001:0009b8d5       ?LitPremier@CListGroupByClause@@QAEPAVCGroupByClause@@XZ 0049c8d5 f   DescRequete.obj
 0001:0009b920       ?LitSuivant@CListGroupByClause@@QAEPAVCGroupByClause@@XZ 0049c920 f   DescRequete.obj
 0001:0009b967       ??0CHavingClause@@QAE@XZ   0049c967 f   DescRequete.obj
 0001:0009b9ef       ??1CHavingClause@@QAE@XZ   0049c9ef f   DescRequete.obj
 0001:0009ba49       ??0CListHavingClause@@QAE@XZ 0049ca49 f   DescRequete.obj
 0001:0009ba77       ??1CListHavingClause@@UAE@XZ 0049ca77 f   DescRequete.obj
 0001:0009bacb       ?SupprimeTous@CListHavingClause@@QAEXXZ 0049cacb f   DescRequete.obj
 0001:0009bb36       ?AjouteHavingClause@CListHavingClause@@QAEXPAVCHavingClause@@@Z 0049cb36 f   DescRequete.obj
 0001:0009bb52       ?LitPremier@CListHavingClause@@QAEPAVCHavingClause@@XZ 0049cb52 f   DescRequete.obj
 0001:0009bb9d       ?LitSuivant@CListHavingClause@@QAEPAVCHavingClause@@XZ 0049cb9d f   DescRequete.obj
 0001:0009bbe4       ??0COrderByClause@@QAE@XZ  0049cbe4 f   DescRequete.obj
 0001:0009bc6c       ??1COrderByClause@@UAE@XZ  0049cc6c f   DescRequete.obj
 0001:0009bcc3       ??0CListOrderByClause@@QAE@XZ 0049ccc3 f   DescRequete.obj
 0001:0009bcf1       ??1CListOrderByClause@@UAE@XZ 0049ccf1 f   DescRequete.obj
 0001:0009bd45       ?SupprimeTous@CListOrderByClause@@QAEXXZ 0049cd45 f   DescRequete.obj
 0001:0009bdb2       ?AjouteOrderByClause@CListOrderByClause@@QAEXPAVCOrderByClause@@@Z 0049cdb2 f   DescRequete.obj
 0001:0009bdce       ?LitPremier@CListOrderByClause@@QAEPAVCOrderByClause@@XZ 0049cdce f   DescRequete.obj
 0001:0009be19       ?LitSuivant@CListOrderByClause@@QAEPAVCOrderByClause@@XZ 0049ce19 f   DescRequete.obj
 0001:0009be60       ??0CSelection@@QAE@XZ      0049ce60 f   DescRequete.obj
 0001:0009bf06       ??1CSelection@@UAE@XZ      0049cf06 f   DescRequete.obj
 0001:0009bf9f       ??0CCondition@@QAE@XZ      0049cf9f f   DescRequete.obj
 0001:0009bfc3       ??1CCondition@@QAE@XZ      0049cfc3 f   DescRequete.obj
 0001:0009c00e       ?AjouteCondition@CCondition@@QAEXPAVCWhereClause@@@Z 0049d00e f   DescRequete.obj
 0001:0009c02a       ?SupprimeTous@CCondition@@QAEXXZ 0049d02a f   DescRequete.obj
 0001:0009c06c       ?LitPremier@CCondition@@QAEPAVCWhereClause@@XZ 0049d06c f   DescRequete.obj
 0001:0009c0b3       ?LitSuivant@CCondition@@QAEPAVCWhereClause@@XZ 0049d0b3 f   DescRequete.obj
 0001:0009c0f6       ??0CListCondition@@QAE@XZ  0049d0f6 f   DescRequete.obj
 0001:0009c11a       ??1CListCondition@@QAE@XZ  0049d11a f   DescRequete.obj
 0001:0009c165       ?SupprimeTous@CListCondition@@QAEXXZ 0049d165 f   DescRequete.obj
 0001:0009c1cf       ?AjouteCondition@CListCondition@@QAEXPAVCCondition@@@Z 0049d1cf f   DescRequete.obj
 0001:0009c1eb       ?LitPremier@CListCondition@@QAEPAVCCondition@@XZ 0049d1eb f   DescRequete.obj
 0001:0009c232       ?LitSuivant@CListCondition@@QAEPAVCCondition@@XZ 0049d232 f   DescRequete.obj
 0001:0009c275       ?OperationAnd@CListCondition@@QAEPAV1@PAV1@@Z 0049d275 f   DescRequete.obj
 0001:0009c3d2       ?OperationOr@CListCondition@@QAEPAV1@PAV1@@Z 0049d3d2 f   DescRequete.obj
 0001:0009c57c       ??0CConditionHaving@@QAE@XZ 0049d57c f   DescRequete.obj
 0001:0009c5a0       ??1CConditionHaving@@QAE@XZ 0049d5a0 f   DescRequete.obj
 0001:0009c5eb       ?AjouteCondition@CConditionHaving@@QAEXPAVCHavingClause@@@Z 0049d5eb f   DescRequete.obj
 0001:0009c607       ?SupprimeTous@CConditionHaving@@QAEXXZ 0049d607 f   DescRequete.obj
 0001:0009c649       ?LitPremier@CConditionHaving@@QAEPAVCHavingClause@@XZ 0049d649 f   DescRequete.obj
 0001:0009c690       ?LitSuivant@CConditionHaving@@QAEPAVCHavingClause@@XZ 0049d690 f   DescRequete.obj
 0001:0009c6d3       ??0CListConditionHaving@@QAE@XZ 0049d6d3 f   DescRequete.obj
 0001:0009c6f7       ??1CListConditionHaving@@QAE@XZ 0049d6f7 f   DescRequete.obj
 0001:0009c742       ?SupprimeTous@CListConditionHaving@@QAEXXZ 0049d742 f   DescRequete.obj
 0001:0009c7ac       ?AjouteCondition@CListConditionHaving@@QAEXPAVCConditionHaving@@@Z 0049d7ac f   DescRequete.obj
 0001:0009c7c8       ?LitPremier@CListConditionHaving@@QAEPAVCConditionHaving@@XZ 0049d7c8 f   DescRequete.obj
 0001:0009c80f       ?LitSuivant@CListConditionHaving@@QAEPAVCConditionHaving@@XZ 0049d80f f   DescRequete.obj
 0001:0009c852       ?OperationAnd@CListConditionHaving@@QAEPAV1@PAV1@@Z 0049d852 f   DescRequete.obj
 0001:0009c9af       ?OperationOr@CListConditionHaving@@QAEPAV1@PAV1@@Z 0049d9af f   DescRequete.obj
 0001:0009cb59       ??0CColonneInsertion@@QAE@XZ 0049db59 f   DescRequete.obj
 0001:0009cbb8       ??1CColonneInsertion@@UAE@XZ 0049dbb8 f   DescRequete.obj
 0001:0009cbd7       ??0CListColonneInsertion@@QAE@XZ 0049dbd7 f   DescRequete.obj
 0001:0009cc51       ??1CListColonneInsertion@@UAE@XZ 0049dc51 f   DescRequete.obj
 0001:0009ccb4       ?SupprimeTous@CListColonneInsertion@@QAEXXZ 0049dcb4 f   DescRequete.obj
 0001:0009cd31       ?AjouteColonneInsertion@CListColonneInsertion@@QAEXPAVCColonneInsertion@@@Z 0049dd31 f   DescRequete.obj
 0001:0009cd4d       ?LitPremier@CListColonneInsertion@@QAEPAVCColonneInsertion@@XZ 0049dd4d f   DescRequete.obj
 0001:0009cd98       ?LitSuivant@CListColonneInsertion@@QAEPAVCColonneInsertion@@XZ 0049dd98 f   DescRequete.obj
 0001:0009cddf       ??0CValeurInsertion@@QAE@XZ 0049dddf f   DescRequete.obj
 0001:0009ce3e       ??1CValeurInsertion@@UAE@XZ 0049de3e f   DescRequete.obj
 0001:0009ce5d       ??0CListValeurInsertion@@QAE@XZ 0049de5d f   DescRequete.obj
 0001:0009ce8b       ??1CListValeurInsertion@@UAE@XZ 0049de8b f   DescRequete.obj
 0001:0009cedf       ?SupprimeTous@CListValeurInsertion@@QAEXXZ 0049dedf f   DescRequete.obj
 0001:0009cf4c       ?AjouteValeurInsertion@CListValeurInsertion@@QAEXPAVCValeurInsertion@@@Z 0049df4c f   DescRequete.obj
 0001:0009cf68       ?LitPremier@CListValeurInsertion@@QAEPAVCValeurInsertion@@XZ 0049df68 f   DescRequete.obj
 0001:0009cfb3       ?LitSuivant@CListValeurInsertion@@QAEPAVCValeurInsertion@@XZ 0049dfb3 f   DescRequete.obj
 0001:0009cffa       ??0CValeurUpdate@@QAE@XZ   0049dffa f   DescRequete.obj
 0001:0009d078       ??1CValeurUpdate@@UAE@XZ   0049e078 f   DescRequete.obj
 0001:0009d0cf       ??0CListValeurUpdate@@QAE@XZ 0049e0cf f   DescRequete.obj
 0001:0009d0fd       ??1CListValeurUpdate@@UAE@XZ 0049e0fd f   DescRequete.obj
 0001:0009d151       ?SupprimeTous@CListValeurUpdate@@QAEXXZ 0049e151 f   DescRequete.obj
 0001:0009d1be       ?AjouteValeurUpdate@CListValeurUpdate@@QAEXPAVCValeurUpdate@@@Z 0049e1be f   DescRequete.obj
 0001:0009d1da       ?LitPremier@CListValeurUpdate@@QAEPAVCValeurUpdate@@XZ 0049e1da f   DescRequete.obj
 0001:0009d225       ?LitSuivant@CListValeurUpdate@@QAEPAVCValeurUpdate@@XZ 0049e225 f   DescRequete.obj
 0001:0009dbf0       ??_ECSelectClause@@UAEPAXI@Z 0049ebf0 f i DescRequete.obj
 0001:0009dbf0       ??_GCSelectClause@@UAEPAXI@Z 0049ebf0 f i DescRequete.obj
 0001:0009dc30       ??_ECListSlectClause@@UAEPAXI@Z 0049ec30 f i DescRequete.obj
 0001:0009dc30       ??_GCListSlectClause@@UAEPAXI@Z 0049ec30 f i DescRequete.obj
 0001:0009dc70       ??_ECFromClause@@UAEPAXI@Z 0049ec70 f i DescRequete.obj
 0001:0009dc70       ??_GCFromClause@@UAEPAXI@Z 0049ec70 f i DescRequete.obj
 0001:0009dcb0       ??_GCListFromClause@@UAEPAXI@Z 0049ecb0 f i DescRequete.obj
 0001:0009dcb0       ??_ECListFromClause@@UAEPAXI@Z 0049ecb0 f i DescRequete.obj
 0001:0009dcf0       ??_GCJointureClause@@UAEPAXI@Z 0049ecf0 f i DescRequete.obj
 0001:0009dcf0       ??_ECJointureClause@@UAEPAXI@Z 0049ecf0 f i DescRequete.obj
 0001:0009dd30       ??_ECListJointureClause@@UAEPAXI@Z 0049ed30 f i DescRequete.obj
 0001:0009dd30       ??_GCListJointureClause@@UAEPAXI@Z 0049ed30 f i DescRequete.obj
 0001:0009dd70       ??_GCListWhereClause@@UAEPAXI@Z 0049ed70 f i DescRequete.obj
 0001:0009dd70       ??_ECListWhereClause@@UAEPAXI@Z 0049ed70 f i DescRequete.obj
 0001:0009ddb0       ??_GCWhereClause@@QAEPAXI@Z 0049edb0 f i DescRequete.obj
 0001:0009ddf0       ??_GCGroupByClause@@UAEPAXI@Z 0049edf0 f i DescRequete.obj
 0001:0009ddf0       ??_ECGroupByClause@@UAEPAXI@Z 0049edf0 f i DescRequete.obj
 0001:0009de30       ??_GCListGroupByClause@@UAEPAXI@Z 0049ee30 f i DescRequete.obj
 0001:0009de30       ??_ECListGroupByClause@@UAEPAXI@Z 0049ee30 f i DescRequete.obj
 0001:0009de70       ??_ECListHavingClause@@UAEPAXI@Z 0049ee70 f i DescRequete.obj
 0001:0009de70       ??_GCListHavingClause@@UAEPAXI@Z 0049ee70 f i DescRequete.obj
 0001:0009deb0       ??_GCHavingClause@@QAEPAXI@Z 0049eeb0 f i DescRequete.obj
 0001:0009def0       ??_ECOrderByClause@@UAEPAXI@Z 0049eef0 f i DescRequete.obj
 0001:0009def0       ??_GCOrderByClause@@UAEPAXI@Z 0049eef0 f i DescRequete.obj
 0001:0009df30       ??_GCListOrderByClause@@UAEPAXI@Z 0049ef30 f i DescRequete.obj
 0001:0009df30       ??_ECListOrderByClause@@UAEPAXI@Z 0049ef30 f i DescRequete.obj
 0001:0009df70       ??_ECSelection@@UAEPAXI@Z  0049ef70 f i DescRequete.obj
 0001:0009df70       ??_GCSelection@@UAEPAXI@Z  0049ef70 f i DescRequete.obj
 0001:0009dfb0       ??_GCCondition@@QAEPAXI@Z  0049efb0 f i DescRequete.obj
 0001:0009dff0       ??_GCConditionHaving@@QAEPAXI@Z 0049eff0 f i DescRequete.obj
 0001:0009e030       ??_GCColonneInsertion@@UAEPAXI@Z 0049f030 f i DescRequete.obj
 0001:0009e030       ??_ECColonneInsertion@@UAEPAXI@Z 0049f030 f i DescRequete.obj
 0001:0009e070       ??_GCListColonneInsertion@@UAEPAXI@Z 0049f070 f i DescRequete.obj
 0001:0009e070       ??_ECListColonneInsertion@@UAEPAXI@Z 0049f070 f i DescRequete.obj
 0001:0009e0b0       ??_GCValeurInsertion@@UAEPAXI@Z 0049f0b0 f i DescRequete.obj
 0001:0009e0b0       ??_ECValeurInsertion@@UAEPAXI@Z 0049f0b0 f i DescRequete.obj
 0001:0009e0f0       ??_ECListValeurInsertion@@UAEPAXI@Z 0049f0f0 f i DescRequete.obj
 0001:0009e0f0       ??_GCListValeurInsertion@@UAEPAXI@Z 0049f0f0 f i DescRequete.obj
 0001:0009e130       ??_GCValeurUpdate@@UAEPAXI@Z 0049f130 f i DescRequete.obj
 0001:0009e130       ??_ECValeurUpdate@@UAEPAXI@Z 0049f130 f i DescRequete.obj
 0001:0009e170       ??_ECListValeurUpdate@@UAEPAXI@Z 0049f170 f i DescRequete.obj
 0001:0009e170       ??_GCListValeurUpdate@@UAEPAXI@Z 0049f170 f i DescRequete.obj
 0001:0009e1b0       ??0ci_parse@@QAE@HPAFPATYYSTYPE@@@Z 0049f1b0 f   gramcolinsdefine.obj
 0001:0009e220       ??0ci_parse@@QAE@H@Z       0049f220 f   gramcolinsdefine.obj
 0001:0009e2c1       ??1ci_parse@@QAE@XZ        0049f2c1 f   gramcolinsdefine.obj
 0001:0009e30a       ?yyparse@ci_parse@@QAEHPAVci_scan@@@Z 0049f30a f   gramcolinsdefine.obj
 0001:0009ec10       ?yyclearin@ci_parse@@QAEXXZ 0049fc10 f i gramcolinsdefine.obj
 0001:0009ec30       ??0cv_parse@@QAE@HPAFPATYYSTYPE@@@Z 0049fc30 f   gramcolvalinsdefine.obj
 0001:0009eca0       ??0cv_parse@@QAE@H@Z       0049fca0 f   gramcolvalinsdefine.obj
 0001:0009ed41       ??1cv_parse@@QAE@XZ        0049fd41 f   gramcolvalinsdefine.obj
 0001:0009ed8a       ?yyparse@cv_parse@@QAEHPAVcv_scan@@@Z 0049fd8a f   gramcolvalinsdefine.obj
 0001:0009f820       ?yyclearin@cv_parse@@QAEXXZ 004a0820 f i gramcolvalinsdefine.obj
 0001:0009f840       ??0or_parse@@QAE@HPAFPATYYSTYPE@@@Z 004a0840 f   gramdefine.obj
 0001:0009f8b0       ??0or_parse@@QAE@H@Z       004a08b0 f   gramdefine.obj
 0001:0009f951       ??1or_parse@@QAE@XZ        004a0951 f   gramdefine.obj
 0001:0009f99a       ?yyparse@or_parse@@QAEHPAVor_scan@@@Z 004a099a f   gramdefine.obj
 0001:000a17c0       ?yyclearin@or_parse@@QAEXXZ 004a27c0 f i gramdefine.obj
 0001:000a17e0       ??0fr_parse@@QAE@HPAFPATYYSTYPE@@@Z 004a27e0 f   gramfromdefine.obj
 0001:000a1850       ??0fr_parse@@QAE@H@Z       004a2850 f   gramfromdefine.obj
 0001:000a18f1       ??1fr_parse@@QAE@XZ        004a28f1 f   gramfromdefine.obj
 0001:000a193a       ?yyparse@fr_parse@@QAEHPAVfr_scan@@@Z 004a293a f   gramfromdefine.obj
 0001:000a2630       ?yyclearin@fr_parse@@QAEXXZ 004a3630 f i gramfromdefine.obj
 0001:000a2650       ??0gr_parse@@QAE@HPAFPATYYSTYPE@@@Z 004a3650 f   gramgroupdefine.obj
 0001:000a26c0       ??0gr_parse@@QAE@H@Z       004a36c0 f   gramgroupdefine.obj
 0001:000a2761       ??1gr_parse@@QAE@XZ        004a3761 f   gramgroupdefine.obj
 0001:000a27aa       ?yyparse@gr_parse@@QAEHPAVgr_scan@@@Z 004a37aa f   gramgroupdefine.obj
 0001:000a33a0       ?yyclearin@gr_parse@@QAEXXZ 004a43a0 f i gramgroupdefine.obj
 0001:000a33c0       ??0ha_parse@@QAE@HPAFPATYYSTYPE@@@Z 004a43c0 f   gramhavingdefine.obj
 0001:000a3430       ??0ha_parse@@QAE@H@Z       004a4430 f   gramhavingdefine.obj
 0001:000a34d1       ??1ha_parse@@QAE@XZ        004a44d1 f   gramhavingdefine.obj
 0001:000a351a       ?yyparse@ha_parse@@QAEHPAVha_scan@@@Z 004a451a f   gramhavingdefine.obj
 0001:000a58e0       ?yyclearin@ha_parse@@QAEXXZ 004a68e0 f i gramhavingdefine.obj
 0001:000a5900       ??_GCListConditionHaving@@QAEPAXI@Z 004a6900 f i gramhavingdefine.obj
 0001:000a5940       ??0od_parse@@QAE@HPAFPATYYSTYPE@@@Z 004a6940 f   gramorderdefine.obj
 0001:000a59b0       ??0od_parse@@QAE@H@Z       004a69b0 f   gramorderdefine.obj
 0001:000a5a51       ??1od_parse@@QAE@XZ        004a6a51 f   gramorderdefine.obj
 0001:000a5a9a       ?yyparse@od_parse@@QAEHPAVod_scan@@@Z 004a6a9a f   gramorderdefine.obj
 0001:000a6670       ?yyclearin@od_parse@@QAEXXZ 004a7670 f i gramorderdefine.obj
 0001:000a6690       ??0se_parse@@QAE@HPAFPATYYSTYPE@@@Z 004a7690 f   gramselectdefine.obj
 0001:000a6700       ??0se_parse@@QAE@H@Z       004a7700 f   gramselectdefine.obj
 0001:000a67a1       ??1se_parse@@QAE@XZ        004a77a1 f   gramselectdefine.obj
 0001:000a67ea       ?yyparse@se_parse@@QAEHPAVse_scan@@@Z 004a77ea f   gramselectdefine.obj
 0001:000a7910       ?yyclearin@se_parse@@QAEXXZ 004a8910 f i gramselectdefine.obj
 0001:000a7930       ??0up_parse@@QAE@HPAFPATYYSTYPE@@@Z 004a8930 f   gramvalupddefine.obj
 0001:000a79a0       ??0up_parse@@QAE@H@Z       004a89a0 f   gramvalupddefine.obj
 0001:000a7a41       ??1up_parse@@QAE@XZ        004a8a41 f   gramvalupddefine.obj
 0001:000a7a8a       ?yyparse@up_parse@@QAEHPAVup_scan@@@Z 004a8a8a f   gramvalupddefine.obj
 0001:000a9050       ?yyclearin@up_parse@@QAEXXZ 004aa050 f i gramvalupddefine.obj
 0001:000a9070       ??0wh_parse@@QAE@HPAFPATYYSTYPE@@@Z 004aa070 f   gramwheredefine.obj
 0001:000a90e0       ??0wh_parse@@QAE@H@Z       004aa0e0 f   gramwheredefine.obj
 0001:000a9181       ??1wh_parse@@QAE@XZ        004aa181 f   gramwheredefine.obj
 0001:000a91ca       ?yyparse@wh_parse@@QAEHPAVwh_scan@@@Z 004aa1ca f   gramwheredefine.obj
 0001:000ac040       ?yyclearin@wh_parse@@QAEXXZ 004ad040 f i gramwheredefine.obj
 0001:000ac060       ??_GCListCondition@@QAEPAXI@Z 004ad060 f i gramwheredefine.obj
 0001:000ac0a0       ??0ci_scan@@QAE@HPAD0PAE@Z 004ad0a0 f   ortocolinsdefine.obj
 0001:000ac109       ??0ci_scan@@QAE@H@Z        004ad109 f   ortocolinsdefine.obj
 0001:000ac1e4       ??1ci_scan@@QAE@XZ         004ad1e4 f   ortocolinsdefine.obj
 0001:000ac237       ?cierror@ci_scan@@UAAXPADZZ 004ad237 f   ortocolinsdefine.obj
 0001:000ac2a4       ?yylex@ci_scan@@QAEHXZ     004ad2a4 f   ortocolinsdefine.obj
 0001:000acadb       ?yy_reset@ci_scan@@QAEXXZ  004adadb f   ortocolinsdefine.obj
 0001:000acaf8       ?input@ci_scan@@QAEHXZ     004adaf8 f   ortocolinsdefine.obj
 0001:000acb98       ?unput@ci_scan@@QAEHH@Z    004adb98 f   ortocolinsdefine.obj
 0001:000acf50       ?yygetc@ci_scan@@UAEHXZ    004adf50 f i ortocolinsdefine.obj
 0001:000acf80       ?yywrap@ci_scan@@UAEHXZ    004adf80 f i ortocolinsdefine.obj
 0001:000acfa0       ?output@ci_scan@@UAEXH@Z   004adfa0 f i ortocolinsdefine.obj
 0001:000acfd0       ?YY_FATAL@ci_scan@@UAEXPAD@Z 004adfd0 f i ortocolinsdefine.obj
 0001:000ad010       ?ECHO@ci_scan@@UAEXXZ      004ae010 f i ortocolinsdefine.obj
 0001:000ad040       ?YY_USER@ci_scan@@QAEXXZ   004ae040 f i ortocolinsdefine.obj
 0001:000ad080       ?YY_SCANNER@ci_scan@@QAEXXZ 004ae080 f i ortocolinsdefine.obj
 0001:000ad0b0       ?YY_INIT@ci_scan@@QAEXXZ   004ae0b0 f i ortocolinsdefine.obj
 0001:000ad0f0       ??0cv_scan@@QAE@HPAD0PAE@Z 004ae0f0 f   ortocolvalinsdefine.obj
 0001:000ad159       ??0cv_scan@@QAE@H@Z        004ae159 f   ortocolvalinsdefine.obj
 0001:000ad234       ??1cv_scan@@QAE@XZ         004ae234 f   ortocolvalinsdefine.obj
 0001:000ad287       ?cverror@cv_scan@@UAAXPADZZ 004ae287 f   ortocolvalinsdefine.obj
 0001:000ad2f4       ?yylex@cv_scan@@QAEHXZ     004ae2f4 f   ortocolvalinsdefine.obj
 0001:000adcbf       ?yy_reset@cv_scan@@QAEXXZ  004aecbf f   ortocolvalinsdefine.obj
 0001:000adcdc       ?input@cv_scan@@QAEHXZ     004aecdc f   ortocolvalinsdefine.obj
 0001:000add7c       ?unput@cv_scan@@QAEHH@Z    004aed7c f   ortocolvalinsdefine.obj
 0001:000ae1a0       ?yygetc@cv_scan@@UAEHXZ    004af1a0 f i ortocolvalinsdefine.obj
 0001:000ae1d0       ?yywrap@cv_scan@@UAEHXZ    004af1d0 f i ortocolvalinsdefine.obj
 0001:000ae1f0       ?output@cv_scan@@UAEXH@Z   004af1f0 f i ortocolvalinsdefine.obj
 0001:000ae220       ?YY_FATAL@cv_scan@@UAEXPAD@Z 004af220 f i ortocolvalinsdefine.obj
 0001:000ae260       ?ECHO@cv_scan@@UAEXXZ      004af260 f i ortocolvalinsdefine.obj
 0001:000ae290       ?YY_USER@cv_scan@@QAEXXZ   004af290 f i ortocolvalinsdefine.obj
 0001:000ae2d0       ?YY_SCANNER@cv_scan@@QAEXXZ 004af2d0 f i ortocolvalinsdefine.obj
 0001:000ae300       ?YY_INIT@cv_scan@@QAEXXZ   004af300 f i ortocolvalinsdefine.obj
 0001:000ae340       ??0or_scan@@QAE@HPAD0PAE@Z 004af340 f   ortodefine.obj
 0001:000ae3a9       ??0or_scan@@QAE@H@Z        004af3a9 f   ortodefine.obj
 0001:000ae484       ??1or_scan@@QAE@XZ         004af484 f   ortodefine.obj
 0001:000ae4d7       ?orerror@or_scan@@UAAXPADZZ 004af4d7 f   ortodefine.obj
 0001:000ae544       ?yylex@or_scan@@QAEHXZ     004af544 f   ortodefine.obj
 0001:000aead9       ?yy_reset@or_scan@@QAEXXZ  004afad9 f   ortodefine.obj
 0001:000aeaf6       ?input@or_scan@@QAEHXZ     004afaf6 f   ortodefine.obj
 0001:000aeb96       ?unput@or_scan@@QAEHH@Z    004afb96 f   ortodefine.obj
 0001:000aeeb0       ?yygetc@or_scan@@UAEHXZ    004afeb0 f i ortodefine.obj
 0001:000aeee0       ?yywrap@or_scan@@UAEHXZ    004afee0 f i ortodefine.obj
 0001:000aef00       ?output@or_scan@@UAEXH@Z   004aff00 f i ortodefine.obj
 0001:000aef30       ?YY_FATAL@or_scan@@UAEXPAD@Z 004aff30 f i ortodefine.obj
 0001:000aef70       ?ECHO@or_scan@@UAEXXZ      004aff70 f i ortodefine.obj
 0001:000aefa0       ?YY_USER@or_scan@@QAEXXZ   004affa0 f i ortodefine.obj
 0001:000aefe0       ?YY_SCANNER@or_scan@@QAEXXZ 004affe0 f i ortodefine.obj
 0001:000af010       ?YY_INIT@or_scan@@QAEXXZ   004b0010 f i ortodefine.obj
 0001:000af050       ??0fr_scan@@QAE@HPAD0PAE@Z 004b0050 f   ortofromdefine.obj
 0001:000af0b9       ??0fr_scan@@QAE@HH@Z       004b00b9 f   ortofromdefine.obj
 0001:000af19e       ??1fr_scan@@QAE@XZ         004b019e f   ortofromdefine.obj
 0001:000af1f1       ?frerror@fr_scan@@UAAXPADZZ 004b01f1 f   ortofromdefine.obj
 0001:000af25e       ?yylex@fr_scan@@QAEHXZ     004b025e f   ortofromdefine.obj
 0001:000af8d0       ?yy_reset@fr_scan@@QAEXXZ  004b08d0 f   ortofromdefine.obj
 0001:000af8ed       ?input@fr_scan@@QAEHXZ     004b08ed f   ortofromdefine.obj
 0001:000af98d       ?unput@fr_scan@@QAEHH@Z    004b098d f   ortofromdefine.obj
 0001:000afce0       ?yygetc@fr_scan@@UAEHXZ    004b0ce0 f i ortofromdefine.obj
 0001:000afd10       ?yywrap@fr_scan@@UAEHXZ    004b0d10 f i ortofromdefine.obj
 0001:000afd30       ?output@fr_scan@@UAEXH@Z   004b0d30 f i ortofromdefine.obj
 0001:000afd60       ?YY_FATAL@fr_scan@@UAEXPAD@Z 004b0d60 f i ortofromdefine.obj
 0001:000afda0       ?ECHO@fr_scan@@UAEXXZ      004b0da0 f i ortofromdefine.obj
 0001:000afdd0       ?YY_USER@fr_scan@@QAEXXZ   004b0dd0 f i ortofromdefine.obj
 0001:000afe10       ?YY_SCANNER@fr_scan@@QAEXXZ 004b0e10 f i ortofromdefine.obj
 0001:000afe40       ?YY_INIT@fr_scan@@QAEXXZ   004b0e40 f i ortofromdefine.obj
 0001:000afe80       ??0gr_scan@@QAE@HPAD0PAE@Z 004b0e80 f   ortogroupdefine.obj
 0001:000afee9       ??0gr_scan@@QAE@H@Z        004b0ee9 f   ortogroupdefine.obj
 0001:000affc4       ??1gr_scan@@QAE@XZ         004b0fc4 f   ortogroupdefine.obj
 0001:000b0017       ?grerror@gr_scan@@UAAXPADZZ 004b1017 f   ortogroupdefine.obj
 0001:000b0084       ?yylex@gr_scan@@QAEHXZ     004b1084 f   ortogroupdefine.obj
 0001:000b08bb       ?yy_reset@gr_scan@@QAEXXZ  004b18bb f   ortogroupdefine.obj
 0001:000b08d8       ?input@gr_scan@@QAEHXZ     004b18d8 f   ortogroupdefine.obj
 0001:000b0978       ?unput@gr_scan@@QAEHH@Z    004b1978 f   ortogroupdefine.obj
 0001:000b0d30       ?yygetc@gr_scan@@UAEHXZ    004b1d30 f i ortogroupdefine.obj
 0001:000b0d60       ?yywrap@gr_scan@@UAEHXZ    004b1d60 f i ortogroupdefine.obj
 0001:000b0d80       ?output@gr_scan@@UAEXH@Z   004b1d80 f i ortogroupdefine.obj
 0001:000b0db0       ?YY_FATAL@gr_scan@@UAEXPAD@Z 004b1db0 f i ortogroupdefine.obj
 0001:000b0df0       ?ECHO@gr_scan@@UAEXXZ      004b1df0 f i ortogroupdefine.obj
 0001:000b0e20       ?YY_USER@gr_scan@@QAEXXZ   004b1e20 f i ortogroupdefine.obj
 0001:000b0e60       ?YY_SCANNER@gr_scan@@QAEXXZ 004b1e60 f i ortogroupdefine.obj
 0001:000b0e90       ?YY_INIT@gr_scan@@QAEXXZ   004b1e90 f i ortogroupdefine.obj
 0001:000b0ed0       ??0ha_scan@@QAE@HPAD0PAE@Z 004b1ed0 f   ortohavingdefine.obj
 0001:000b0f39       ??0ha_scan@@QAE@H@Z        004b1f39 f   ortohavingdefine.obj
 0001:000b1014       ??1ha_scan@@QAE@XZ         004b2014 f   ortohavingdefine.obj
 0001:000b1067       ?haerror@ha_scan@@UAAXPADZZ 004b2067 f   ortohavingdefine.obj
 0001:000b10d4       ?yylex@ha_scan@@QAEHXZ     004b20d4 f   ortohavingdefine.obj
 0001:000b1c72       ?yy_reset@ha_scan@@QAEXXZ  004b2c72 f   ortohavingdefine.obj
 0001:000b1c8f       ?input@ha_scan@@QAEHXZ     004b2c8f f   ortohavingdefine.obj
 0001:000b1d2f       ?unput@ha_scan@@QAEHH@Z    004b2d2f f   ortohavingdefine.obj
 0001:000b21c0       ?yygetc@ha_scan@@UAEHXZ    004b31c0 f i ortohavingdefine.obj
 0001:000b21f0       ?yywrap@ha_scan@@UAEHXZ    004b31f0 f i ortohavingdefine.obj
 0001:000b2210       ?output@ha_scan@@UAEXH@Z   004b3210 f i ortohavingdefine.obj
 0001:000b2240       ?YY_FATAL@ha_scan@@UAEXPAD@Z 004b3240 f i ortohavingdefine.obj
 0001:000b2280       ?ECHO@ha_scan@@UAEXXZ      004b3280 f i ortohavingdefine.obj
 0001:000b22b0       ?YY_USER@ha_scan@@QAEXXZ   004b32b0 f i ortohavingdefine.obj
 0001:000b22f0       ?YY_SCANNER@ha_scan@@QAEXXZ 004b32f0 f i ortohavingdefine.obj
 0001:000b2320       ?YY_INIT@ha_scan@@QAEXXZ   004b3320 f i ortohavingdefine.obj
 0001:000b2360       ??0od_scan@@QAE@HPAD0PAE@Z 004b3360 f   ortoorderdefine.obj
 0001:000b23c9       ??0od_scan@@QAE@H@Z        004b33c9 f   ortoorderdefine.obj
 0001:000b24a4       ??1od_scan@@QAE@XZ         004b34a4 f   ortoorderdefine.obj
 0001:000b24f7       ?oderror@od_scan@@UAAXPADZZ 004b34f7 f   ortoorderdefine.obj
 0001:000b2564       ?yylex@od_scan@@QAEHXZ     004b3564 f   ortoorderdefine.obj
 0001:000b29f3       ?yy_reset@od_scan@@QAEXXZ  004b39f3 f   ortoorderdefine.obj
 0001:000b2a10       ?input@od_scan@@QAEHXZ     004b3a10 f   ortoorderdefine.obj
 0001:000b2ab0       ?unput@od_scan@@QAEHH@Z    004b3ab0 f   ortoorderdefine.obj
 0001:000b2d80       ?yygetc@od_scan@@UAEHXZ    004b3d80 f i ortoorderdefine.obj
 0001:000b2db0       ?yywrap@od_scan@@UAEHXZ    004b3db0 f i ortoorderdefine.obj
 0001:000b2dd0       ?output@od_scan@@UAEXH@Z   004b3dd0 f i ortoorderdefine.obj
 0001:000b2e00       ?YY_FATAL@od_scan@@UAEXPAD@Z 004b3e00 f i ortoorderdefine.obj
 0001:000b2e40       ?ECHO@od_scan@@UAEXXZ      004b3e40 f i ortoorderdefine.obj
 0001:000b2e70       ?YY_USER@od_scan@@QAEXXZ   004b3e70 f i ortoorderdefine.obj
 0001:000b2eb0       ?YY_SCANNER@od_scan@@QAEXXZ 004b3eb0 f i ortoorderdefine.obj
 0001:000b2ee0       ?YY_INIT@od_scan@@QAEXXZ   004b3ee0 f i ortoorderdefine.obj
 0001:000b2f20       ??0se_scan@@QAE@HPAD0PAE@Z 004b3f20 f   ortoselectdefine.obj
 0001:000b2f89       ??0se_scan@@QAE@H@Z        004b3f89 f   ortoselectdefine.obj
 0001:000b3064       ??1se_scan@@QAE@XZ         004b4064 f   ortoselectdefine.obj
 0001:000b30b7       ?seerror@se_scan@@UAAXPADZZ 004b40b7 f   ortoselectdefine.obj
 0001:000b3124       ?yylex@se_scan@@QAEHXZ     004b4124 f   ortoselectdefine.obj
 0001:000b3c9b       ?yy_reset@se_scan@@QAEXXZ  004b4c9b f   ortoselectdefine.obj
 0001:000b3cb8       ?input@se_scan@@QAEHXZ     004b4cb8 f   ortoselectdefine.obj
 0001:000b3d58       ?unput@se_scan@@QAEHH@Z    004b4d58 f   ortoselectdefine.obj
 0001:000b41e0       ?yygetc@se_scan@@UAEHXZ    004b51e0 f i ortoselectdefine.obj
 0001:000b4210       ?yywrap@se_scan@@UAEHXZ    004b5210 f i ortoselectdefine.obj
 0001:000b4230       ?output@se_scan@@UAEXH@Z   004b5230 f i ortoselectdefine.obj
 0001:000b4260       ?YY_FATAL@se_scan@@UAEXPAD@Z 004b5260 f i ortoselectdefine.obj
 0001:000b42a0       ?ECHO@se_scan@@UAEXXZ      004b52a0 f i ortoselectdefine.obj
 0001:000b42d0       ?YY_USER@se_scan@@QAEXXZ   004b52d0 f i ortoselectdefine.obj
 0001:000b4310       ?YY_SCANNER@se_scan@@QAEXXZ 004b5310 f i ortoselectdefine.obj
 0001:000b4340       ?YY_INIT@se_scan@@QAEXXZ   004b5340 f i ortoselectdefine.obj
 0001:000b4380       ??0up_scan@@QAE@HPAD0PAE@Z 004b5380 f   ortovalupddefine.obj
 0001:000b43e9       ??0up_scan@@QAE@H@Z        004b53e9 f   ortovalupddefine.obj
 0001:000b44c4       ??1up_scan@@QAE@XZ         004b54c4 f   ortovalupddefine.obj
 0001:000b4517       ?uperror@up_scan@@UAAXPADZZ 004b5517 f   ortovalupddefine.obj
 0001:000b4584       ?yylex@up_scan@@QAEHXZ     004b5584 f   ortovalupddefine.obj
 0001:000b4f95       ?yy_reset@up_scan@@QAEXXZ  004b5f95 f   ortovalupddefine.obj
 0001:000b4fb2       ?input@up_scan@@QAEHXZ     004b5fb2 f   ortovalupddefine.obj
 0001:000b5052       ?unput@up_scan@@QAEHH@Z    004b6052 f   ortovalupddefine.obj
 0001:000b5480       ?yygetc@up_scan@@UAEHXZ    004b6480 f i ortovalupddefine.obj
 0001:000b54b0       ?yywrap@up_scan@@UAEHXZ    004b64b0 f i ortovalupddefine.obj
 0001:000b54d0       ?output@up_scan@@UAEXH@Z   004b64d0 f i ortovalupddefine.obj
 0001:000b5500       ?YY_FATAL@up_scan@@UAEXPAD@Z 004b6500 f i ortovalupddefine.obj
 0001:000b5540       ?ECHO@up_scan@@UAEXXZ      004b6540 f i ortovalupddefine.obj
 0001:000b5570       ?YY_USER@up_scan@@QAEXXZ   004b6570 f i ortovalupddefine.obj
 0001:000b55b0       ?YY_SCANNER@up_scan@@QAEXXZ 004b65b0 f i ortovalupddefine.obj
 0001:000b55e0       ?YY_INIT@up_scan@@QAEXXZ   004b65e0 f i ortovalupddefine.obj
 0001:000b5620       ??0wh_scan@@QAE@HPAD0PAE@Z 004b6620 f   ortowheredefine.obj
 0001:000b5689       ??0wh_scan@@QAE@HH@Z       004b6689 f   ortowheredefine.obj
 0001:000b576e       ??1wh_scan@@QAE@XZ         004b676e f   ortowheredefine.obj
 0001:000b57c1       ?wherror@wh_scan@@UAAXPADZZ 004b67c1 f   ortowheredefine.obj
 0001:000b582e       ?yylex@wh_scan@@QAEHXZ     004b682e f   ortowheredefine.obj
 0001:000b63e6       ?yy_reset@wh_scan@@QAEXXZ  004b73e6 f   ortowheredefine.obj
 0001:000b6403       ?input@wh_scan@@QAEHXZ     004b7403 f   ortowheredefine.obj
 0001:000b64a3       ?unput@wh_scan@@QAEHH@Z    004b74a3 f   ortowheredefine.obj
 0001:000b6940       ?yygetc@wh_scan@@UAEHXZ    004b7940 f i ortowheredefine.obj
 0001:000b6970       ?yywrap@wh_scan@@UAEHXZ    004b7970 f i ortowheredefine.obj
 0001:000b6990       ?output@wh_scan@@UAEXH@Z   004b7990 f i ortowheredefine.obj
 0001:000b69c0       ?YY_FATAL@wh_scan@@UAEXPAD@Z 004b79c0 f i ortowheredefine.obj
 0001:000b6a00       ?ECHO@wh_scan@@UAEXXZ      004b7a00 f i ortowheredefine.obj
 0001:000b6a30       ?YY_USER@wh_scan@@QAEXXZ   004b7a30 f i ortowheredefine.obj
 0001:000b6a70       ?YY_SCANNER@wh_scan@@QAEXXZ 004b7a70 f i ortowheredefine.obj
 0001:000b6aa0       ?YY_INIT@wh_scan@@QAEXXZ   004b7aa0 f i ortowheredefine.obj
 0001:000b6ae0       ??0CSelectionParser@@QAE@XZ 004b7ae0 f   RequeteParser.obj
 0001:000b6b29       ??1CSelectionParser@@QAE@XZ 004b7b29 f   RequeteParser.obj
 0001:000b6b34       ??0CInsertion@@QAE@XZ      004b7b34 f   RequeteParser.obj
 0001:000b6b55       ??1CInsertion@@QAE@XZ      004b7b55 f   RequeteParser.obj
 0001:000b6b60       ??0CSuppression@@QAE@XZ    004b7b60 f   RequeteParser.obj
 0001:000b6b81       ??1CSuppression@@QAE@XZ    004b7b81 f   RequeteParser.obj
 0001:000b6b8c       ??0CMiseAJour@@QAE@XZ      004b7b8c f   RequeteParser.obj
 0001:000b6bb7       ??1CMiseAJour@@QAE@XZ      004b7bb7 f   RequeteParser.obj
 0001:000b6bc2       ??0CListDup@@QAE@XZ        004b7bc2 f   RequeteParser.obj
 0001:000b6bda       ??1CListDup@@QAE@XZ        004b7bda f   RequeteParser.obj
 0001:000b6c22       ?AjouteChaine@CListDup@@QAEXPAD@Z 004b7c22 f   RequeteParser.obj
 0001:000b6c3b       ?SupprimeTous@CListDup@@QAEXXZ 004b7c3b f   RequeteParser.obj
 0001:000b6ce0       ??0CCritereSelection@@QAE@XZ 004b7ce0 f   CLigneSelect.obj
 0001:000b6d3f       ??1CCritereSelection@@QAE@XZ 004b7d3f f   CLigneSelect.obj
 0001:000b6d55       ??0CLigneSelect@@QAE@XZ    004b7d55 f   CLigneSelect.obj
 0001:000b6e92       ??1CLigneSelect@@UAE@XZ    004b7e92 f   CLigneSelect.obj
 0001:000b6f31       ?AjouteCrtiere@CLigneSelect@@QAEXHPAVCCritereSelection@@@Z 004b7f31 f   CLigneSelect.obj
 0001:000b6f55       ?SupprimeTous@CLigneSelect@@QAEXXZ 004b7f55 f   CLigneSelect.obj
 0001:000b6fc0       ?SupprimeCritere@CLigneSelect@@QAEXH@Z 004b7fc0 f   CLigneSelect.obj
 0001:000b708f       ?LitPremier@CLigneSelect@@QAEPAVCCritereSelection@@XZ 004b808f f   CLigneSelect.obj
 0001:000b70da       ?LitSuivant@CLigneSelect@@QAEPAVCCritereSelection@@XZ 004b80da f   CLigneSelect.obj
 0001:000b7121       ?RechercheCritere@CLigneSelect@@QAEPAVCCritereSelection@@H@Z 004b8121 f   CLigneSelect.obj
 0001:000b715d       ??0CListLigneSelect@@QAE@XZ 004b815d f   CLigneSelect.obj
 0001:000b7195       ??1CListLigneSelect@@QAE@XZ 004b8195 f   CLigneSelect.obj
 0001:000b71ab       ?AjouteLigne@CListLigneSelect@@QAEXHPAVCLigneSelect@@@Z 004b81ab f   CLigneSelect.obj
 0001:000b71d0       ?SupprimeLigne@CListLigneSelect@@QAEXH@Z 004b81d0 f   CLigneSelect.obj
 0001:000b729a       ?SupprimeTous@CListLigneSelect@@QAEXXZ 004b829a f   CLigneSelect.obj
 0001:000b7306       ?LitPremier@CListLigneSelect@@QAEPAVCLigneSelect@@XZ 004b8306 f   CLigneSelect.obj
 0001:000b7354       ?LitSuivant@CListLigneSelect@@QAEPAVCLigneSelect@@XZ 004b8354 f   CLigneSelect.obj
 0001:000b739e       ?LitPremierLigne@CListLigneSelect@@QAEPAVCLigneSelect@@XZ 004b839e f   CLigneSelect.obj
 0001:000b7409       ?LitSuivantLigne@CListLigneSelect@@QAEPAVCLigneSelect@@XZ 004b8409 f   CLigneSelect.obj
 0001:000b746a       ?RechercheLigne@CListLigneSelect@@QAEPAVCLigneSelect@@H@Z 004b846a f   CLigneSelect.obj
 0001:000b74a7       ?RechercheLigne@CListLigneSelect@@QAEPAVCLigneSelect@@VCString@@@Z 004b84a7 f   CLigneSelect.obj
 0001:000b752c       ?RechercheLigneTable@CListLigneSelect@@QAEPAVCLigneSelect@@VCString@@@Z 004b852c f   CLigneSelect.obj
 0001:000b75b1       ?NombreLigne@CListLigneSelect@@QAEHXZ 004b85b1 f   CLigneSelect.obj
 0001:000b75c7       ?SupprimeLignes@CListLigneSelect@@QAEXVCString@@@Z 004b85c7 f   CLigneSelect.obj
 0001:000b7668       ?DecaleLigne@CListLigneSelect@@QAEXHH@Z 004b8668 f   CLigneSelect.obj
 0001:000b76d1       ?RechercheLigneTableChamp@CListLigneSelect@@QAEHVCString@@0@Z 004b86d1 f   CLigneSelect.obj
 0001:000b7a40       ??_ECLigneSelect@@UAEPAXI@Z 004b8a40 f i CLigneSelect.obj
 0001:000b7a40       ??_GCLigneSelect@@UAEPAXI@Z 004b8a40 f i CLigneSelect.obj
 0001:000b7a80       ??_GCCritereSelection@@QAEPAXI@Z 004b8a80 f i CLigneSelect.obj
 0001:000b7ac0       ??0CGridSelect@@QAE@XZ     004b8ac0 f   Gridselect.obj
 0001:000b7d1b       ??1CGridSelect@@UAE@XZ     004b8d1b f   Gridselect.obj
 0001:000b7dd8       ?_GetBaseMessageMap@CGridSelect@@KGPBUAFX_MSGMAP@@XZ 004b8dd8 f   Gridselect.obj
 0001:000b7de2       ?GetMessageMap@CGridSelect@@MBEPBUAFX_MSGMAP@@XZ 004b8de2 f   Gridselect.obj
 0001:000b7df2       ?InsertLigneVide@CGridSelect@@QAEXXZ 004b8df2 f   Gridselect.obj
 0001:000b7ec8       ?InsertColonneVide@CGridSelect@@QAEXXZ 004b8ec8 f   Gridselect.obj
 0001:000b7f26       ?AjouteLigne@CGridSelect@@QAEXPAVCLigneSelect@@@Z 004b8f26 f   Gridselect.obj
 0001:000b815f       ?AjouteLigne@CGridSelect@@QAEXHPAVCLigneSelect@@@Z 004b915f f   Gridselect.obj
 0001:000b8196       ?AfficheLigne@CGridSelect@@QAEXPAVCLigneSelect@@@Z 004b9196 f   Gridselect.obj
 0001:000b8432       ?SupprimeLigne@CGridSelect@@QAEXH@Z 004b9432 f   Gridselect.obj
 0001:000b8459       ?SupprimeLigne@CGridSelect@@QAEXVCString@@@Z 004b9459 f   Gridselect.obj
 0001:000b84d5       ?SupprimeTous@CGridSelect@@QAEXXZ 004b94d5 f   Gridselect.obj
 0001:000b84ee       ?AfficheTout@CGridSelect@@QAEXXZ 004b94ee f   Gridselect.obj
 0001:000b8531       ?OnEndEditCell@CGridSelect@@UAEXPAU_GV_ITEM@@@Z 004b9531 f   Gridselect.obj
 0001:000b87b4       ?OnEditCell@CGridSelect@@UAEXHHI@Z 004b97b4 f   Gridselect.obj
 0001:000b8b3e       ?OnContextMenu@CGridSelect@@IAEXPAVCWnd@@VCPoint@@@Z 004b9b3e f   Gridselect.obj
 0001:000b8cf3       ?OnCritresAssist@CGridSelect@@IAEXXZ 004b9cf3 f   Gridselect.obj
 0001:000b9331       ?OnCritresInserer@CGridSelect@@IAEXXZ 004ba331 f   Gridselect.obj
 0001:000b938f       ?OnCritresSupprimer@CGridSelect@@IAEXXZ 004ba38f f   Gridselect.obj
 0001:000b9549       ?OnCritresInserercol@CGridSelect@@IAEXXZ 004ba549 f   Gridselect.obj
 0001:000b9585       ?OnCritresZoom@CGridSelect@@IAEXXZ 004ba585 f   Gridselect.obj
 0001:000b96a9       ?EffaceTout@CGridSelect@@QAEXXZ 004ba6a9 f   Gridselect.obj
 0001:000b96d1       ?EffaceContenu@CGridSelect@@QAEXXZ 004ba6d1 f   Gridselect.obj
 0001:000b981b       ?EffaceLigne@CGridSelect@@QAEXH@Z 004ba81b f   Gridselect.obj
 0001:000b993f       ?OnKeyDown@CGridSelect@@IAEXIII@Z 004ba93f f   Gridselect.obj
 0001:000b9c34       ?TraiteLigne@CGridSelect@@QAEXPAVCLigneSelect@@PAVCCritereSelection@@@Z 004bac34 f   Gridselect.obj
 0001:000ba1c9       ?SupprimeDelimiteur@CGridSelect@@QAEHAAVCString@@@Z 004bb1c9 f   Gridselect.obj
 0001:000ba501       ?TraiteChamp@CGridSelect@@QAEHHAAVCString@@@Z 004bb501 f   Gridselect.obj
 0001:000baf70       ?DrawCell@CGridSelect@@UAEHPAVCDC@@HHVCRect@@H@Z 004bbf70 f   Gridselect.obj
 0001:000bb4c0       ?ChangeNomTable@CGridSelect@@QAEXVCString@@0@Z 004bc4c0 f   Gridselect.obj
 0001:000bb581       ?RetireFocusGrid@CGridSelect@@QAEXXZ 004bc581 f   Gridselect.obj
 0001:000bb59e       ?GridModifer@CGridSelect@@QAEXXZ 004bc59e f   Gridselect.obj
 0001:000bc490       ??_GCGridSelect@@UAEPAXI@Z 004bd490 f i Gridselect.obj
 0001:000bc490       ??_ECGridSelect@@UAEPAXI@Z 004bd490 f i Gridselect.obj
 0001:000bc4d0       ??9@YG_NABVCString@@0@Z    004bd4d0 f i Gridselect.obj
 0001:000bc500       ?GetColumnCount@CGridCtrl@@QBEHXZ 004bd500 f i Gridselect.obj
 0001:000bc520       ?SetWizardMode@CPropertySheet@@QAEXXZ 004bd520 f i Gridselect.obj
 0001:000bc540       ??0COleDateTime@@QAE@XZ    004bd540 f i Gridselect.obj
 0001:000bc580       ?SetStatus@COleDateTime@@QAEXW4DateTimeStatus@1@@Z 004bd580 f i Gridselect.obj
 0001:000bc5a0       ??0CJointure@@QAE@XZ       004bd5a0 f   Jointure.obj
 0001:000bc6cc       ??1CJointure@@UAE@XZ       004bd6cc f   Jointure.obj
 0001:000bc741       ?DessineJointure@CJointure@@QAEXPAVCDC@@PAVCWnd@@@Z 004bd741 f   Jointure.obj
 0001:000bcb89       ?PointSurLigne@CJointure@@QAEHVCPoint@@@Z 004bdb89 f   Jointure.obj
 0001:000bcc1e       ??0CListJointure@@QAE@PAVCWnd@@@Z 004bdc1e f   Jointure.obj
 0001:000bcc57       ??1CListJointure@@UAE@XZ   004bdc57 f   Jointure.obj
 0001:000bccab       ?AjouteJointure@CListJointure@@QAEEPAVCJointure@@@Z 004bdcab f   Jointure.obj
 0001:000bccdf       ?RechercheJointure@CListJointure@@QAEPAVCJointure@@PAV2@@Z 004bdcdf f   Jointure.obj
 0001:000bcd52       ?SupprimeTous@CListJointure@@QAEXXZ 004bdd52 f   Jointure.obj
 0001:000bcdbf       ?SupprimeJointure@CListJointure@@QAEXPAVCJointure@@@Z 004bddbf f   Jointure.obj
 0001:000bce30       ?SupprimeJointure@CListJointure@@QAEXH@Z 004bde30 f   Jointure.obj
 0001:000bcf85       ?LitPremier@CListJointure@@QAEPAVCJointure@@XZ 004bdf85 f   Jointure.obj
 0001:000bcfd7       ?LitSuivant@CListJointure@@QAEPAVCJointure@@XZ 004bdfd7 f   Jointure.obj
 0001:000bd01e       ?DessineJointure@CListJointure@@QAEXPAVCDC@@PAVCWnd@@@Z 004be01e f   Jointure.obj
 0001:000bd062       ?RechercheLigneJointure@CListJointure@@QAEPAVCJointure@@VCPoint@@@Z 004be062 f   Jointure.obj
 0001:000bd0b2       ?CreationConditionFrom@CListJointure@@QAEXAAVCString@@@Z 004be0b2 f   Jointure.obj
 0001:000bd652       ?ExpressionEntiere@CListJointure@@QAEXAAVCString@@PAVCJointure@@H@Z 004be652 f   Jointure.obj
 0001:000bd7ed       ?ExpressionAnd@CListJointure@@QAEXAAVCString@@PAVCJointure@@H@Z 004be7ed f   Jointure.obj
 0001:000bd96c       ??0CJointureTable@@QAE@XZ  004be96c f   Jointure.obj
 0001:000bd9fa       ??1CJointureTable@@UAE@XZ  004be9fa f   Jointure.obj
 0001:000bda51       ?AjouteJointureTable@CJointureTable@@QAEXPAVCJointure@@@Z 004bea51 f   Jointure.obj
 0001:000bda6d       ?SupprimeJointureTable@CJointureTable@@QAEXPAVCJointure@@@Z 004bea6d f   Jointure.obj
 0001:000bdad2       ?RechercheAutreJointure@CJointureTable@@QAEPAVCJointure@@HH@Z 004bead2 f   Jointure.obj
 0001:000bdb3d       ?LitPremier@CJointureTable@@QAEPAVCJointure@@XZ 004beb3d f   Jointure.obj
 0001:000bdb88       ?LitSuivant@CJointureTable@@QAEPAVCJointure@@XZ 004beb88 f   Jointure.obj
 0001:000bdbcf       ??0CListJointureTable@@QAE@XZ 004bebcf f   Jointure.obj
 0001:000bdbfd       ??1CListJointureTable@@UAE@XZ 004bebfd f   Jointure.obj
 0001:000bdc51       ?AjouteJointureTable@CListJointureTable@@QAEXPAVCJointureTable@@@Z 004bec51 f   Jointure.obj
 0001:000bdc6d       ?SupprimeTous@CListJointureTable@@QAEXXZ 004bec6d f   Jointure.obj
 0001:000bdcda       ?LitPremier@CListJointureTable@@QAEPAVCJointureTable@@XZ 004becda f   Jointure.obj
 0001:000bdd25       ?LitSuivant@CListJointureTable@@QAEPAVCJointureTable@@XZ 004bed25 f   Jointure.obj
 0001:000bdd6c       ?RechercheJointueTable@CListJointureTable@@QAEPAVCJointureTable@@H@Z 004bed6c f   Jointure.obj
 0001:000be3e0       ??_GCJointure@@UAEPAXI@Z   004bf3e0 f i Jointure.obj
 0001:000be3e0       ??_ECJointure@@UAEPAXI@Z   004bf3e0 f i Jointure.obj
 0001:000be420       ??_ECListJointure@@UAEPAXI@Z 004bf420 f i Jointure.obj
 0001:000be420       ??_GCListJointure@@UAEPAXI@Z 004bf420 f i Jointure.obj
 0001:000be460       ??_ECJointureTable@@UAEPAXI@Z 004bf460 f i Jointure.obj
 0001:000be460       ??_GCJointureTable@@UAEPAXI@Z 004bf460 f i Jointure.obj
 0001:000be4a0       ??_ECListJointureTable@@UAEPAXI@Z 004bf4a0 f i Jointure.obj
 0001:000be4a0       ??_GCListJointureTable@@UAEPAXI@Z 004bf4a0 f i Jointure.obj
 0001:000be4e0       ?MoveTo@CDC@@QAE?AVCPoint@@UtagPOINT@@@Z 004bf4e0 f i Jointure.obj
 0001:000be520       ?LineTo@CDC@@QAEHUtagPOINT@@@Z 004bf520 f i Jointure.obj
 0001:000be550       ?GetItemRect@CListBox@@QBEHHPAUtagRECT@@@Z 004bf550 f i Jointure.obj
 0001:000be580       ?CreateObject@SelectionDoc@@SGPAVCObject@@XZ 004bf580 f   SelectionDoc.obj
 0001:000be5e4       ?_GetBaseClass@SelectionDoc@@KGPAUCRuntimeClass@@XZ 004bf5e4 f   SelectionDoc.obj
 0001:000be5ee       ?GetRuntimeClass@SelectionDoc@@UBEPAUCRuntimeClass@@XZ 004bf5ee f   SelectionDoc.obj
 0001:000be5fe       ?_GetBaseMessageMap@SelectionDoc@@KGPBUAFX_MSGMAP@@XZ 004bf5fe f   SelectionDoc.obj
 0001:000be608       ?GetMessageMap@SelectionDoc@@MBEPBUAFX_MSGMAP@@XZ 004bf608 f   SelectionDoc.obj
 0001:000be618       ??0SelectionDoc@@IAE@XZ    004bf618 f   SelectionDoc.obj
 0001:000be641       ??1SelectionDoc@@UAE@XZ    004bf641 f   SelectionDoc.obj
 0001:000be6c2       ?Serialize@SelectionDoc@@UAEXAAVCArchive@@@Z 004bf6c2 f   SelectionDoc.obj
 0001:000be6d7       ?OnNewDocument@SelectionDoc@@MAEHXZ 004bf6d7 f   SelectionDoc.obj
 0001:000beca3       ?InitView@SelectionDoc@@UAEXXZ 004bfca3 f   SelectionDoc.obj
 0001:000bed62       ?OnSaveDocument@SelectionDoc@@UAEHPBD@Z 004bfd62 f   SelectionDoc.obj
 0001:000bf144       ?DoFileSave@SelectionDoc@@UAEHXZ 004c0144 f   SelectionDoc.obj
 0001:000bf460       ??_ESelectionDoc@@UAEPAXI@Z 004c0460 f i SelectionDoc.obj
 0001:000bf460       ??_GSelectionDoc@@UAEPAXI@Z 004c0460 f i SelectionDoc.obj
 0001:000bf4a0       ?EcritDescription@SelectionView@@QAEXPBD@Z 004c04a0 f i SelectionDoc.obj
 0001:000bf4d0       ?LitDescription@SelectionView@@QAE?AVCString@@XZ 004c04d0 f i SelectionDoc.obj
 0001:000bf510       ?CreateObject@SelectionView@@SGPAVCObject@@XZ 004c0510 f   SelectionView.obj
 0001:000bf577       ?_GetBaseClass@SelectionView@@KGPAUCRuntimeClass@@XZ 004c0577 f   SelectionView.obj
 0001:000bf581       ?GetRuntimeClass@SelectionView@@UBEPAUCRuntimeClass@@XZ 004c0581 f   SelectionView.obj
 0001:000bf591       ?_GetBaseMessageMap@SelectionView@@KGPBUAFX_MSGMAP@@XZ 004c0591 f   SelectionView.obj
 0001:000bf59b       ?GetMessageMap@SelectionView@@MBEPBUAFX_MSGMAP@@XZ 004c059b f   SelectionView.obj
 0001:000bf5ab       ??0SelectionView@@IAE@XZ   004c05ab f   SelectionView.obj
 0001:000bf638       ??1SelectionView@@UAE@XZ   004c0638 f   SelectionView.obj
 0001:000bf6b3       ?DoDataExchange@SelectionView@@MAEXPAVCDataExchange@@@Z 004c06b3 f   SelectionView.obj
 0001:000bf6cc       ?OnCreate@SelectionView@@IAEHPAUtagCREATESTRUCTA@@@Z 004c06cc f   SelectionView.obj
 0001:000bf883       ?OnSize@SelectionView@@IAEXIHH@Z 004c0883 f   SelectionView.obj
 0001:000bf8ff       ?AjoutChampGrid@SelectionView@@IAEJIJ@Z 004c08ff f   SelectionView.obj
 0001:000bf920       ?EditeurModif@SelectionView@@IAEJIJ@Z 004c0920 f   SelectionView.obj
 0001:000bf937       ?RequeteModifier@SelectionView@@QAEXXZ 004c0937 f   SelectionView.obj
 0001:000bf9f0       ?OnUpdate@SelectionView@@MAEXPAVCView@@JPAVCObject@@@Z 004c09f0 f   SelectionView.obj
 0001:000bfa0b       ?EcritRequete@SelectionView@@QAEXPAVCRequete@@@Z 004c0a0b f   SelectionView.obj
 0001:000bfceb       ?LitRequete@SelectionView@@QAEPAVCRequete@@XZ 004c0ceb f   SelectionView.obj
 0001:000bfdf4       ?TransformeIdMemoires@SelectionView@@IAEHAAVCString@@@Z 004c0df4 f   SelectionView.obj
 0001:000c01ac       ?TransformeMemoiresId@SelectionView@@IAEHAAVCString@@@Z 004c11ac f   SelectionView.obj
 0001:000c04e6       ?PtStructureBase@SelectionView@@QAEPAVCListCStructureTable@@XZ 004c14e6 f   SelectionView.obj
 0001:000c0990       ??_GSelectionView@@UAEPAXI@Z 004c1990 f i SelectionView.obj
 0001:000c0990       ??_ESelectionView@@UAEPAXI@Z 004c1990 f i SelectionView.obj
 0001:000c09d0       ?InsertItem@CTabCtrl@@QAEHHPBD@Z 004c19d0 f i SelectionView.obj
 0001:000c0a00       ?CreateObject@MaCheckListBox@@SGPAVCObject@@XZ 004c1a00 f   Table.obj
 0001:000c0a64       ?_GetBaseClass@MaCheckListBox@@KGPAUCRuntimeClass@@XZ 004c1a64 f   Table.obj
 0001:000c0a6e       ?GetRuntimeClass@MaCheckListBox@@UBEPAUCRuntimeClass@@XZ 004c1a6e f   Table.obj
 0001:000c0a7e       ??0MaCheckListBox@@QAE@XZ  004c1a7e f   Table.obj
 0001:000c0b30       ??1MaCheckListBox@@UAE@XZ  004c1b30 f   Table.obj
 0001:000c0b84       ?_GetBaseMessageMap@MaCheckListBox@@KGPBUAFX_MSGMAP@@XZ 004c1b84 f   Table.obj
 0001:000c0b8e       ?GetMessageMap@MaCheckListBox@@MBEPBUAFX_MSGMAP@@XZ 004c1b8e f   Table.obj
 0001:000c0b9e       ?OnLButtonDblClk@MaCheckListBox@@IAEXIVCPoint@@@Z 004c1b9e f   Table.obj
 0001:000c0d15       ?OnLButtonDown@MaCheckListBox@@IAEXIVCPoint@@@Z 004c1d15 f   Table.obj
 0001:000c0dd0       ?OnMouseMove@MaCheckListBox@@IAEXIVCPoint@@@Z 004c1dd0 f   Table.obj
 0001:000c0e73       ?OnLButtonUp@MaCheckListBox@@IAEXIVCPoint@@@Z 004c1e73 f   Table.obj
 0001:000c11de       ?OnTablePropriete@MaCheckListBox@@IAEXXZ 004c21de f   Table.obj
 0001:000c15d2       ?OnContextMenu@MaCheckListBox@@IAEXPAVCWnd@@VCPoint@@@Z 004c25d2 f   Table.obj
 0001:000c164c       ?OnTableSupprimer@MaCheckListBox@@IAEXXZ 004c264c f   Table.obj
 0001:000c1724       ?OnVScroll@MaCheckListBox@@IAEXIIPAVCScrollBar@@@Z 004c2724 f   Table.obj
 0001:000c177e       ?CreateObject@CTable@@SGPAVCObject@@XZ 004c277e f   Table.obj
 0001:000c17e5       ?_GetBaseClass@CTable@@KGPAUCRuntimeClass@@XZ 004c27e5 f   Table.obj
 0001:000c17ef       ?GetRuntimeClass@CTable@@UBEPAUCRuntimeClass@@XZ 004c27ef f   Table.obj
 0001:000c17ff       ??0CTable@@QAE@XZ          004c27ff f   Table.obj
 0001:000c18b9       ??1CTable@@UAE@XZ          004c28b9 f   Table.obj
 0001:000c192b       ?_GetBaseMessageMap@CTable@@KGPBUAFX_MSGMAP@@XZ 004c292b f   Table.obj
 0001:000c1935       ?GetMessageMap@CTable@@MBEPBUAFX_MSGMAP@@XZ 004c2935 f   Table.obj
 0001:000c1945       ?OnCreate@CTable@@IAEHPAUtagCREATESTRUCTA@@@Z 004c2945 f   Table.obj
 0001:000c19c6       ?OnSize@CTable@@IAEXIHH@Z  004c29c6 f   Table.obj
 0001:000c1a39       ?OnMove@CTable@@IAEXHH@Z   004c2a39 f   Table.obj
 0001:000c1a8f       ?OnPaint@CTable@@IAEXXZ    004c2a8f f   Table.obj
 0001:000c1b14       ?OnLButtonDown@CTable@@IAEXIVCPoint@@@Z 004c2b14 f   Table.obj
 0001:000c1b3d       ??0CListTable@@QAE@PAVCWnd@@@Z 004c2b3d f   Table.obj
 0001:000c1b9e       ??1CListTable@@QAE@XZ      004c2b9e f   Table.obj
 0001:000c1be9       ?Ajoute@CListTable@@QAEXPAVCListCStructureChamp@@PAD@Z 004c2be9 f   Table.obj
 0001:000c1e7e       ?CreationTable@CListTable@@QAEXVCString@@@Z 004c2e7e f   Table.obj
 0001:000c2037       ?LitPremier@CListTable@@QAEPAVCTable@@XZ 004c3037 f   Table.obj
 0001:000c207e       ?LitSuivant@CListTable@@QAEPAVCTable@@XZ 004c307e f   Table.obj
 0001:000c20ae       ?RechercheTable@CListTable@@QAEPAVCTable@@H@Z 004c30ae f   Table.obj
 0001:000c21a3       ?RechercheTable@CListTable@@QAEPAVCTable@@PAD@Z 004c31a3 f   Table.obj
 0001:000c22f4       ?CocheCaseTableChamp@CListTable@@QAEXPAD0H@Z 004c32f4 f   Table.obj
 0001:000c23a3       ?DecocheChamp@CListTable@@QAEXXZ 004c33a3 f   Table.obj
 0001:000c240a       ?Supprime@CListTable@@QAEXH@Z 004c340a f   Table.obj
 0001:000c251d       ?SupprimeTous@CListTable@@QAEXXZ 004c351d f   Table.obj
 0001:000c258a       ?CreationConditionFrom@CListTable@@QAEXAAVCString@@@Z 004c358a f   Table.obj
 0001:000c2e70       ??_EMaCheckListBox@@UAEPAXI@Z 004c3e70 f i Table.obj
 0001:000c2e70       ??_GMaCheckListBox@@UAEPAXI@Z 004c3e70 f i Table.obj
 0001:000c2eb0       ??_GCTable@@UAEPAXI@Z      004c3eb0 f i Table.obj
 0001:000c2eb0       ??_ECTable@@UAEPAXI@Z      004c3eb0 f i Table.obj
 0001:000c2ef0       ?AfxGetResourceHandle@@YGPAUHINSTANCE__@@XZ 004c3ef0 f i Table.obj
 0001:000c2f00       ?BringWindowToTop@CWnd@@QAEXXZ 004c3f00 f i Table.obj
 0001:000c2f20       ?Invalidate@CWnd@@QAEXH@Z  004c3f20 f i Table.obj
 0001:000c2f50       ?InvalidateRect@CWnd@@QAEXPBUtagRECT@@H@Z 004c3f50 f i Table.obj
 0001:000c2f80       ?WindowFromPoint@CWnd@@SGPAV1@UtagPOINT@@@Z 004c3f80 f i Table.obj
 0001:000c2fb0       ?OnMove@CWnd@@IAEXHH@Z     004c3fb0 f i Table.obj
 0001:000c2fd0       ?GetTopIndex@CListBox@@QBEHXZ 004c3fd0 f i Table.obj
 0001:000c3000       ?SetSel@CListBox@@QAEHHH@Z 004c4000 f i Table.obj
 0001:000c3030       ?FindString@CListBox@@QBEHHPBD@Z 004c4030 f i Table.obj
 0001:000c3060       ??0CCheckListBox@@QAE@XZ   004c4060 f i Table.obj
 0001:000c30a0       ??_GCCheckListBox@@UAEPAXI@Z 004c40a0 f i Table.obj
 0001:000c30a0       ??_ECCheckListBox@@UAEPAXI@Z 004c40a0 f i Table.obj
 0001:000c30e0       ??1CCheckListBox@@UAE@XZ   004c40e0 f i Table.obj
 0001:000c3100       ?LoadCursorA@CWinApp@@QBEPAUHICON__@@PBD@Z 004c4100 f i Table.obj
 0001:000c3130       ?CreateObject@CZoneAffichage@@SGPAVCObject@@XZ 004c4130 f   ZoneAffichage.obj
 0001:000c3194       ?_GetBaseClass@CZoneAffichage@@KGPAUCRuntimeClass@@XZ 004c4194 f   ZoneAffichage.obj
 0001:000c319e       ?GetRuntimeClass@CZoneAffichage@@UBEPAUCRuntimeClass@@XZ 004c419e f   ZoneAffichage.obj
 0001:000c31ae       ??0CZoneAffichage@@QAE@XZ  004c41ae f   ZoneAffichage.obj
 0001:000c322d       ??1CZoneAffichage@@UAE@XZ  004c422d f   ZoneAffichage.obj
 0001:000c32f6       ?_GetBaseMessageMap@CZoneAffichage@@KGPBUAFX_MSGMAP@@XZ 004c42f6 f   ZoneAffichage.obj
 0001:000c3300       ?GetMessageMap@CZoneAffichage@@MBEPBUAFX_MSGMAP@@XZ 004c4300 f   ZoneAffichage.obj
 0001:000c3310       ?JointureTable@CZoneAffichage@@IAEJIJ@Z 004c4310 f   ZoneAffichage.obj
 0001:000c33fa       ?AjoutTable@CZoneAffichage@@IAEJIJ@Z 004c43fa f   ZoneAffichage.obj
 0001:000c342f       ?OnCreate@CZoneAffichage@@IAEHPAUtagCREATESTRUCTA@@@Z 004c442f f   ZoneAffichage.obj
 0001:000c3508       ?OnContextMenu@CZoneAffichage@@IAEXPAVCWnd@@VCPoint@@@Z 004c4508 f   ZoneAffichage.obj
 0001:000c35e4       ?ResetScrollBars@CZoneAffichage@@QAEXXZ 004c45e4 f   ZoneAffichage.obj
 0001:000c370e       ?GetScrollPos32@CZoneAffichage@@QAEHHH@Z 004c470e f   ZoneAffichage.obj
 0001:000c3764       ?SetScrollPos32@CZoneAffichage@@QAEHHHH@Z 004c4764 f   ZoneAffichage.obj
 0001:000c379b       ?OnHScroll@CZoneAffichage@@IAEXIIPAVCScrollBar@@@Z 004c479b f   ZoneAffichage.obj
 0001:000c39a0       ?OnVScroll@CZoneAffichage@@IAEXIIPAVCScrollBar@@@Z 004c49a0 f   ZoneAffichage.obj
 0001:000c3b60       ?OnSize@CZoneAffichage@@IAEXIHH@Z 004c4b60 f   ZoneAffichage.obj
 0001:000c3b89       ?OnLButtonDblClk@CZoneAffichage@@IAEXIVCPoint@@@Z 004c4b89 f   ZoneAffichage.obj
 0001:000c3ce9       ?OnAffichageProprietejointure@CZoneAffichage@@IAEXXZ 004c4ce9 f   ZoneAffichage.obj
 0001:000c3e36       ?OnAffichageSupprimerjointure@CZoneAffichage@@IAEXXZ 004c4e36 f   ZoneAffichage.obj
 0001:000c3eef       ?OnAffichageAjouttable@CZoneAffichage@@IAEXXZ 004c4eef f   ZoneAffichage.obj
 0001:000c3f65       ?OnPaint@CZoneAffichage@@IAEXXZ 004c4f65 f   ZoneAffichage.obj
 0001:000c3fc6       ?RechercheStructureBase@CZoneAffichage@@QAEPAVCListCStructureTable@@XZ 004c4fc6 f   ZoneAffichage.obj
 0001:000c43a0       ??_GCZoneAffichage@@UAEPAXI@Z 004c53a0 f i ZoneAffichage.obj
 0001:000c43a0       ??_ECZoneAffichage@@UAEPAXI@Z 004c53a0 f i ZoneAffichage.obj
 0001:000c43e0       ??_GCListTable@@QAEPAXI@Z  004c53e0 f i ZoneAffichage.obj
 0001:000c4420       ?GetFocus@CWnd@@SGPAV1@XZ  004c5420 f i ZoneAffichage.obj
 0001:000c4440       ?CreateObject@CZoneTraitement@@SGPAVCObject@@XZ 004c5440 f   ZoneTraitement.obj
 0001:000c44a7       ?_GetBaseClass@CZoneTraitement@@KGPAUCRuntimeClass@@XZ 004c54a7 f   ZoneTraitement.obj
 0001:000c44b1       ?GetRuntimeClass@CZoneTraitement@@UBEPAUCRuntimeClass@@XZ 004c54b1 f   ZoneTraitement.obj
 0001:000c44c1       ??0CZoneTraitement@@QAE@XZ 004c54c1 f   ZoneTraitement.obj
 0001:000c45d4       ??1CZoneTraitement@@UAE@XZ 004c55d4 f   ZoneTraitement.obj
 0001:000c46a6       ?_GetBaseMessageMap@CZoneTraitement@@KGPBUAFX_MSGMAP@@XZ 004c56a6 f   ZoneTraitement.obj
 0001:000c46b0       ?GetMessageMap@CZoneTraitement@@MBEPBUAFX_MSGMAP@@XZ 004c56b0 f   ZoneTraitement.obj
 0001:000c46c0       ?DoDataExchange@CZoneTraitement@@MAEXPAVCDataExchange@@@Z 004c56c0 f   ZoneTraitement.obj
 0001:000c474c       ?OnCreate@CZoneTraitement@@IAEHPAUtagCREATESTRUCTA@@@Z 004c574c f   ZoneTraitement.obj
 0001:000c4a87       ?OnSize@CZoneTraitement@@IAEXIHH@Z 004c5a87 f   ZoneTraitement.obj
 0001:000c4b45       ?OnSelchange@CZoneTraitement@@IAEXPAUtagNMHDR@@PAJ@Z 004c5b45 f   ZoneTraitement.obj
 0001:000c508e       ?ConstruireReq@CZoneTraitement@@QAEXAAVCString@@@Z 004c608e f   ZoneTraitement.obj
 0001:000c62e8       ?ContruireGraphique@CZoneTraitement@@QAEHAAVCString@@@Z 004c72e8 f   ZoneTraitement.obj
 0001:000c8d79       ?TesteRequete@CZoneTraitement@@QAEXAAVCString@@@Z 004c9d79 f   ZoneTraitement.obj
 0001:000c94f3       ?InitListe@CZoneTraitement@@QAEXPAVCResultatRequete@@@Z 004ca4f3 f   ZoneTraitement.obj
 0001:000c9757       ?VideVariableGlobal@CZoneTraitement@@QAEXXZ 004ca757 f   ZoneTraitement.obj
 0001:000c98e4       ?OnDestroy@CZoneTraitement@@IAEXXZ 004ca8e4 f   ZoneTraitement.obj
 0001:000cae90       ??_ECZoneTraitement@@UAEPAXI@Z 004cbe90 f i ZoneTraitement.obj
 0001:000cae90       ??_GCZoneTraitement@@UAEPAXI@Z 004cbe90 f i ZoneTraitement.obj
 0001:000caed0       ?EnableTitleTips@CGridCtrl@@QAEXH@Z 004cbed0 f i ZoneTraitement.obj
 0001:000caef0       ??0orscan@@QAE@PAVCWnd@@H@Z 004cbef0 f i ZoneTraitement.obj
 0001:000caf40       ?yygetc@orscan@@UAEHXZ     004cbf40 f i ZoneTraitement.obj
 0001:000cafb0       ?orerror@orscan@@UAAXPADZZ 004cbfb0 f i ZoneTraitement.obj
 0001:000cb070       ??0frscan@@QAE@PAVCWnd@@HH@Z 004cc070 f i ZoneTraitement.obj
 0001:000cb0c0       ?yygetc@frscan@@UAEHXZ     004cc0c0 f i ZoneTraitement.obj
 0001:000cb130       ?frerror@frscan@@UAAXPADZZ 004cc130 f i ZoneTraitement.obj
 0001:000cb1f0       ??0sescan@@QAE@PAVCWnd@@H@Z 004cc1f0 f i ZoneTraitement.obj
 0001:000cb240       ?yygetc@sescan@@UAEHXZ     004cc240 f i ZoneTraitement.obj
 0001:000cb2b0       ?seerror@sescan@@UAAXPADZZ 004cc2b0 f i ZoneTraitement.obj
 0001:000cb380       ??0whscan@@QAE@PAVCWnd@@HH@Z 004cc380 f i ZoneTraitement.obj
 0001:000cb3d0       ?yygetc@whscan@@UAEHXZ     004cc3d0 f i ZoneTraitement.obj
 0001:000cb440       ?wherror@whscan@@UAAXPADZZ 004cc440 f i ZoneTraitement.obj
 0001:000cb500       ??0hascan@@QAE@PAVCWnd@@H@Z 004cc500 f i ZoneTraitement.obj
 0001:000cb550       ?yygetc@hascan@@UAEHXZ     004cc550 f i ZoneTraitement.obj
 0001:000cb5c0       ?haerror@hascan@@UAAXPADZZ 004cc5c0 f i ZoneTraitement.obj
 0001:000cb680       ??0odscan@@QAE@PAVCWnd@@H@Z 004cc680 f i ZoneTraitement.obj
 0001:000cb6d0       ?yygetc@odscan@@UAEHXZ     004cc6d0 f i ZoneTraitement.obj
 0001:000cb740       ?oderror@odscan@@UAAXPADZZ 004cc740 f i ZoneTraitement.obj
 0001:000cb810       ??0grscan@@QAE@PAVCWnd@@H@Z 004cc810 f i ZoneTraitement.obj
 0001:000cb860       ?yygetc@grscan@@UAEHXZ     004cc860 f i ZoneTraitement.obj
 0001:000cb8d0       ?grerror@grscan@@UAAXPADZZ 004cc8d0 f i ZoneTraitement.obj
 0001:000cb990       ??1orscan@@QAE@XZ          004cc990 f i ZoneTraitement.obj
 0001:000cb9b0       ??1frscan@@QAE@XZ          004cc9b0 f i ZoneTraitement.obj
 0001:000cb9d0       ??1sescan@@QAE@XZ          004cc9d0 f i ZoneTraitement.obj
 0001:000cb9f0       ??1whscan@@QAE@XZ          004cc9f0 f i ZoneTraitement.obj
 0001:000cba10       ??1grscan@@QAE@XZ          004cca10 f i ZoneTraitement.obj
 0001:000cba30       ??1hascan@@QAE@XZ          004cca30 f i ZoneTraitement.obj
 0001:000cba50       ??1odscan@@QAE@XZ          004cca50 f i ZoneTraitement.obj
 0001:000cba70       ??_GCSelectionParser@@QAEPAXI@Z 004cca70 f i ZoneTraitement.obj
 0001:000cbab0       ??_GCSuppression@@QAEPAXI@Z 004ccab0 f i ZoneTraitement.obj
 0001:000cbaf0       ??_GCMiseAJour@@QAEPAXI@Z  004ccaf0 f i ZoneTraitement.obj
 0001:000cbb30       ??_GCInsertion@@QAEPAXI@Z  004ccb30 f i ZoneTraitement.obj
 0001:000cbb70       ?InsertItem@CListCtrl@@QAEHPBUtagLVITEMA@@@Z 004ccb70 f i ZoneTraitement.obj
 0001:000cbba0       ?DeleteColumn@CListCtrl@@QAEHH@Z 004ccba0 f i ZoneTraitement.obj
 0001:000cbbd0       ?GetModify@CRichEditCtrl@@QBEHXZ 004ccbd0 f i ZoneTraitement.obj
 0001:000cbc00       ?SetModify@CRichEditCtrl@@QAEXH@Z 004ccc00 f i ZoneTraitement.obj
 0001:000cbc30       ??0CCritereInsertion@@QAE@XZ 004ccc30 f   CLigneInsert.obj
 0001:000cbc8f       ??1CCritereInsertion@@QAE@XZ 004ccc8f f   CLigneInsert.obj
 0001:000cbca5       ??0CLigneInsert@@QAE@XZ    004ccca5 f   CLigneInsert.obj
 0001:000cbe01       ??1CLigneInsert@@UAE@XZ    004cce01 f   CLigneInsert.obj
 0001:000cbeaf       ?AjouteCrtiere@CLigneInsert@@QAEXHPAVCCritereInsertion@@@Z 004cceaf f   CLigneInsert.obj
 0001:000cbed3       ?SupprimeTous@CLigneInsert@@QAEXXZ 004cced3 f   CLigneInsert.obj
 0001:000cbf3e       ?SupprimeCritere@CLigneInsert@@QAEXH@Z 004ccf3e f   CLigneInsert.obj
 0001:000cc00d       ?LitPremier@CLigneInsert@@QAEPAVCCritereInsertion@@XZ 004cd00d f   CLigneInsert.obj
 0001:000cc058       ?LitSuivant@CLigneInsert@@QAEPAVCCritereInsertion@@XZ 004cd058 f   CLigneInsert.obj
 0001:000cc09f       ?RechercheCritere@CLigneInsert@@QAEPAVCCritereInsertion@@H@Z 004cd09f f   CLigneInsert.obj
 0001:000cc0db       ??0CListLigneInsert@@QAE@XZ 004cd0db f   CLigneInsert.obj
 0001:000cc113       ??1CListLigneInsert@@QAE@XZ 004cd113 f   CLigneInsert.obj
 0001:000cc129       ?AjouteLigne@CListLigneInsert@@QAEXHPAVCLigneInsert@@@Z 004cd129 f   CLigneInsert.obj
 0001:000cc14e       ?SupprimeLigne@CListLigneInsert@@QAEXH@Z 004cd14e f   CLigneInsert.obj
 0001:000cc218       ?SupprimeTous@CListLigneInsert@@QAEXXZ 004cd218 f   CLigneInsert.obj
 0001:000cc284       ?LitPremier@CListLigneInsert@@QAEPAVCLigneInsert@@XZ 004cd284 f   CLigneInsert.obj
 0001:000cc2cb       ?LitSuivant@CListLigneInsert@@QAEPAVCLigneInsert@@XZ 004cd2cb f   CLigneInsert.obj
 0001:000cc30e       ?LitPremierLigne@CListLigneInsert@@QAEPAVCLigneInsert@@XZ 004cd30e f   CLigneInsert.obj
 0001:000cc379       ?LitSuivantLigne@CListLigneInsert@@QAEPAVCLigneInsert@@XZ 004cd379 f   CLigneInsert.obj
 0001:000cc3da       ?RechercheLigne@CListLigneInsert@@QAEPAVCLigneInsert@@H@Z 004cd3da f   CLigneInsert.obj
 0001:000cc417       ?RechercheLigne@CListLigneInsert@@QAEPAVCLigneInsert@@VCString@@@Z 004cd417 f   CLigneInsert.obj
 0001:000cc49c       ?RechercheLigneTable@CListLigneInsert@@QAEPAVCLigneInsert@@VCString@@@Z 004cd49c f   CLigneInsert.obj
 0001:000cc521       ?NombreLigne@CListLigneInsert@@QAEHXZ 004cd521 f   CLigneInsert.obj
 0001:000cc537       ?SupprimeLignes@CListLigneInsert@@QAEXVCString@@@Z 004cd537 f   CLigneInsert.obj
 0001:000cc5d8       ?DecaleLigne@CListLigneInsert@@QAEXHH@Z 004cd5d8 f   CLigneInsert.obj
 0001:000cc641       ?RechercheLigneTableChamp@CListLigneInsert@@QAEHVCString@@0@Z 004cd641 f   CLigneInsert.obj
 0001:000cc6f8       ?RechercheLigneTableChamp@CListLigneInsert@@QAEHVCString@@@Z 004cd6f8 f   CLigneInsert.obj
 0001:000cca70       ??_ECLigneInsert@@UAEPAXI@Z 004cda70 f i CLigneInsert.obj
 0001:000cca70       ??_GCLigneInsert@@UAEPAXI@Z 004cda70 f i CLigneInsert.obj
 0001:000ccab0       ??_GCCritereInsertion@@QAEPAXI@Z 004cdab0 f i CLigneInsert.obj
 0001:000ccaf0       ??0CGridInsert@@QAE@XZ     004cdaf0 f   GridInsert.obj
 0001:000ccd4b       ??1CGridInsert@@UAE@XZ     004cdd4b f   GridInsert.obj
 0001:000cce08       ?_GetBaseMessageMap@CGridInsert@@KGPBUAFX_MSGMAP@@XZ 004cde08 f   GridInsert.obj
 0001:000cce12       ?GetMessageMap@CGridInsert@@MBEPBUAFX_MSGMAP@@XZ 004cde12 f   GridInsert.obj
 0001:000cce22       ?InsertLigneVide@CGridInsert@@QAEXXZ 004cde22 f   GridInsert.obj
 0001:000cce93       ?InsertColonneVide@CGridInsert@@QAEXXZ 004cde93 f   GridInsert.obj
 0001:000ccef1       ?AjouteLigne@CGridInsert@@QAEXPAVCLigneInsert@@@Z 004cdef1 f   GridInsert.obj
 0001:000cd421       ?AjouteLigne@CGridInsert@@QAEXHPAVCLigneInsert@@@Z 004ce421 f   GridInsert.obj
 0001:000cd458       ?AfficheLigne@CGridInsert@@QAEXPAVCLigneInsert@@@Z 004ce458 f   GridInsert.obj
 0001:000cd6e5       ?SupprimeLigne@CGridInsert@@QAEXH@Z 004ce6e5 f   GridInsert.obj
 0001:000cd70c       ?SupprimeLigne@CGridInsert@@QAEXVCString@@@Z 004ce70c f   GridInsert.obj
 0001:000cd788       ?SupprimeTous@CGridInsert@@QAEXXZ 004ce788 f   GridInsert.obj
 0001:000cd7a1       ?AfficheTout@CGridInsert@@QAEXXZ 004ce7a1 f   GridInsert.obj
 0001:000cd7e4       ?OnEndEditCell@CGridInsert@@UAEXPAU_GV_ITEM@@@Z 004ce7e4 f   GridInsert.obj
 0001:000cdbfb       ?OnEditCell@CGridInsert@@UAEXHHI@Z 004cebfb f   GridInsert.obj
 0001:000cdec4       ?OnContextMenu@CGridInsert@@IAEXPAVCWnd@@VCPoint@@@Z 004ceec4 f   GridInsert.obj
 0001:000ce0b7       ?OnCritresAssist@CGridInsert@@IAEXXZ 004cf0b7 f   GridInsert.obj
 0001:000ce6f5       ?OnCritresInserer@CGridInsert@@IAEXXZ 004cf6f5 f   GridInsert.obj
 0001:000ce753       ?OnCritresSupprimer@CGridInsert@@IAEXXZ 004cf753 f   GridInsert.obj
 0001:000ce985       ?OnCritresInserercol@CGridInsert@@IAEXXZ 004cf985 f   GridInsert.obj
 0001:000ce9c1       ?OnCritresZoom@CGridInsert@@IAEXXZ 004cf9c1 f   GridInsert.obj
 0001:000ceae5       ?EffaceTout@CGridInsert@@QAEXXZ 004cfae5 f   GridInsert.obj
 0001:000ceb0d       ?EffaceContenu@CGridInsert@@QAEXXZ 004cfb0d f   GridInsert.obj
 0001:000cec13       ?EffaceLigne@CGridInsert@@QAEXH@Z 004cfc13 f   GridInsert.obj
 0001:000cecf3       ?OnKeyDown@CGridInsert@@IAEXIII@Z 004cfcf3 f   GridInsert.obj
 0001:000cf279       ?TraiteLigne@CGridInsert@@QAEXPAVCLigneInsert@@PAVCCritereInsertion@@@Z 004d0279 f   GridInsert.obj
 0001:000cf80e       ?TraiteLigneChamp@CGridInsert@@QAEXVCString@@0AAV2@@Z 004d080e f   GridInsert.obj
 0001:000cfb8f       ?SupprimeDelimiteur@CGridInsert@@QAEHAAVCString@@@Z 004d0b8f f   GridInsert.obj
 0001:000cfec7       ?TraiteChamp@CGridInsert@@QAEHHAAVCString@@@Z 004d0ec7 f   GridInsert.obj
 0001:000d0936       ?ChangeNomTable@CGridInsert@@QAEXVCString@@0@Z 004d1936 f   GridInsert.obj
 0001:000d09f7       ?GridModifer@CGridInsert@@QAEXXZ 004d19f7 f   GridInsert.obj
 0001:000d1a00       ??_ECGridInsert@@UAEPAXI@Z 004d2a00 f i GridInsert.obj
 0001:000d1a00       ??_GCGridInsert@@UAEPAXI@Z 004d2a00 f i GridInsert.obj
 0001:000d1a40       ?CreateObject@InsertionDoc@@SGPAVCObject@@XZ 004d2a40 f   insertiondoc.obj
 0001:000d1aa4       ?_GetBaseClass@InsertionDoc@@KGPAUCRuntimeClass@@XZ 004d2aa4 f   insertiondoc.obj
 0001:000d1aae       ?GetRuntimeClass@InsertionDoc@@UBEPAUCRuntimeClass@@XZ 004d2aae f   insertiondoc.obj
 0001:000d1abe       ??0InsertionDoc@@IAE@XZ    004d2abe f   insertiondoc.obj
 0001:000d1ae7       ??1InsertionDoc@@UAE@XZ    004d2ae7 f   insertiondoc.obj
 0001:000d1b68       ?_GetBaseMessageMap@InsertionDoc@@KGPBUAFX_MSGMAP@@XZ 004d2b68 f   insertiondoc.obj
 0001:000d1b72       ?GetMessageMap@InsertionDoc@@MBEPBUAFX_MSGMAP@@XZ 004d2b72 f   insertiondoc.obj
 0001:000d1b82       ?Serialize@InsertionDoc@@UAEXAAVCArchive@@@Z 004d2b82 f   insertiondoc.obj
 0001:000d1b97       ?OnNewDocument@InsertionDoc@@MAEHXZ 004d2b97 f   insertiondoc.obj
 0001:000d2163       ?InitView@InsertionDoc@@UAEXXZ 004d3163 f   insertiondoc.obj
 0001:000d2222       ?OnSaveDocument@InsertionDoc@@UAEHPBD@Z 004d3222 f   insertiondoc.obj
 0001:000d2604       ?DoFileSave@InsertionDoc@@UAEHXZ 004d3604 f   insertiondoc.obj
 0001:000d2920       ??_GInsertionDoc@@UAEPAXI@Z 004d3920 f i insertiondoc.obj
 0001:000d2920       ??_EInsertionDoc@@UAEPAXI@Z 004d3920 f i insertiondoc.obj
 0001:000d2960       ?EcritDescription@InsertionView@@QAEXPBD@Z 004d3960 f i insertiondoc.obj
 0001:000d2990       ?LitDescription@InsertionView@@QAE?AVCString@@XZ 004d3990 f i insertiondoc.obj
 0001:000d29d0       ?CreateObject@InsertionView@@SGPAVCObject@@XZ 004d39d0 f   InsertionView.obj
 0001:000d2a37       ?_GetBaseClass@InsertionView@@KGPAUCRuntimeClass@@XZ 004d3a37 f   InsertionView.obj
 0001:000d2a41       ?GetRuntimeClass@InsertionView@@UBEPAUCRuntimeClass@@XZ 004d3a41 f   InsertionView.obj
 0001:000d2a51       ??0InsertionView@@IAE@XZ   004d3a51 f   InsertionView.obj
 0001:000d2ade       ??1InsertionView@@MAE@XZ   004d3ade f   InsertionView.obj
 0001:000d2b59       ?DoDataExchange@InsertionView@@MAEXPAVCDataExchange@@@Z 004d3b59 f   InsertionView.obj
 0001:000d2ba1       ?_GetBaseMessageMap@InsertionView@@KGPBUAFX_MSGMAP@@XZ 004d3ba1 f   InsertionView.obj
 0001:000d2bab       ?GetMessageMap@InsertionView@@MBEPBUAFX_MSGMAP@@XZ 004d3bab f   InsertionView.obj
 0001:000d2bbb       ?OnCreate@InsertionView@@IAEHPAUtagCREATESTRUCTA@@@Z 004d3bbb f   InsertionView.obj
 0001:000d2d72       ?OnSize@InsertionView@@IAEXIHH@Z 004d3d72 f   InsertionView.obj
 0001:000d2dee       ?AjoutChampGrid@InsertionView@@IAEJIJ@Z 004d3dee f   InsertionView.obj
 0001:000d2e0f       ?OnUpdate@InsertionView@@MAEXPAVCView@@JPAVCObject@@@Z 004d3e0f f   InsertionView.obj
 0001:000d2e2a       ?EcritRequete@InsertionView@@QAEXPAVCRequete@@@Z 004d3e2a f   InsertionView.obj
 0001:000d310a       ?LitRequete@InsertionView@@QAEPAVCRequete@@XZ 004d410a f   InsertionView.obj
 0001:000d3213       ?EditeurModif@InsertionView@@IAEJIJ@Z 004d4213 f   InsertionView.obj
 0001:000d322a       ?RequeteModifier@InsertionView@@QAEXXZ 004d422a f   InsertionView.obj
 0001:000d32e3       ?TransformeIdMemoires@InsertionView@@QAEHAAVCString@@@Z 004d42e3 f   InsertionView.obj
 0001:000d369b       ?TransformeMemoiresId@InsertionView@@QAEHAAVCString@@@Z 004d469b f   InsertionView.obj
 0001:000d39d5       ?PtStructureBase@InsertionView@@QAEPAVCListCStructureTable@@XZ 004d49d5 f   InsertionView.obj
 0001:000d3e90       ??_EInsertionView@@MAEPAXI@Z 004d4e90 f i InsertionView.obj
 0001:000d3e90       ??_GInsertionView@@MAEPAXI@Z 004d4e90 f i InsertionView.obj
 0001:000d3ed0       ??0CJointureInsert@@QAE@XZ 004d4ed0 f   JointureInsert.obj
 0001:000d3ffc       ??1CJointureInsert@@UAE@XZ 004d4ffc f   JointureInsert.obj
 0001:000d4071       ?DessineJointure@CJointureInsert@@QAEXPAVCDC@@PAVCWnd@@@Z 004d5071 f   JointureInsert.obj
 0001:000d44b9       ?PointSurLigne@CJointureInsert@@QAEHVCPoint@@@Z 004d54b9 f   JointureInsert.obj
 0001:000d454e       ??0CListJointureInsert@@QAE@PAVCWnd@@@Z 004d554e f   JointureInsert.obj
 0001:000d4587       ??1CListJointureInsert@@UAE@XZ 004d5587 f   JointureInsert.obj
 0001:000d45db       ?AjouteJointure@CListJointureInsert@@QAEEPAVCJointureInsert@@@Z 004d55db f   JointureInsert.obj
 0001:000d460f       ?RechercheJointure@CListJointureInsert@@QAEPAVCJointureInsert@@PAV2@@Z 004d560f f   JointureInsert.obj
 0001:000d4682       ?RechercheJointure@CListJointureInsert@@QAEPAVCJointureInsert@@H@Z 004d5682 f   JointureInsert.obj
 0001:000d46d8       ?SupprimeTous@CListJointureInsert@@QAEXXZ 004d56d8 f   JointureInsert.obj
 0001:000d4745       ?SupprimeJointure@CListJointureInsert@@QAEXPAVCJointureInsert@@@Z 004d5745 f   JointureInsert.obj
 0001:000d47b6       ?SupprimeJointure@CListJointureInsert@@QAEXH@Z 004d57b6 f   JointureInsert.obj
 0001:000d490b       ?LitPremier@CListJointureInsert@@QAEPAVCJointureInsert@@XZ 004d590b f   JointureInsert.obj
 0001:000d4956       ?LitSuivant@CListJointureInsert@@QAEPAVCJointureInsert@@XZ 004d5956 f   JointureInsert.obj
 0001:000d499d       ?DessineJointure@CListJointureInsert@@QAEXPAVCDC@@PAVCWnd@@@Z 004d599d f   JointureInsert.obj
 0001:000d49da       ?RechercheLigneJointure@CListJointureInsert@@QAEPAVCJointureInsert@@VCPoint@@@Z 004d59da f   JointureInsert.obj
 0001:000d4a82       ?CreationConditionFrom@CListJointureInsert@@QAEXAAVCString@@@Z 004d5a82 f   JointureInsert.obj
 0001:000d5022       ?ExpressionEntiere@CListJointureInsert@@QAEXAAVCString@@PAVCJointureInsert@@H@Z 004d6022 f   JointureInsert.obj
 0001:000d51bd       ?ExpressionAnd@CListJointureInsert@@QAEXAAVCString@@PAVCJointureInsert@@H@Z 004d61bd f   JointureInsert.obj
 0001:000d533c       ??0CJointureTableInsert@@QAE@XZ 004d633c f   JointureInsert.obj
 0001:000d53ca       ??1CJointureTableInsert@@UAE@XZ 004d63ca f   JointureInsert.obj
 0001:000d5421       ?AjouteJointureTable@CJointureTableInsert@@QAEXPAVCJointureInsert@@@Z 004d6421 f   JointureInsert.obj
 0001:000d543d       ?SupprimeJointureTable@CJointureTableInsert@@QAEXPAVCJointureInsert@@@Z 004d643d f   JointureInsert.obj
 0001:000d54a2       ?RechercheAutreJointure@CJointureTableInsert@@QAEPAVCJointureInsert@@HH@Z 004d64a2 f   JointureInsert.obj
 0001:000d550d       ?LitPremier@CJointureTableInsert@@QAEPAVCJointureInsert@@XZ 004d650d f   JointureInsert.obj
 0001:000d5558       ?LitSuivant@CJointureTableInsert@@QAEPAVCJointureInsert@@XZ 004d6558 f   JointureInsert.obj
 0001:000d559f       ??0CListJointureTableInsert@@QAE@XZ 004d659f f   JointureInsert.obj
 0001:000d55cd       ??1CListJointureTableInsert@@UAE@XZ 004d65cd f   JointureInsert.obj
 0001:000d5621       ?AjouteJointureTable@CListJointureTableInsert@@QAEXPAVCJointureTableInsert@@@Z 004d6621 f   JointureInsert.obj
 0001:000d563d       ?SupprimeTous@CListJointureTableInsert@@QAEXXZ 004d663d f   JointureInsert.obj
 0001:000d56aa       ?LitPremier@CListJointureTableInsert@@QAEPAVCJointureTableInsert@@XZ 004d66aa f   JointureInsert.obj
 0001:000d56f5       ?LitSuivant@CListJointureTableInsert@@QAEPAVCJointureTableInsert@@XZ 004d66f5 f   JointureInsert.obj
 0001:000d573c       ?RechercheJointueTable@CListJointureTableInsert@@QAEPAVCJointureTableInsert@@H@Z 004d673c f   JointureInsert.obj
 0001:000d5dd0       ??_ECJointureInsert@@UAEPAXI@Z 004d6dd0 f i JointureInsert.obj
 0001:000d5dd0       ??_GCJointureInsert@@UAEPAXI@Z 004d6dd0 f i JointureInsert.obj
 0001:000d5e10       ??_GCListJointureInsert@@UAEPAXI@Z 004d6e10 f i JointureInsert.obj
 0001:000d5e10       ??_ECListJointureInsert@@UAEPAXI@Z 004d6e10 f i JointureInsert.obj
 0001:000d5e50       ??_ECJointureTableInsert@@UAEPAXI@Z 004d6e50 f i JointureInsert.obj
 0001:000d5e50       ??_GCJointureTableInsert@@UAEPAXI@Z 004d6e50 f i JointureInsert.obj
 0001:000d5e90       ??_GCListJointureTableInsert@@UAEPAXI@Z 004d6e90 f i JointureInsert.obj
 0001:000d5e90       ??_ECListJointureTableInsert@@UAEPAXI@Z 004d6e90 f i JointureInsert.obj
 0001:000d5ed0       ??0CRgn@@QAE@XZ            004d6ed0 f i JointureInsert.obj
 0001:000d5f00       ??_ECRgn@@UAEPAXI@Z        004d6f00 f i JointureInsert.obj
 0001:000d5f00       ??_GCRgn@@UAEPAXI@Z        004d6f00 f i JointureInsert.obj
 0001:000d5f40       ??1CRgn@@UAE@XZ            004d6f40 f i JointureInsert.obj
 0001:000d5f70       ?CreateObject@MaCheckListBoxInsert@@SGPAVCObject@@XZ 004d6f70 f   tableinsert.obj
 0001:000d5fd4       ?_GetBaseClass@MaCheckListBoxInsert@@KGPAUCRuntimeClass@@XZ 004d6fd4 f   tableinsert.obj
 0001:000d5fde       ?GetRuntimeClass@MaCheckListBoxInsert@@UBEPAUCRuntimeClass@@XZ 004d6fde f   tableinsert.obj
 0001:000d5fee       ??0MaCheckListBoxInsert@@QAE@XZ 004d6fee f   tableinsert.obj
 0001:000d60b9       ??1MaCheckListBoxInsert@@UAE@XZ 004d70b9 f   tableinsert.obj
 0001:000d6135       ?_GetBaseMessageMap@MaCheckListBoxInsert@@KGPBUAFX_MSGMAP@@XZ 004d7135 f   tableinsert.obj
 0001:000d613f       ?GetMessageMap@MaCheckListBoxInsert@@MBEPBUAFX_MSGMAP@@XZ 004d713f f   tableinsert.obj
 0001:000d614f       ?DrawItem@MaCheckListBoxInsert@@UAEXPAUtagDRAWITEMSTRUCT@@@Z 004d714f f   tableinsert.obj
 0001:000d6247       ?OnLButtonDblClk@MaCheckListBoxInsert@@IAEXIVCPoint@@@Z 004d7247 f   tableinsert.obj
 0001:000d6403       ?OnLButtonDown@MaCheckListBoxInsert@@IAEXIVCPoint@@@Z 004d7403 f   tableinsert.obj
 0001:000d64be       ?OnMouseMove@MaCheckListBoxInsert@@IAEXIVCPoint@@@Z 004d74be f   tableinsert.obj
 0001:000d6561       ?OnLButtonUp@MaCheckListBoxInsert@@IAEXIVCPoint@@@Z 004d7561 f   tableinsert.obj
 0001:000d6912       ?OnTablePropriete@MaCheckListBoxInsert@@IAEXXZ 004d7912 f   tableinsert.obj
 0001:000d6cfc       ?OnContextMenu@MaCheckListBoxInsert@@IAEXPAVCWnd@@VCPoint@@@Z 004d7cfc f   tableinsert.obj
 0001:000d6d86       ?OnTableSupprimer@MaCheckListBoxInsert@@IAEXXZ 004d7d86 f   tableinsert.obj
 0001:000d6e9d       ?OnVScroll@MaCheckListBoxInsert@@IAEXIIPAVCScrollBar@@@Z 004d7e9d f   tableinsert.obj
 0001:000d6ef7       ?CreateObject@CTableInsert@@SGPAVCObject@@XZ 004d7ef7 f   tableinsert.obj
 0001:000d6f5e       ?_GetBaseClass@CTableInsert@@KGPAUCRuntimeClass@@XZ 004d7f5e f   tableinsert.obj
 0001:000d6f68       ?GetRuntimeClass@CTableInsert@@UBEPAUCRuntimeClass@@XZ 004d7f68 f   tableinsert.obj
 0001:000d6f78       ??0CTableInsert@@QAE@XZ    004d7f78 f   tableinsert.obj
 0001:000d7032       ??1CTableInsert@@UAE@XZ    004d8032 f   tableinsert.obj
 0001:000d70a4       ?_GetBaseMessageMap@CTableInsert@@KGPBUAFX_MSGMAP@@XZ 004d80a4 f   tableinsert.obj
 0001:000d70ae       ?GetMessageMap@CTableInsert@@MBEPBUAFX_MSGMAP@@XZ 004d80ae f   tableinsert.obj
 0001:000d70be       ?OnCreate@CTableInsert@@IAEHPAUtagCREATESTRUCTA@@@Z 004d80be f   tableinsert.obj
 0001:000d715b       ?OnSize@CTableInsert@@IAEXIHH@Z 004d815b f   tableinsert.obj
 0001:000d71ce       ?OnMove@CTableInsert@@IAEXHH@Z 004d81ce f   tableinsert.obj
 0001:000d7224       ?OnPaint@CTableInsert@@IAEXXZ 004d8224 f   tableinsert.obj
 0001:000d72a9       ??0CListTableInsert@@QAE@PAVCWnd@@@Z 004d82a9 f   tableinsert.obj
 0001:000d730a       ??1CListTableInsert@@QAE@XZ 004d830a f   tableinsert.obj
 0001:000d7355       ?Ajoute@CListTableInsert@@QAEXPAVCListCStructureChamp@@PADH@Z 004d8355 f   tableinsert.obj
 0001:000d767a       ?CreationTable@CListTableInsert@@QAEXVCString@@@Z 004d867a f   tableinsert.obj
 0001:000d7833       ?LitPremier@CListTableInsert@@QAEPAVCTableInsert@@XZ 004d8833 f   tableinsert.obj
 0001:000d787a       ?LitSuivant@CListTableInsert@@QAEPAVCTableInsert@@XZ 004d887a f   tableinsert.obj
 0001:000d78aa       ?RechercheTable@CListTableInsert@@QAEPAVCTableInsert@@H@Z 004d88aa f   tableinsert.obj
 0001:000d799f       ?RechercheChampTableInsert@CListTableInsert@@QAEHVCString@@@Z 004d899f f   tableinsert.obj
 0001:000d7a58       ?RechercheTable@CListTableInsert@@QAEPAVCTableInsert@@PAD@Z 004d8a58 f   tableinsert.obj
 0001:000d7ba9       ?CocheCaseTableChamp@CListTableInsert@@QAEXPAD0HH@Z 004d8ba9 f   tableinsert.obj
 0001:000d7c4e       ?DecocheChamp@CListTableInsert@@QAEXXZ 004d8c4e f   tableinsert.obj
 0001:000d7cb5       ?Supprime@CListTableInsert@@QAEXH@Z 004d8cb5 f   tableinsert.obj
 0001:000d7dc8       ?SupprimeTous@CListTableInsert@@QAEXXZ 004d8dc8 f   tableinsert.obj
 0001:000d7e35       ?CreationConditionFrom@CListTableInsert@@QAEXAAVCString@@@Z 004d8e35 f   tableinsert.obj
 0001:000d87f0       ??_GMaCheckListBoxInsert@@UAEPAXI@Z 004d97f0 f i tableinsert.obj
 0001:000d87f0       ??_EMaCheckListBoxInsert@@UAEPAXI@Z 004d97f0 f i tableinsert.obj
 0001:000d8830       ??_ECTableInsert@@UAEPAXI@Z 004d9830 f i tableinsert.obj
 0001:000d8830       ??_GCTableInsert@@UAEPAXI@Z 004d9830 f i tableinsert.obj
 0001:000d8870       ?GetCount@CMapStringToPtr@@QBEHXZ 004d9870 f i tableinsert.obj
 0001:000d8890       ??0CRect@@QAE@ABUtagRECT@@@Z 004d9890 f i tableinsert.obj
 0001:000d88c0       ?BottomRight@CRect@@QAEAAVCPoint@@XZ 004d98c0 f i tableinsert.obj
 0001:000d88e0       ?OnPaint@CWnd@@IAEXXZ      004d98e0 f i tableinsert.obj
 0001:000d891f       ??0CZoneAffichageInsert@@QAE@XZ 004d991f f   zoneaffichageinsert.obj
 0001:000d89a8       ??1CZoneAffichageInsert@@UAE@XZ 004d99a8 f   zoneaffichageinsert.obj
 0001:000d8a5f       ?_GetBaseMessageMap@CZoneAffichageInsert@@KGPBUAFX_MSGMAP@@XZ 004d9a5f f   zoneaffichageinsert.obj
 0001:000d8a69       ?GetMessageMap@CZoneAffichageInsert@@MBEPBUAFX_MSGMAP@@XZ 004d9a69 f   zoneaffichageinsert.obj
 0001:000d8a79       ?JointureTable@CZoneAffichageInsert@@IAEJIJ@Z 004d9a79 f   zoneaffichageinsert.obj
 0001:000d8b8d       ?AjoutTable@CZoneAffichageInsert@@IAEJIJ@Z 004d9b8d f   zoneaffichageinsert.obj
 0001:000d8bdf       ?AjoutTableSimple@CZoneAffichageInsert@@IAEJIJ@Z 004d9bdf f   zoneaffichageinsert.obj
 0001:000d8c67       ?OnCreate@CZoneAffichageInsert@@IAEHPAUtagCREATESTRUCTA@@@Z 004d9c67 f   zoneaffichageinsert.obj
 0001:000d8d40       ?OnContextMenu@CZoneAffichageInsert@@IAEXPAVCWnd@@VCPoint@@@Z 004d9d40 f   zoneaffichageinsert.obj
 0001:000d8e34       ?ResetScrollBars@CZoneAffichageInsert@@QAEXXZ 004d9e34 f   zoneaffichageinsert.obj
 0001:000d8f5e       ?GetScrollPos32@CZoneAffichageInsert@@QAEHHH@Z 004d9f5e f   zoneaffichageinsert.obj
 0001:000d8fb4       ?SetScrollPos32@CZoneAffichageInsert@@QAEHHHH@Z 004d9fb4 f   zoneaffichageinsert.obj
 0001:000d8feb       ?OnHScroll@CZoneAffichageInsert@@IAEXIIPAVCScrollBar@@@Z 004d9feb f   zoneaffichageinsert.obj
 0001:000d91f0       ?OnVScroll@CZoneAffichageInsert@@IAEXIIPAVCScrollBar@@@Z 004da1f0 f   zoneaffichageinsert.obj
 0001:000d93b0       ?OnSize@CZoneAffichageInsert@@IAEXIHH@Z 004da3b0 f   zoneaffichageinsert.obj
 0001:000d93d9       ?OnLButtonDblClk@CZoneAffichageInsert@@IAEXIVCPoint@@@Z 004da3d9 f   zoneaffichageinsert.obj
 0001:000d9539       ?OnAffichageProprietejointure@CZoneAffichageInsert@@IAEXXZ 004da539 f   zoneaffichageinsert.obj
 0001:000d9686       ?OnAffichageSupprimerjointure@CZoneAffichageInsert@@IAEXXZ 004da686 f   zoneaffichageinsert.obj
 0001:000d96e4       ?SupprimeJointure@CZoneAffichageInsert@@QAEXPAVCJointureInsert@@@Z 004da6e4 f   zoneaffichageinsert.obj
 0001:000d976b       ?OnAffichageAjouttable@CZoneAffichageInsert@@IAEXXZ 004da76b f   zoneaffichageinsert.obj
 0001:000d97e1       ?OnPaint@CZoneAffichageInsert@@IAEXXZ 004da7e1 f   zoneaffichageinsert.obj
 0001:000d9842       ?RechercheStructureBase@CZoneAffichageInsert@@QAEPAVCListCStructureTable@@XZ 004da842 f   zoneaffichageinsert.obj
 0001:000d9c50       ??_ECZoneAffichageInsert@@UAEPAXI@Z 004dac50 f i zoneaffichageinsert.obj
 0001:000d9c50       ??_GCZoneAffichageInsert@@UAEPAXI@Z 004dac50 f i zoneaffichageinsert.obj
 0001:000d9c90       ??_GCListTableInsert@@QAEPAXI@Z 004dac90 f i zoneaffichageinsert.obj
 0001:000d9cd0       ?CreateObject@CZoneTraitementInsert@@SGPAVCObject@@XZ 004dacd0 f   zonetraitementinsert.obj
 0001:000d9d37       ?_GetBaseClass@CZoneTraitementInsert@@KGPAUCRuntimeClass@@XZ 004dad37 f   zonetraitementinsert.obj
 0001:000d9d41       ?GetRuntimeClass@CZoneTraitementInsert@@UBEPAUCRuntimeClass@@XZ 004dad41 f   zonetraitementinsert.obj
 0001:000d9d51       ??0CZoneTraitementInsert@@QAE@XZ 004dad51 f   zonetraitementinsert.obj
 0001:000d9e52       ??1CZoneTraitementInsert@@UAE@XZ 004dae52 f   zonetraitementinsert.obj
 0001:000d9f12       ?_GetBaseMessageMap@CZoneTraitementInsert@@KGPBUAFX_MSGMAP@@XZ 004daf12 f   zonetraitementinsert.obj
 0001:000d9f1c       ?GetMessageMap@CZoneTraitementInsert@@MBEPBUAFX_MSGMAP@@XZ 004daf1c f   zonetraitementinsert.obj
 0001:000d9f2c       ?DoDataExchange@CZoneTraitementInsert@@MAEXPAVCDataExchange@@@Z 004daf2c f   zonetraitementinsert.obj
 0001:000d9fb8       ?OnCreate@CZoneTraitementInsert@@IAEHPAUtagCREATESTRUCTA@@@Z 004dafb8 f   zonetraitementinsert.obj
 0001:000da2c2       ?OnSize@CZoneTraitementInsert@@IAEXIHH@Z 004db2c2 f   zonetraitementinsert.obj
 0001:000da380       ?OnSelchange@CZoneTraitementInsert@@IAEXPAUtagNMHDR@@PAJ@Z 004db380 f   zonetraitementinsert.obj
 0001:000da8b9       ?ConstruireReq@CZoneTraitementInsert@@QAEXAAVCString@@@Z 004db8b9 f   zonetraitementinsert.obj
 0001:000dbfdd       ?ContruireGraphique@CZoneTraitementInsert@@QAEHAAVCString@@@Z 004dcfdd f   zonetraitementinsert.obj
 0001:000df31f       ?TesteRequete@CZoneTraitementInsert@@QAEXAAVCString@@@Z 004e031f f   zonetraitementinsert.obj
 0001:000dfd7d       ?InitListe@CZoneTraitementInsert@@QAEXPAVCResultatRequete@@@Z 004e0d7d f   zonetraitementinsert.obj
 0001:000dffe1       ?VideVariableGlobal@CZoneTraitementInsert@@QAEXXZ 004e0fe1 f   zonetraitementinsert.obj
 0001:000e016e       ?OnDestroy@CZoneTraitementInsert@@IAEXXZ 004e116e f   zonetraitementinsert.obj
 0001:000e1b10       ??_ECZoneTraitementInsert@@UAEPAXI@Z 004e2b10 f i zonetraitementinsert.obj
 0001:000e1b10       ??_GCZoneTraitementInsert@@UAEPAXI@Z 004e2b10 f i zonetraitementinsert.obj
 0001:000e1b50       ??0ciscan@@QAE@PAVCWnd@@H@Z 004e2b50 f i zonetraitementinsert.obj
 0001:000e1ba0       ?yygetc@ciscan@@UAEHXZ     004e2ba0 f i zonetraitementinsert.obj
 0001:000e1c10       ?cierror@ciscan@@UAAXPADZZ 004e2c10 f i zonetraitementinsert.obj
 0001:000e1cd0       ??0cvscan@@QAE@PAVCWnd@@H@Z 004e2cd0 f i zonetraitementinsert.obj
 0001:000e1d20       ?yygetc@cvscan@@UAEHXZ     004e2d20 f i zonetraitementinsert.obj
 0001:000e1d90       ?cverror@cvscan@@UAAXPADZZ 004e2d90 f i zonetraitementinsert.obj
 0001:000e1e50       ??1ciscan@@QAE@XZ          004e2e50 f i zonetraitementinsert.obj
 0001:000e1e70       ??1cvscan@@QAE@XZ          004e2e70 f i zonetraitementinsert.obj
 0001:000e1e90       ??0CCritereUpdate@@QAE@XZ  004e2e90 f   CLigneUpdate.obj
 0001:000e1eef       ??1CCritereUpdate@@QAE@XZ  004e2eef f   CLigneUpdate.obj
 0001:000e1f05       ??0CLigneUpdate@@QAE@XZ    004e2f05 f   CLigneUpdate.obj
 0001:000e1fd6       ??1CLigneUpdate@@UAE@XZ    004e2fd6 f   CLigneUpdate.obj
 0001:000e2057       ?AjouteCrtiere@CLigneUpdate@@QAEXHPAVCCritereUpdate@@@Z 004e3057 f   CLigneUpdate.obj
 0001:000e207b       ?SupprimeTous@CLigneUpdate@@QAEXXZ 004e307b f   CLigneUpdate.obj
 0001:000e20e6       ?SupprimeCritere@CLigneUpdate@@QAEXH@Z 004e30e6 f   CLigneUpdate.obj
 0001:000e21b5       ?LitPremier@CLigneUpdate@@QAEPAVCCritereUpdate@@XZ 004e31b5 f   CLigneUpdate.obj
 0001:000e2200       ?LitSuivant@CLigneUpdate@@QAEPAVCCritereUpdate@@XZ 004e3200 f   CLigneUpdate.obj
 0001:000e2247       ?RechercheCritere@CLigneUpdate@@QAEPAVCCritereUpdate@@H@Z 004e3247 f   CLigneUpdate.obj
 0001:000e2283       ??0CListLigneUpdate@@QAE@XZ 004e3283 f   CLigneUpdate.obj
 0001:000e22bb       ??1CListLigneUpdate@@QAE@XZ 004e32bb f   CLigneUpdate.obj
 0001:000e22d1       ?AjouteLigne@CListLigneUpdate@@QAEXHPAVCLigneUpdate@@@Z 004e32d1 f   CLigneUpdate.obj
 0001:000e22f6       ?SupprimeLigne@CListLigneUpdate@@QAEXH@Z 004e32f6 f   CLigneUpdate.obj
 0001:000e23c0       ?SupprimeTous@CListLigneUpdate@@QAEXXZ 004e33c0 f   CLigneUpdate.obj
 0001:000e242c       ?LitPremier@CListLigneUpdate@@QAEPAVCLigneUpdate@@XZ 004e342c f   CLigneUpdate.obj
 0001:000e2473       ?LitSuivant@CListLigneUpdate@@QAEPAVCLigneUpdate@@XZ 004e3473 f   CLigneUpdate.obj
 0001:000e24b6       ?LitPremierLigne@CListLigneUpdate@@QAEPAVCLigneUpdate@@XZ 004e34b6 f   CLigneUpdate.obj
 0001:000e2521       ?LitSuivantLigne@CListLigneUpdate@@QAEPAVCLigneUpdate@@XZ 004e3521 f   CLigneUpdate.obj
 0001:000e2582       ?RechercheLigne@CListLigneUpdate@@QAEPAVCLigneUpdate@@H@Z 004e3582 f   CLigneUpdate.obj
 0001:000e25bf       ?RechercheLigne@CListLigneUpdate@@QAEPAVCLigneUpdate@@VCString@@@Z 004e35bf f   CLigneUpdate.obj
 0001:000e2644       ?DecaleLigne@CListLigneUpdate@@QAEXHH@Z 004e3644 f   CLigneUpdate.obj
 0001:000e26ad       ?RechercheLigneTableChamp@CListLigneUpdate@@QAEHVCString@@@Z 004e36ad f   CLigneUpdate.obj
 0001:000e2970       ??_GCLigneUpdate@@UAEPAXI@Z 004e3970 f i CLigneUpdate.obj
 0001:000e2970       ??_ECLigneUpdate@@UAEPAXI@Z 004e3970 f i CLigneUpdate.obj
 0001:000e29b0       ??_GCCritereUpdate@@QAEPAXI@Z 004e39b0 f i CLigneUpdate.obj
 0001:000e29f0       ??0CGridUpdate@@QAE@XZ     004e39f0 f   gridupdate.obj
 0001:000e2ad3       ??1CGridUpdate@@UAE@XZ     004e3ad3 f   gridupdate.obj
 0001:000e2b48       ?_GetBaseMessageMap@CGridUpdate@@KGPBUAFX_MSGMAP@@XZ 004e3b48 f   gridupdate.obj
 0001:000e2b52       ?GetMessageMap@CGridUpdate@@MBEPBUAFX_MSGMAP@@XZ 004e3b52 f   gridupdate.obj
 0001:000e2b62       ?InsertLigneVide@CGridUpdate@@QAEXXZ 004e3b62 f   gridupdate.obj
 0001:000e2bd3       ?InsertColonneVide@CGridUpdate@@QAEXXZ 004e3bd3 f   gridupdate.obj
 0001:000e2c31       ?AjouteLigne@CGridUpdate@@QAEXPAVCLigneUpdate@@@Z 004e3c31 f   gridupdate.obj
 0001:000e2e1e       ?AjouteLigne@CGridUpdate@@QAEXHPAVCLigneUpdate@@@Z 004e3e1e f   gridupdate.obj
 0001:000e2e55       ?AfficheLigne@CGridUpdate@@QAEXPAVCLigneUpdate@@@Z 004e3e55 f   gridupdate.obj
 0001:000e2f04       ?SupprimeLigne@CGridUpdate@@QAEXH@Z 004e3f04 f   gridupdate.obj
 0001:000e2f2b       ?SupprimeTous@CGridUpdate@@QAEXXZ 004e3f2b f   gridupdate.obj
 0001:000e2f44       ?AfficheTout@CGridUpdate@@QAEXXZ 004e3f44 f   gridupdate.obj
 0001:000e2f87       ?OnEndEditCell@CGridUpdate@@UAEXPAU_GV_ITEM@@@Z 004e3f87 f   gridupdate.obj
 0001:000e3307       ?OnContextMenu@CGridUpdate@@IAEXPAVCWnd@@VCPoint@@@Z 004e4307 f   gridupdate.obj
 0001:000e344b       ?OnCritresInserer@CGridUpdate@@IAEXXZ 004e444b f   gridupdate.obj
 0001:000e34a9       ?OnCritresSupprimer@CGridUpdate@@IAEXXZ 004e44a9 f   gridupdate.obj
 0001:000e3618       ?OnCritresInserercol@CGridUpdate@@IAEXXZ 004e4618 f   gridupdate.obj
 0001:000e3654       ?OnCritresZoom@CGridUpdate@@IAEXXZ 004e4654 f   gridupdate.obj
 0001:000e3778       ?EffaceTout@CGridUpdate@@QAEXXZ 004e4778 f   gridupdate.obj
 0001:000e37a0       ?EffaceContenu@CGridUpdate@@QAEXXZ 004e47a0 f   gridupdate.obj
 0001:000e3818       ?EffaceLigne@CGridUpdate@@QAEXH@Z 004e4818 f   gridupdate.obj
 0001:000e386a       ?OnKeyDown@CGridUpdate@@IAEXIII@Z 004e486a f   gridupdate.obj
 0001:000e3aa8       ?TraiteLigne@CGridUpdate@@QAEXPAVCLigneUpdate@@PAVCCritereUpdate@@@Z 004e4aa8 f   gridupdate.obj
 0001:000e3fe6       ?SupprimeDelimiteur@CGridUpdate@@QAEHAAVCString@@@Z 004e4fe6 f   gridupdate.obj
 0001:000e431e       ?TraiteChamp@CGridUpdate@@QAEHHAAVCString@@@Z 004e531e f   gridupdate.obj
 0001:000e4d8d       ?TraiteLigneChamp@CGridUpdate@@QAEXVCString@@0AAV2@@Z 004e5d8d f   gridupdate.obj
 0001:000e50ae       ?GridModifer@CGridUpdate@@QAEXXZ 004e60ae f   gridupdate.obj
 0001:000e5aa0       ??_ECGridUpdate@@UAEPAXI@Z 004e6aa0 f i gridupdate.obj
 0001:000e5aa0       ??_GCGridUpdate@@UAEPAXI@Z 004e6aa0 f i gridupdate.obj
 0001:000e5ae0       ?GetFixedRowCount@CGridCtrl@@QBEHXZ 004e6ae0 f i gridupdate.obj
 0001:000e5b00       ?GetFixedColumnCount@CGridCtrl@@QBEHXZ 004e6b00 f i gridupdate.obj
 0001:000e5b20       ?CreateObject@MaCheckListBoxUpdate@@SGPAVCObject@@XZ 004e6b20 f   TableUpdate.obj
 0001:000e5b84       ?_GetBaseClass@MaCheckListBoxUpdate@@KGPAUCRuntimeClass@@XZ 004e6b84 f   TableUpdate.obj
 0001:000e5b8e       ?GetRuntimeClass@MaCheckListBoxUpdate@@UBEPAUCRuntimeClass@@XZ 004e6b8e f   TableUpdate.obj
 0001:000e5b9e       ??0MaCheckListBoxUpdate@@QAE@XZ 004e6b9e f   TableUpdate.obj
 0001:000e5c50       ??1MaCheckListBoxUpdate@@UAE@XZ 004e6c50 f   TableUpdate.obj
 0001:000e5ca4       ?_GetBaseMessageMap@MaCheckListBoxUpdate@@KGPBUAFX_MSGMAP@@XZ 004e6ca4 f   TableUpdate.obj
 0001:000e5cae       ?GetMessageMap@MaCheckListBoxUpdate@@MBEPBUAFX_MSGMAP@@XZ 004e6cae f   TableUpdate.obj
 0001:000e5cbe       ?OnLButtonDblClk@MaCheckListBoxUpdate@@IAEXIVCPoint@@@Z 004e6cbe f   TableUpdate.obj
 0001:000e5dfd       ?OnLButtonDown@MaCheckListBoxUpdate@@IAEXIVCPoint@@@Z 004e6dfd f   TableUpdate.obj
 0001:000e5eb8       ?OnMouseMove@MaCheckListBoxUpdate@@IAEXIVCPoint@@@Z 004e6eb8 f   TableUpdate.obj
 0001:000e5f5b       ?OnLButtonUp@MaCheckListBoxUpdate@@IAEXIVCPoint@@@Z 004e6f5b f   TableUpdate.obj
 0001:000e60bc       ?OnVScroll@MaCheckListBoxUpdate@@IAEXIIPAVCScrollBar@@@Z 004e70bc f   TableUpdate.obj
 0001:000e60dd       ?CreateObject@CTableUpdate@@SGPAVCObject@@XZ 004e70dd f   TableUpdate.obj
 0001:000e6144       ?_GetBaseClass@CTableUpdate@@KGPAUCRuntimeClass@@XZ 004e7144 f   TableUpdate.obj
 0001:000e614e       ?GetRuntimeClass@CTableUpdate@@UBEPAUCRuntimeClass@@XZ 004e714e f   TableUpdate.obj
 0001:000e615e       ??0CTableUpdate@@QAE@XZ    004e715e f   TableUpdate.obj
 0001:000e61d8       ??1CTableUpdate@@UAE@XZ    004e71d8 f   TableUpdate.obj
 0001:000e623b       ?_GetBaseMessageMap@CTableUpdate@@KGPBUAFX_MSGMAP@@XZ 004e723b f   TableUpdate.obj
 0001:000e6245       ?GetMessageMap@CTableUpdate@@MBEPBUAFX_MSGMAP@@XZ 004e7245 f   TableUpdate.obj
 0001:000e6255       ?OnCreate@CTableUpdate@@IAEHPAUtagCREATESTRUCTA@@@Z 004e7255 f   TableUpdate.obj
 0001:000e62d6       ?OnSize@CTableUpdate@@IAEXIHH@Z 004e72d6 f   TableUpdate.obj
 0001:000e6310       ?OnMove@CTableUpdate@@IAEXHH@Z 004e7310 f   TableUpdate.obj
 0001:000e632d       ?OnPaint@CTableUpdate@@IAEXXZ 004e732d f   TableUpdate.obj
 0001:000e634e       ?CocheCaseTableChamp@CTableUpdate@@QAEXPADH@Z 004e734e f   TableUpdate.obj
 0001:000e6391       ?DecocheChamp@CTableUpdate@@QAEXXZ 004e7391 f   TableUpdate.obj
 0001:000e6600       ??_EMaCheckListBoxUpdate@@UAEPAXI@Z 004e7600 f i TableUpdate.obj
 0001:000e6600       ??_GMaCheckListBoxUpdate@@UAEPAXI@Z 004e7600 f i TableUpdate.obj
 0001:000e6640       ??_ECTableUpdate@@UAEPAXI@Z 004e7640 f i TableUpdate.obj
 0001:000e6640       ??_GCTableUpdate@@UAEPAXI@Z 004e7640 f i TableUpdate.obj
 0001:000e6680       ?CreateObject@UpdateDoc@@SGPAVCObject@@XZ 004e7680 f   updatedoc.obj
 0001:000e66e4       ?_GetBaseClass@UpdateDoc@@KGPAUCRuntimeClass@@XZ 004e76e4 f   updatedoc.obj
 0001:000e66ee       ?GetRuntimeClass@UpdateDoc@@UBEPAUCRuntimeClass@@XZ 004e76ee f   updatedoc.obj
 0001:000e66fe       ??0UpdateDoc@@IAE@XZ       004e76fe f   updatedoc.obj
 0001:000e6727       ??1UpdateDoc@@UAE@XZ       004e7727 f   updatedoc.obj
 0001:000e67a8       ?_GetBaseMessageMap@UpdateDoc@@KGPBUAFX_MSGMAP@@XZ 004e77a8 f   updatedoc.obj
 0001:000e67b2       ?GetMessageMap@UpdateDoc@@MBEPBUAFX_MSGMAP@@XZ 004e77b2 f   updatedoc.obj
 0001:000e67c2       ?Serialize@UpdateDoc@@UAEXAAVCArchive@@@Z 004e77c2 f   updatedoc.obj
 0001:000e67d7       ?OnNewDocument@UpdateDoc@@MAEHXZ 004e77d7 f   updatedoc.obj
 0001:000e6d44       ?InitView@UpdateDoc@@UAEXXZ 004e7d44 f   updatedoc.obj
 0001:000e6e03       ?OnSaveDocument@UpdateDoc@@UAEHPBD@Z 004e7e03 f   updatedoc.obj
 0001:000e71e5       ?DoFileSave@UpdateDoc@@UAEHXZ 004e81e5 f   updatedoc.obj
 0001:000e74e0       ??_EUpdateDoc@@UAEPAXI@Z   004e84e0 f i updatedoc.obj
 0001:000e74e0       ??_GUpdateDoc@@UAEPAXI@Z   004e84e0 f i updatedoc.obj
 0001:000e7520       ?EcritDescription@UpdateView@@QAEXPBD@Z 004e8520 f i updatedoc.obj
 0001:000e7550       ?LitDescription@UpdateView@@QAE?AVCString@@XZ 004e8550 f i updatedoc.obj
 0001:000e7590       ?CreateObject@UpdateView@@SGPAVCObject@@XZ 004e8590 f   Updateview.obj
 0001:000e75f7       ?_GetBaseClass@UpdateView@@KGPAUCRuntimeClass@@XZ 004e85f7 f   Updateview.obj
 0001:000e7601       ?GetRuntimeClass@UpdateView@@UBEPAUCRuntimeClass@@XZ 004e8601 f   Updateview.obj
 0001:000e7611       ??0UpdateView@@IAE@XZ      004e8611 f   Updateview.obj
 0001:000e769e       ??1UpdateView@@MAE@XZ      004e869e f   Updateview.obj
 0001:000e7719       ?DoDataExchange@UpdateView@@MAEXPAVCDataExchange@@@Z 004e8719 f   Updateview.obj
 0001:000e7732       ?_GetBaseMessageMap@UpdateView@@KGPBUAFX_MSGMAP@@XZ 004e8732 f   Updateview.obj
 0001:000e773c       ?GetMessageMap@UpdateView@@MBEPBUAFX_MSGMAP@@XZ 004e873c f   Updateview.obj
 0001:000e774c       ?OnCreate@UpdateView@@IAEHPAUtagCREATESTRUCTA@@@Z 004e874c f   Updateview.obj
 0001:000e7903       ?OnSize@UpdateView@@IAEXIHH@Z 004e8903 f   Updateview.obj
 0001:000e797f       ?AjoutChampGrid@UpdateView@@IAEJIJ@Z 004e897f f   Updateview.obj
 0001:000e79b4       ?OnUpdate@UpdateView@@MAEXPAVCView@@JPAVCObject@@@Z 004e89b4 f   Updateview.obj
 0001:000e79cf       ?EcritRequete@UpdateView@@QAEXPAVCRequete@@@Z 004e89cf f   Updateview.obj
 0001:000e7caf       ?LitRequete@UpdateView@@QAEPAVCRequete@@XZ 004e8caf f   Updateview.obj
 0001:000e7db8       ?EditeurModif@UpdateView@@IAEJIJ@Z 004e8db8 f   Updateview.obj
 0001:000e7dcf       ?RequeteModifier@UpdateView@@QAEXXZ 004e8dcf f   Updateview.obj
 0001:000e7e88       ?TransformeIdMemoires@UpdateView@@QAEHAAVCString@@@Z 004e8e88 f   Updateview.obj
 0001:000e8240       ?TransformeMemoiresId@UpdateView@@QAEHAAVCString@@@Z 004e9240 f   Updateview.obj
 0001:000e857a       ?PtStructureBase@UpdateView@@QAEPAVCListCStructureTable@@XZ 004e957a f   Updateview.obj
 0001:000e8a30       ??_EUpdateView@@MAEPAXI@Z  004e9a30 f i Updateview.obj
 0001:000e8a30       ??_GUpdateView@@MAEPAXI@Z  004e9a30 f i Updateview.obj
 0001:000e8a70       ?CreateObject@CZoneAffichageUpdate@@SGPAVCObject@@XZ 004e9a70 f   ZoneAffichageUpdate.obj
 0001:000e8ad4       ?_GetBaseClass@CZoneAffichageUpdate@@KGPAUCRuntimeClass@@XZ 004e9ad4 f   ZoneAffichageUpdate.obj
 0001:000e8ade       ?GetRuntimeClass@CZoneAffichageUpdate@@UBEPAUCRuntimeClass@@XZ 004e9ade f   ZoneAffichageUpdate.obj
 0001:000e8aee       ??0CZoneAffichageUpdate@@QAE@XZ 004e9aee f   ZoneAffichageUpdate.obj
 0001:000e8b63       ??1CZoneAffichageUpdate@@UAE@XZ 004e9b63 f   ZoneAffichageUpdate.obj
 0001:000e8bf9       ?_GetBaseMessageMap@CZoneAffichageUpdate@@KGPBUAFX_MSGMAP@@XZ 004e9bf9 f   ZoneAffichageUpdate.obj
 0001:000e8c03       ?GetMessageMap@CZoneAffichageUpdate@@MBEPBUAFX_MSGMAP@@XZ 004e9c03 f   ZoneAffichageUpdate.obj
 0001:000e8c13       ?AjoutTable@CZoneAffichageUpdate@@IAEJIJ@Z 004e9c13 f   ZoneAffichageUpdate.obj
 0001:000e8d75       ?AjoutTableSimple@CZoneAffichageUpdate@@IAEJIJ@Z 004e9d75 f   ZoneAffichageUpdate.obj
 0001:000e8dfd       ?OnCreate@CZoneAffichageUpdate@@IAEHPAUtagCREATESTRUCTA@@@Z 004e9dfd f   ZoneAffichageUpdate.obj
 0001:000e8e22       ?OnContextMenu@CZoneAffichageUpdate@@IAEXPAVCWnd@@VCPoint@@@Z 004e9e22 f   ZoneAffichageUpdate.obj
 0001:000e8eba       ?ResetScrollBars@CZoneAffichageUpdate@@QAEXXZ 004e9eba f   ZoneAffichageUpdate.obj
 0001:000e8fe4       ?GetScrollPos32@CZoneAffichageUpdate@@QAEHHH@Z 004e9fe4 f   ZoneAffichageUpdate.obj
 0001:000e903a       ?SetScrollPos32@CZoneAffichageUpdate@@QAEHHHH@Z 004ea03a f   ZoneAffichageUpdate.obj
 0001:000e9071       ?OnHScroll@CZoneAffichageUpdate@@IAEXIIPAVCScrollBar@@@Z 004ea071 f   ZoneAffichageUpdate.obj
 0001:000e9276       ?OnVScroll@CZoneAffichageUpdate@@IAEXIIPAVCScrollBar@@@Z 004ea276 f   ZoneAffichageUpdate.obj
 0001:000e9436       ?OnSize@CZoneAffichageUpdate@@IAEXIHH@Z 004ea436 f   ZoneAffichageUpdate.obj
 0001:000e945f       ?OnPaint@CZoneAffichageUpdate@@IAEXXZ 004ea45f f   ZoneAffichageUpdate.obj
 0001:000e9480       ?SupprimeTable@CZoneAffichageUpdate@@QAEXXZ 004ea480 f   ZoneAffichageUpdate.obj
 0001:000e94c5       ?RechercheStructureBase@CZoneAffichageUpdate@@QAEPAVCListCStructureTable@@XZ 004ea4c5 f   ZoneAffichageUpdate.obj
 0001:000e9790       ??_GCZoneAffichageUpdate@@UAEPAXI@Z 004ea790 f i ZoneAffichageUpdate.obj
 0001:000e9790       ??_ECZoneAffichageUpdate@@UAEPAXI@Z 004ea790 f i ZoneAffichageUpdate.obj
 0001:000e97d0       ?CreateObject@CZoneTraitementUpdate@@SGPAVCObject@@XZ 004ea7d0 f   ZoneTraitementUpdate.obj
 0001:000e9837       ?_GetBaseClass@CZoneTraitementUpdate@@KGPAUCRuntimeClass@@XZ 004ea837 f   ZoneTraitementUpdate.obj
 0001:000e9841       ?GetRuntimeClass@CZoneTraitementUpdate@@UBEPAUCRuntimeClass@@XZ 004ea841 f   ZoneTraitementUpdate.obj
 0001:000e9851       ??0CZoneTraitementUpdate@@QAE@XZ 004ea851 f   ZoneTraitementUpdate.obj
 0001:000e993b       ??1CZoneTraitementUpdate@@UAE@XZ 004ea93b f   ZoneTraitementUpdate.obj
 0001:000e99fb       ?_GetBaseMessageMap@CZoneTraitementUpdate@@KGPBUAFX_MSGMAP@@XZ 004ea9fb f   ZoneTraitementUpdate.obj
 0001:000e9a05       ?GetMessageMap@CZoneTraitementUpdate@@MBEPBUAFX_MSGMAP@@XZ 004eaa05 f   ZoneTraitementUpdate.obj
 0001:000e9a15       ?DoDataExchange@CZoneTraitementUpdate@@MAEXPAVCDataExchange@@@Z 004eaa15 f   ZoneTraitementUpdate.obj
 0001:000e9aa1       ?OnCreate@CZoneTraitementUpdate@@IAEHPAUtagCREATESTRUCTA@@@Z 004eaaa1 f   ZoneTraitementUpdate.obj
 0001:000e9d50       ?OnSize@CZoneTraitementUpdate@@IAEXIHH@Z 004ead50 f   ZoneTraitementUpdate.obj
 0001:000e9e0e       ?OnSelchange@CZoneTraitementUpdate@@IAEXPAUtagNMHDR@@PAJ@Z 004eae0e f   ZoneTraitementUpdate.obj
 0001:000ea348       ?ConstruireReq@CZoneTraitementUpdate@@QAEXAAVCString@@@Z 004eb348 f   ZoneTraitementUpdate.obj
 0001:000ea64a       ?ContruireGraphique@CZoneTraitementUpdate@@QAEHAAVCString@@@Z 004eb64a f   ZoneTraitementUpdate.obj
 0001:000eb089       ?TesteRequete@CZoneTraitementUpdate@@QAEXAAVCString@@@Z 004ec089 f   ZoneTraitementUpdate.obj
 0001:000eb9ef       ?InitListe@CZoneTraitementUpdate@@QAEXPAVCResultatRequete@@@Z 004ec9ef f   ZoneTraitementUpdate.obj
 0001:000ebc53       ?VideVariableGlobal@CZoneTraitementUpdate@@QAEXXZ 004ecc53 f   ZoneTraitementUpdate.obj
 0001:000ebde0       ?OnDestroy@CZoneTraitementUpdate@@IAEXXZ 004ecde0 f   ZoneTraitementUpdate.obj
 0001:000ec7e0       ??_GCZoneTraitementUpdate@@UAEPAXI@Z 004ed7e0 f i ZoneTraitementUpdate.obj
 0001:000ec7e0       ??_ECZoneTraitementUpdate@@UAEPAXI@Z 004ed7e0 f i ZoneTraitementUpdate.obj
 0001:000ec820       ??0upscan@@QAE@PAVCWnd@@H@Z 004ed820 f i ZoneTraitementUpdate.obj
 0001:000ec870       ?yygetc@upscan@@UAEHXZ     004ed870 f i ZoneTraitementUpdate.obj
 0001:000ec8e0       ?uperror@upscan@@UAAXPADZZ 004ed8e0 f i ZoneTraitementUpdate.obj
 0001:000ec9b0       ??1upscan@@QAE@XZ          004ed9b0 f i ZoneTraitementUpdate.obj
 0001:000ec9d0       ??0CCritere@@QAE@XZ        004ed9d0 f   CLigneDelete.obj
 0001:000eca2f       ??1CCritere@@QAE@XZ        004eda2f f   CLigneDelete.obj
 0001:000eca45       ??0CLigneDelete@@QAE@XZ    004eda45 f   CLigneDelete.obj
 0001:000ecaf7       ??1CLigneDelete@@UAE@XZ    004edaf7 f   CLigneDelete.obj
 0001:000ecb69       ?AjouteCrtiere@CLigneDelete@@QAEXHPAVCCritere@@@Z 004edb69 f   CLigneDelete.obj
 0001:000ecb8d       ?SupprimeTous@CLigneDelete@@QAEXXZ 004edb8d f   CLigneDelete.obj
 0001:000ecbf8       ?SupprimeCritere@CLigneDelete@@QAEXH@Z 004edbf8 f   CLigneDelete.obj
 0001:000eccc7       ?LitPremier@CLigneDelete@@QAEPAVCCritere@@XZ 004edcc7 f   CLigneDelete.obj
 0001:000ecd12       ?LitSuivant@CLigneDelete@@QAEPAVCCritere@@XZ 004edd12 f   CLigneDelete.obj
 0001:000ecd59       ?RechercheCritere@CLigneDelete@@QAEPAVCCritere@@H@Z 004edd59 f   CLigneDelete.obj
 0001:000ecd95       ??0CListLigneDelete@@QAE@XZ 004edd95 f   CLigneDelete.obj
 0001:000ecdcd       ??1CListLigneDelete@@QAE@XZ 004eddcd f   CLigneDelete.obj
 0001:000ecde3       ?AjouteLigne@CListLigneDelete@@QAEXHPAVCLigneDelete@@@Z 004edde3 f   CLigneDelete.obj
 0001:000ece08       ?SupprimeLigne@CListLigneDelete@@QAEXH@Z 004ede08 f   CLigneDelete.obj
 0001:000eced2       ?SupprimeTous@CListLigneDelete@@QAEXXZ 004eded2 f   CLigneDelete.obj
 0001:000ecf3e       ?LitPremier@CListLigneDelete@@QAEPAVCLigneDelete@@XZ 004edf3e f   CLigneDelete.obj
 0001:000ecf85       ?LitSuivant@CListLigneDelete@@QAEPAVCLigneDelete@@XZ 004edf85 f   CLigneDelete.obj
 0001:000ecfc8       ?LitPremierLigne@CListLigneDelete@@QAEPAVCLigneDelete@@XZ 004edfc8 f   CLigneDelete.obj
 0001:000ed033       ?LitSuivantLigne@CListLigneDelete@@QAEPAVCLigneDelete@@XZ 004ee033 f   CLigneDelete.obj
 0001:000ed094       ?RechercheLigne@CListLigneDelete@@QAEPAVCLigneDelete@@H@Z 004ee094 f   CLigneDelete.obj
 0001:000ed0d1       ?RechercheLigne@CListLigneDelete@@QAEPAVCLigneDelete@@VCString@@@Z 004ee0d1 f   CLigneDelete.obj
 0001:000ed156       ?DecaleLigne@CListLigneDelete@@QAEXHH@Z 004ee156 f   CLigneDelete.obj
 0001:000ed1bf       ?RechercheLigneTableChamp@CListLigneDelete@@QAEHVCString@@@Z 004ee1bf f   CLigneDelete.obj
 0001:000ed480       ??_ECLigneDelete@@UAEPAXI@Z 004ee480 f i CLigneDelete.obj
 0001:000ed480       ??_GCLigneDelete@@UAEPAXI@Z 004ee480 f i CLigneDelete.obj
 0001:000ed4c0       ??_GCCritere@@QAEPAXI@Z    004ee4c0 f i CLigneDelete.obj
 0001:000ed7b5       ?CreateObject@CDeleteDoc@@SGPAVCObject@@XZ 004ee7b5 f   DeleteDoc.obj
 0001:000ed819       ?_GetBaseClass@CDeleteDoc@@KGPAUCRuntimeClass@@XZ 004ee819 f   DeleteDoc.obj
 0001:000ed823       ?GetRuntimeClass@CDeleteDoc@@UBEPAUCRuntimeClass@@XZ 004ee823 f   DeleteDoc.obj
 0001:000ed833       ??0CDeleteDoc@@IAE@XZ      004ee833 f   DeleteDoc.obj
 0001:000ed85c       ??1CDeleteDoc@@UAE@XZ      004ee85c f   DeleteDoc.obj
 0001:000ed8dd       ?_GetBaseMessageMap@CDeleteDoc@@KGPBUAFX_MSGMAP@@XZ 004ee8dd f   DeleteDoc.obj
 0001:000ed8e7       ?GetMessageMap@CDeleteDoc@@MBEPBUAFX_MSGMAP@@XZ 004ee8e7 f   DeleteDoc.obj
 0001:000ed8f7       ?Serialize@CDeleteDoc@@UAEXAAVCArchive@@@Z 004ee8f7 f   DeleteDoc.obj
 0001:000ed90c       ?OnNewDocument@CDeleteDoc@@MAEHXZ 004ee90c f   DeleteDoc.obj
 0001:000eded8       ?InitView@CDeleteDoc@@UAEXXZ 004eeed8 f   DeleteDoc.obj
 0001:000edf97       ?OnSaveDocument@CDeleteDoc@@UAEHPBD@Z 004eef97 f   DeleteDoc.obj
 0001:000ee379       ?DoFileSave@CDeleteDoc@@UAEHXZ 004ef379 f   DeleteDoc.obj
 0001:000ee740       ??_GCDeleteDoc@@UAEPAXI@Z  004ef740 f i DeleteDoc.obj
 0001:000ee740       ??_ECDeleteDoc@@UAEPAXI@Z  004ef740 f i DeleteDoc.obj
 0001:000ee780       ?EcritDescription@CDeleteView@@QAEXPBD@Z 004ef780 f i DeleteDoc.obj
 0001:000ee7b0       ?LitDescription@CDeleteView@@QAE?AVCString@@XZ 004ef7b0 f i DeleteDoc.obj
 0001:000ee7f0       ?CreateObject@CDeleteView@@SGPAVCObject@@XZ 004ef7f0 f   deleteview.obj
 0001:000ee857       ?_GetBaseClass@CDeleteView@@KGPAUCRuntimeClass@@XZ 004ef857 f   deleteview.obj
 0001:000ee861       ?GetRuntimeClass@CDeleteView@@UBEPAUCRuntimeClass@@XZ 004ef861 f   deleteview.obj
 0001:000ee871       ??0CDeleteView@@IAE@XZ     004ef871 f   deleteview.obj
 0001:000ee8fe       ??1CDeleteView@@MAE@XZ     004ef8fe f   deleteview.obj
 0001:000ee979       ?DoDataExchange@CDeleteView@@MAEXPAVCDataExchange@@@Z 004ef979 f   deleteview.obj
 0001:000ee992       ?_GetBaseMessageMap@CDeleteView@@KGPBUAFX_MSGMAP@@XZ 004ef992 f   deleteview.obj
 0001:000ee99c       ?GetMessageMap@CDeleteView@@MBEPBUAFX_MSGMAP@@XZ 004ef99c f   deleteview.obj
 0001:000ee9ac       ?OnCreate@CDeleteView@@IAEHPAUtagCREATESTRUCTA@@@Z 004ef9ac f   deleteview.obj
 0001:000eeb63       ?OnSize@CDeleteView@@IAEXIHH@Z 004efb63 f   deleteview.obj
 0001:000eebdf       ?AjoutChampGrid@CDeleteView@@IAEJIJ@Z 004efbdf f   deleteview.obj
 0001:000eec00       ?OnUpdate@CDeleteView@@MAEXPAVCView@@JPAVCObject@@@Z 004efc00 f   deleteview.obj
 0001:000eec1b       ?EcritRequete@CDeleteView@@QAEXPAVCRequete@@@Z 004efc1b f   deleteview.obj
 0001:000eeefb       ?LitRequete@CDeleteView@@QAEPAVCRequete@@XZ 004efefb f   deleteview.obj
 0001:000ef004       ?EditeurModif@CDeleteView@@IAEJIJ@Z 004f0004 f   deleteview.obj
 0001:000ef01b       ?RequeteModifier@CDeleteView@@QAEXXZ 004f001b f   deleteview.obj
 0001:000ef0d4       ?TransformeIdMemoires@CDeleteView@@IAEHAAVCString@@@Z 004f00d4 f   deleteview.obj
 0001:000ef48c       ?TransformeMemoiresId@CDeleteView@@IAEHAAVCString@@@Z 004f048c f   deleteview.obj
 0001:000ef7c6       ?PtStructureBase@CDeleteView@@QAEPAVCListCStructureTable@@XZ 004f07c6 f   deleteview.obj
 0001:000efc70       ??_ECDeleteView@@MAEPAXI@Z 004f0c70 f i deleteview.obj
 0001:000efc70       ??_GCDeleteView@@MAEPAXI@Z 004f0c70 f i deleteview.obj
 0001:000efcb0       ??0CGridDelete@@QAE@XZ     004f0cb0 f   GridDelete.obj
 0001:000efd93       ??1CGridDelete@@UAE@XZ     004f0d93 f   GridDelete.obj
 0001:000efe08       ?_GetBaseMessageMap@CGridDelete@@KGPBUAFX_MSGMAP@@XZ 004f0e08 f   GridDelete.obj
 0001:000efe12       ?GetMessageMap@CGridDelete@@MBEPBUAFX_MSGMAP@@XZ 004f0e12 f   GridDelete.obj
 0001:000efe22       ?InsertLigneVide@CGridDelete@@QAEXXZ 004f0e22 f   GridDelete.obj
 0001:000efe93       ?InsertColonneVide@CGridDelete@@QAEXXZ 004f0e93 f   GridDelete.obj
 0001:000efef1       ?AjouteLigne@CGridDelete@@QAEXPAVCLigneDelete@@@Z 004f0ef1 f   GridDelete.obj
 0001:000f00de       ?AjouteLigne@CGridDelete@@QAEXHPAVCLigneDelete@@@Z 004f10de f   GridDelete.obj
 0001:000f0115       ?AfficheLigne@CGridDelete@@QAEXPAVCLigneDelete@@@Z 004f1115 f   GridDelete.obj
 0001:000f01a7       ?SupprimeLigne@CGridDelete@@QAEXH@Z 004f11a7 f   GridDelete.obj
 0001:000f01ce       ?SupprimeTous@CGridDelete@@QAEXXZ 004f11ce f   GridDelete.obj
 0001:000f01e7       ?AfficheTout@CGridDelete@@QAEXXZ 004f11e7 f   GridDelete.obj
 0001:000f022a       ?OnEndEditCell@CGridDelete@@UAEXPAU_GV_ITEM@@@Z 004f122a f   GridDelete.obj
 0001:000f0521       ?OnContextMenu@CGridDelete@@IAEXPAVCWnd@@VCPoint@@@Z 004f1521 f   GridDelete.obj
 0001:000f0665       ?OnCritresInserer@CGridDelete@@IAEXXZ 004f1665 f   GridDelete.obj
 0001:000f06c3       ?OnCritresSupprimer@CGridDelete@@IAEXXZ 004f16c3 f   GridDelete.obj
 0001:000f0832       ?OnCritresInserercol@CGridDelete@@IAEXXZ 004f1832 f   GridDelete.obj
 0001:000f086e       ?OnCritresZoom@CGridDelete@@IAEXXZ 004f186e f   GridDelete.obj
 0001:000f0992       ?EffaceContenu@CGridDelete@@QAEXXZ 004f1992 f   GridDelete.obj
 0001:000f0a0a       ?EffaceTout@CGridDelete@@QAEXXZ 004f1a0a f   GridDelete.obj
 0001:000f0a32       ?EffaceLigne@CGridDelete@@QAEXH@Z 004f1a32 f   GridDelete.obj
 0001:000f0a84       ?OnKeyDown@CGridDelete@@IAEXIII@Z 004f1a84 f   GridDelete.obj
 0001:000f0c44       ?TraiteLigne@CGridDelete@@QAEXPAVCLigneDelete@@PAVCCritere@@@Z 004f1c44 f   GridDelete.obj
 0001:000f1182       ?SupprimeDelimiteur@CGridDelete@@QAEHAAVCString@@@Z 004f2182 f   GridDelete.obj
 0001:000f14ba       ?TraiteChamp@CGridDelete@@QAEHHAAVCString@@@Z 004f24ba f   GridDelete.obj
 0001:000f1f29       ?GridModifer@CGridDelete@@QAEXXZ 004f2f29 f   GridDelete.obj
 0001:000f2810       ??_GCGridDelete@@UAEPAXI@Z 004f3810 f i GridDelete.obj
 0001:000f2810       ??_ECGridDelete@@UAEPAXI@Z 004f3810 f i GridDelete.obj
 0001:000f286f       ?CreateObject@MaCheckListBoxDelete@@SGPAVCObject@@XZ 004f386f f   TableDelete.obj
 0001:000f28d3       ?_GetBaseClass@MaCheckListBoxDelete@@KGPAUCRuntimeClass@@XZ 004f38d3 f   TableDelete.obj
 0001:000f28dd       ?GetRuntimeClass@MaCheckListBoxDelete@@UBEPAUCRuntimeClass@@XZ 004f38dd f   TableDelete.obj
 0001:000f28ed       ??0MaCheckListBoxDelete@@QAE@XZ 004f38ed f   TableDelete.obj
 0001:000f299f       ??1MaCheckListBoxDelete@@UAE@XZ 004f399f f   TableDelete.obj
 0001:000f29f3       ?_GetBaseMessageMap@MaCheckListBoxDelete@@KGPBUAFX_MSGMAP@@XZ 004f39f3 f   TableDelete.obj
 0001:000f29fd       ?GetMessageMap@MaCheckListBoxDelete@@MBEPBUAFX_MSGMAP@@XZ 004f39fd f   TableDelete.obj
 0001:000f2a0d       ?OnLButtonDblClk@MaCheckListBoxDelete@@IAEXIVCPoint@@@Z 004f3a0d f   TableDelete.obj
 0001:000f2b4c       ?OnLButtonDown@MaCheckListBoxDelete@@IAEXIVCPoint@@@Z 004f3b4c f   TableDelete.obj
 0001:000f2c07       ?OnMouseMove@MaCheckListBoxDelete@@IAEXIVCPoint@@@Z 004f3c07 f   TableDelete.obj
 0001:000f2caa       ?OnLButtonUp@MaCheckListBoxDelete@@IAEXIVCPoint@@@Z 004f3caa f   TableDelete.obj
 0001:000f2e0b       ?OnVScroll@MaCheckListBoxDelete@@IAEXIIPAVCScrollBar@@@Z 004f3e0b f   TableDelete.obj
 0001:000f2e2c       ?CreateObject@CTableDelete@@SGPAVCObject@@XZ 004f3e2c f   TableDelete.obj
 0001:000f2e93       ?_GetBaseClass@CTableDelete@@KGPAUCRuntimeClass@@XZ 004f3e93 f   TableDelete.obj
 0001:000f2e9d       ?GetRuntimeClass@CTableDelete@@UBEPAUCRuntimeClass@@XZ 004f3e9d f   TableDelete.obj
 0001:000f2ead       ??0CTableDelete@@QAE@XZ    004f3ead f   TableDelete.obj
 0001:000f2f27       ??1CTableDelete@@UAE@XZ    004f3f27 f   TableDelete.obj
 0001:000f2f8a       ?_GetBaseMessageMap@CTableDelete@@KGPBUAFX_MSGMAP@@XZ 004f3f8a f   TableDelete.obj
 0001:000f2f94       ?GetMessageMap@CTableDelete@@MBEPBUAFX_MSGMAP@@XZ 004f3f94 f   TableDelete.obj
 0001:000f2fa4       ?OnCreate@CTableDelete@@IAEHPAUtagCREATESTRUCTA@@@Z 004f3fa4 f   TableDelete.obj
 0001:000f3025       ?OnSize@CTableDelete@@IAEXIHH@Z 004f4025 f   TableDelete.obj
 0001:000f305f       ?CocheCaseTableChamp@CTableDelete@@QAEXPADH@Z 004f405f f   TableDelete.obj
 0001:000f30a2       ?DecocheChamp@CTableDelete@@QAEXXZ 004f40a2 f   TableDelete.obj
 0001:000f3310       ??_EMaCheckListBoxDelete@@UAEPAXI@Z 004f4310 f i TableDelete.obj
 0001:000f3310       ??_GMaCheckListBoxDelete@@UAEPAXI@Z 004f4310 f i TableDelete.obj
 0001:000f3350       ??_ECTableDelete@@UAEPAXI@Z 004f4350 f i TableDelete.obj
 0001:000f3350       ??_GCTableDelete@@UAEPAXI@Z 004f4350 f i TableDelete.obj
 0001:000f33af       ?CreateObject@CZoneAffichageDelete@@SGPAVCObject@@XZ 004f43af f   ZoneAffichageDelete.obj
 0001:000f3413       ?_GetBaseClass@CZoneAffichageDelete@@KGPAUCRuntimeClass@@XZ 004f4413 f   ZoneAffichageDelete.obj
 0001:000f341d       ?GetRuntimeClass@CZoneAffichageDelete@@UBEPAUCRuntimeClass@@XZ 004f441d f   ZoneAffichageDelete.obj
 0001:000f342d       ??0CZoneAffichageDelete@@QAE@XZ 004f442d f   ZoneAffichageDelete.obj
 0001:000f34a2       ??1CZoneAffichageDelete@@UAE@XZ 004f44a2 f   ZoneAffichageDelete.obj
 0001:000f3538       ?_GetBaseMessageMap@CZoneAffichageDelete@@KGPBUAFX_MSGMAP@@XZ 004f4538 f   ZoneAffichageDelete.obj
 0001:000f3542       ?GetMessageMap@CZoneAffichageDelete@@MBEPBUAFX_MSGMAP@@XZ 004f4542 f   ZoneAffichageDelete.obj
 0001:000f3552       ?AjoutTable@CZoneAffichageDelete@@IAEJIJ@Z 004f4552 f   ZoneAffichageDelete.obj
 0001:000f36b4       ?AjoutTableSimple@CZoneAffichageDelete@@IAEJIJ@Z 004f46b4 f   ZoneAffichageDelete.obj
 0001:000f373c       ?OnCreate@CZoneAffichageDelete@@IAEHPAUtagCREATESTRUCTA@@@Z 004f473c f   ZoneAffichageDelete.obj
 0001:000f3761       ?ResetScrollBars@CZoneAffichageDelete@@QAEXXZ 004f4761 f   ZoneAffichageDelete.obj
 0001:000f388b       ?GetScrollPos32@CZoneAffichageDelete@@QAEHHH@Z 004f488b f   ZoneAffichageDelete.obj
 0001:000f38e1       ?SetScrollPos32@CZoneAffichageDelete@@QAEHHHH@Z 004f48e1 f   ZoneAffichageDelete.obj
 0001:000f3918       ?OnHScroll@CZoneAffichageDelete@@IAEXIIPAVCScrollBar@@@Z 004f4918 f   ZoneAffichageDelete.obj
 0001:000f3b1d       ?OnVScroll@CZoneAffichageDelete@@IAEXIIPAVCScrollBar@@@Z 004f4b1d f   ZoneAffichageDelete.obj
 0001:000f3cdd       ?OnSize@CZoneAffichageDelete@@IAEXIHH@Z 004f4cdd f   ZoneAffichageDelete.obj
 0001:000f3d06       ?SupprimeTable@CZoneAffichageDelete@@QAEXXZ 004f4d06 f   ZoneAffichageDelete.obj
 0001:000f3d4b       ?OnContextMenu@CZoneAffichageDelete@@IAEXPAVCWnd@@VCPoint@@@Z 004f4d4b f   ZoneAffichageDelete.obj
 0001:000f3dc5       ?RechercheStructureBase@CZoneAffichageDelete@@QAEPAVCListCStructureTable@@XZ 004f4dc5 f   ZoneAffichageDelete.obj
 0001:000f4090       ??_ECZoneAffichageDelete@@UAEPAXI@Z 004f5090 f i ZoneAffichageDelete.obj
 0001:000f4090       ??_GCZoneAffichageDelete@@UAEPAXI@Z 004f5090 f i ZoneAffichageDelete.obj
 0001:000f40d0       ?CreateObject@CZoneTraitementDelete@@SGPAVCObject@@XZ 004f50d0 f   ZoneTraitementDelete.obj
 0001:000f4137       ?_GetBaseClass@CZoneTraitementDelete@@KGPAUCRuntimeClass@@XZ 004f5137 f   ZoneTraitementDelete.obj
 0001:000f4141       ?GetRuntimeClass@CZoneTraitementDelete@@UBEPAUCRuntimeClass@@XZ 004f5141 f   ZoneTraitementDelete.obj
 0001:000f4151       ??0CZoneTraitementDelete@@QAE@XZ 004f5151 f   ZoneTraitementDelete.obj
 0001:000f423b       ??1CZoneTraitementDelete@@UAE@XZ 004f523b f   ZoneTraitementDelete.obj
 0001:000f42fb       ?_GetBaseMessageMap@CZoneTraitementDelete@@KGPBUAFX_MSGMAP@@XZ 004f52fb f   ZoneTraitementDelete.obj
 0001:000f4305       ?GetMessageMap@CZoneTraitementDelete@@MBEPBUAFX_MSGMAP@@XZ 004f5305 f   ZoneTraitementDelete.obj
 0001:000f4315       ?DoDataExchange@CZoneTraitementDelete@@MAEXPAVCDataExchange@@@Z 004f5315 f   ZoneTraitementDelete.obj
 0001:000f43b9       ?OnCreate@CZoneTraitementDelete@@IAEHPAUtagCREATESTRUCTA@@@Z 004f53b9 f   ZoneTraitementDelete.obj
 0001:000f4654       ?OnSize@CZoneTraitementDelete@@IAEXIHH@Z 004f5654 f   ZoneTraitementDelete.obj
 0001:000f4712       ?OnSelchange@CZoneTraitementDelete@@IAEXPAUtagNMHDR@@PAJ@Z 004f5712 f   ZoneTraitementDelete.obj
 0001:000f4c4c       ?ConstruireReq@CZoneTraitementDelete@@QAEXAAVCString@@@Z 004f5c4c f   ZoneTraitementDelete.obj
 0001:000f4ea5       ?ContruireGraphique@CZoneTraitementDelete@@QAEHAAVCString@@@Z 004f5ea5 f   ZoneTraitementDelete.obj
 0001:000f56bb       ?TesteRequete@CZoneTraitementDelete@@QAEXAAVCString@@@Z 004f66bb f   ZoneTraitementDelete.obj
 0001:000f61c6       ?InitListe@CZoneTraitementDelete@@QAEXPAVCResultatRequete@@@Z 004f71c6 f   ZoneTraitementDelete.obj
 0001:000f642a       ?VideVariableGlobal@CZoneTraitementDelete@@QAEXXZ 004f742a f   ZoneTraitementDelete.obj
 0001:000f65b7       ?OnDestroy@CZoneTraitementDelete@@IAEXXZ 004f75b7 f   ZoneTraitementDelete.obj
 0001:000f6f70       ??_GCZoneTraitementDelete@@UAEPAXI@Z 004f7f70 f i ZoneTraitementDelete.obj
 0001:000f6f70       ??_ECZoneTraitementDelete@@UAEPAXI@Z 004f7f70 f i ZoneTraitementDelete.obj
 0001:000f6fb0       ??0CElaboreCritere@@QAE@XZ 004f7fb0 f   GestCriteres.obj
 0001:000f6fc6       ??1CElaboreCritere@@QAE@XZ 004f7fc6 f   GestCriteres.obj
 0001:000f6fd9       ?Contruit@CElaboreCritere@@QAEXHPADAAVCString@@1V2@2@Z 004f7fd9 f   GestCriteres.obj
 0001:000f7b43       ?TesteValeur@CElaboreCritere@@QAEHHVCString@@@Z 004f8b43 f   GestCriteres.obj
 0001:000f7f20       ??0CElaboreCritereDuree@@QAE@XZ 004f8f20 f   GestCriteresDuree.obj
 0001:000f7f2e       ??1CElaboreCritereDuree@@QAE@XZ 004f8f2e f   GestCriteresDuree.obj
 0001:000f7f39       ?Contruit@CElaboreCritereDuree@@QAEXHPADAAVCString@@V2@2@Z 004f8f39 f   GestCriteresDuree.obj
 0001:000f84c0       ??0CMaDate@@QAE@XZ         004f94c0 f   MaDate.obj
 0001:000f8513       ??1CMaDate@@QAE@XZ         004f9513 f   MaDate.obj
 0001:000f851e       ?RempStruct@CMaDate@@QAEXVCTime@@@Z 004f951e f   MaDate.obj
 0001:000f85a7       ?RendNumeroSemaine@CMaDate@@QAEXAAH0VCTime@@@Z 004f95a7 f   MaDate.obj
 0001:000f860e       ?RendNumeroSemaine@CMaDate@@QAEXAAH0VCTime@@PAH@Z 004f960e f   MaDate.obj
 0001:000f877b       ?RendDateSemaine@CMaDate@@QAEJHH@Z 004f977b f   MaDate.obj
 0001:000f8892       ?RendDateSemaine@CMaDate@@QAEJVCString@@@Z 004f9892 f   MaDate.obj
 0001:000f8bf0       ??0CTimeSpan@@QAE@JHHH@Z   004f9bf0 f i MaDate.obj
 0001:000f8c30       ??0CTimeSpan@@QAE@ABV0@@Z  004f9c30 f i MaDate.obj
 0001:000f8c50       ?GetDays@CTimeSpan@@QBEJXZ 004f9c50 f i MaDate.obj
 0001:000f8c70       ??0CTime@@QAE@XZ           004f9c70 f i MaDate.obj
 0001:000f8c90       ??0CTime@@QAE@ABV0@@Z      004f9c90 f i MaDate.obj
 0001:000f8cb0       ??4CTime@@QAEABV0@ABV0@@Z  004f9cb0 f i MaDate.obj
 0001:000f8cd0       ?GetTime@CTime@@QBEJXZ     004f9cd0 f i MaDate.obj
 0001:000f8cf0       ?GetYear@CTime@@QBEHXZ     004f9cf0 f i MaDate.obj
 0001:000f8d20       ?GetMonth@CTime@@QBEHXZ    004f9d20 f i MaDate.obj
 0001:000f8d50       ?GetDay@CTime@@QBEHXZ      004f9d50 f i MaDate.obj
 0001:000f8d70       ?GetHour@CTime@@QBEHXZ     004f9d70 f i MaDate.obj
 0001:000f8d90       ?GetMinute@CTime@@QBEHXZ   004f9d90 f i MaDate.obj
 0001:000f8db0       ?GetSecond@CTime@@QBEHXZ   004f9db0 f i MaDate.obj
 0001:000f8dd0       ?GetDayOfWeek@CTime@@QBEHXZ 004f9dd0 f i MaDate.obj
 0001:000f8e00       ??GCTime@@QBE?AVCTimeSpan@@V0@@Z 004f9e00 f i MaDate.obj
 0001:000f8e40       ??0CTimeSpan@@QAE@J@Z      004f9e40 f i MaDate.obj
 0001:000f8e60       ??GCTime@@QBE?AV0@VCTimeSpan@@@Z 004f9e60 f i MaDate.obj
 0001:000f8ea0       ??HCTime@@QBE?AV0@VCTimeSpan@@@Z 004f9ea0 f i MaDate.obj
 0001:000f8ee0       ?_GetBaseClass@CMyProperty@@KGPAUCRuntimeClass@@XZ 004f9ee0 f   MyProperty.obj
 0001:000f8eea       ?GetRuntimeClass@CMyProperty@@UBEPAUCRuntimeClass@@XZ 004f9eea f   MyProperty.obj
 0001:000f8efa       ??0CMyProperty@@QAE@IPAVCWnd@@I@Z 004f9efa f   MyProperty.obj
 0001:000f8fe0       ??0CMyProperty@@QAE@PBDPAVCWnd@@I@Z 004f9fe0 f   MyProperty.obj
 0001:000f914a       ??1CMyProperty@@UAE@XZ     004fa14a f   MyProperty.obj
 0001:000f921f       ?_GetBaseMessageMap@CMyProperty@@KGPBUAFX_MSGMAP@@XZ 004fa21f f   MyProperty.obj
 0001:000f9229       ?GetMessageMap@CMyProperty@@MBEPBUAFX_MSGMAP@@XZ 004fa229 f   MyProperty.obj
 0001:000f9310       ??_GCMyProperty@@UAEPAXI@Z 004fa310 f i MyProperty.obj
 0001:000f9310       ??_ECMyProperty@@UAEPAXI@Z 004fa310 f i MyProperty.obj
 0001:000f9350       ?_GetBaseClass@CProperty@@KGPAUCRuntimeClass@@XZ 004fa350 f   Property.obj
 0001:000f935a       ?GetRuntimeClass@CProperty@@UBEPAUCRuntimeClass@@XZ 004fa35a f   Property.obj
 0001:000f936a       ??0CProperty@@QAE@IPAVCWnd@@I@Z 004fa36a f   Property.obj
 0001:000f9474       ??0CProperty@@QAE@PBDPAVCWnd@@I@Z 004fa474 f   Property.obj
 0001:000f9625       ??1CProperty@@UAE@XZ       004fa625 f   Property.obj
 0001:000f971e       ?_GetBaseMessageMap@CProperty@@KGPBUAFX_MSGMAP@@XZ 004fa71e f   Property.obj
 0001:000f9728       ?GetMessageMap@CProperty@@MBEPBUAFX_MSGMAP@@XZ 004fa728 f   Property.obj
 0001:000f9840       ??_ECProperty@@UAEPAXI@Z   004fa840 f i Property.obj
 0001:000f9840       ??_GCProperty@@UAEPAXI@Z   004fa840 f i Property.obj
 0001:000f9880       ?CreateObject@CSelectParam@@SGPAVCObject@@XZ 004fa880 f   SelectParam.obj
 0001:000f98e7       ?_GetBaseClass@CSelectParam@@KGPAUCRuntimeClass@@XZ 004fa8e7 f   SelectParam.obj
 0001:000f98f1       ?GetRuntimeClass@CSelectParam@@UBEPAUCRuntimeClass@@XZ 004fa8f1 f   SelectParam.obj
 0001:000f9901       ??0CSelectParam@@QAE@XZ    004fa901 f   SelectParam.obj
 0001:000f999e       ??1CSelectParam@@UAE@XZ    004fa99e f   SelectParam.obj
 0001:000f9a07       ?DoDataExchange@CSelectParam@@MAEXPAVCDataExchange@@@Z 004faa07 f   SelectParam.obj
 0001:000f9a4f       ?_GetBaseMessageMap@CSelectParam@@KGPBUAFX_MSGMAP@@XZ 004faa4f f   SelectParam.obj
 0001:000f9a59       ?GetMessageMap@CSelectParam@@MBEPBUAFX_MSGMAP@@XZ 004faa59 f   SelectParam.obj
 0001:000f9a69       ?OnSetActive@CSelectParam@@UAEHXZ 004faa69 f   SelectParam.obj
 0001:000f9a8d       ?OnWizardBack@CSelectParam@@UAEJXZ 004faa8d f   SelectParam.obj
 0001:000f9aae       ?OnWizardFinish@CSelectParam@@UAEHXZ 004faaae f   SelectParam.obj
 0001:000f9d00       ??_ECSelectParam@@UAEPAXI@Z 004fad00 f i SelectParam.obj
 0001:000f9d00       ??_GCSelectParam@@UAEPAXI@Z 004fad00 f i SelectParam.obj
 0001:000f9d40       ?SetWizardButtons@CPropertySheet@@QAEXK@Z 004fad40 f i SelectParam.obj
 0001:000f9d70       ?CreateObject@CSelectParamSimple@@SGPAVCObject@@XZ 004fad70 f   SelectParamSimple.obj
 0001:000f9dd7       ?_GetBaseClass@CSelectParamSimple@@KGPAUCRuntimeClass@@XZ 004fadd7 f   SelectParamSimple.obj
 0001:000f9de1       ?GetRuntimeClass@CSelectParamSimple@@UBEPAUCRuntimeClass@@XZ 004fade1 f   SelectParamSimple.obj
 0001:000f9df1       ??0CSelectParamSimple@@QAE@XZ 004fadf1 f   SelectParamSimple.obj
 0001:000f9e69       ??1CSelectParamSimple@@UAE@XZ 004fae69 f   SelectParamSimple.obj
 0001:000f9ec0       ?DoDataExchange@CSelectParamSimple@@MAEXPAVCDataExchange@@@Z 004faec0 f   SelectParamSimple.obj
 0001:000f9ef1       ?_GetBaseMessageMap@CSelectParamSimple@@KGPBUAFX_MSGMAP@@XZ 004faef1 f   SelectParamSimple.obj
 0001:000f9efb       ?GetMessageMap@CSelectParamSimple@@MBEPBUAFX_MSGMAP@@XZ 004faefb f   SelectParamSimple.obj
 0001:000f9f0b       ?OnSetActive@CSelectParamSimple@@UAEHXZ 004faf0b f   SelectParamSimple.obj
 0001:000f9f2f       ?OnWizardBack@CSelectParamSimple@@UAEJXZ 004faf2f f   SelectParamSimple.obj
 0001:000f9f50       ?OnWizardFinish@CSelectParamSimple@@UAEHXZ 004faf50 f   SelectParamSimple.obj
 0001:000fa140       ??_ECSelectParamSimple@@UAEPAXI@Z 004fb140 f i SelectParamSimple.obj
 0001:000fa140       ??_GCSelectParamSimple@@UAEPAXI@Z 004fb140 f i SelectParamSimple.obj
 0001:000fa180       ?CreateObject@CSelectPeriode@@SGPAVCObject@@XZ 004fb180 f   SelectPeriode.obj
 0001:000fa1e7       ?_GetBaseClass@CSelectPeriode@@KGPAUCRuntimeClass@@XZ 004fb1e7 f   SelectPeriode.obj
 0001:000fa1f1       ?GetRuntimeClass@CSelectPeriode@@UBEPAUCRuntimeClass@@XZ 004fb1f1 f   SelectPeriode.obj
 0001:000fa201       ??0CSelectPeriode@@QAE@XZ  004fb201 f   SelectPeriode.obj
 0001:000fa234       ??1CSelectPeriode@@UAE@XZ  004fb234 f   SelectPeriode.obj
 0001:000fa250       ?DoDataExchange@CSelectPeriode@@MAEXPAVCDataExchange@@@Z 004fb250 f   SelectPeriode.obj
 0001:000fa281       ?_GetBaseMessageMap@CSelectPeriode@@KGPBUAFX_MSGMAP@@XZ 004fb281 f   SelectPeriode.obj
 0001:000fa28b       ?GetMessageMap@CSelectPeriode@@MBEPBUAFX_MSGMAP@@XZ 004fb28b f   SelectPeriode.obj
 0001:000fa29b       ?OnSetActive@CSelectPeriode@@UAEHXZ 004fb29b f   SelectPeriode.obj
 0001:000fa2de       ?OnKillActive@CSelectPeriode@@UAEHXZ 004fb2de f   SelectPeriode.obj
 0001:000fa322       ?OnSelectDuree@CSelectPeriode@@IAEXXZ 004fb322 f   SelectPeriode.obj
 0001:000fa3b0       ??_GCSelectPeriode@@UAEPAXI@Z 004fb3b0 f i SelectPeriode.obj
 0001:000fa3b0       ??_ECSelectPeriode@@UAEPAXI@Z 004fb3b0 f i SelectPeriode.obj
 0001:000fa3f0       ?CreateObject@CSelectTypeDuree@@SGPAVCObject@@XZ 004fb3f0 f   SelectTypeDuree.obj
 0001:000fa457       ?_GetBaseClass@CSelectTypeDuree@@KGPAUCRuntimeClass@@XZ 004fb457 f   SelectTypeDuree.obj
 0001:000fa461       ?GetRuntimeClass@CSelectTypeDuree@@UBEPAUCRuntimeClass@@XZ 004fb461 f   SelectTypeDuree.obj
 0001:000fa471       ??0CSelectTypeDuree@@QAE@XZ 004fb471 f   SelectTypeDuree.obj
 0001:000fa4e4       ??1CSelectTypeDuree@@UAE@XZ 004fb4e4 f   SelectTypeDuree.obj
 0001:000fa54d       ?DoDataExchange@CSelectTypeDuree@@MAEXPAVCDataExchange@@@Z 004fb54d f   SelectTypeDuree.obj
 0001:000fa595       ?_GetBaseMessageMap@CSelectTypeDuree@@KGPBUAFX_MSGMAP@@XZ 004fb595 f   SelectTypeDuree.obj
 0001:000fa59f       ?GetMessageMap@CSelectTypeDuree@@MBEPBUAFX_MSGMAP@@XZ 004fb59f f   SelectTypeDuree.obj
 0001:000fa5af       ?OnInitDialog@CSelectTypeDuree@@MAEHXZ 004fb5af f   SelectTypeDuree.obj
 0001:000fa5e7       ?OnSetActive@CSelectTypeDuree@@UAEHXZ 004fb5e7 f   SelectTypeDuree.obj
 0001:000fa60b       ?OnKillActive@CSelectTypeDuree@@UAEHXZ 004fb60b f   SelectTypeDuree.obj
 0001:000fa65c       ?OnWizardNext@CSelectTypeDuree@@UAEJXZ 004fb65c f   SelectTypeDuree.obj
 0001:000fa850       ??_GCSelectTypeDuree@@UAEPAXI@Z 004fb850 f i SelectTypeDuree.obj
 0001:000fa850       ??_ECSelectTypeDuree@@UAEPAXI@Z 004fb850 f i SelectTypeDuree.obj
 0001:000fa890       ?CreateObject@CSelectTypeParam@@SGPAVCObject@@XZ 004fb890 f   SelectTypeParam.obj
 0001:000fa8f7       ?_GetBaseClass@CSelectTypeParam@@KGPAUCRuntimeClass@@XZ 004fb8f7 f   SelectTypeParam.obj
 0001:000fa901       ?GetRuntimeClass@CSelectTypeParam@@UBEPAUCRuntimeClass@@XZ 004fb901 f   SelectTypeParam.obj
 0001:000fa911       ??0CSelectTypeParam@@QAE@XZ 004fb911 f   SelectTypeParam.obj
 0001:000fa984       ??1CSelectTypeParam@@UAE@XZ 004fb984 f   SelectTypeParam.obj
 0001:000fa9ed       ?DoDataExchange@CSelectTypeParam@@MAEXPAVCDataExchange@@@Z 004fb9ed f   SelectTypeParam.obj
 0001:000faa35       ?_GetBaseMessageMap@CSelectTypeParam@@KGPBUAFX_MSGMAP@@XZ 004fba35 f   SelectTypeParam.obj
 0001:000faa3f       ?GetMessageMap@CSelectTypeParam@@MBEPBUAFX_MSGMAP@@XZ 004fba3f f   SelectTypeParam.obj
 0001:000faa4f       ?OnInitDialog@CSelectTypeParam@@MAEHXZ 004fba4f f   SelectTypeParam.obj
 0001:000faa87       ?OnSetActive@CSelectTypeParam@@UAEHXZ 004fba87 f   SelectTypeParam.obj
 0001:000faade       ?OnKillActive@CSelectTypeParam@@UAEHXZ 004fbade f   SelectTypeParam.obj
 0001:000fab2f       ?OnWizardNext@CSelectTypeParam@@UAEJXZ 004fbb2f f   SelectTypeParam.obj
 0001:000fadb0       ??_GCSelectTypeParam@@UAEPAXI@Z 004fbdb0 f i SelectTypeParam.obj
 0001:000fadb0       ??_ECSelectTypeParam@@UAEPAXI@Z 004fbdb0 f i SelectTypeParam.obj
 0001:000fae0f       ?CreateObject@CselectVal@@SGPAVCObject@@XZ 004fbe0f f   selectVal.obj
 0001:000fae76       ?_GetBaseClass@CselectVal@@KGPAUCRuntimeClass@@XZ 004fbe76 f   selectVal.obj
 0001:000fae80       ?GetRuntimeClass@CselectVal@@UBEPAUCRuntimeClass@@XZ 004fbe80 f   selectVal.obj
 0001:000fae90       ??0CselectVal@@QAE@XZ      004fbe90 f   selectVal.obj
 0001:000faf3a       ??1CselectVal@@UAE@XZ      004fbf3a f   selectVal.obj
 0001:000fafb5       ?DoDataExchange@CselectVal@@MAEXPAVCDataExchange@@@Z 004fbfb5 f   selectVal.obj
 0001:000faffd       ?_GetBaseMessageMap@CselectVal@@KGPBUAFX_MSGMAP@@XZ 004fbffd f   selectVal.obj
 0001:000fb007       ?GetMessageMap@CselectVal@@MBEPBUAFX_MSGMAP@@XZ 004fc007 f   selectVal.obj
 0001:000fb017       ?OnSetActive@CselectVal@@UAEHXZ 004fc017 f   selectVal.obj
 0001:000fb12c       ?OnWizardBack@CselectVal@@UAEJXZ 004fc12c f   selectVal.obj
 0001:000fb14d       ?OnCloseupDatetimepicker1@CselectVal@@IAEXPAUtagNMHDR@@PAJ@Z 004fc14d f   selectVal.obj
 0001:000fb163       ?OnUserstringDatetimepicker1@CselectVal@@IAEXPAUtagNMHDR@@PAJ@Z 004fc163 f   selectVal.obj
 0001:000fb327       ?MiseAJour@CselectVal@@IAEJIJ@Z 004fc327 f   selectVal.obj
 0001:000fb34d       ?OnFormatDatetimepicker1@CselectVal@@IAEXPAUtagNMHDR@@PAJ@Z 004fc34d f   selectVal.obj
 0001:000fb40d       ?OnDropdownDatetimepicker1@CselectVal@@IAEXPAUtagNMHDR@@PAJ@Z 004fc40d f   selectVal.obj
 0001:000fb45c       ?OnFormatqueryDatetimepicker1@CselectVal@@IAEXPAUtagNMHDR@@PAJ@Z 004fc45c f   selectVal.obj
 0001:000fb4fe       ?OnWizardFinish@CselectVal@@UAEHXZ 004fc4fe f   selectVal.obj
 0001:000fbb20       ??_ECselectVal@@UAEPAXI@Z  004fcb20 f i selectVal.obj
 0001:000fbb20       ??_GCselectVal@@UAEPAXI@Z  004fcb20 f i selectVal.obj
 0001:000fbb60       ?CreateStockObject@CGdiObject@@QAEHH@Z 004fcb60 f i selectVal.obj
 0001:000fbba0       ?GetFont@CWnd@@QBEPAVCFont@@XZ 004fcba0 f i selectVal.obj
 0001:000fbbd0       ?GetDC@CWnd@@QAEPAVCDC@@XZ 004fcbd0 f i selectVal.obj
 0001:000fbc00       ??0CDateTimeCtrl@@QAE@XZ   004fcc00 f i selectVal.obj
 0001:000fbc30       ??_ECDateTimeCtrl@@UAEPAXI@Z 004fcc30 f i selectVal.obj
 0001:000fbc30       ??_GCDateTimeCtrl@@UAEPAXI@Z 004fcc30 f i selectVal.obj
 0001:000fbc70       ?GetMonthCalCtrl@CDateTimeCtrl@@QBEPAVCMonthCalCtrl@@XZ 004fcc70 f i selectVal.obj
 0001:000fbca0       ?SetFormat@CDateTimeCtrl@@QAEHPBD@Z 004fcca0 f i selectVal.obj
 0001:000fbcd0       ?CreateObject@CSelectValDur@@SGPAVCObject@@XZ 004fccd0 f   SelectValDur.obj
 0001:000fbd37       ?_GetBaseClass@CSelectValDur@@KGPAUCRuntimeClass@@XZ 004fcd37 f   SelectValDur.obj
 0001:000fbd41       ?GetRuntimeClass@CSelectValDur@@UBEPAUCRuntimeClass@@XZ 004fcd41 f   SelectValDur.obj
 0001:000fbd51       ??0CSelectValDur@@QAE@XZ   004fcd51 f   SelectValDur.obj
 0001:000fbe0d       ??1CSelectValDur@@UAE@XZ   004fce0d f   SelectValDur.obj
 0001:000fbe9a       ?DoDataExchange@CSelectValDur@@MAEXPAVCDataExchange@@@Z 004fce9a f   SelectValDur.obj
 0001:000fbefa       ?_GetBaseMessageMap@CSelectValDur@@KGPBUAFX_MSGMAP@@XZ 004fcefa f   SelectValDur.obj
 0001:000fbf04       ?GetMessageMap@CSelectValDur@@MBEPBUAFX_MSGMAP@@XZ 004fcf04 f   SelectValDur.obj
 0001:000fbf14       ?OnInitDialog@CSelectValDur@@MAEHXZ 004fcf14 f   SelectValDur.obj
 0001:000fbfcb       ?OnSetActive@CSelectValDur@@UAEHXZ 004fcfcb f   SelectValDur.obj
 0001:000fc019       ?OnWizardBack@CSelectValDur@@UAEJXZ 004fd019 f   SelectValDur.obj
 0001:000fc03d       ?OnFormatqueryDatetimepicker1@CSelectValDur@@IAEXPAUtagNMHDR@@PAJ@Z 004fd03d f   SelectValDur.obj
 0001:000fc0df       ?OnUserstringDatetimepicker1@CSelectValDur@@IAEXPAUtagNMHDR@@PAJ@Z 004fd0df f   SelectValDur.obj
 0001:000fc195       ?MiseAJour@CSelectValDur@@IAEJIJ@Z 004fd195 f   SelectValDur.obj
 0001:000fc1be       ?OnWizardFinish@CSelectValDur@@UAEHXZ 004fd1be f   SelectValDur.obj
 0001:000fc5d0       ??_GCSelectValDur@@UAEPAXI@Z 004fd5d0 f i SelectValDur.obj
 0001:000fc5d0       ??_ECSelectValDur@@UAEPAXI@Z 004fd5d0 f i SelectValDur.obj
 0001:000fc62f       ?CreateObject@CSelectValFixe@@SGPAVCObject@@XZ 004fd62f f   SelectValFixe.obj
 0001:000fc696       ?_GetBaseClass@CSelectValFixe@@KGPAUCRuntimeClass@@XZ 004fd696 f   SelectValFixe.obj
 0001:000fc6a0       ?GetRuntimeClass@CSelectValFixe@@UBEPAUCRuntimeClass@@XZ 004fd6a0 f   SelectValFixe.obj
 0001:000fc6b0       ??0CSelectValFixe@@QAE@XZ  004fd6b0 f   SelectValFixe.obj
 0001:000fc767       ??1CSelectValFixe@@UAE@XZ  004fd767 f   SelectValFixe.obj
 0001:000fc7f4       ?DoDataExchange@CSelectValFixe@@MAEXPAVCDataExchange@@@Z 004fd7f4 f   SelectValFixe.obj
 0001:000fc83c       ?_GetBaseMessageMap@CSelectValFixe@@KGPBUAFX_MSGMAP@@XZ 004fd83c f   SelectValFixe.obj
 0001:000fc846       ?GetMessageMap@CSelectValFixe@@MBEPBUAFX_MSGMAP@@XZ 004fd846 f   SelectValFixe.obj
 0001:000fc856       ?OnSetActive@CSelectValFixe@@UAEHXZ 004fd856 f   SelectValFixe.obj
 0001:000fc999       ?OnWizardBack@CSelectValFixe@@UAEJXZ 004fd999 f   SelectValFixe.obj
 0001:000fc9ba       ?OnFormatqueryDatetimepicker1@CSelectValFixe@@IAEXPAUtagNMHDR@@PAJ@Z 004fd9ba f   SelectValFixe.obj
 0001:000fca5c       ?OnFormatDatetimepicker1@CSelectValFixe@@IAEXPAUtagNMHDR@@PAJ@Z 004fda5c f   SelectValFixe.obj
 0001:000fcb1c       ?OnFormatDatetimepicker2@CSelectValFixe@@IAEXPAUtagNMHDR@@PAJ@Z 004fdb1c f   SelectValFixe.obj
 0001:000fcbdc       ?OnUserstringDatetimepicker1@CSelectValFixe@@IAEXPAUtagNMHDR@@PAJ@Z 004fdbdc f   SelectValFixe.obj
 0001:000fcde4       ?OnUserstringDatetimepicker2@CSelectValFixe@@IAEXPAUtagNMHDR@@PAJ@Z 004fdde4 f   SelectValFixe.obj
 0001:000fcfec       ?MiseAJourDateTime@CSelectValFixe@@IAEJIJ@Z 004fdfec f   SelectValFixe.obj
 0001:000fd032       ?OnDropdownDatetimepicker1@CSelectValFixe@@IAEXPAUtagNMHDR@@PAJ@Z 004fe032 f   SelectValFixe.obj
 0001:000fd081       ?OnDropdownDatetimepicker2@CSelectValFixe@@IAEXPAUtagNMHDR@@PAJ@Z 004fe081 f   SelectValFixe.obj
 0001:000fd0d0       ?OnWizardFinish@CSelectValFixe@@UAEHXZ 004fe0d0 f   SelectValFixe.obj
 0001:000fd9c0       ??_GCSelectValFixe@@UAEPAXI@Z 004fe9c0 f i SelectValFixe.obj
 0001:000fd9c0       ??_ECSelectValFixe@@UAEPAXI@Z 004fe9c0 f i SelectValFixe.obj
 0001:000fda1f       ?CreateObject@CSelectValParam@@SGPAVCObject@@XZ 004fea1f f   SelectValParam.obj
 0001:000fda86       ?_GetBaseClass@CSelectValParam@@KGPAUCRuntimeClass@@XZ 004fea86 f   SelectValParam.obj
 0001:000fda90       ?GetRuntimeClass@CSelectValParam@@UBEPAUCRuntimeClass@@XZ 004fea90 f   SelectValParam.obj
 0001:000fdaa0       ??0CSelectValParam@@QAE@XZ 004feaa0 f   SelectValParam.obj
 0001:000fdb57       ??1CSelectValParam@@UAE@XZ 004feb57 f   SelectValParam.obj
 0001:000fdbd2       ?DoDataExchange@CSelectValParam@@MAEXPAVCDataExchange@@@Z 004febd2 f   SelectValParam.obj
 0001:000fdc1a       ?_GetBaseMessageMap@CSelectValParam@@KGPBUAFX_MSGMAP@@XZ 004fec1a f   SelectValParam.obj
 0001:000fdc24       ?GetMessageMap@CSelectValParam@@MBEPBUAFX_MSGMAP@@XZ 004fec24 f   SelectValParam.obj
 0001:000fdc34       ?OnSetActive@CSelectValParam@@UAEHXZ 004fec34 f   SelectValParam.obj
 0001:000fdd0a       ?OnWizardBack@CSelectValParam@@UAEJXZ 004fed0a f   SelectValParam.obj
 0001:000fdd2b       ?OnFormatqueryDatetimepicker1@CSelectValParam@@IAEXPAUtagNMHDR@@PAJ@Z 004fed2b f   SelectValParam.obj
 0001:000fddcd       ?OnFormatDatetimepicker1@CSelectValParam@@IAEXPAUtagNMHDR@@PAJ@Z 004fedcd f   SelectValParam.obj
 0001:000fde90       ?OnUserstringDatetimepicker1@CSelectValParam@@IAEXPAUtagNMHDR@@PAJ@Z 004fee90 f   SelectValParam.obj
 0001:000fe028       ?MiseAJour@CSelectValParam@@IAEJIJ@Z 004ff028 f   SelectValParam.obj
 0001:000fe051       ?OnDropdownDatetimepicker1@CSelectValParam@@IAEXPAUtagNMHDR@@PAJ@Z 004ff051 f   SelectValParam.obj
 0001:000fe09d       ?OnWizardFinish@CSelectValParam@@UAEHXZ 004ff09d f   SelectValParam.obj
 0001:000fec60       ??_GCSelectValParam@@UAEPAXI@Z 004ffc60 f i SelectValParam.obj
 0001:000fec60       ??_ECSelectValParam@@UAEPAXI@Z 004ffc60 f i SelectValParam.obj
 0001:000feca0       ?SetDate@COleDateTime@@QAEHHHH@Z 004ffca0 f i SelectValParam.obj
 0001:000fecd0       ?CreateObject@CSelectValParmDur@@SGPAVCObject@@XZ 004ffcd0 f   SelectValParmDur.obj
 0001:000fed37       ?_GetBaseClass@CSelectValParmDur@@KGPAUCRuntimeClass@@XZ 004ffd37 f   SelectValParmDur.obj
 0001:000fed41       ?GetRuntimeClass@CSelectValParmDur@@UBEPAUCRuntimeClass@@XZ 004ffd41 f   SelectValParmDur.obj
 0001:000fed51       ??0CSelectValParmDur@@QAE@XZ 004ffd51 f   SelectValParmDur.obj
 0001:000fee12       ??1CSelectValParmDur@@UAE@XZ 004ffe12 f   SelectValParmDur.obj
 0001:000fee9f       ?DoDataExchange@CSelectValParmDur@@MAEXPAVCDataExchange@@@Z 004ffe9f f   SelectValParmDur.obj
 0001:000fef17       ?_GetBaseMessageMap@CSelectValParmDur@@KGPBUAFX_MSGMAP@@XZ 004fff17 f   SelectValParmDur.obj
 0001:000fef21       ?GetMessageMap@CSelectValParmDur@@MBEPBUAFX_MSGMAP@@XZ 004fff21 f   SelectValParmDur.obj
 0001:000fef31       ?OnInitDialog@CSelectValParmDur@@MAEHXZ 004fff31 f   SelectValParmDur.obj
 0001:000ff03b       ?OnSetActive@CSelectValParmDur@@UAEHXZ 0050003b f   SelectValParmDur.obj
 0001:000ff05f       ?OnWizardBack@CSelectValParmDur@@UAEJXZ 0050005f f   SelectValParmDur.obj
 0001:000ff083       ?OnWizardFinish@CSelectValParmDur@@UAEHXZ 00500083 f   SelectValParmDur.obj
 0001:000ff430       ??_ECSelectValParmDur@@UAEPAXI@Z 00500430 f i SelectValParmDur.obj
 0001:000ff430       ??_GCSelectValParmDur@@UAEPAXI@Z 00500430 f i SelectValParmDur.obj
 0001:000ff470       ?CreateObject@CSelectVlaFixeDur@@SGPAVCObject@@XZ 00500470 f   SelectVlaFixeDur.obj
 0001:000ff4d7       ?_GetBaseClass@CSelectVlaFixeDur@@KGPAUCRuntimeClass@@XZ 005004d7 f   SelectVlaFixeDur.obj
 0001:000ff4e1       ?GetRuntimeClass@CSelectVlaFixeDur@@UBEPAUCRuntimeClass@@XZ 005004e1 f   SelectVlaFixeDur.obj
 0001:000ff4f1       ??0CSelectVlaFixeDur@@QAE@XZ 005004f1 f   SelectVlaFixeDur.obj
 0001:000ff5a8       ??1CSelectVlaFixeDur@@UAE@XZ 005005a8 f   SelectVlaFixeDur.obj
 0001:000ff635       ?DoDataExchange@CSelectVlaFixeDur@@MAEXPAVCDataExchange@@@Z 00500635 f   SelectVlaFixeDur.obj
 0001:000ff67d       ?_GetBaseMessageMap@CSelectVlaFixeDur@@KGPBUAFX_MSGMAP@@XZ 0050067d f   SelectVlaFixeDur.obj
 0001:000ff687       ?GetMessageMap@CSelectVlaFixeDur@@MBEPBUAFX_MSGMAP@@XZ 00500687 f   SelectVlaFixeDur.obj
 0001:000ff697       ?OnSetActive@CSelectVlaFixeDur@@UAEHXZ 00500697 f   SelectVlaFixeDur.obj
 0001:000ff6e1       ?OnWizardBack@CSelectVlaFixeDur@@UAEJXZ 005006e1 f   SelectVlaFixeDur.obj
 0001:000ff705       ?OnFormatqueryDatetimepicker1@CSelectVlaFixeDur@@IAEXPAUtagNMHDR@@PAJ@Z 00500705 f   SelectVlaFixeDur.obj
 0001:000ff7a7       ?OnUserstringDatetimepicker1@CSelectVlaFixeDur@@IAEXPAUtagNMHDR@@PAJ@Z 005007a7 f   SelectVlaFixeDur.obj
 0001:000ff85d       ?OnUserstringDatetimepicker2@CSelectVlaFixeDur@@IAEXPAUtagNMHDR@@PAJ@Z 0050085d f   SelectVlaFixeDur.obj
 0001:000ff913       ?MiseAJourDateTime@CSelectVlaFixeDur@@IAEJIJ@Z 00500913 f   SelectVlaFixeDur.obj
 0001:000ff959       ?OnWizardFinish@CSelectVlaFixeDur@@UAEHXZ 00500959 f   SelectVlaFixeDur.obj
 0001:000ffbf0       ??_GCSelectVlaFixeDur@@UAEPAXI@Z 00500bf0 f i SelectVlaFixeDur.obj
 0001:000ffbf0       ??_ECSelectVlaFixeDur@@UAEPAXI@Z 00500bf0 f i SelectVlaFixeDur.obj
 0001:000ffc30       ?CreateObject@CTypeDuree@@SGPAVCObject@@XZ 00500c30 f   TypeDuree.obj
 0001:000ffc97       ?_GetBaseClass@CTypeDuree@@KGPAUCRuntimeClass@@XZ 00500c97 f   TypeDuree.obj
 0001:000ffca1       ?GetRuntimeClass@CTypeDuree@@UBEPAUCRuntimeClass@@XZ 00500ca1 f   TypeDuree.obj
 0001:000ffcb1       ??0CTypeDuree@@QAE@XZ      00500cb1 f   TypeDuree.obj
 0001:000ffce4       ??1CTypeDuree@@UAE@XZ      00500ce4 f   TypeDuree.obj
 0001:000ffd00       ?DoDataExchange@CTypeDuree@@MAEXPAVCDataExchange@@@Z 00500d00 f   TypeDuree.obj
 0001:000ffd31       ?_GetBaseMessageMap@CTypeDuree@@KGPBUAFX_MSGMAP@@XZ 00500d31 f   TypeDuree.obj
 0001:000ffd3b       ?GetMessageMap@CTypeDuree@@MBEPBUAFX_MSGMAP@@XZ 00500d3b f   TypeDuree.obj
 0001:000ffd4b       ?OnSetActive@CTypeDuree@@UAEHXZ 00500d4b f   TypeDuree.obj
 0001:000ffd8e       ?OnKillActive@CTypeDuree@@UAEHXZ 00500d8e f   TypeDuree.obj
 0001:000ffdd2       ?OnSelectDuree@CTypeDuree@@IAEXXZ 00500dd2 f   TypeDuree.obj
 0001:000ffe60       ??_ECTypeDuree@@UAEPAXI@Z  00500e60 f i TypeDuree.obj
 0001:000ffe60       ??_GCTypeDuree@@UAEPAXI@Z  00500e60 f i TypeDuree.obj
 0001:000ffea0       ?CreateObject@CRequeteFrm@@SGPAVCObject@@XZ 00500ea0 f   requetefrm.obj
 0001:000fff07       ?_GetBaseClass@CRequeteFrm@@KGPAUCRuntimeClass@@XZ 00500f07 f   requetefrm.obj
 0001:000fff11       ?GetRuntimeClass@CRequeteFrm@@UBEPAUCRuntimeClass@@XZ 00500f11 f   requetefrm.obj
 0001:000fff21       ??0CRequeteFrm@@IAE@XZ     00500f21 f   requetefrm.obj
 0001:000fff40       ??1CRequeteFrm@@MAE@XZ     00500f40 f   requetefrm.obj
 0001:000fff5c       ?_GetBaseMessageMap@CRequeteFrm@@KGPBUAFX_MSGMAP@@XZ 00500f5c f   requetefrm.obj
 0001:000fff66       ?GetMessageMap@CRequeteFrm@@MBEPBUAFX_MSGMAP@@XZ 00500f66 f   requetefrm.obj
 0001:000fffb0       ??_ECRequeteFrm@@MAEPAXI@Z 00500fb0 f i requetefrm.obj
 0001:000fffb0       ??_GCRequeteFrm@@MAEPAXI@Z 00500fb0 f i requetefrm.obj
 0001:000ffff0       ?CreateObject@CEvtDoc@@SGPAVCObject@@XZ 00500ff0 f   evtdoc.obj
 0001:00100054       ?_GetBaseClass@CEvtDoc@@KGPAUCRuntimeClass@@XZ 00501054 f   evtdoc.obj
 0001:0010005e       ?GetRuntimeClass@CEvtDoc@@UBEPAUCRuntimeClass@@XZ 0050105e f   evtdoc.obj
 0001:0010006e       ??0CEvtDoc@@IAE@XZ         0050106e f   evtdoc.obj
 0001:00100097       ??1CEvtDoc@@UAE@XZ         00501097 f   evtdoc.obj
 0001:00100118       ?_GetBaseMessageMap@CEvtDoc@@KGPBUAFX_MSGMAP@@XZ 00501118 f   evtdoc.obj
 0001:00100122       ?GetMessageMap@CEvtDoc@@MBEPBUAFX_MSGMAP@@XZ 00501122 f   evtdoc.obj
 0001:00100132       ?Serialize@CEvtDoc@@UAEXAAVCArchive@@@Z 00501132 f   evtdoc.obj
 0001:00100147       ?OnNewDocument@CEvtDoc@@MAEHXZ 00501147 f   evtdoc.obj
 0001:0010050e       ?InitView@CEvtDoc@@UAEXXZ  0050150e f   evtdoc.obj
 0001:00100636       ?DoFileSave@CEvtDoc@@UAEHXZ 00501636 f   evtdoc.obj
 0001:00100651       ?OnSaveDocument@CEvtDoc@@UAEHPBD@Z 00501651 f   evtdoc.obj
 0001:00100ae5       ?SaveModified@CEvtDoc@@UAEHXZ 00501ae5 f   evtdoc.obj
 0001:00100e20       ??_GCEvtDoc@@UAEPAXI@Z     00501e20 f i evtdoc.obj
 0001:00100e20       ??_ECEvtDoc@@UAEPAXI@Z     00501e20 f i evtdoc.obj
 0001:00100e60       ?LitPeriode@CEvtPeriodique@@QAEPAUStructPeriode@@XZ 00501e60 f i evtdoc.obj
 0001:00100e80       ?LitEvt@CEvtPeriodique@@QAEPAVCDataArchive@@XZ 00501e80 f i evtdoc.obj
 0001:00100ea0       ?EcritDescription@CEvtView@@QAEXPBD@Z 00501ea0 f i evtdoc.obj
 0001:00100ed0       ?EcritActifEvt@CEvtView@@QAEXH@Z 00501ed0 f i evtdoc.obj
 0001:00100ef0       ?EcritExecDemarrage@CEvtView@@QAEXH@Z 00501ef0 f i evtdoc.obj
 0001:00100f10       ?EcritPriorite@CEvtView@@QAEXH@Z 00501f10 f i evtdoc.obj
 0001:00100f30       ?LitDescription@CEvtView@@QAE?AVCString@@XZ 00501f30 f i evtdoc.obj
 0001:00100f70       ?LitActifEvt@CEvtView@@QAEHXZ 00501f70 f i evtdoc.obj
 0001:00100f90       ?LitExecDemarrage@CEvtView@@QAEHXZ 00501f90 f i evtdoc.obj
 0001:00100fb0       ?LitPriorite@CEvtView@@QAEHXZ 00501fb0 f i evtdoc.obj
 0001:00100fd0       ?CreateObject@CEvtFrm@@SGPAVCObject@@XZ 00501fd0 f   evtfrm.obj
 0001:00101037       ?_GetBaseClass@CEvtFrm@@KGPAUCRuntimeClass@@XZ 00502037 f   evtfrm.obj
 0001:00101041       ?GetRuntimeClass@CEvtFrm@@UBEPAUCRuntimeClass@@XZ 00502041 f   evtfrm.obj
 0001:00101051       ??0CEvtFrm@@IAE@XZ         00502051 f   evtfrm.obj
 0001:00101070       ??1CEvtFrm@@MAE@XZ         00502070 f   evtfrm.obj
 0001:0010108c       ?_GetBaseMessageMap@CEvtFrm@@KGPBUAFX_MSGMAP@@XZ 0050208c f   evtfrm.obj
 0001:00101096       ?GetMessageMap@CEvtFrm@@MBEPBUAFX_MSGMAP@@XZ 00502096 f   evtfrm.obj
 0001:001010e0       ??_ECEvtFrm@@MAEPAXI@Z     005020e0 f i evtfrm.obj
 0001:001010e0       ??_GCEvtFrm@@MAEPAXI@Z     005020e0 f i evtfrm.obj
 0001:00101120       ?CreateObject@CEvtView@@SGPAVCObject@@XZ 00502120 f   evtview.obj
 0001:00101187       ?_GetBaseClass@CEvtView@@KGPAUCRuntimeClass@@XZ 00502187 f   evtview.obj
 0001:00101191       ?GetRuntimeClass@CEvtView@@UBEPAUCRuntimeClass@@XZ 00502191 f   evtview.obj
 0001:001011a1       ??0CEvtView@@IAE@XZ        005021a1 f   evtview.obj
 0001:0010136d       ??1CEvtView@@MAE@XZ        0050236d f   evtview.obj
 0001:001013fa       ?DoDataExchange@CEvtView@@MAEXPAVCDataExchange@@@Z 005023fa f   evtview.obj
 0001:00101691       ?_GetBaseMessageMap@CEvtView@@KGPBUAFX_MSGMAP@@XZ 00502691 f   evtview.obj
 0001:0010169b       ?GetMessageMap@CEvtView@@MBEPBUAFX_MSGMAP@@XZ 0050269b f   evtview.obj
 0001:001016ab       ?OnDataChange@CEvtView@@IAEXXZ 005026ab f   evtview.obj
 0001:00101758       ?OnInitialUpdate@CEvtView@@UAEXXZ 00502758 f   evtview.obj
 0001:001017f9       ?OnUpdate@CEvtView@@MAEXPAVCView@@JPAVCObject@@@Z 005027f9 f   evtview.obj
 0001:00101810       ?EcritDateHeureExecutionEvt@CEvtView@@QAEXJ@Z 00502810 f   evtview.obj
 0001:0010184f       ?LitDateHeureExecutionEvt@CEvtView@@QAEJXZ 0050284f f   evtview.obj
 0001:001018c8       ?EcritPeriodiciteEvt@CEvtView@@QAEXPAUStructPeriode@@@Z 005028c8 f   evtview.obj
 0001:0010192e       ?LitPeriodiciteEvt@CEvtView@@QAEHPAUStructPeriode@@@Z 0050292e f   evtview.obj
 0001:001019a0       ?EcritAgenerer@CEvtView@@QAEXPAVCDataArchive@@@Z 005029a0 f   evtview.obj
 0001:001019da       ?LitAgenerer@CEvtView@@QAEXPAVCDataArchive@@@Z 005029da f   evtview.obj
 0001:00101a40       ?LitDefEvtExecute@CEvtView@@QAEXAAVCString@@@Z 00502a40 f   evtview.obj
 0001:00101b6b       ?EcritDefEvtExecute@CEvtView@@QAEXPAD@Z 00502b6b f   evtview.obj
 0001:00101ce3       ?OnPeriph@CEvtView@@IAEXXZ 00502ce3 f   evtview.obj
 0001:00101db6       ?InitPeriph@CEvtView@@QAEXXZ 00502db6 f   evtview.obj
 0001:00101eeb       ?OnModifNomElement@CEvtView@@IAEJIJ@Z 00502eeb f   evtview.obj
 0001:00101f02       ?OnDatetimechangeDateExec@CEvtView@@IAEXPAUtagNMHDR@@PAJ@Z 00502f02 f   evtview.obj
 0001:00101f20       ?OnDatetimechangeHeureExec@CEvtView@@IAEXPAUtagNMHDR@@PAJ@Z 00502f20 f   evtview.obj
 0001:00101f3e       ?TestDefEvtMin@CEvtView@@QAEHXZ 00502f3e f   evtview.obj
 0001:00102071       ?OnChangePriorite@CEvtView@@IAEXXZ 00503071 f   evtview.obj
 0001:00102470       ??4CTime@@QAEABV0@J@Z      00503470 f i evtview.obj
 0001:00102490       ??_GCEvtView@@MAEPAXI@Z    00503490 f i evtview.obj
 0001:00102490       ??_ECEvtView@@MAEPAXI@Z    00503490 f i evtview.obj
 0001:001024d0       ??0CEvtPeriodique@@QAE@HH@Z 005034d0 f   EvtPeriodique.obj
 0001:00102601       ??1CEvtPeriodique@@UAE@XZ  00503601 f   EvtPeriodique.obj
 0001:0010267a       ?EcritDateHeure@CEvtPeriodique@@QAEXJ@Z 0050367a f   EvtPeriodique.obj
 0001:00102693       ?LitDateHeure@CEvtPeriodique@@QAEJXZ 00503693 f   EvtPeriodique.obj
 0001:001026a7       ?EcritEvtActif@CEvtPeriodique@@QAEXH@Z 005036a7 f   EvtPeriodique.obj
 0001:001026c0       ?LitEvtActif@CEvtPeriodique@@QAEHXZ 005036c0 f   EvtPeriodique.obj
 0001:001026d4       ?EcritNumIdDest@CEvtPeriodique@@QAEXH@Z 005036d4 f   EvtPeriodique.obj
 0001:001026ed       ?LitNumIdDest@CEvtPeriodique@@QAEHXZ 005036ed f   EvtPeriodique.obj
 0001:00102701       ?EcritArchive@CEvtPeriodique@@UAEXAAVCOutputArchive@@PADH@Z 00503701 f   EvtPeriodique.obj
 0001:00102c7a       ?LitArchive@CEvtPeriodique@@UAEHAAVCInputArchive@@H@Z 00503c7a f   EvtPeriodique.obj
 0001:001035cd       ?AjouteEvtExec@CEvtPeriodique@@QAEXXZ 005045cd f   EvtPeriodique.obj
 0001:001035e7       ?UtiliseId@CEvtPeriodique@@UAEHHAAVCOutputArchive@@PAD@Z 005045e7 f   EvtPeriodique.obj
 0001:001036b0       ?LitExecDemarrage@CEvtPeriodique@@QAEHXZ 005046b0 f   EvtPeriodique.obj
 0001:001036c4       ?EcritExecDemarrage@CEvtPeriodique@@QAEXH@Z 005046c4 f   EvtPeriodique.obj
 0001:001036f0       ?LitPriorite@CEvtPeriodique@@QAEHXZ 005046f0 f   EvtPeriodique.obj
 0001:00103704       ?EcritPriorite@CEvtPeriodique@@QAEXH@Z 00504704 f   EvtPeriodique.obj
 0001:00103bc0       ??_GCEvtPeriodique@@UAEPAXI@Z 00504bc0 f i EvtPeriodique.obj
 0001:00103bc0       ??_ECEvtPeriodique@@UAEPAXI@Z 00504bc0 f i EvtPeriodique.obj
 0001:00103c00       ?CreateObject@CBoutonEx@@SGPAVCObject@@XZ 00504c00 f   boutonex.obj
 0001:00103c64       ?_GetBaseClass@CBoutonEx@@KGPAUCRuntimeClass@@XZ 00504c64 f   boutonex.obj
 0001:00103c6e       ?GetRuntimeClass@CBoutonEx@@UBEPAUCRuntimeClass@@XZ 00504c6e f   boutonex.obj
 0001:00103c7e       ??0CBoutonEx@@QAE@PAVCOsysBouton@@@Z 00504c7e f   boutonex.obj
 0001:00103ca8       ??0CBoutonEx@@QAE@XZ       00504ca8 f   boutonex.obj
 0001:00103cc7       ??1CBoutonEx@@UAE@XZ       00504cc7 f   boutonex.obj
 0001:00103ce3       ?_GetBaseMessageMap@CBoutonEx@@KGPBUAFX_MSGMAP@@XZ 00504ce3 f   boutonex.obj
 0001:00103ced       ?GetMessageMap@CBoutonEx@@MBEPBUAFX_MSGMAP@@XZ 00504ced f   boutonex.obj
 0001:00103d59       ?OnCtlColor@CBoutonEx@@IAEPAUHBRUSH__@@PAVCDC@@PAVCWnd@@I@Z 00504d59 f   boutonex.obj
 0001:00103dac       ?CtlColor@CBoutonEx@@IAEPAUHBRUSH__@@PAVCDC@@I@Z 00504dac f   boutonex.obj
 0001:00103ded       ?OnClicked@CBoutonEx@@IAEXXZ 00504ded f   boutonex.obj
 0001:00103df8       ?OnCreate@CBoutonEx@@IAEHPAUtagCREATESTRUCTA@@@Z 00504df8 f   boutonex.obj
 0001:00103e1d       ?OnEraseBkgnd@CBoutonEx@@IAEHPAVCDC@@@Z 00504e1d f   boutonex.obj
 0001:00103e36       ?OnChar@CBoutonEx@@IAEXIII@Z 00504e36 f   boutonex.obj
 0001:00103fc0       ?OnSetFocus@CBoutonEx@@IAEXPAVCWnd@@@Z 00504fc0 f   boutonex.obj
 0001:00103fd9       ?OnKeyDown@CBoutonEx@@IAEXIII@Z 00504fd9 f   boutonex.obj
 0001:00103ffa       ?OnLButtonDown@CBoutonEx@@IAEXIVCPoint@@@Z 00504ffa f   boutonex.obj
 0001:0010401b       ?DrawItem@CBoutonEx@@UAEXPAUtagDRAWITEMSTRUCT@@@Z 0050501b f   boutonex.obj
 0001:001042d0       ?OnLButtonUp@CBoutonEx@@IAEXIVCPoint@@@Z 005052d0 f   boutonex.obj
 0001:001044b0       ??_ECBoutonEx@@UAEPAXI@Z   005054b0 f i boutonex.obj
 0001:001044b0       ??_GCBoutonEx@@UAEPAXI@Z   005054b0 f i boutonex.obj
 0001:001044f0       ??4CRect@@QAEXABUtagRECT@@@Z 005054f0 f i boutonex.obj
 0001:00104520       ??BCBrush@@QBEPAUHBRUSH__@@XZ 00505520 f i boutonex.obj
 0001:00104560       ??0CBrush@@QAE@XZ          00505560 f i boutonex.obj
 0001:00104590       ?DrawEdge@CDC@@QAEHPAUtagRECT@@II@Z 00505590 f i boutonex.obj
 0001:001045c0       ?DrawFocusRect@CDC@@QAEXPBUtagRECT@@@Z 005055c0 f i boutonex.obj
 0001:001045f0       ?DrawTextA@CDC@@QAEHABVCString@@PAUtagRECT@@I@Z 005055f0 f i boutonex.obj
 0001:00104630       ?GetNextDlgTabItem@CWnd@@QBEPAV1@PAV1@H@Z 00505630 f i boutonex.obj
 0001:00104670       ?OnSetFocus@CWnd@@IAEXPAV1@@Z 00505670 f i boutonex.obj
 0001:00104690       ?CreateObject@CBrowser@@SGPAVCObject@@XZ 00505690 f   browser.obj
 0001:001046f4       ?_GetBaseClass@CBrowser@@KGPAUCRuntimeClass@@XZ 005056f4 f   browser.obj
 0001:001046fe       ?GetRuntimeClass@CBrowser@@UBEPAUCRuntimeClass@@XZ 005056fe f   browser.obj
 0001:0010470e       ?_GetBaseMessageMap@CBrowser@@KGPBUAFX_MSGMAP@@XZ 0050570e f   browser.obj
 0001:00104718       ?GetMessageMap@CBrowser@@MBEPBUAFX_MSGMAP@@XZ 00505718 f   browser.obj
 0001:00104728       ??0CBrowser@@QAE@XZ        00505728 f   browser.obj
 0001:0010475b       ??1CBrowser@@UAE@XZ        0050575b f   browser.obj
 0001:001047c9       ?Init@CBrowser@@QAEXVCRect@@PAVCWnd@@@Z 005057c9 f   browser.obj
 0001:00104858       ?InitBrowserSink@CBrowser@@QAEXXZ 00505858 f   browser.obj
 0001:00104863       ?Navigate@CBrowser@@QAEXVCString@@@Z 00505863 f   browser.obj
 0001:0010495f       ?OnSize@CBrowser@@IAEXIHH@Z 0050595f f   browser.obj
 0001:00104980       ?OnMove@CBrowser@@IAEXHH@Z 00505980 f   browser.obj
 0001:00104a60       ??_GCBrowser@@UAEPAXI@Z    00505a60 f i browser.obj
 0001:00104a60       ??_ECBrowser@@UAEPAXI@Z    00505a60 f i browser.obj
 0001:00104aa0       ??0COleVariant@@QAE@XZ     00505aa0 f i browser.obj
 0001:00104ac0       ??1COleVariant@@QAE@XZ     00505ac0 f i browser.obj
 0001:00104ae0       ??BCOleVariant@@QAEPAUtagVARIANT@@XZ 00505ae0 f i browser.obj
 0001:00104b00       ??0CCheckBoxEx@@QAE@PAVCOsysCheckBox@@@Z 00505b00 f   checkboxex.obj
 0001:00104b6c       ??1CCheckBoxEx@@UAE@XZ     00505b6c f   checkboxex.obj
 0001:00104bfd       ?_GetBaseMessageMap@CCheckBoxEx@@KGPBUAFX_MSGMAP@@XZ 00505bfd f   checkboxex.obj
 0001:00104c07       ?GetMessageMap@CCheckBoxEx@@MBEPBUAFX_MSGMAP@@XZ 00505c07 f   checkboxex.obj
 0001:00104c17       ?CtlColor@CCheckBoxEx@@IAEPAUHBRUSH__@@PAVCDC@@I@Z 00505c17 f   checkboxex.obj
 0001:00104cfc       ?OnClicked@CCheckBoxEx@@IAEXXZ 00505cfc f   checkboxex.obj
 0001:00104d07       ?OnChar@CCheckBoxEx@@IAEXIII@Z 00505d07 f   checkboxex.obj
 0001:00104eb4       ?OnSetFocus@CCheckBoxEx@@IAEXPAVCWnd@@@Z 00505eb4 f   checkboxex.obj
 0001:00104ecd       ?OnKeyDown@CCheckBoxEx@@IAEXIII@Z 00505ecd f   checkboxex.obj
 0001:00104eee       ?OnLButtonDown@CCheckBoxEx@@IAEXIVCPoint@@@Z 00505eee f   checkboxex.obj
 0001:00105020       ??_GCCheckBoxEx@@UAEPAXI@Z 00506020 f i checkboxex.obj
 0001:00105020       ??_ECCheckBoxEx@@UAEPAXI@Z 00506020 f i checkboxex.obj
 0001:00105060       ?GetCheck@CButton@@QBEHXZ  00506060 f i checkboxex.obj
 0001:00105090       ?SetCheck@CButton@@QAEXH@Z 00506090 f i checkboxex.obj
 0001:001050c0       ??0CComboEx@@QAE@PAVCOsysCombo@@@Z 005060c0 f   comboex.obj
 0001:00105140       ??1CComboEx@@UAE@XZ        00506140 f   comboex.obj
 0001:001051d1       ?_GetBaseMessageMap@CComboEx@@KGPBUAFX_MSGMAP@@XZ 005061d1 f   comboex.obj
 0001:001051db       ?GetMessageMap@CComboEx@@MBEPBUAFX_MSGMAP@@XZ 005061db f   comboex.obj
 0001:001051eb       ?CtlColor@CComboEx@@IAEPAUHBRUSH__@@PAVCDC@@I@Z 005061eb f   comboex.obj
 0001:001052d0       ?OnCtlColor@CComboEx@@IAEPAUHBRUSH__@@PAVCDC@@PAVCWnd@@I@Z 005062d0 f   comboex.obj
 0001:001053b5       ?OnSelchange@CComboEx@@IAEXXZ 005063b5 f   comboex.obj
 0001:001053c0       ?OnChar@CComboEx@@IAEXIII@Z 005063c0 f   comboex.obj
 0001:00105595       ?OnSetFocus@CComboEx@@IAEXPAVCWnd@@@Z 00506595 f   comboex.obj
 0001:001055ae       ?OnKeyDown@CComboEx@@IAEXIII@Z 005065ae f   comboex.obj
 0001:001055cf       ?OnLButtonDown@CComboEx@@IAEXIVCPoint@@@Z 005065cf f   comboex.obj
 0001:001055f0       ?OnSelendok@CComboEx@@IAEXXZ 005065f0 f   comboex.obj
 0001:0010561f       ?OnDropdown@CComboEx@@IAEXXZ 0050661f f   comboex.obj
 0001:00105638       ?OnKillfocus@CComboEx@@IAEXXZ 00506638 f   comboex.obj
 0001:001057f0       ??_ECComboEx@@UAEPAXI@Z    005067f0 f i comboex.obj
 0001:001057f0       ??_GCComboEx@@UAEPAXI@Z    005067f0 f i comboex.obj
 0001:00105830       ??0CEditEx@@QAE@PAVCOsysEdit@@@Z 00506830 f   editex.obj
 0001:001058ab       ??1CEditEx@@UAE@XZ         005068ab f   editex.obj
 0001:0010594b       ?_GetBaseMessageMap@CEditEx@@KGPBUAFX_MSGMAP@@XZ 0050694b f   editex.obj
 0001:00105955       ?GetMessageMap@CEditEx@@MBEPBUAFX_MSGMAP@@XZ 00506955 f   editex.obj
 0001:00105965       ?OnChar@CEditEx@@IAEXIII@Z 00506965 f   editex.obj
 0001:00105b4e       ?CtlColor@CEditEx@@IAEPAUHBRUSH__@@PAVCDC@@I@Z 00506b4e f   editex.obj
 0001:00105c33       ?OnKillfocus@CEditEx@@IAEXXZ 00506c33 f   editex.obj
 0001:00105c46       ?OnSetfocus@CEditEx@@IAEXXZ 00506c46 f   editex.obj
 0001:00105c7a       ?OnKeyDown@CEditEx@@IAEXIII@Z 00506c7a f   editex.obj
 0001:00105c9b       ?OnLButtonDown@CEditEx@@IAEXIVCPoint@@@Z 00506c9b f   editex.obj
 0001:00105de0       ??_ECEditEx@@UAEPAXI@Z     00506de0 f i editex.obj
 0001:00105de0       ??_GCEditEx@@UAEPAXI@Z     00506de0 f i editex.obj
 0001:00105e20       ?GetModify@CEdit@@QBEHXZ   00506e20 f i editex.obj
 0001:00105e50       ?SetModify@CEdit@@QAEXH@Z  00506e50 f i editex.obj
 0001:00105e80       ??0CEditMultiEx@@QAE@PAVCOsysEditMulti@@@Z 00506e80 f   editmultiex.obj
 0001:00105eec       ??1CEditMultiEx@@UAE@XZ    00506eec f   editmultiex.obj
 0001:00105f7d       ?_GetBaseMessageMap@CEditMultiEx@@KGPBUAFX_MSGMAP@@XZ 00506f7d f   editmultiex.obj
 0001:00105f87       ?GetMessageMap@CEditMultiEx@@MBEPBUAFX_MSGMAP@@XZ 00506f87 f   editmultiex.obj
 0001:00105f97       ?CtlColor@CEditMultiEx@@IAEPAUHBRUSH__@@PAVCDC@@I@Z 00506f97 f   editmultiex.obj
 0001:0010607c       ?OnChar@CEditMultiEx@@IAEXIII@Z 0050707c f   editmultiex.obj
 0001:00106220       ?OnKillfocus@CEditMultiEx@@IAEXXZ 00507220 f   editmultiex.obj
 0001:00106251       ?OnSetFocus@CEditMultiEx@@IAEXPAVCWnd@@@Z 00507251 f   editmultiex.obj
 0001:0010626a       ?OnKeyDown@CEditMultiEx@@IAEXIII@Z 0050726a f   editmultiex.obj
 0001:0010628b       ?OnLButtonDown@CEditMultiEx@@IAEXIVCPoint@@@Z 0050728b f   editmultiex.obj
 0001:001062ac       ?OnSetfocus@CEditMultiEx@@IAEXXZ 005072ac f   editmultiex.obj
 0001:001063e0       ??_ECEditMultiEx@@UAEPAXI@Z 005073e0 f i editmultiex.obj
 0001:001063e0       ??_GCEditMultiEx@@UAEPAXI@Z 005073e0 f i editmultiex.obj
 0001:00106420       ??0CListEx@@QAE@PAVCOsysListe@@@Z 00507420 f   listex.obj
 0001:001064a0       ??1CListEx@@UAE@XZ         005074a0 f   listex.obj
 0001:00106531       ?_GetBaseMessageMap@CListEx@@KGPBUAFX_MSGMAP@@XZ 00507531 f   listex.obj
 0001:0010653b       ?GetMessageMap@CListEx@@MBEPBUAFX_MSGMAP@@XZ 0050753b f   listex.obj
 0001:0010654b       ?CtlColor@CListEx@@IAEPAUHBRUSH__@@PAVCDC@@I@Z 0050754b f   listex.obj
 0001:00106630       ?OnSelchange@CListEx@@IAEXXZ 00507630 f   listex.obj
 0001:0010663b       ?OnChar@CListEx@@IAEXIII@Z 0050763b f   listex.obj
 0001:00106805       ?OnSetFocus@CListEx@@IAEXPAVCWnd@@@Z 00507805 f   listex.obj
 0001:0010681e       ?OnKeyDown@CListEx@@IAEXIII@Z 0050781e f   listex.obj
 0001:0010683f       ?OnLButtonDown@CListEx@@IAEXIVCPoint@@@Z 0050783f f   listex.obj
 0001:0010686a       ?DrawItem@CListEx@@MAEXPAUtagDRAWITEMSTRUCT@@@Z 0050786a f   listex.obj
 0001:0010689b       ?OnSelcancel@CListEx@@IAEXXZ 0050789b f   listex.obj
 0001:001068ca       ?OnKillfocus@CListEx@@IAEXXZ 005078ca f   listex.obj
 0001:0010691b       ?OnSetfocus@CListEx@@IAEXXZ 0050791b f   listex.obj
 0001:00106a80       ??_GCListEx@@UAEPAXI@Z     00507a80 f i listex.obj
 0001:00106a80       ??_ECListEx@@UAEPAXI@Z     00507a80 f i listex.obj
 0001:00106ac0       ??_9@$BMA@AE               00507ac0 f i listex.obj
 0001:00106ad0       ?SetCurSel@CListBox@@QAEHH@Z 00507ad0 f i listex.obj
 0001:00106b00       ??0COsysBouton@@QAE@PAVCOsysFrame@@PAVCOsysObjet@@H@Z 00507b00 f   OsysBouton.obj
 0001:00106d0d       ??1COsysBouton@@UAE@XZ     00507d0d f   OsysBouton.obj
 0001:00106df9       ?LitArchiveEx@COsysBouton@@UAEXPBDAAVCInputArchive@@@Z 00507df9 f   OsysBouton.obj
 0001:00107241       ?EcritArchiveEx@COsysBouton@@UAEXAAVCOutputArchive@@@Z 00508241 f   OsysBouton.obj
 0001:00107388       ?Draw@COsysBouton@@UAEXPAVCDC@@@Z 00508388 f   OsysBouton.obj
 0001:001073fb       ?LitTailleDefaut@COsysBouton@@UAEXAAVCRect@@@Z 005083fb f   OsysBouton.obj
 0001:00107465       ?OnChangePositionTaille@COsysBouton@@UAEXXZ 00508465 f   OsysBouton.obj
 0001:0010754e       ?OnChangeZoom@COsysBouton@@UAEXXZ 0050854e f   OsysBouton.obj
 0001:00107659       ?OnChangeUnite@COsysBouton@@UAEXXZ 00508659 f   OsysBouton.obj
 0001:0010771a       ?RectangleCroise@COsysBouton@@QAEXPAVCDC@@AAVCRect@@@Z 0050871a f   OsysBouton.obj
 0001:00107807       ?InitialiseFenetreProprieteEx@COsysBouton@@UAEXXZ 00508807 f   OsysBouton.obj
 0001:00107ffd       ?InitMemoireValeurEx@COsysBouton@@QAEXPBD@Z 00508ffd f   OsysBouton.obj
 0001:00108550       ?LitTypeObjet@COsysBouton@@UAEPBDXZ 00509550 f i OsysBouton.obj
 0001:00108570       ?LitNomDefaut@COsysBouton@@UAEPBDXZ 00509570 f i OsysBouton.obj
 0001:00108590       ??_GCOsysBouton@@UAEPAXI@Z 00509590 f i OsysBouton.obj
 0001:00108590       ??_ECOsysBouton@@UAEPAXI@Z 00509590 f i OsysBouton.obj
 0001:001085d0       ?LitZoom@COsysFrame@@QAEHXZ 005095d0 f i OsysBouton.obj
 0001:001085f0       ?LitTaillePosition@COsysObjet@@QAEPBUtagRECT@@XZ 005095f0 f i OsysBouton.obj
 0001:00108610       ??GCPoint@@QBE?AV0@XZ      00509610 f i OsysBouton.obj
 0001:00108660       ??0CRect@@QAE@PBUtagRECT@@@Z 00509660 f i OsysBouton.obj
 0001:00108690       ?SetRect@CRect@@QAEXUtagPOINT@@0@Z 00509690 f i OsysBouton.obj
 0001:001086c0       ?OffsetRect@CRect@@QAEXUtagPOINT@@@Z 005096c0 f i OsysBouton.obj
 0001:001086f0       ?MoveWindow@CWnd@@QAEXPBUtagRECT@@H@Z 005096f0 f i OsysBouton.obj
 0001:00108740       ??0COsysCheckBox@@QAE@PAVCOsysFrame@@PAVCOsysObjet@@H@Z 00509740 f   OsysCheckBox.obj
 0001:00108920       ??1COsysCheckBox@@UAE@XZ   00509920 f   OsysCheckBox.obj
 0001:00108a0c       ?LitArchiveEx@COsysCheckBox@@UAEXPBDAAVCInputArchive@@@Z 00509a0c f   OsysCheckBox.obj
 0001:00108e16       ?EcritArchiveEx@COsysCheckBox@@UAEXAAVCOutputArchive@@@Z 00509e16 f   OsysCheckBox.obj
 0001:00108f5b       ?Draw@COsysCheckBox@@UAEXPAVCDC@@@Z 00509f5b f   OsysCheckBox.obj
 0001:00108fce       ?LitTailleDefaut@COsysCheckBox@@UAEXAAVCRect@@@Z 00509fce f   OsysCheckBox.obj
 0001:00109038       ?OnChangePositionTaille@COsysCheckBox@@UAEXXZ 0050a038 f   OsysCheckBox.obj
 0001:00109121       ?OnChangeZoom@COsysCheckBox@@UAEXXZ 0050a121 f   OsysCheckBox.obj
 0001:0010922c       ?OnChangeUnite@COsysCheckBox@@UAEXXZ 0050a22c f   OsysCheckBox.obj
 0001:001092ed       ?RectangleCroise@COsysCheckBox@@QAEXPAVCDC@@AAVCRect@@@Z 0050a2ed f   OsysCheckBox.obj
 0001:001093da       ?InitialiseFenetreProprieteEx@COsysCheckBox@@UAEXXZ 0050a3da f   OsysCheckBox.obj
 0001:00109bd0       ?OnModify@COsysCheckBox@@QAEXXZ 0050abd0 f   OsysCheckBox.obj
 0001:00109bdb       ?InitMemoireValeurEx@COsysCheckBox@@QAEXPBD@Z 0050abdb f   OsysCheckBox.obj
 0001:0010a120       ?LitTypeObjet@COsysCheckBox@@UAEPBDXZ 0050b120 f i OsysCheckBox.obj
 0001:0010a140       ?LitNomDefaut@COsysCheckBox@@UAEPBDXZ 0050b140 f i OsysCheckBox.obj
 0001:0010a160       ??_GCOsysCheckBox@@UAEPAXI@Z 0050b160 f i OsysCheckBox.obj
 0001:0010a160       ??_ECOsysCheckBox@@UAEPAXI@Z 0050b160 f i OsysCheckBox.obj
 0001:0010a1a0       ??0COsysCombo@@QAE@PAVCOsysFrame@@PAVCOsysObjet@@H@Z 0050b1a0 f   OsysCombo.obj
 0001:0010a370       ??1COsysCombo@@UAE@XZ      0050b370 f   OsysCombo.obj
 0001:0010a46b       ?LitArchiveEx@COsysCombo@@UAEXPBDAAVCInputArchive@@@Z 0050b46b f   OsysCombo.obj
 0001:0010a950       ?EcritArchiveEx@COsysCombo@@UAEXAAVCOutputArchive@@@Z 0050b950 f   OsysCombo.obj
 0001:0010aac1       ?Draw@COsysCombo@@UAEXPAVCDC@@@Z 0050bac1 f   OsysCombo.obj
 0001:0010ab34       ?LitTailleDefaut@COsysCombo@@UAEXAAVCRect@@@Z 0050bb34 f   OsysCombo.obj
 0001:0010ab9e       ?OnChangePositionTaille@COsysCombo@@UAEXXZ 0050bb9e f   OsysCombo.obj
 0001:0010ac87       ?OnChangeZoom@COsysCombo@@UAEXXZ 0050bc87 f   OsysCombo.obj
 0001:0010ad92       ?OnChangeUnite@COsysCombo@@UAEXXZ 0050bd92 f   OsysCombo.obj
 0001:0010ae53       ?RectangleCroise@COsysCombo@@QAEXPAVCDC@@AAVCRect@@@Z 0050be53 f   OsysCombo.obj
 0001:0010af40       ?InitialiseFenetreProprieteEx@COsysCombo@@UAEXXZ 0050bf40 f   OsysCombo.obj
 0001:0010b815       ?MajTableauPropriete@COsysCombo@@QAEXXZ 0050c815 f   OsysCombo.obj
 0001:0010ba27       ?InitListeValeur@COsysCombo@@QAEXXZ 0050ca27 f   OsysCombo.obj
 0001:0010bc42       ?SelectElement@COsysCombo@@QAEHPBDAAH@Z 0050cc42 f   OsysCombo.obj
 0001:0010bc87       ?SelectNumElement@COsysCombo@@QAEHHAAVCString@@@Z 0050cc87 f   OsysCombo.obj
 0001:0010bcf5       ?OnModify@COsysCombo@@QAEXXZ 0050ccf5 f   OsysCombo.obj
 0001:0010bd00       ?InitMemoireValeurEx@COsysCombo@@QAEXPBD@Z 0050cd00 f   OsysCombo.obj
 0001:0010bd0d       ?OnModifMemoireEx@COsysCombo@@QAEXPBDPAVCMemoireRecu@@@Z 0050cd0d f   OsysCombo.obj
 0001:0010bd1a       ?LitValMemoire@COsysCombo@@QAEHPAVCMemoireRecu@@AAVCString@@@Z 0050cd1a f   OsysCombo.obj
 0001:0010c420       ?LitTypeObjet@COsysCombo@@UAEPBDXZ 0050d420 f i OsysCombo.obj
 0001:0010c440       ?LitNomDefaut@COsysCombo@@UAEPBDXZ 0050d440 f i OsysCombo.obj
 0001:0010c460       ??_ECOsysCombo@@UAEPAXI@Z  0050d460 f i OsysCombo.obj
 0001:0010c460       ??_GCOsysCombo@@UAEPAXI@Z  0050d460 f i OsysCombo.obj
 0001:0010c4a0       ?GetCount@CComboBox@@QBEHXZ 0050d4a0 f i OsysCombo.obj
 0001:0010c4d0       ??0COsysEdit@@QAE@PAVCOsysFrame@@PAVCOsysObjet@@H@Z 0050d4d0 f   OsysEdit.obj
 0001:0010c6a8       ??1COsysEdit@@UAE@XZ       0050d6a8 f   OsysEdit.obj
 0001:0010c794       ?LitArchiveEx@COsysEdit@@UAEXPBDAAVCInputArchive@@@Z 0050d794 f   OsysEdit.obj
 0001:0010cbc3       ?EcritArchiveEx@COsysEdit@@UAEXAAVCOutputArchive@@@Z 0050dbc3 f   OsysEdit.obj
 0001:0010cd26       ?Draw@COsysEdit@@UAEXPAVCDC@@@Z 0050dd26 f   OsysEdit.obj
 0001:0010cd99       ?LitTailleDefaut@COsysEdit@@UAEXAAVCRect@@@Z 0050dd99 f   OsysEdit.obj
 0001:0010ce03       ?OnChangePositionTaille@COsysEdit@@UAEXXZ 0050de03 f   OsysEdit.obj
 0001:0010ceec       ?OnChangeZoom@COsysEdit@@UAEXXZ 0050deec f   OsysEdit.obj
 0001:0010cff7       ?OnChangeUnite@COsysEdit@@UAEXXZ 0050dff7 f   OsysEdit.obj
 0001:0010d0b8       ?RectangleCroise@COsysEdit@@QAEXPAVCDC@@AAVCRect@@@Z 0050e0b8 f   OsysEdit.obj
 0001:0010d1a5       ?OnModify@COsysEdit@@QAEXXZ 0050e1a5 f   OsysEdit.obj
 0001:0010d1b0       ?InitialiseFenetreProprieteEx@COsysEdit@@UAEXXZ 0050e1b0 f   OsysEdit.obj
 0001:0010d9a6       ?InitMemoireValeurEx@COsysEdit@@QAEXPBD@Z 0050e9a6 f   OsysEdit.obj
 0001:0010def0       ?LitTypeObjet@COsysEdit@@UAEPBDXZ 0050eef0 f i OsysEdit.obj
 0001:0010df10       ?LitNomDefaut@COsysEdit@@UAEPBDXZ 0050ef10 f i OsysEdit.obj
 0001:0010df30       ??_ECOsysEdit@@UAEPAXI@Z   0050ef30 f i OsysEdit.obj
 0001:0010df30       ??_GCOsysEdit@@UAEPAXI@Z   0050ef30 f i OsysEdit.obj
 0001:0010df70       ?SetPasswordChar@CEdit@@QAEXD@Z 0050ef70 f i OsysEdit.obj
 0001:0010dfa0       ??0COsysEditMulti@@QAE@PAVCOsysFrame@@PAVCOsysObjet@@H@Z 0050efa0 f   OsysEditMulti.obj
 0001:0010e169       ??1COsysEditMulti@@UAE@XZ  0050f169 f   OsysEditMulti.obj
 0001:0010e246       ?LitArchiveEx@COsysEditMulti@@UAEXPBDAAVCInputArchive@@@Z 0050f246 f   OsysEditMulti.obj
 0001:0010e6e3       ?EcritArchiveEx@COsysEditMulti@@UAEXAAVCOutputArchive@@@Z 0050f6e3 f   OsysEditMulti.obj
 0001:0010e81c       ?Draw@COsysEditMulti@@UAEXPAVCDC@@@Z 0050f81c f   OsysEditMulti.obj
 0001:0010e88f       ?LitTailleDefaut@COsysEditMulti@@UAEXAAVCRect@@@Z 0050f88f f   OsysEditMulti.obj
 0001:0010e8f9       ?OnChangePositionTaille@COsysEditMulti@@UAEXXZ 0050f8f9 f   OsysEditMulti.obj
 0001:0010e9e2       ?OnChangeZoom@COsysEditMulti@@UAEXXZ 0050f9e2 f   OsysEditMulti.obj
 0001:0010eaed       ?OnChangeUnite@COsysEditMulti@@UAEXXZ 0050faed f   OsysEditMulti.obj
 0001:0010ebae       ?RectangleCroise@COsysEditMulti@@QAEXPAVCDC@@AAVCRect@@@Z 0050fbae f   OsysEditMulti.obj
 0001:0010ec9b       ?InitialiseFenetreProprieteEx@COsysEditMulti@@UAEXXZ 0050fc9b f   OsysEditMulti.obj
 0001:0010f47d       ?InitMemoireValeurEx@COsysEditMulti@@QAEXPBD@Z 0051047d f   OsysEditMulti.obj
 0001:0010f48a       ?OnModify@COsysEditMulti@@QAEXXZ 0051048a f   OsysEditMulti.obj
 0001:0010f495       ?OnModifMemoireEx@COsysEditMulti@@QAEXPBDPAVCMemoireRecu@@@Z 00510495 f   OsysEditMulti.obj
 0001:0010f4a2       ?LitValMemoire@COsysEditMulti@@QAEHPAVCMemoireRecu@@AAVCString@@@Z 005104a2 f   OsysEditMulti.obj
 0001:0010fa10       ?LitTypeObjet@COsysEditMulti@@UAEPBDXZ 00510a10 f i OsysEditMulti.obj
 0001:0010fa30       ?LitNomDefaut@COsysEditMulti@@UAEPBDXZ 00510a30 f i OsysEditMulti.obj
 0001:0010fa50       ??_GCOsysEditMulti@@UAEPAXI@Z 00510a50 f i OsysEditMulti.obj
 0001:0010fa50       ??_ECOsysEditMulti@@UAEPAXI@Z 00510a50 f i OsysEditMulti.obj
 0001:0010fa90       ?ShowScrollBar@CWnd@@QAEXIH@Z 00510a90 f i OsysEditMulti.obj
 0001:0010fac0       ??0COsysListe@@QAE@PAVCOsysFrame@@PAVCOsysObjet@@H@Z 00510ac0 f   OsysListe.obj
 0001:0010fc90       ??1COsysListe@@UAE@XZ      00510c90 f   OsysListe.obj
 0001:0010fd8b       ?LitArchiveEx@COsysListe@@UAEXPBDAAVCInputArchive@@@Z 00510d8b f   OsysListe.obj
 0001:00110270       ?EcritArchiveEx@COsysListe@@UAEXAAVCOutputArchive@@@Z 00511270 f   OsysListe.obj
 0001:001103e1       ?Draw@COsysListe@@UAEXPAVCDC@@@Z 005113e1 f   OsysListe.obj
 0001:00110454       ?LitTailleDefaut@COsysListe@@UAEXAAVCRect@@@Z 00511454 f   OsysListe.obj
 0001:001104be       ?OnChangePositionTaille@COsysListe@@UAEXXZ 005114be f   OsysListe.obj
 0001:001105a7       ?OnChangeZoom@COsysListe@@UAEXXZ 005115a7 f   OsysListe.obj
 0001:001106b2       ?OnChangeUnite@COsysListe@@UAEXXZ 005116b2 f   OsysListe.obj
 0001:00110773       ?RectangleCroise@COsysListe@@QAEXPAVCDC@@AAVCRect@@@Z 00511773 f   OsysListe.obj
 0001:00110860       ?InitialiseFenetreProprieteEx@COsysListe@@UAEXXZ 00511860 f   OsysListe.obj
 0001:00111135       ?MajTableauPropriete@COsysListe@@QAEXXZ 00512135 f   OsysListe.obj
 0001:00111347       ?InitListeValeur@COsysListe@@QAEXXZ 00512347 f   OsysListe.obj
 0001:00111562       ?SelectElement@COsysListe@@QAEHPBDAAH@Z 00512562 f   OsysListe.obj
 0001:001115a7       ?SelectNumElement@COsysListe@@QAEHHAAVCString@@@Z 005125a7 f   OsysListe.obj
 0001:00111615       ?OnModify@COsysListe@@QAEXXZ 00512615 f   OsysListe.obj
 0001:00111620       ?InitMemoireValeurEx@COsysListe@@QAEXPBD@Z 00512620 f   OsysListe.obj
 0001:0011162d       ?OnModifMemoireEx@COsysListe@@QAEXPBDPAVCMemoireRecu@@@Z 0051262d f   OsysListe.obj
 0001:0011163a       ?LitValMemoire@COsysListe@@QAEHPAVCMemoireRecu@@AAVCString@@@Z 0051263a f   OsysListe.obj
 0001:00111d40       ?LitTypeObjet@COsysListe@@UAEPBDXZ 00512d40 f i OsysListe.obj
 0001:00111d60       ?LitNomDefaut@COsysListe@@UAEPBDXZ 00512d60 f i OsysListe.obj
 0001:00111d80       ??_GCOsysListe@@UAEPAXI@Z  00512d80 f i OsysListe.obj
 0001:00111d80       ??_ECOsysListe@@UAEPAXI@Z  00512d80 f i OsysListe.obj
 0001:00111dc0       ?ResetContent@CListBox@@QAEXXZ 00512dc0 f i OsysListe.obj
 0001:00111df0       ?SelectString@CListBox@@QAEHHPBD@Z 00512df0 f i OsysListe.obj
 0001:00111e20       ??0COsysRadioGroup@@QAE@PAVCOsysFrame@@PAVCOsysObjet@@H@Z 00512e20 f   OsysRadioGroup.obj
 0001:00112026       ??1COsysRadioGroup@@UAE@XZ 00513026 f   OsysRadioGroup.obj
 0001:0011212b       ?LitArchiveEx@COsysRadioGroup@@UAEXPBDAAVCInputArchive@@@Z 0051312b f   OsysRadioGroup.obj
 0001:00112738       ?EcritArchiveEx@COsysRadioGroup@@UAEXAAVCOutputArchive@@@Z 00513738 f   OsysRadioGroup.obj
 0001:001128fa       ?Draw@COsysRadioGroup@@UAEXPAVCDC@@@Z 005138fa f   OsysRadioGroup.obj
 0001:0011296d       ?LitTailleDefaut@COsysRadioGroup@@UAEXAAVCRect@@@Z 0051396d f   OsysRadioGroup.obj
 0001:001129d7       ?OnChangePositionTaille@COsysRadioGroup@@UAEXXZ 005139d7 f   OsysRadioGroup.obj
 0001:00112ab2       ?OnChangeZoom@COsysRadioGroup@@UAEXXZ 00513ab2 f   OsysRadioGroup.obj
 0001:00112c0e       ?OnChangeUnite@COsysRadioGroup@@UAEXXZ 00513c0e f   OsysRadioGroup.obj
 0001:00112c29       ?RectangleCroise@COsysRadioGroup@@QAEXPAVCDC@@AAVCRect@@@Z 00513c29 f   OsysRadioGroup.obj
 0001:00112d16       ?InitialiseFenetreProprieteEx@COsysRadioGroup@@UAEXXZ 00513d16 f   OsysRadioGroup.obj
 0001:00113796       ?MajTableauPropriete@COsysRadioGroup@@QAEXXZ 00514796 f   OsysRadioGroup.obj
 0001:00113a32       ?InitListe@COsysRadioGroup@@QAEXXZ 00514a32 f   OsysRadioGroup.obj
 0001:00113bcb       ?RazListe@COsysRadioGroup@@QAEXXZ 00514bcb f   OsysRadioGroup.obj
 0001:00113c50       ?AjoutListe@COsysRadioGroup@@QAEXPAVCRadioEx@@@Z 00514c50 f   OsysRadioGroup.obj
 0001:00113c6c       ?InitTexteRadio@COsysRadioGroup@@QAEXXZ 00514c6c f   OsysRadioGroup.obj
 0001:00113eeb       ?AligneRadio@COsysRadioGroup@@QAEXXZ 00514eeb f   OsysRadioGroup.obj
 0001:0011428c       ?SelectRadio@COsysRadioGroup@@QAEXXZ 0051528c f   OsysRadioGroup.obj
 0001:00114351       ?LitRadioSelect@COsysRadioGroup@@QAEHAAVCString@@@Z 00515351 f   OsysRadioGroup.obj
 0001:001143cc       ?OnModify@COsysRadioGroup@@QAEXXZ 005153cc f   OsysRadioGroup.obj
 0001:001143d7       ?InitMemoireValeurEx@COsysRadioGroup@@QAEXPBD@Z 005153d7 f   OsysRadioGroup.obj
 0001:001143e4       ?IndexValeurRadio@COsysRadioGroup@@QAEHPBD@Z 005153e4 f   OsysRadioGroup.obj
 0001:001144b5       ?OnModifMemoireEx@COsysRadioGroup@@QAEXPBDPAVCMemoireRecu@@@Z 005154b5 f   OsysRadioGroup.obj
 0001:001144c2       ?LitValMemoire@COsysRadioGroup@@QAEHPAVCMemoireRecu@@AAVCString@@@Z 005154c2 f   OsysRadioGroup.obj
 0001:001144db       ?FocusRadio@COsysRadioGroup@@QAEXXZ 005154db f   OsysRadioGroup.obj
 0001:00114f20       ?LitTypeObjet@COsysRadioGroup@@UAEPBDXZ 00515f20 f i OsysRadioGroup.obj
 0001:00114f40       ?LitNomDefaut@COsysRadioGroup@@UAEPBDXZ 00515f40 f i OsysRadioGroup.obj
 0001:00114f60       ??_GCOsysRadioGroup@@UAEPAXI@Z 00515f60 f i OsysRadioGroup.obj
 0001:00114f60       ??_ECOsysRadioGroup@@UAEPAXI@Z 00515f60 f i OsysRadioGroup.obj
 0001:00114fa0       ??0CRect@@QAE@UtagPOINT@@UtagSIZE@@@Z 00515fa0 f i OsysRadioGroup.obj
 0001:00114ff0       ??0COsysTableau@@QAE@PAVCOsysFrame@@PAVCOsysObjet@@H@Z 00515ff0 f   OsysTableau.obj
 0001:0011540c       ??1COsysTableau@@UAE@XZ    0051640c f   OsysTableau.obj
 0001:00115509       ?LitArchiveEx@COsysTableau@@UAEXPBDAAVCInputArchive@@@Z 00516509 f   OsysTableau.obj
 0001:00115bc0       ?EcritArchiveEx@COsysTableau@@UAEXAAVCOutputArchive@@@Z 00516bc0 f   OsysTableau.obj
 0001:00115e93       ?Draw@COsysTableau@@UAEXPAVCDC@@@Z 00516e93 f   OsysTableau.obj
 0001:00115f06       ?LitTailleDefaut@COsysTableau@@UAEXAAVCRect@@@Z 00516f06 f   OsysTableau.obj
 0001:00115f70       ?OnChangePositionTaille@COsysTableau@@UAEXXZ 00516f70 f   OsysTableau.obj
 0001:00116059       ?OnChangeZoom@COsysTableau@@UAEXXZ 00517059 f   OsysTableau.obj
 0001:00116164       ?OnChangeUnite@COsysTableau@@UAEXXZ 00517164 f   OsysTableau.obj
 0001:00116225       ?RectangleCroise@COsysTableau@@QAEXPAVCDC@@AAVCRect@@@Z 00517225 f   OsysTableau.obj
 0001:00116312       ?InitialiseFenetreProprieteEx@COsysTableau@@UAEXXZ 00517312 f   OsysTableau.obj
 0001:00117548       ?InitEntete@COsysTableau@@QAEXXZ 00518548 f   OsysTableau.obj
 0001:00117747       ?RazEntete@COsysTableau@@QAEXXZ 00518747 f   OsysTableau.obj
 0001:00117789       ?OnModify@COsysTableau@@QAEXXZ 00518789 f   OsysTableau.obj
 0001:00117794       ?MajTailleColonnes@COsysTableau@@QAEHXZ 00518794 f   OsysTableau.obj
 0001:0011791b       ?MajListeStatutColonnes@COsysTableau@@QAEHXZ 0051891b f   OsysTableau.obj
 0001:00117aff       ?LitStatutColonne@COsysTableau@@QAEHH@Z 00518aff f   OsysTableau.obj
 0001:00117b38       ?InitContenuTableau@COsysTableau@@QAEXXZ 00518b38 f   OsysTableau.obj
 0001:00117e88       ?OnModifMemoireEx@COsysTableau@@QAEXPBDPAVCMemoireRecu@@@Z 00518e88 f   OsysTableau.obj
 0001:00117e95       ?LitValMemoire@COsysTableau@@QAEHPAVCMemoireRecu@@AAVCString@@@Z 00518e95 f   OsysTableau.obj
 0001:00117eae       ?InitMemoireValeurEx@COsysTableau@@QAEXPBD@Z 00518eae f   OsysTableau.obj
 0001:00117ebb       ?OnModifySelection@COsysTableau@@QAEXHH@Z 00518ebb f   OsysTableau.obj
 0001:00118a80       ?LitTypeObjet@COsysTableau@@UAEPBDXZ 00519a80 f i OsysTableau.obj
 0001:00118aa0       ?LitNomDefaut@COsysTableau@@UAEPBDXZ 00519aa0 f i OsysTableau.obj
 0001:00118ac0       ??_ECOsysTableau@@UAEPAXI@Z 00519ac0 f i OsysTableau.obj
 0001:00118ac0       ??_GCOsysTableau@@UAEPAXI@Z 00519ac0 f i OsysTableau.obj
 0001:00118b00       ?SetTextColor@CGridCtrl@@QAEXK@Z 00519b00 f i OsysTableau.obj
 0001:00118b20       ?SetTextBkColor@CGridCtrl@@QAEXK@Z 00519b20 f i OsysTableau.obj
 0001:00118b40       ?SetFixedTextColor@CGridCtrl@@QAEXK@Z 00519b40 f i OsysTableau.obj
 0001:00118b60       ?SetFixedBkColor@CGridCtrl@@QAEXK@Z 00519b60 f i OsysTableau.obj
 0001:00118b80       ?SetGridColor@CGridCtrl@@QAEXK@Z 00519b80 f i OsysTableau.obj
 0001:00118ba0       ?HideScrollBarVert@CGridCtrl@@QAEXH@Z 00519ba0 f i OsysTableau.obj
 0001:00118bc0       ?IsValid@CCellRange@@QBEHXZ 00519bc0 f i OsysTableau.obj
 0001:00118c40       ??0COsysWebBrowser@@QAE@PAVCOsysFrame@@PAVCOsysObjet@@H@Z 00519c40 f   OsysWebBrowser.obj
 0001:00118d94       ??1COsysWebBrowser@@UAE@XZ 00519d94 f   OsysWebBrowser.obj
 0001:00118e1c       ?LitArchiveEx@COsysWebBrowser@@UAEXPBDAAVCInputArchive@@@Z 00519e1c f   OsysWebBrowser.obj
 0001:00118efb       ?EcritArchiveEx@COsysWebBrowser@@UAEXAAVCOutputArchive@@@Z 00519efb f   OsysWebBrowser.obj
 0001:00118f50       ?Draw@COsysWebBrowser@@UAEXPAVCDC@@@Z 00519f50 f   OsysWebBrowser.obj
 0001:00118fc3       ?LitTailleDefaut@COsysWebBrowser@@UAEXAAVCRect@@@Z 00519fc3 f   OsysWebBrowser.obj
 0001:0011902d       ?OnChangePositionTaille@COsysWebBrowser@@UAEXXZ 0051a02d f   OsysWebBrowser.obj
 0001:00119116       ?OnChangeZoom@COsysWebBrowser@@UAEXXZ 0051a116 f   OsysWebBrowser.obj
 0001:0011922f       ?OnChangeUnite@COsysWebBrowser@@UAEXXZ 0051a22f f   OsysWebBrowser.obj
 0001:001192f0       ?RectangleCroise@COsysWebBrowser@@QAEXPAVCDC@@AAVCRect@@@Z 0051a2f0 f   OsysWebBrowser.obj
 0001:001193dd       ?InitialiseFenetreProprieteEx@COsysWebBrowser@@UAEXXZ 0051a3dd f   OsysWebBrowser.obj
 0001:0011967f       ?InitMemoireValeurEx@COsysWebBrowser@@QAEXPBD@Z 0051a67f f   OsysWebBrowser.obj
 0001:00119920       ?LitTypeObjet@COsysWebBrowser@@UAEPBDXZ 0051a920 f i OsysWebBrowser.obj
 0001:00119940       ?LitNomDefaut@COsysWebBrowser@@UAEPBDXZ 0051a940 f i OsysWebBrowser.obj
 0001:00119960       ??_ECOsysWebBrowser@@UAEPAXI@Z 0051a960 f i OsysWebBrowser.obj
 0001:00119960       ??_GCOsysWebBrowser@@UAEPAXI@Z 0051a960 f i OsysWebBrowser.obj
 0001:001199a0       ??0COsysZoneDraw@@QAE@PAVCOsysFrame@@PAVCOsysObjet@@H@Z 0051a9a0 f   OsysZoneDraw.obj
 0001:00119af3       ??1COsysZoneDraw@@UAE@XZ   0051aaf3 f   OsysZoneDraw.obj
 0001:00119b83       ?LitArchiveEx@COsysZoneDraw@@UAEXPBDAAVCInputArchive@@@Z 0051ab83 f   OsysZoneDraw.obj
 0001:00119eda       ?EcritArchiveEx@COsysZoneDraw@@UAEXAAVCOutputArchive@@@Z 0051aeda f   OsysZoneDraw.obj
 0001:00119f1f       ?Draw@COsysZoneDraw@@UAEXPAVCDC@@@Z 0051af1f f   OsysZoneDraw.obj
 0001:0011a198       ?LitTailleDefaut@COsysZoneDraw@@UAEXAAVCRect@@@Z 0051b198 f   OsysZoneDraw.obj
 0001:0011a202       ?OnChangePositionTaille@COsysZoneDraw@@UAEXXZ 0051b202 f   OsysZoneDraw.obj
 0001:0011a2f8       ?OnChangeZoom@COsysZoneDraw@@UAEXXZ 0051b2f8 f   OsysZoneDraw.obj
 0001:0011a403       ?OnChangeUnite@COsysZoneDraw@@UAEXXZ 0051b403 f   OsysZoneDraw.obj
 0001:0011a4c4       ?RectangleCroise@COsysZoneDraw@@QAEXPAVCDC@@AAVCRect@@@Z 0051b4c4 f   OsysZoneDraw.obj
 0001:0011a5b1       ?InitialiseFenetreProprieteEx@COsysZoneDraw@@UAEXXZ 0051b5b1 f   OsysZoneDraw.obj
 0001:0011a83f       ?AjoutListe@COsysZoneDraw@@QAEXPAVCDefGraphique@@@Z 0051b83f f   OsysZoneDraw.obj
 0001:0011a85b       ?RazListe@COsysZoneDraw@@QAEXXZ 0051b85b f   OsysZoneDraw.obj
 0001:0011a8df       ?DefGraphiqueArchive@COsysZoneDraw@@QAEXPAVCDefGraphique@@PAVCOsysObjet@@@Z 0051b8df f   OsysZoneDraw.obj
 0001:0011aa35       ?InitMemoireValeurEx@COsysZoneDraw@@QAEXPBD@Z 0051ba35 f   OsysZoneDraw.obj
 0001:0011aa42       ??0CDefGraphique@@QAE@XZ   0051ba42 f   OsysZoneDraw.obj
 0001:0011aabb       ??1CDefGraphique@@UAE@XZ   0051babb f   OsysZoneDraw.obj
 0001:0011af20       ?LitTypeObjet@COsysZoneDraw@@UAEPBDXZ 0051bf20 f i OsysZoneDraw.obj
 0001:0011af40       ?LitNomDefaut@COsysZoneDraw@@UAEPBDXZ 0051bf40 f i OsysZoneDraw.obj
 0001:0011af60       ??_GCOsysZoneDraw@@UAEPAXI@Z 0051bf60 f i OsysZoneDraw.obj
 0001:0011af60       ??_ECOsysZoneDraw@@UAEPAXI@Z 0051bf60 f i OsysZoneDraw.obj
 0001:0011afa0       ?EcritType@CDefGraphique@@QAEXH@Z 0051bfa0 f i OsysZoneDraw.obj
 0001:0011afc0       ?EcritTaillePosition@CDefGraphique@@QAEXVCRect@@@Z 0051bfc0 f i OsysZoneDraw.obj
 0001:0011b000       ?LitType@CDefGraphique@@QAEHXZ 0051c000 f i OsysZoneDraw.obj
 0001:0011b020       ?LitTaillePosition@CDefGraphique@@QAEAAVCRect@@XZ 0051c020 f i OsysZoneDraw.obj
 0001:0011b040       ??_GCDefGraphique@@UAEPAXI@Z 0051c040 f i OsysZoneDraw.obj
 0001:0011b040       ??_ECDefGraphique@@UAEPAXI@Z 0051c040 f i OsysZoneDraw.obj
 0001:0011b080       ?ValidateRect@CWnd@@QAEXPBUtagRECT@@@Z 0051c080 f i OsysZoneDraw.obj
 0001:0011b0b0       ??0CRadioEx@@QAE@PAVCOsysRadioGroup@@@Z 0051c0b0 f   radioex.obj
 0001:0011b0e4       ??1CRadioEx@@UAE@XZ        0051c0e4 f   radioex.obj
 0001:0011b166       ?_GetBaseMessageMap@CRadioEx@@KGPBUAFX_MSGMAP@@XZ 0051c166 f   radioex.obj
 0001:0011b170       ?GetMessageMap@CRadioEx@@MBEPBUAFX_MSGMAP@@XZ 0051c170 f   radioex.obj
 0001:0011b180       ?CtlColor@CRadioEx@@IAEPAUHBRUSH__@@PAVCDC@@I@Z 0051c180 f   radioex.obj
 0001:0011b26e       ?OnClicked@CRadioEx@@IAEXXZ 0051c26e f   radioex.obj
 0001:0011b279       ?OnChar@CRadioEx@@IAEXIII@Z 0051c279 f   radioex.obj
 0001:0011b489       ?OnSetFocus@CRadioEx@@IAEXPAVCWnd@@@Z 0051c489 f   radioex.obj
 0001:0011b4a2       ?OnKeyDown@CRadioEx@@IAEXIII@Z 0051c4a2 f   radioex.obj
 0001:0011b4c3       ?OnLButtonDown@CRadioEx@@IAEXIVCPoint@@@Z 0051c4c3 f   radioex.obj
 0001:0011b4e4       ?OnKillFocus@CRadioEx@@IAEXPAVCWnd@@@Z 0051c4e4 f   radioex.obj
 0001:0011b610       ??_GCRadioEx@@UAEPAXI@Z    0051c610 f i radioex.obj
 0001:0011b610       ??_ECRadioEx@@UAEPAXI@Z    0051c610 f i radioex.obj
 0001:0011b650       ?OnKillFocus@CWnd@@IAEXPAV1@@Z 0051c650 f i radioex.obj
 0001:0011b670       ?_GetBaseClass@CTableauEx@@KGPAUCRuntimeClass@@XZ 0051c670 f   TableauEx.obj
 0001:0011b67a       ?GetRuntimeClass@CTableauEx@@UBEPAUCRuntimeClass@@XZ 0051c67a f   TableauEx.obj
 0001:0011b68a       ??0CTableauEx@@QAE@PAVCOsysTableau@@@Z 0051c68a f   TableauEx.obj
 0001:0011b726       ??1CTableauEx@@UAE@XZ      0051c726 f   TableauEx.obj
 0001:0011b77d       ?_GetBaseMessageMap@CTableauEx@@KGPBUAFX_MSGMAP@@XZ 0051c77d f   TableauEx.obj
 0001:0011b787       ?GetMessageMap@CTableauEx@@MBEPBUAFX_MSGMAP@@XZ 0051c787 f   TableauEx.obj
 0001:0011b797       ?OnEndEditCell@CTableauEx@@UAEXHHVCString@@@Z 0051c797 f   TableauEx.obj
 0001:0011b9db       ?OnCreate@CTableauEx@@IAEHPAUtagCREATESTRUCTA@@@Z 0051c9db f   TableauEx.obj
 0001:0011ba00       ?OnEditCell@CTableauEx@@UAEXHHI@Z 0051ca00 f   TableauEx.obj
 0001:0011bc78       ?OnSetFocus@CTableauEx@@IAEXPAVCWnd@@@Z 0051cc78 f   TableauEx.obj
 0001:0011bc91       ?OnKeyDown@CTableauEx@@IAEXIII@Z 0051cc91 f   TableauEx.obj
 0001:0011bcb2       ?OnLButtonDown@CTableauEx@@IAEXIVCPoint@@@Z 0051ccb2 f   TableauEx.obj
 0001:0011bcd3       ?OnChar@CTableauEx@@IAEXIII@Z 0051ccd3 f   TableauEx.obj
 0001:0011c050       ??_ECTableauEx@@UAEPAXI@Z  0051d050 f i TableauEx.obj
 0001:0011c050       ??_GCTableauEx@@UAEPAXI@Z  0051d050 f i TableauEx.obj
 0001:0011c090       ?CreateObject@CWebBrowser2@@SGPAVCObject@@XZ 0051d090 f   webbrowser2.obj
 0001:0011c0f4       ?_GetBaseClass@CWebBrowser2@@KGPAUCRuntimeClass@@XZ 0051d0f4 f   webbrowser2.obj
 0001:0011c0fe       ?GetRuntimeClass@CWebBrowser2@@UBEPAUCRuntimeClass@@XZ 0051d0fe f   webbrowser2.obj
 0001:0011c10e       ?GoBack@CWebBrowser2@@QAEXXZ 0051d10e f   webbrowser2.obj
 0001:0011c12f       ?GoForward@CWebBrowser2@@QAEXXZ 0051d12f f   webbrowser2.obj
 0001:0011c150       ?GoHome@CWebBrowser2@@QAEXXZ 0051d150 f   webbrowser2.obj
 0001:0011c171       ?GoSearch@CWebBrowser2@@QAEXXZ 0051d171 f   webbrowser2.obj
 0001:0011c192       ?Navigate@CWebBrowser2@@QAEXPBDPAUtagVARIANT@@111@Z 0051d192 f   webbrowser2.obj
 0001:0011c1cc       ?Refresh@CWebBrowser2@@QAEXXZ 0051d1cc f   webbrowser2.obj
 0001:0011c1f0       ?Refresh2@CWebBrowser2@@QAEXPAUtagVARIANT@@@Z 0051d1f0 f   webbrowser2.obj
 0001:0011c21a       ?Stop@CWebBrowser2@@QAEXXZ 0051d21a f   webbrowser2.obj
 0001:0011c23b       ?GetApplication@CWebBrowser2@@QAEPAUIDispatch@@XZ 0051d23b f   webbrowser2.obj
 0001:0011c266       ?GetParent@CWebBrowser2@@QAEPAUIDispatch@@XZ 0051d266 f   webbrowser2.obj
 0001:0011c291       ?GetContainer@CWebBrowser2@@QAEPAUIDispatch@@XZ 0051d291 f   webbrowser2.obj
 0001:0011c2bc       ?GetDocument@CWebBrowser2@@QAEPAUIDispatch@@XZ 0051d2bc f   webbrowser2.obj
 0001:0011c2e7       ?GetTopLevelContainer@CWebBrowser2@@QAEHXZ 0051d2e7 f   webbrowser2.obj
 0001:0011c312       ?GetType@CWebBrowser2@@QAE?AVCString@@XZ 0051d312 f   webbrowser2.obj
 0001:0011c394       ?GetLeft@CWebBrowser2@@QAEJXZ 0051d394 f   webbrowser2.obj
 0001:0011c3bf       ?SetLeft@CWebBrowser2@@QAEXJ@Z 0051d3bf f   webbrowser2.obj
 0001:0011c3ec       ?GetTop@CWebBrowser2@@QAEJXZ 0051d3ec f   webbrowser2.obj
 0001:0011c417       ?SetTop@CWebBrowser2@@QAEXJ@Z 0051d417 f   webbrowser2.obj
 0001:0011c444       ?GetWidth@CWebBrowser2@@QAEJXZ 0051d444 f   webbrowser2.obj
 0001:0011c46f       ?SetWidth@CWebBrowser2@@QAEXJ@Z 0051d46f f   webbrowser2.obj
 0001:0011c49c       ?GetHeight@CWebBrowser2@@QAEJXZ 0051d49c f   webbrowser2.obj
 0001:0011c4c7       ?SetHeight@CWebBrowser2@@QAEXJ@Z 0051d4c7 f   webbrowser2.obj
 0001:0011c4f4       ?GetLocationName@CWebBrowser2@@QAE?AVCString@@XZ 0051d4f4 f   webbrowser2.obj
 0001:0011c576       ?GetLocationURL@CWebBrowser2@@QAE?AVCString@@XZ 0051d576 f   webbrowser2.obj
 0001:0011c5f8       ?GetBusy@CWebBrowser2@@QAEHXZ 0051d5f8 f   webbrowser2.obj
 0001:0011c623       ?Quit@CWebBrowser2@@QAEXXZ 0051d623 f   webbrowser2.obj
 0001:0011c647       ?ClientToWindow@CWebBrowser2@@QAEXPAJ0@Z 0051d647 f   webbrowser2.obj
 0001:0011c678       ?PutProperty@CWebBrowser2@@QAEXPBDABUtagVARIANT@@@Z 0051d678 f   webbrowser2.obj
 0001:0011c6a9       ?GetProperty_@CWebBrowser2@@QAE?AUtagVARIANT@@PBD@Z 0051d6a9 f   webbrowser2.obj
 0001:0011c6f7       ?GetName@CWebBrowser2@@QAE?AVCString@@XZ 0051d6f7 f   webbrowser2.obj
 0001:0011c776       ?GetHwnd@CWebBrowser2@@QAEJXZ 0051d776 f   webbrowser2.obj
 0001:0011c7a1       ?GetFullName@CWebBrowser2@@QAE?AVCString@@XZ 0051d7a1 f   webbrowser2.obj
 0001:0011c823       ?GetPath@CWebBrowser2@@QAE?AVCString@@XZ 0051d823 f   webbrowser2.obj
 0001:0011c8a5       ?GetVisible@CWebBrowser2@@QAEHXZ 0051d8a5 f   webbrowser2.obj
 0001:0011c8d0       ?SetVisible@CWebBrowser2@@QAEXH@Z 0051d8d0 f   webbrowser2.obj
 0001:0011c8fd       ?GetStatusBar@CWebBrowser2@@QAEHXZ 0051d8fd f   webbrowser2.obj
 0001:0011c928       ?SetStatusBar@CWebBrowser2@@QAEXH@Z 0051d928 f   webbrowser2.obj
 0001:0011c955       ?GetStatusText@CWebBrowser2@@QAE?AVCString@@XZ 0051d955 f   webbrowser2.obj
 0001:0011c9d7       ?SetStatusText@CWebBrowser2@@QAEXPBD@Z 0051d9d7 f   webbrowser2.obj
 0001:0011ca04       ?GetToolBar@CWebBrowser2@@QAEJXZ 0051da04 f   webbrowser2.obj
 0001:0011ca2f       ?SetToolBar@CWebBrowser2@@QAEXJ@Z 0051da2f f   webbrowser2.obj
 0001:0011ca5c       ?GetMenuBar@CWebBrowser2@@QAEHXZ 0051da5c f   webbrowser2.obj
 0001:0011ca87       ?SetMenuBar@CWebBrowser2@@QAEXH@Z 0051da87 f   webbrowser2.obj
 0001:0011cab4       ?GetFullScreen@CWebBrowser2@@QAEHXZ 0051dab4 f   webbrowser2.obj
 0001:0011cadf       ?SetFullScreen@CWebBrowser2@@QAEXH@Z 0051dadf f   webbrowser2.obj
 0001:0011cb0c       ?Navigate2@CWebBrowser2@@QAEXPAUtagVARIANT@@0000@Z 0051db0c f   webbrowser2.obj
 0001:0011cb49       ?QueryStatusWB@CWebBrowser2@@QAEJJ@Z 0051db49 f   webbrowser2.obj
 0001:0011cb7d       ?ExecWB@CWebBrowser2@@QAEXJJPAUtagVARIANT@@0@Z 0051db7d f   webbrowser2.obj
 0001:0011cbb6       ?ShowBrowserBar@CWebBrowser2@@QAEXPAUtagVARIANT@@00@Z 0051dbb6 f   webbrowser2.obj
 0001:0011cbeb       ?GetReadyState@CWebBrowser2@@QAEJXZ 0051dbeb f   webbrowser2.obj
 0001:0011cc16       ?GetOffline@CWebBrowser2@@QAEHXZ 0051dc16 f   webbrowser2.obj
 0001:0011cc41       ?SetOffline@CWebBrowser2@@QAEXH@Z 0051dc41 f   webbrowser2.obj
 0001:0011cc6e       ?GetSilent@CWebBrowser2@@QAEHXZ 0051dc6e f   webbrowser2.obj
 0001:0011cc99       ?SetSilent@CWebBrowser2@@QAEXH@Z 0051dc99 f   webbrowser2.obj
 0001:0011ccc6       ?GetRegisterAsBrowser@CWebBrowser2@@QAEHXZ 0051dcc6 f   webbrowser2.obj
 0001:0011ccf1       ?SetRegisterAsBrowser@CWebBrowser2@@QAEXH@Z 0051dcf1 f   webbrowser2.obj
 0001:0011cd1e       ?GetRegisterAsDropTarget@CWebBrowser2@@QAEHXZ 0051dd1e f   webbrowser2.obj
 0001:0011cd49       ?SetRegisterAsDropTarget@CWebBrowser2@@QAEXH@Z 0051dd49 f   webbrowser2.obj
 0001:0011cd76       ?GetTheaterMode@CWebBrowser2@@QAEHXZ 0051dd76 f   webbrowser2.obj
 0001:0011cda1       ?SetTheaterMode@CWebBrowser2@@QAEXH@Z 0051dda1 f   webbrowser2.obj
 0001:0011cdce       ?GetAddressBar@CWebBrowser2@@QAEHXZ 0051ddce f   webbrowser2.obj
 0001:0011cdf9       ?SetAddressBar@CWebBrowser2@@QAEXH@Z 0051ddf9 f   webbrowser2.obj
 0001:0011ce26       ?GetResizable@CWebBrowser2@@QAEHXZ 0051de26 f   webbrowser2.obj
 0001:0011ce51       ?SetResizable@CWebBrowser2@@QAEXH@Z 0051de51 f   webbrowser2.obj
 0001:0011d200       ??0CWebBrowser2@@QAE@XZ    0051e200 f i webbrowser2.obj
 0001:0011d230       ?Create@CWebBrowser2@@UAEHPBD0KABUtagRECT@@PAVCWnd@@IPAUCCreateContext@@@Z 0051e230 f i webbrowser2.obj
 0001:0011d280       ?GetClsid@CWebBrowser2@@QAEABU_GUID@@XZ 0051e280 f i webbrowser2.obj
 0001:0011d2a0       ??_ECWebBrowser2@@UAEPAXI@Z 0051e2a0 f i webbrowser2.obj
 0001:0011d2a0       ??_GCWebBrowser2@@UAEPAXI@Z 0051e2a0 f i webbrowser2.obj
 0001:0011d2e0       ??1CWebBrowser2@@UAE@XZ    0051e2e0 f i webbrowser2.obj
 0001:0011d300       ?_GetBaseMessageMap@CWebBrowserEx@@KGPBUAFX_MSGMAP@@XZ 0051e300 f   WebBrowserEx.obj
 0001:0011d30a       ?GetMessageMap@CWebBrowserEx@@MBEPBUAFX_MSGMAP@@XZ 0051e30a f   WebBrowserEx.obj
 0001:0011d31a       ??0CWebBrowserEx@@QAE@PAVCOsysWebBrowser@@@Z 0051e31a f   WebBrowserEx.obj
 0001:0011d344       ??1CWebBrowserEx@@UAE@XZ   0051e344 f   WebBrowserEx.obj
 0001:0011d360       ?OnPaint@CWebBrowserEx@@IAEXXZ 0051e360 f   WebBrowserEx.obj
 0001:0011d37c       ?OnSetFocus@CWebBrowserEx@@IAEXPAVCWnd@@@Z 0051e37c f   WebBrowserEx.obj
 0001:0011d395       ?OnLButtonDown@CWebBrowserEx@@IAEXIVCPoint@@@Z 0051e395 f   WebBrowserEx.obj
 0001:0011d3b6       ?OnSize@CWebBrowserEx@@IAEXIHH@Z 0051e3b6 f   WebBrowserEx.obj
 0001:0011d3d7       ?OnMove@CWebBrowserEx@@IAEXHH@Z 0051e3d7 f   WebBrowserEx.obj
 0001:0011d3f4       ?OnChar@CWebBrowserEx@@IAEXIII@Z 0051e3f4 f   WebBrowserEx.obj
 0001:0011d490       ??_ECWebBrowserEx@@UAEPAXI@Z 0051e490 f i WebBrowserEx.obj
 0001:0011d490       ??_GCWebBrowserEx@@UAEPAXI@Z 0051e490 f i WebBrowserEx.obj
 0001:0011d4d0       ??0CZoneDrawEx@@QAE@PAVCOsysZoneDraw@@@Z 0051e4d0 f   zonedrawex.obj
 0001:0011d4fa       ??1CZoneDrawEx@@UAE@XZ     0051e4fa f   zonedrawex.obj
 0001:0011d516       ?_GetBaseMessageMap@CZoneDrawEx@@KGPBUAFX_MSGMAP@@XZ 0051e516 f   zonedrawex.obj
 0001:0011d520       ?GetMessageMap@CZoneDrawEx@@MBEPBUAFX_MSGMAP@@XZ 0051e520 f   zonedrawex.obj
 0001:0011d530       ?OnEraseBkgnd@CZoneDrawEx@@IAEHPAVCDC@@@Z 0051e530 f   zonedrawex.obj
 0001:0011d5e9       ?OnCtlColor@CZoneDrawEx@@IAEPAUHBRUSH__@@PAVCDC@@PAVCWnd@@I@Z 0051e5e9 f   zonedrawex.obj
 0001:0011d612       ?OnSetFocus@CZoneDrawEx@@IAEXPAVCWnd@@@Z 0051e612 f   zonedrawex.obj
 0001:0011d62b       ?OnChar@CZoneDrawEx@@IAEXIII@Z 0051e62b f   zonedrawex.obj
 0001:0011d7a7       ?OnKeyDown@CZoneDrawEx@@IAEXIII@Z 0051e7a7 f   zonedrawex.obj
 0001:0011d7c8       ?OnLButtonDown@CZoneDrawEx@@IAEXIVCPoint@@@Z 0051e7c8 f   zonedrawex.obj
 0001:0011d8b0       ??_GCZoneDrawEx@@UAEPAXI@Z 0051e8b0 f i zonedrawex.obj
 0001:0011d8b0       ??_ECZoneDrawEx@@UAEPAXI@Z 0051e8b0 f i zonedrawex.obj
 0001:0011d8f0       ??0C3DMeterCtrl@@QAE@XZ    0051e8f0 f   3DMeterCtrl.obj
 0001:0011da9e       ??1C3DMeterCtrl@@UAE@XZ    0051ea9e f   3DMeterCtrl.obj
 0001:0011db89       ?_GetBaseMessageMap@C3DMeterCtrl@@KGPBUAFX_MSGMAP@@XZ 0051eb89 f   3DMeterCtrl.obj
 0001:0011db93       ?GetMessageMap@C3DMeterCtrl@@MBEPBUAFX_MSGMAP@@XZ 0051eb93 f   3DMeterCtrl.obj
 0001:0011dba3       ?OnPaint@C3DMeterCtrl@@IAEXXZ 0051eba3 f   3DMeterCtrl.obj
 0001:0011dd60       ?DrawValue@C3DMeterCtrl@@QAEXPAVCDC@@@Z 0051ed60 f   3DMeterCtrl.obj
 0001:0011de61       ?UpdateNeedle@C3DMeterCtrl@@QAEXN@Z 0051ee61 f   3DMeterCtrl.obj
 0001:0011de8d       ?DrawNeedle@C3DMeterCtrl@@QAEXPAVCDC@@@Z 0051ee8d f   3DMeterCtrl.obj
 0001:0011e13f       ?DrawMeterBackground@C3DMeterCtrl@@QAEXPAVCDC@@AAVCRect@@@Z 0051f13f f   3DMeterCtrl.obj
 0001:0011f320       ?OnSize@C3DMeterCtrl@@IAEXIHH@Z 00520320 f   3DMeterCtrl.obj
 0001:0011f349       ?ReconstructControl@C3DMeterCtrl@@QAEXXZ 00520349 f   3DMeterCtrl.obj
 0001:0011f3c2       ?SetRange@C3DMeterCtrl@@QAEXNN@Z 005203c2 f   3DMeterCtrl.obj
 0001:0011f401       ?SetScaleDecimals@C3DMeterCtrl@@QAEXH@Z 00520401 f   3DMeterCtrl.obj
 0001:0011f422       ?SetValueDecimals@C3DMeterCtrl@@QAEXH@Z 00520422 f   3DMeterCtrl.obj
 0001:0011f443       ?SetUnits@C3DMeterCtrl@@QAEXAAVCString@@@Z 00520443 f   3DMeterCtrl.obj
 0001:0011f46a       ?SetNeedleColor@C3DMeterCtrl@@QAEXK@Z 0052046a f   3DMeterCtrl.obj
 0001:0011fb80       ??_GC3DMeterCtrl@@UAEPAXI@Z 00520b80 f i 3DMeterCtrl.obj
 0001:0011fb80       ??_EC3DMeterCtrl@@UAEPAXI@Z 00520b80 f i 3DMeterCtrl.obj
 0001:0011fbc0       ??_H@YGXPAXIHP6EX0@Z@Z     00520bc0 f i 3DMeterCtrl.obj
 0001:0011fbf0       ??0CMemDC1@@QAE@PAVCDC@@PBVCRect@@_N@Z 00520bf0 f i 3DMeterCtrl.obj
 0001:0011fe40       ??1CMemDC1@@UAE@XZ         00520e40 f i 3DMeterCtrl.obj
 0001:0011ff50       ??_ECMemDC1@@UAEPAXI@Z     00520f50 f i 3DMeterCtrl.obj
 0001:0011ff50       ??_GCMemDC1@@UAEPAXI@Z     00520f50 f i 3DMeterCtrl.obj
 0001:0011ff90       ??0CPen@@QAE@XZ            00520f90 f i 3DMeterCtrl.obj
 0001:0011ffc0       ??_ECPen@@UAEPAXI@Z        00520fc0 f i 3DMeterCtrl.obj
 0001:0011ffc0       ??_GCPen@@UAEPAXI@Z        00520fc0 f i 3DMeterCtrl.obj
 0001:00120000       ??1CPen@@UAE@XZ            00521000 f i 3DMeterCtrl.obj
 0001:00120030       ?CreatePen@CPen@@QAEHHHK@Z 00521030 f i 3DMeterCtrl.obj
 0001:00120070       ?CreateSolidBrush@CBrush@@QAEHK@Z 00521070 f i 3DMeterCtrl.obj
 0001:001200a0       ?CreateFontA@CFont@@QAEHHHHHHEEEEEEEEPBD@Z 005210a0 f i 3DMeterCtrl.obj
 0001:00120150       ??0CBitmap@@QAE@XZ         00521150 f i 3DMeterCtrl.obj
 0001:00120180       ??_ECBitmap@@UAEPAXI@Z     00521180 f i 3DMeterCtrl.obj
 0001:00120180       ??_GCBitmap@@UAEPAXI@Z     00521180 f i 3DMeterCtrl.obj
 0001:001201c0       ??1CBitmap@@UAE@XZ         005211c0 f i 3DMeterCtrl.obj
 0001:001201f0       ?CreateCompatibleBitmap@CBitmap@@QAEHPAVCDC@@HH@Z 005211f0 f i 3DMeterCtrl.obj
 0001:00120230       ?CreatePolygonRgn@CRgn@@QAEHPAUtagPOINT@@HH@Z 00521230 f i 3DMeterCtrl.obj
 0001:00120270       ?IsPrinting@CDC@@QBEHXZ    00521270 f i 3DMeterCtrl.obj
 0001:00120290       ?CreateCompatibleDC@CDC@@QAEHPAV1@@Z 00521290 f i 3DMeterCtrl.obj
 0001:001202c0       ?SelectObject@CDC@@QAEPAVCBitmap@@PAV2@@Z 005212c0 f i 3DMeterCtrl.obj
 0001:001202f0       ?GetBkColor@CDC@@QBEKXZ    005212f0 f i 3DMeterCtrl.obj
 0001:00120310       ?GetMapMode@CDC@@QBEHXZ    00521310 f i 3DMeterCtrl.obj
 0001:00120330       ?DPtoLP@CDC@@QBEXPAUtagRECT@@@Z 00521330 f i 3DMeterCtrl.obj
 0001:00120360       ?LPtoDP@CDC@@QBEXPAUtagRECT@@@Z 00521360 f i 3DMeterCtrl.obj
 0001:00120390       ?PtVisible@CDC@@UBEHHH@Z   00521390 f i 3DMeterCtrl.obj
 0001:001203c0       ?RectVisible@CDC@@UBEHPBUtagRECT@@@Z 005213c0 f i 3DMeterCtrl.obj
 0001:001203f0       ?Polygon@CDC@@QAEHPAUtagPOINT@@H@Z 005213f0 f i 3DMeterCtrl.obj
 0001:00120420       ?BitBlt@CDC@@QAEHHHHHPAV1@HHK@Z 00521420 f i 3DMeterCtrl.obj
 0001:00120470       ?TextOutA@CDC@@UAEHHHPBDH@Z 00521470 f i 3DMeterCtrl.obj
 0001:001204b0       ?TextOutA@CDC@@QAEHHHABVCString@@@Z 005214b0 f i 3DMeterCtrl.obj
 0001:001204f0       ?ExtTextOutA@CDC@@UAEHHHIPBUtagRECT@@PBDIPAH@Z 005214f0 f i 3DMeterCtrl.obj
 0001:00120540       ?TabbedTextOutA@CDC@@UAE?AVCSize@@HHPBDHHPAHH@Z 00521540 f i 3DMeterCtrl.obj
 0001:001205a0       ??0CSize@@QAE@K@Z          005215a0 f i 3DMeterCtrl.obj
 0001:001205e0       ?DrawTextA@CDC@@UAEHPBDHPAUtagRECT@@I@Z 005215e0 f i 3DMeterCtrl.obj
 0001:00120620       ?GrayStringA@CDC@@UAEHPAVCBrush@@P6GHPAUHDC__@@JH@ZJHHHHH@Z 00521620 f i 3DMeterCtrl.obj
 0001:00120670       ?GetTextMetricsA@CDC@@QBEHPAUtagTEXTMETRICA@@@Z 00521670 f i 3DMeterCtrl.obj
 0001:001206a0       ?Escape@CDC@@UAEHHHPBDPAX@Z 005216a0 f i 3DMeterCtrl.obj
 0001:001206e0       ??0COsys3DMeterCtrl@@QAE@PAVCOsysFrame@@PAVCOsysObjet@@H@Z 005216e0 f   Osys3DMeterCtrl.obj
 0001:0012094b       ??1COsys3DMeterCtrl@@UAE@XZ 0052194b f   Osys3DMeterCtrl.obj
 0001:001209d3       ?LitArchiveEx@COsys3DMeterCtrl@@UAEXPBDAAVCInputArchive@@@Z 005219d3 f   Osys3DMeterCtrl.obj
 0001:00120cbb       ?EcritArchiveEx@COsys3DMeterCtrl@@UAEXAAVCOutputArchive@@@Z 00521cbb f   Osys3DMeterCtrl.obj
 0001:00120df0       ?Draw@COsys3DMeterCtrl@@UAEXPAVCDC@@@Z 00521df0 f   Osys3DMeterCtrl.obj
 0001:00120dfd       ?LitTailleDefaut@COsys3DMeterCtrl@@UAEXAAVCRect@@@Z 00521dfd f   Osys3DMeterCtrl.obj
 0001:00120e67       ?OnChangePositionTaille@COsys3DMeterCtrl@@UAEXXZ 00521e67 f   Osys3DMeterCtrl.obj
 0001:00120f20       ?OnChangeZoom@COsys3DMeterCtrl@@UAEXXZ 00521f20 f   Osys3DMeterCtrl.obj
 0001:00120fe1       ?OnChangeUnite@COsys3DMeterCtrl@@UAEXXZ 00521fe1 f   Osys3DMeterCtrl.obj
 0001:001210a2       ?InitialiseFenetreProprieteEx@COsys3DMeterCtrl@@UAEXXZ 005220a2 f   Osys3DMeterCtrl.obj
 0001:0012198c       ?InitMemoireValeurEx@COsys3DMeterCtrl@@QAEXPBD@Z 0052298c f   Osys3DMeterCtrl.obj
 0001:00121e50       ?LitTypeObjet@COsys3DMeterCtrl@@UAEPBDXZ 00522e50 f i Osys3DMeterCtrl.obj
 0001:00121e70       ?LitNomDefaut@COsys3DMeterCtrl@@UAEPBDXZ 00522e70 f i Osys3DMeterCtrl.obj
 0001:00121e90       ??_GCOsys3DMeterCtrl@@UAEPAXI@Z 00522e90 f i Osys3DMeterCtrl.obj
 0001:00121e90       ??_ECOsys3DMeterCtrl@@UAEPAXI@Z 00522e90 f i Osys3DMeterCtrl.obj
 0001:00121ed0       ??0COsysChaineMulti@@QAE@PAVCOsysFrame@@PAVCOsysObjet@@H@Z 00522ed0 f   OsysChaineMulti.obj
 0001:00121ffc       ??1COsysChaineMulti@@UAE@XZ 00522ffc f   OsysChaineMulti.obj
 0001:0012206e       ?LitArchiveEx@COsysChaineMulti@@UAEXPBDAAVCInputArchive@@@Z 0052306e f   OsysChaineMulti.obj
 0001:0012217b       ?EcritArchiveEx@COsysChaineMulti@@UAEXAAVCOutputArchive@@@Z 0052317b f   OsysChaineMulti.obj
 0001:00122244       ?Draw@COsysChaineMulti@@UAEXPAVCDC@@@Z 00523244 f   OsysChaineMulti.obj
 0001:0012250d       ?LitTailleDefaut@COsysChaineMulti@@UAEXAAVCRect@@@Z 0052350d f   OsysChaineMulti.obj
 0001:00122577       ?InitialiseFenetreProprieteEx@COsysChaineMulti@@UAEXXZ 00523577 f   OsysChaineMulti.obj
 0001:00122a35       ?OnModifMemoireEx@COsysChaineMulti@@QAEXPBDPAVCMemoireRecu@@@Z 00523a35 f   OsysChaineMulti.obj
 0001:00122a42       ?LitValMemoire@COsysChaineMulti@@QAEHPAVCMemoireRecu@@AAVCString@@@Z 00523a42 f   OsysChaineMulti.obj
 0001:00122a5b       ?InitMemoireValeurEx@COsysChaineMulti@@QAEXPBD@Z 00523a5b f   OsysChaineMulti.obj
 0001:00122d50       ?LitTypeObjet@COsysChaineMulti@@UAEPBDXZ 00523d50 f i OsysChaineMulti.obj
 0001:00122d70       ?LitNomDefaut@COsysChaineMulti@@UAEPBDXZ 00523d70 f i OsysChaineMulti.obj
 0001:00122d90       ??_GCOsysChaineMulti@@UAEPAXI@Z 00523d90 f i OsysChaineMulti.obj
 0001:00122d90       ??_ECOsysChaineMulti@@UAEPAXI@Z 00523d90 f i OsysChaineMulti.obj
 0001:00122dd0       ??0COsysChaineSimple@@QAE@PAVCOsysFrame@@PAVCOsysObjet@@H@Z 00523dd0 f   OsysChaineSimple.obj
 0001:00122f06       ??1COsysChaineSimple@@UAE@XZ 00523f06 f   OsysChaineSimple.obj
 0001:00122f78       ?LitArchiveEx@COsysChaineSimple@@UAEXPBDAAVCInputArchive@@@Z 00523f78 f   OsysChaineSimple.obj
 0001:001230ab       ?EcritArchiveEx@COsysChaineSimple@@UAEXAAVCOutputArchive@@@Z 005240ab f   OsysChaineSimple.obj
 0001:00123190       ?Draw@COsysChaineSimple@@UAEXPAVCDC@@@Z 00524190 f   OsysChaineSimple.obj
 0001:0012347a       ?LitTailleDefaut@COsysChaineSimple@@UAEXAAVCRect@@@Z 0052447a f   OsysChaineSimple.obj
 0001:001234e4       ?InitialiseFenetreProprieteEx@COsysChaineSimple@@UAEXXZ 005244e4 f   OsysChaineSimple.obj
 0001:00123a6b       ?InitMemoireValeurEx@COsysChaineSimple@@QAEXPBD@Z 00524a6b f   OsysChaineSimple.obj
 0001:00123db0       ?LitTypeObjet@COsysChaineSimple@@UAEPBDXZ 00524db0 f i OsysChaineSimple.obj
 0001:00123dd0       ?LitNomDefaut@COsysChaineSimple@@UAEPBDXZ 00524dd0 f i OsysChaineSimple.obj
 0001:00123df0       ??_ECOsysChaineSimple@@UAEPAXI@Z 00524df0 f i OsysChaineSimple.obj
 0001:00123df0       ??_GCOsysChaineSimple@@UAEPAXI@Z 00524df0 f i OsysChaineSimple.obj
 0001:00123e30       ??0COsysCirc@@QAE@PAVCOsysFrame@@PAVCOsysObjet@@H@Z 00524e30 f   OsysCirc.obj
 0001:00123f0f       ??1COsysCirc@@UAE@XZ       00524f0f f   OsysCirc.obj
 0001:00123f2b       ?LitArchiveEx@COsysCirc@@UAEXPBDAAVCInputArchive@@@Z 00524f2b f   OsysCirc.obj
 0001:00123ff3       ?EcritArchiveEx@COsysCirc@@UAEXAAVCOutputArchive@@@Z 00524ff3 f   OsysCirc.obj
 0001:00124054       ?Draw@COsysCirc@@UAEXPAVCDC@@@Z 00525054 f   OsysCirc.obj
 0001:0012434d       ?LitTailleDefaut@COsysCirc@@UAEXAAVCRect@@@Z 0052534d f   OsysCirc.obj
 0001:001243b7       ?DessineEllipse@COsysCirc@@QAEXPAVCDC@@VCPoint@@1@Z 005253b7 f   OsysCirc.obj
 0001:001244d0       ?InitialiseFenetreProprieteEx@COsysCirc@@UAEXXZ 005254d0 f   OsysCirc.obj
 0001:00124827       ?InitMemoireValeurEx@COsysCirc@@QAEXPBD@Z 00525827 f   OsysCirc.obj
 0001:00124ac0       ?LitTypeObjet@COsysCirc@@UAEPBDXZ 00525ac0 f i OsysCirc.obj
 0001:00124ae0       ?LitNomDefaut@COsysCirc@@UAEPBDXZ 00525ae0 f i OsysCirc.obj
 0001:00124b00       ??_ECOsysCirc@@UAEPAXI@Z   00525b00 f i OsysCirc.obj
 0001:00124b00       ??_GCOsysCirc@@UAEPAXI@Z   00525b00 f i OsysCirc.obj
 0001:00124b40       ??0CRect@@QAE@UtagPOINT@@0@Z 00525b40 f i OsysCirc.obj
 0001:00124b80       ?Arc@CDC@@QAEHPBUtagRECT@@UtagPOINT@@1@Z 00525b80 f i OsysCirc.obj
 0001:00124be0       ??0COsysCircPlein@@QAE@PAVCOsysFrame@@PAVCOsysObjet@@H@Z 00525be0 f   OsysCircPlein.obj
 0001:00124cc9       ??1COsysCircPlein@@UAE@XZ  00525cc9 f   OsysCircPlein.obj
 0001:00124ce5       ?LitArchiveEx@COsysCircPlein@@UAEXPBDAAVCInputArchive@@@Z 00525ce5 f   OsysCircPlein.obj
 0001:00124dda       ?EcritArchiveEx@COsysCircPlein@@UAEXAAVCOutputArchive@@@Z 00525dda f   OsysCircPlein.obj
 0001:00124e57       ?Draw@COsysCircPlein@@UAEXPAVCDC@@@Z 00525e57 f   OsysCircPlein.obj
 0001:00124ec8       ?LitTailleDefaut@COsysCircPlein@@UAEXAAVCRect@@@Z 00525ec8 f   OsysCircPlein.obj
 0001:00124f32       ?DessineEllipsePlein@COsysCircPlein@@QAEXPAVCDC@@VCPoint@@1@Z 00525f32 f   OsysCircPlein.obj
 0001:00125294       ?InitialiseFenetreProprieteEx@COsysCircPlein@@UAEXXZ 00526294 f   OsysCircPlein.obj
 0001:001256b4       ?InitMemoireValeurEx@COsysCircPlein@@QAEXPBD@Z 005266b4 f   OsysCircPlein.obj
 0001:00125980       ?LitTypeObjet@COsysCircPlein@@UAEPBDXZ 00526980 f i OsysCircPlein.obj
 0001:001259a0       ?LitNomDefaut@COsysCircPlein@@UAEPBDXZ 005269a0 f i OsysCircPlein.obj
 0001:001259c0       ??_GCOsysCircPlein@@UAEPAXI@Z 005269c0 f i OsysCircPlein.obj
 0001:001259c0       ??_ECOsysCircPlein@@UAEPAXI@Z 005269c0 f i OsysCircPlein.obj
 0001:00125a00       ?Ellipse@CDC@@QAEHPBUtagRECT@@@Z 00526a00 f i OsysCircPlein.obj
 0001:00125a50       ??0COsysLine@@QAE@PAVCOsysFrame@@PAVCOsysObjet@@H@Z 00526a50 f   OsysLine.obj
 0001:00125b2f       ??1COsysLine@@UAE@XZ       00526b2f f   OsysLine.obj
 0001:00125b4b       ?LitArchiveEx@COsysLine@@UAEXPBDAAVCInputArchive@@@Z 00526b4b f   OsysLine.obj
 0001:00125c13       ?EcritArchiveEx@COsysLine@@UAEXAAVCOutputArchive@@@Z 00526c13 f   OsysLine.obj
 0001:00125c74       ?Draw@COsysLine@@UAEXPAVCDC@@@Z 00526c74 f   OsysLine.obj
 0001:00125f23       ?LitTailleDefaut@COsysLine@@UAEXAAVCRect@@@Z 00526f23 f   OsysLine.obj
 0001:00125f8d       ?InitialiseFenetreProprieteEx@COsysLine@@UAEXXZ 00526f8d f   OsysLine.obj
 0001:001262e4       ?InitMemoireValeurEx@COsysLine@@QAEXPBD@Z 005272e4 f   OsysLine.obj
 0001:00126520       ?LitTypeObjet@COsysLine@@UAEPBDXZ 00527520 f i OsysLine.obj
 0001:00126540       ?LitNomDefaut@COsysLine@@UAEPBDXZ 00527540 f i OsysLine.obj
 0001:00126560       ??_GCOsysLine@@UAEPAXI@Z   00527560 f i OsysLine.obj
 0001:00126560       ??_ECOsysLine@@UAEPAXI@Z   00527560 f i OsysLine.obj
 0001:001265a0       ??0COsysRect@@QAE@PAVCOsysFrame@@PAVCOsysObjet@@H@Z 005275a0 f   OsysRect.obj
 0001:0012667f       ??1COsysRect@@UAE@XZ       0052767f f   OsysRect.obj
 0001:0012669b       ?LitArchiveEx@COsysRect@@UAEXPBDAAVCInputArchive@@@Z 0052769b f   OsysRect.obj
 0001:00126763       ?EcritArchiveEx@COsysRect@@UAEXAAVCOutputArchive@@@Z 00527763 f   OsysRect.obj
 0001:001267c4       ?Draw@COsysRect@@UAEXPAVCDC@@@Z 005277c4 f   OsysRect.obj
 0001:00126abd       ?LitTailleDefaut@COsysRect@@UAEXAAVCRect@@@Z 00527abd f   OsysRect.obj
 0001:00126b27       ?DessineRectangle@COsysRect@@QAEXPAVCDC@@VCPoint@@1@Z 00527b27 f   OsysRect.obj
 0001:00126cc2       ?InitialiseFenetreProprieteEx@COsysRect@@UAEXXZ 00527cc2 f   OsysRect.obj
 0001:00127019       ?InitMemoireValeurEx@COsysRect@@QAEXPBD@Z 00528019 f   OsysRect.obj
 0001:001272d0       ?LitTypeObjet@COsysRect@@UAEPBDXZ 005282d0 f i OsysRect.obj
 0001:001272f0       ?LitNomDefaut@COsysRect@@UAEPBDXZ 005282f0 f i OsysRect.obj
 0001:00127310       ??_GCOsysRect@@UAEPAXI@Z   00528310 f i OsysRect.obj
 0001:00127310       ??_ECOsysRect@@UAEPAXI@Z   00528310 f i OsysRect.obj
 0001:00127350       ??0COsysRectPlein@@QAE@PAVCOsysFrame@@PAVCOsysObjet@@H@Z 00528350 f   OsysRectPlein.obj
 0001:00127439       ??1COsysRectPlein@@UAE@XZ  00528439 f   OsysRectPlein.obj
 0001:00127455       ?LitArchiveEx@COsysRectPlein@@UAEXPBDAAVCInputArchive@@@Z 00528455 f   OsysRectPlein.obj
 0001:0012754a       ?EcritArchiveEx@COsysRectPlein@@UAEXAAVCOutputArchive@@@Z 0052854a f   OsysRectPlein.obj
 0001:001275c7       ?Draw@COsysRectPlein@@UAEXPAVCDC@@@Z 005285c7 f   OsysRectPlein.obj
 0001:00127638       ?LitTailleDefaut@COsysRectPlein@@UAEXAAVCRect@@@Z 00528638 f   OsysRectPlein.obj
 0001:001276a2       ?DessineRectanglePlein@COsysRectPlein@@QAEXPAVCDC@@VCPoint@@1@Z 005286a2 f   OsysRectPlein.obj
 0001:00127bd1       ?InitialiseFenetreProprieteEx@COsysRectPlein@@UAEXXZ 00528bd1 f   OsysRectPlein.obj
 0001:00127ff1       ?InitMemoireValeurEx@COsysRectPlein@@QAEXPBD@Z 00528ff1 f   OsysRectPlein.obj
 0001:00128330       ?LitTypeObjet@COsysRectPlein@@UAEPBDXZ 00529330 f i OsysRectPlein.obj
 0001:00128350       ?LitNomDefaut@COsysRectPlein@@UAEPBDXZ 00529350 f i OsysRectPlein.obj
 0001:00128370       ??_GCOsysRectPlein@@UAEPAXI@Z 00529370 f i OsysRectPlein.obj
 0001:00128370       ??_ECOsysRectPlein@@UAEPAXI@Z 00529370 f i OsysRectPlein.obj
 0001:001283b0       ??0CComboBoxObjet@@QAE@XZ  005293b0 f   comboboxobjet.obj
 0001:001283cf       ??1CComboBoxObjet@@UAE@XZ  005293cf f   comboboxobjet.obj
 0001:001283eb       ?_GetBaseMessageMap@CComboBoxObjet@@KGPBUAFX_MSGMAP@@XZ 005293eb f   comboboxobjet.obj
 0001:001283f5       ?GetMessageMap@CComboBoxObjet@@MBEPBUAFX_MSGMAP@@XZ 005293f5 f   comboboxobjet.obj
 0001:00128405       ?OnSelchange@CComboBoxObjet@@IAEXXZ 00529405 f   comboboxobjet.obj
 0001:001284f1       ?OnCloseup@CComboBoxObjet@@IAEXXZ 005294f1 f   comboboxobjet.obj
 0001:001285d0       ??_ECComboBoxObjet@@UAEPAXI@Z 005295d0 f i comboboxobjet.obj
 0001:001285d0       ??_GCComboBoxObjet@@UAEPAXI@Z 005295d0 f i comboboxobjet.obj
 0001:00128610       ?GetItemDataPtr@CComboBox@@QBEPAXH@Z 00529610 f i comboboxobjet.obj
 0001:00128630       ?GetItemData@CComboBox@@QBEKH@Z 00529630 f i comboboxobjet.obj
 0001:00128660       ??0CDActionBouton@@QAE@PBDPAVCWnd@@@Z 00529660 f   dactionbouton.obj
 0001:0012873c       ?DoDataExchange@CDActionBouton@@MAEXPAVCDataExchange@@@Z 0052973c f   dactionbouton.obj
 0001:001287b1       ?_GetBaseMessageMap@CDActionBouton@@KGPBUAFX_MSGMAP@@XZ 005297b1 f   dactionbouton.obj
 0001:001287bb       ?GetMessageMap@CDActionBouton@@MBEPBUAFX_MSGMAP@@XZ 005297bb f   dactionbouton.obj
 0001:001287cb       ?OnInitDialog@CDActionBouton@@MAEHXZ 005297cb f   dactionbouton.obj
 0001:0012899b       ?DecodeChaineArchive@CDActionBouton@@QAEHAAHAAW4typeElement@CSaisieNomElement@@AAVCString@@2@Z 0052999b f   dactionbouton.obj
 0001:00128bed       ?EncodeChaineArchive@CDActionBouton@@QAEHXZ 00529bed f   dactionbouton.obj
 0001:00128dc7       ?OnAction@CDActionBouton@@IAEXXZ 00529dc7 f   dactionbouton.obj
 0001:00128eb3       ?OnOK@CDActionBouton@@MAEXXZ 00529eb3 f   dactionbouton.obj
 0001:00128f62       ?OnAction1@CDActionBouton@@IAEXXZ 00529f62 f   dactionbouton.obj
 0001:00129340       ??_GCDActionBouton@@UAEPAXI@Z 0052a340 f i dactionbouton.obj
 0001:00129340       ??_ECDActionBouton@@UAEPAXI@Z 0052a340 f i dactionbouton.obj
 0001:00129380       ??1CDActionBouton@@UAE@XZ  0052a380 f i dactionbouton.obj
 0001:00129420       ?LitNomElement@CSaisieNomElement@@QAEAAVCString@@XZ 0052a420 f i dactionbouton.obj
 0001:00129440       ??0CDActionClavier@@QAE@PAVCListActTf@@PAVCWnd@@@Z 0052a440 f   dactionclavier.obj
 0001:001294ae       ?DoDataExchange@CDActionClavier@@MAEXPAVCDataExchange@@@Z 0052a4ae f   dactionclavier.obj
 0001:001294c7       ?_GetBaseMessageMap@CDActionClavier@@KGPBUAFX_MSGMAP@@XZ 0052a4c7 f   dactionclavier.obj
 0001:001294d1       ?GetMessageMap@CDActionClavier@@MBEPBUAFX_MSGMAP@@XZ 0052a4d1 f   dactionclavier.obj
 0001:001294e1       ?OnInitDialog@CDActionClavier@@MAEHXZ 0052a4e1 f   dactionclavier.obj
 0001:00129566       ?OnOK@CDActionClavier@@MAEXXZ 0052a566 f   dactionclavier.obj
 0001:0012961f       ?OnCancel@CDActionClavier@@MAEXXZ 0052a61f f   dactionclavier.obj
 0001:001296c0       ??_ECDActionClavier@@UAEPAXI@Z 0052a6c0 f i dactionclavier.obj
 0001:001296c0       ??_GCDActionClavier@@UAEPAXI@Z 0052a6c0 f i dactionclavier.obj
 0001:00129700       ??1CDActionClavier@@UAE@XZ 0052a700 f i dactionclavier.obj
 0001:00129760       ??0CDactionScenario@@QAE@PBDHPAVCWnd@@@Z 0052a760 f   dactionscenario.obj
 0001:00129812       ?DoDataExchange@CDactionScenario@@MAEXPAVCDataExchange@@@Z 0052a812 f   dactionscenario.obj
 0001:00129857       ?_GetBaseMessageMap@CDactionScenario@@KGPBUAFX_MSGMAP@@XZ 0052a857 f   dactionscenario.obj
 0001:00129861       ?GetMessageMap@CDactionScenario@@MBEPBUAFX_MSGMAP@@XZ 0052a861 f   dactionscenario.obj
 0001:00129871       ?OnInitDialog@CDactionScenario@@MAEHXZ 0052a871 f   dactionscenario.obj
 0001:00129943       ?DecodeChaineArchive@CDactionScenario@@QAEHAAHAAVCString@@1@Z 0052a943 f   dactionscenario.obj
 0001:00129a9a       ?OnOK@CDactionScenario@@MAEXXZ 0052aa9a f   dactionscenario.obj
 0001:00129b30       ?EncodeChaineArchive@CDactionScenario@@QAEHXZ 0052ab30 f   dactionscenario.obj
 0001:00129db0       ??_ECDactionScenario@@UAEPAXI@Z 0052adb0 f i dactionscenario.obj
 0001:00129db0       ??_GCDactionScenario@@UAEPAXI@Z 0052adb0 f i dactionscenario.obj
 0001:00129df0       ??1CDactionScenario@@UAE@XZ 0052adf0 f i dactionscenario.obj
 0001:00129e80       ??0CEditMultiLignes@@QAE@PAVCWnd@@@Z 0052ae80 f   editmultilignes.obj
 0001:00129f1d       ?DoDataExchange@CEditMultiLignes@@MAEXPAVCDataExchange@@@Z 0052af1d f   editmultilignes.obj
 0001:00129f62       ?_GetBaseMessageMap@CEditMultiLignes@@KGPBUAFX_MSGMAP@@XZ 0052af62 f   editmultilignes.obj
 0001:00129f6c       ?GetMessageMap@CEditMultiLignes@@MBEPBUAFX_MSGMAP@@XZ 0052af6c f   editmultilignes.obj
 0001:00129f7c       ?EcritChaine@CEditMultiLignes@@QAEXPBD@Z 0052af7c f   editmultilignes.obj
 0001:0012a012       ?LitChaine@CEditMultiLignes@@QAE?AVCString@@XZ 0052b012 f   editmultilignes.obj
 0001:0012a09f       ?OnInitDialog@CEditMultiLignes@@MAEHXZ 0052b09f f   editmultilignes.obj
 0001:0012a180       ??_ECEditMultiLignes@@UAEPAXI@Z 0052b180 f i editmultilignes.obj
 0001:0012a180       ??_GCEditMultiLignes@@UAEPAXI@Z 0052b180 f i editmultilignes.obj
 0001:0012a1c0       ?CreateObject@CGridCtrl@@SGPAVCObject@@XZ 0052b1c0 f   GridCtrl.obj
 0001:0012a22f       ?_GetBaseClass@CGridCtrl@@KGPAUCRuntimeClass@@XZ 0052b22f f   GridCtrl.obj
 0001:0012a239       ?GetRuntimeClass@CGridCtrl@@UBEPAUCRuntimeClass@@XZ 0052b239 f   GridCtrl.obj
 0001:0012a249       ?DDX_GridControl@@YGXPAVCDataExchange@@HAAVCGridCtrl@@@Z 0052b249 f   GridCtrl.obj
 0001:0012a2b6       ?GetMouseScrollLines@@YAIXZ 0052b2b6 f   GridCtrl.obj
 0001:0012a33e       ??0CGridCtrl@@QAE@HHHH@Z   0052b33e f   GridCtrl.obj
 0001:0012a8a2       ??1CGridCtrl@@UAE@XZ       0052b8a2 f   GridCtrl.obj
 0001:0012a9bd       ?RegisterWindowClass@CGridCtrl@@IAEHXZ 0052b9bd f   GridCtrl.obj
 0001:0012aa57       ?Create@CGridCtrl@@QAEHABUtagRECT@@PAVCWnd@@IK@Z 0052ba57 f   GridCtrl.obj
 0001:0012abf7       ?PreSubclassWindow@CGridCtrl@@MAEXXZ 0052bbf7 f   GridCtrl.obj
 0001:0012ac3e       ?SubclassWindow@CGridCtrl@@QAEHPAUHWND__@@@Z 0052bc3e f   GridCtrl.obj
 0001:0012acb2       ?SendMessageToParent@CGridCtrl@@IAEJHHH@Z 0052bcb2 f   GridCtrl.obj
 0001:0012ad34       ?_GetBaseMessageMap@CGridCtrl@@KGPBUAFX_MSGMAP@@XZ 0052bd34 f   GridCtrl.obj
 0001:0012ad3e       ?GetMessageMap@CGridCtrl@@MBEPBUAFX_MSGMAP@@XZ 0052bd3e f   GridCtrl.obj
 0001:0012ad4e       ?OnPaint@CGridCtrl@@IAEXXZ 0052bd4e f   GridCtrl.obj
 0001:0012ae0b       ?OnEraseBkgnd@CGridCtrl@@IAEHPAVCDC@@@Z 0052be0b f   GridCtrl.obj
 0001:0012ae1d       ?EraseBkgnd@CGridCtrl@@IAEXPAVCDC@@@Z 0052be1d f   GridCtrl.obj
 0001:0012b0db       ?OnSize@CGridCtrl@@IAEXIHH@Z 0052c0db f   GridCtrl.obj
 0001:0012b13e       ?OnGetDlgCode@CGridCtrl@@IAEIXZ 0052c13e f   GridCtrl.obj
 0001:0012b17f       ?OnSysColorChange@CGridCtrl@@IAEXXZ 0052c17f f   GridCtrl.obj
 0001:0012b26f       ?OnCaptureChanged@CGridCtrl@@IAEXPAVCWnd@@@Z 0052c26f f   GridCtrl.obj
 0001:0012b2da       ?OnSettingChange@CGridCtrl@@IAEXIPBD@Z 0052c2da f   GridCtrl.obj
 0001:0012b3e2       ?OnTimer@CGridCtrl@@IAEXI@Z 0052c3e2 f   GridCtrl.obj
 0001:0012b5e7       ?OnKeyDown@CGridCtrl@@IAEXIII@Z 0052c5e7 f   GridCtrl.obj
 0001:0012bcfd       ?OnChar@CGridCtrl@@IAEXIII@Z 0052ccfd f   GridCtrl.obj
 0001:0012bd82       ?OnEndInPlaceEdit@CGridCtrl@@IAEXPAUtagNMHDR@@PAJ@Z 0052cd82 f   GridCtrl.obj
 0001:0012be61       ?OnHScroll@CGridCtrl@@IAEXIIPAVCScrollBar@@@Z 0052ce61 f   GridCtrl.obj
 0001:0012c1eb       ?OnVScroll@CGridCtrl@@IAEXIIPAVCScrollBar@@@Z 0052d1eb f   GridCtrl.obj
 0001:0012c578       ?OnDraw@CGridCtrl@@MAEXPAVCDC@@@Z 0052d578 f   GridCtrl.obj
 0001:0012cc07       ?IsValid@CGridCtrl@@QBEHHH@Z 0052dc07 f   GridCtrl.obj
 0001:0012cc51       ?IsValid@CGridCtrl@@QBEHABVCCellID@@@Z 0052dc51 f   GridCtrl.obj
 0001:0012cc73       ?IsValid@CGridCtrl@@QBEHABVCCellRange@@@Z 0052dc73 f   GridCtrl.obj
 0001:0012cd19       ?SetRedraw@CGridCtrl@@QAEXHH@Z 0052dd19 f   GridCtrl.obj
 0001:0012cda7       ?RedrawCell@CGridCtrl@@QAEHABVCCellID@@PAVCDC@@@Z 0052dda7 f   GridCtrl.obj
 0001:0012cdcd       ?RedrawCell@CGridCtrl@@QAEHHHPAVCDC@@@Z 0052ddcd f   GridCtrl.obj
 0001:0012d028       ?RedrawRow@CGridCtrl@@QAEHH@Z 0052e028 f   GridCtrl.obj
 0001:0012d0b3       ?RedrawColumn@CGridCtrl@@QAEHH@Z 0052e0b3 f   GridCtrl.obj
 0001:0012d13e       ?SetFocusCell@CGridCtrl@@IAE?AVCCellID@@HH@Z 0052e13e f   GridCtrl.obj
 0001:0012d180       ?SetFocusCell@CGridCtrl@@IAE?AVCCellID@@V2@@Z 0052e180 f   GridCtrl.obj
 0001:0012d3ee       ?SetSelectedRange@CGridCtrl@@QAEXABVCCellRange@@H@Z 0052e3ee f   GridCtrl.obj
 0001:0012d42b       ?SetSelectedRange@CGridCtrl@@QAEXHHHHH@Z 0052e42b f   GridCtrl.obj
 0001:0012d719       ?SelectAllCells@CGridCtrl@@IAEXXZ 0052e719 f   GridCtrl.obj
 0001:0012d768       ?SelectColumns@CGridCtrl@@IAEXVCCellID@@@Z 0052e768 f   GridCtrl.obj
 0001:0012d815       ?SelectRows@CGridCtrl@@IAEXVCCellID@@@Z 0052e815 f   GridCtrl.obj
 0001:0012d909       ?SelectCells@CGridCtrl@@IAEXVCCellID@@@Z 0052e909 f   GridCtrl.obj
 0001:0012da0d       ?OnSelecting@CGridCtrl@@IAEXABVCCellID@@@Z 0052ea0d f   GridCtrl.obj
 0001:0012daa3       ?CutSelectedText@CGridCtrl@@UAEXXZ 0052eaa3 f   GridCtrl.obj
 0001:0012db8c       ?CopyTextFromGrid@CGridCtrl@@UAEPAVCOleDataSource@@XZ 0052eb8c f   GridCtrl.obj
 0001:0012de76       ?PasteTextToGrid@CGridCtrl@@UAEHVCCellID@@PAVCOleDataObject@@@Z 0052ee76 f   GridCtrl.obj
 0001:0012e2dc       ?OnBeginDrag@CGridCtrl@@UAEXXZ 0052f2dc f   GridCtrl.obj
 0001:0012e3b8       ?OnDragOver@CGridCtrl@@UAEKPAVCOleDataObject@@KVCPoint@@@Z 0052f3b8 f   GridCtrl.obj
 0001:0012e58b       ?OnDragEnter@CGridCtrl@@UAEKPAVCOleDataObject@@KVCPoint@@@Z 0052f58b f   GridCtrl.obj
 0001:0012e69f       ?OnDragLeave@CGridCtrl@@UAEXXZ 0052f69f f   GridCtrl.obj
 0001:0012e717       ?OnDrop@CGridCtrl@@UAEHPAVCOleDataObject@@KVCPoint@@@Z 0052f717 f   GridCtrl.obj
 0001:0012e78f       ?OnEditCut@CGridCtrl@@UAEXXZ 0052f78f f   GridCtrl.obj
 0001:0012e7d9       ?OnEditCopy@CGridCtrl@@UAEXXZ 0052f7d9 f   GridCtrl.obj
 0001:0012e807       ?OnEditPaste@CGridCtrl@@UAEXXZ 0052f807 f   GridCtrl.obj
 0001:0012e8d8       ?OnEditSelectAll@CGridCtrl@@UAEXXZ 0052f8d8 f   GridCtrl.obj
 0001:0012e8eb       ?OnUpdateEditCopy@CGridCtrl@@IAEXPAVCCmdUI@@@Z 0052f8eb f   GridCtrl.obj
 0001:0012e957       ?OnUpdateEditCut@CGridCtrl@@IAEXPAVCCmdUI@@@Z 0052f957 f   GridCtrl.obj
 0001:0012e9cf       ?OnUpdateEditPaste@CGridCtrl@@IAEXPAVCCmdUI@@@Z 0052f9cf f   GridCtrl.obj
 0001:0012ea45       ?OnUpdateEditSelectAll@CGridCtrl@@IAEXPAVCCmdUI@@@Z 0052fa45 f   GridCtrl.obj
 0001:0012ea66       ?MouseOverRowResizeArea@CGridCtrl@@IBEHAAVCPoint@@@Z 0052fa66 f   GridCtrl.obj
 0001:0012eb19       ?MouseOverColumnResizeArea@CGridCtrl@@IBEHAAVCPoint@@@Z 0052fb19 f   GridCtrl.obj
 0001:0012ebcb       ?GetCellFromPt@CGridCtrl@@IBE?AVCCellID@@VCPoint@@H@Z 0052fbcb f   GridCtrl.obj
 0001:0012edee       ?GetTopleftNonFixedCell@CGridCtrl@@IBE?AVCCellID@@XZ 0052fdee f   GridCtrl.obj
 0001:0012eed7       ?GetVisibleNonFixedCellRange@CGridCtrl@@IBE?AVCCellRange@@PAUtagRECT@@@Z 0052fed7 f   GridCtrl.obj
 0001:0012f072       ?GetUnobstructedNonFixedCellRange@CGridCtrl@@IBE?AVCCellRange@@XZ 00530072 f   GridCtrl.obj
 0001:0012f204       ?GetSelectedCellRange@CGridCtrl@@QBE?AVCCellRange@@XZ 00530204 f   GridCtrl.obj
 0001:0012f344       ?GetCellRange@CGridCtrl@@QBE?AVCCellRange@@XZ 00530344 f   GridCtrl.obj
 0001:0012f393       ?ResetSelectedRange@CGridCtrl@@IAEXXZ 00530393 f   GridCtrl.obj
 0001:0012f3c2       ?GetScrollPos32@CGridCtrl@@IAEHHH@Z 005303c2 f   GridCtrl.obj
 0001:0012f418       ?SetScrollPos32@CGridCtrl@@IAEHHHH@Z 00530418 f   GridCtrl.obj
 0001:0012f44f       ?ResetScrollBars@CGridCtrl@@IAEXXZ 0053044f f   GridCtrl.obj
 0001:0012f654       ?GetCellOrigin@CGridCtrl@@QBEHHHPAUtagPOINT@@@Z 00530654 f   GridCtrl.obj
 0001:0012f870       ?GetCellOrigin@CGridCtrl@@QBEHABVCCellID@@PAUtagPOINT@@@Z 00530870 f   GridCtrl.obj
 0001:0012f896       ?GetCellRect@CGridCtrl@@QBEHABVCCellID@@PAUtagRECT@@@Z 00530896 f   GridCtrl.obj
 0001:0012f8bc       ?GetCellRect@CGridCtrl@@QBEHHHPAUtagRECT@@@Z 005308bc f   GridCtrl.obj
 0001:0012f937       ?GetTextRect@CGridCtrl@@QAEHABVCCellID@@PAUtagRECT@@@Z 00530937 f   GridCtrl.obj
 0001:0012f95d       ?GetTextRect@CGridCtrl@@QAEHHHPAUtagRECT@@@Z 0053095d f   GridCtrl.obj
 0001:0012faad       ?GetCellRangeRect@CGridCtrl@@IBEHABVCCellRange@@PAUtagRECT@@@Z 00530aad f   GridCtrl.obj
 0001:0012fb6c       ?OnSetFont@CGridCtrl@@IAEJIJ@Z 00530b6c f   GridCtrl.obj
 0001:0012fd41       ?OnGetFont@CGridCtrl@@IAEJIJ@Z 00530d41 f   GridCtrl.obj
 0001:0012fd5c       ?OnSetCursor@CGridCtrl@@IAEHPAVCWnd@@II@Z 00530d5c f   GridCtrl.obj
 0001:0012fdfa       ?SetFixedRowCount@CGridCtrl@@QAEHH@Z 00530dfa f   GridCtrl.obj
 0001:0012fe7b       ?SetFixedColumnCount@CGridCtrl@@QAEHH@Z 00530e7b f   GridCtrl.obj
 0001:0012fefc       ?SetRowCount@CGridCtrl@@QAEHH@Z 00530efc f   GridCtrl.obj
 0001:00130219       ?SetColumnCount@CGridCtrl@@QAEHH@Z 00531219 f   GridCtrl.obj
 0001:001304b8       ?InsertColumn@CGridCtrl@@QAEHPBDIH@Z 005314b8 f   GridCtrl.obj
 0001:001306d6       ?InsertRow@CGridCtrl@@QAEHPBDH@Z 005316d6 f   GridCtrl.obj
 0001:0013092e       ?CreateCell@CGridCtrl@@MAEPAVCGridCell@@HH@Z 0053192e f   GridCtrl.obj
 0001:001309f5       ?EmptyCell@CGridCtrl@@MAEXPAVCGridCell@@HH@Z 005319f5 f   GridCtrl.obj
 0001:00130a1f       ?DeleteColumn@CGridCtrl@@QAEHH@Z 00531a1f f   GridCtrl.obj
 0001:00130baa       ?DeleteRow@CGridCtrl@@QAEHH@Z 00531baa f   GridCtrl.obj
 0001:00130d5f       ?DeleteNonFixedRows@CGridCtrl@@QAEHXZ 00531d5f f   GridCtrl.obj
 0001:00130dae       ?DeleteAllItems@CGridCtrl@@QAEHXZ 00531dae f   GridCtrl.obj
 0001:00130f37       ?GetNextItem@CGridCtrl@@QBE?AVCCellID@@AAV2@H@Z 00531f37 f   GridCtrl.obj
 0001:00131975       ?SortTextItems@CGridCtrl@@QAEHHH@Z 00532975 f   GridCtrl.obj
 0001:001319b7       ?SortTextItems@CGridCtrl@@IAEHHHHH@Z 005329b7 f   GridCtrl.obj
 0001:00131dcb       ?SortItems@CGridCtrl@@QAEHP6GHJJJ@ZHHJ@Z 00532dcb f   GridCtrl.obj
 0001:00131e15       ?SortItems@CGridCtrl@@IAEHP6GHJJJ@ZHHJHH@Z 00532e15 f   GridCtrl.obj
 0001:001320d6       ?SetItem@CGridCtrl@@QAEHPBU_GV_ITEM@@@Z 005330d6 f   GridCtrl.obj
 0001:00132214       ?GetItem@CGridCtrl@@QAEHPAU_GV_ITEM@@@Z 00533214 f   GridCtrl.obj
 0001:001323ad       ?SetItemText@CGridCtrl@@QAEHHHPBD@Z 005333ad f   GridCtrl.obj
 0001:001323ed       ?SetItemData@CGridCtrl@@QAEHHHJ@Z 005333ed f   GridCtrl.obj
 0001:00132427       ?GetItemData@CGridCtrl@@QBEJHH@Z 00533427 f   GridCtrl.obj
 0001:00132459       ?SetItemImage@CGridCtrl@@QAEHHHH@Z 00533459 f   GridCtrl.obj
 0001:00132493       ?GetItemImage@CGridCtrl@@QBEHHH@Z 00533493 f   GridCtrl.obj
 0001:001324c6       ?SetItemState@CGridCtrl@@QAEHHHI@Z 005334c6 f   GridCtrl.obj
 0001:001325be       ?GetItemState@CGridCtrl@@QBEIHH@Z 005335be f   GridCtrl.obj
 0001:001325f0       ?SetItemFormat@CGridCtrl@@QAEHHHI@Z 005335f0 f   GridCtrl.obj
 0001:0013262a       ?GetItemFormat@CGridCtrl@@QBEIHH@Z 0053362a f   GridCtrl.obj
 0001:0013265c       ?SetItemBkColour@CGridCtrl@@QAEHHHK@Z 0053365c f   GridCtrl.obj
 0001:00132696       ?GetItemBkColour@CGridCtrl@@QBEKHH@Z 00533696 f   GridCtrl.obj
 0001:001326c8       ?SetItemFgColour@CGridCtrl@@QAEHHHK@Z 005336c8 f   GridCtrl.obj
 0001:00132702       ?GetItemFgColour@CGridCtrl@@QBEKHH@Z 00533702 f   GridCtrl.obj
 0001:00132734       ?SetItemFont@CGridCtrl@@QAEHHHPAUtagLOGFONTA@@@Z 00533734 f   GridCtrl.obj
 0001:0013277a       ?GetItemFont@CGridCtrl@@QAEPAUtagLOGFONTA@@HH@Z 0053377a f   GridCtrl.obj
 0001:001327b2       ?GetVirtualWidth@CGridCtrl@@QBEJXZ 005337b2 f   GridCtrl.obj
 0001:0013280a       ?GetVirtualHeight@CGridCtrl@@QBEJXZ 0053380a f   GridCtrl.obj
 0001:00132862       ?GetRowHeight@CGridCtrl@@QBEHH@Z 00533862 f   GridCtrl.obj
 0001:0013289a       ?GetColumnWidth@CGridCtrl@@QBEHH@Z 0053389a f   GridCtrl.obj
 0001:001328d2       ?SetRowHeight@CGridCtrl@@QAEHHH@Z 005338d2 f   GridCtrl.obj
 0001:00132919       ?SetColumnWidth@CGridCtrl@@QAEHHH@Z 00533919 f   GridCtrl.obj
 0001:00132960       ?GetFixedRowHeight@CGridCtrl@@QBEHXZ 00533960 f   GridCtrl.obj
 0001:001329ad       ?GetFixedColumnWidth@CGridCtrl@@QBEHXZ 005339ad f   GridCtrl.obj
 0001:001329fa       ?AutoSizeColumn@CGridCtrl@@QAEHH@Z 005339fa f   GridCtrl.obj
 0001:00132ad9       ?AutoSizeRow@CGridCtrl@@QAEHH@Z 00533ad9 f   GridCtrl.obj
 0001:00132bb8       ?AutoSizeColumns@CGridCtrl@@QAEXXZ 00533bb8 f   GridCtrl.obj
 0001:00132bf8       ?AutoSizeRows@CGridCtrl@@QAEXXZ 00533bf8 f   GridCtrl.obj
 0001:00132c38       ?AutoSize@CGridCtrl@@QAEXXZ 00533c38 f   GridCtrl.obj
 0001:00132de8       ?ExpandColumnsToFit@CGridCtrl@@QAEXXZ 00533de8 f   GridCtrl.obj
 0001:00132f5b       ?ExpandRowsToFit@CGridCtrl@@QAEXXZ 00533f5b f   GridCtrl.obj
 0001:001330ce       ?ExpandToFit@CGridCtrl@@QAEXXZ 005340ce f   GridCtrl.obj
 0001:001330f1       ?IsCellFixed@CGridCtrl@@QAEHHH@Z 005340f1 f   GridCtrl.obj
 0001:0013312d       ?SetModified@CGridCtrl@@QAEXHHH@Z 0053412d f   GridCtrl.obj
 0001:00133219       ?GetModified@CGridCtrl@@QAEHHH@Z 00534219 f   GridCtrl.obj
 0001:00133257       ?EnsureVisible@CGridCtrl@@QAEXHH@Z 00534257 f   GridCtrl.obj
 0001:001333bb       ?IsCellEditable@CGridCtrl@@QBEHAAVCCellID@@@Z 005343bb f   GridCtrl.obj
 0001:001333dd       ?IsCellEditable@CGridCtrl@@QBEHHH@Z 005343dd f   GridCtrl.obj
 0001:00133423       ?IsCellVisible@CGridCtrl@@QBEHVCCellID@@@Z 00534423 f   GridCtrl.obj
 0001:00133440       ?IsCellVisible@CGridCtrl@@QBEHHH@Z 00534440 f   GridCtrl.obj
 0001:0013363c       ?InvalidateCellRect@CGridCtrl@@IAEHABVCCellID@@@Z 0053463c f   GridCtrl.obj
 0001:001336da       ?InvalidateCellRect@CGridCtrl@@IAEHABVCCellRange@@@Z 005346da f   GridCtrl.obj
 0001:00133792       ?OnMouseWheel@CGridCtrl@@IAEHIFVCPoint@@@Z 00534792 f   GridCtrl.obj
 0001:001338b6       ?OnMouseMove@CGridCtrl@@IAEXIVCPoint@@@Z 005348b6 f   GridCtrl.obj
 0001:00133e77       ?OnLButtonDblClk@CGridCtrl@@IAEXIVCPoint@@@Z 00534e77 f   GridCtrl.obj
 0001:00134087       ?OnLButtonDown@CGridCtrl@@IAEXIVCPoint@@@Z 00535087 f   GridCtrl.obj
 0001:00134786       ?OnLButtonUp@CGridCtrl@@IAEXIVCPoint@@@Z 00535786 f   GridCtrl.obj
 0001:00134aa9       ?Print@CGridCtrl@@QAEXXZ   00535aa9 f   GridCtrl.obj
 0001:00134d3b       ?OnBeginPrinting@CGridCtrl@@UAEXPAVCDC@@PAUCPrintInfo@@@Z 00535d3b f   GridCtrl.obj
 0001:00134ff3       ?OnPrint@CGridCtrl@@UAEXPAVCDC@@PAUCPrintInfo@@@Z 00535ff3 f   GridCtrl.obj
 0001:001354d7       ?PrintColumnHeadings@CGridCtrl@@MAEXPAVCDC@@PAUCPrintInfo@@@Z 005364d7 f   GridCtrl.obj
 0001:001356cc       ?PrintHeader@CGridCtrl@@MAEXPAVCDC@@PAUCPrintInfo@@@Z 005366cc f   GridCtrl.obj
 0001:00135854       ?PrintFooter@CGridCtrl@@MAEXPAVCDC@@PAUCPrintInfo@@@Z 00536854 f   GridCtrl.obj
 0001:00135a42       ?OnEndPrinting@CGridCtrl@@UAEXPAVCDC@@PAUCPrintInfo@@@Z 00536a42 f   GridCtrl.obj
 0001:00135a5d       ?Save@CGridCtrl@@QAEHPBD@Z 00536a5d f   GridCtrl.obj
 0001:00135cf2       ?Load@CGridCtrl@@QAEHPBD@Z 00536cf2 f   GridCtrl.obj
 0001:001360a5       ?CreateDragImage@CGridCtrl@@MAEPAVCImageList@@PAVCPoint@@@Z 005370a5 f   GridCtrl.obj
 0001:00136335       ?OnFixedRowClick@CGridCtrl@@MAEXAAVCCellID@@@Z 00537335 f   GridCtrl.obj
 0001:00136467       ?OnFixedColumnClick@CGridCtrl@@MAEXAAVCCellID@@@Z 00537467 f   GridCtrl.obj
 0001:001364c9       ?GetTextExtent@CGridCtrl@@QAE?AVCSize@@PBDH@Z 005374c9 f   GridCtrl.obj
 0001:00136663       ?GetCellExtent@CGridCtrl@@MAE?AVCSize@@HHPAVCDC@@@Z 00537663 f   GridCtrl.obj
 0001:001368b3       ?DrawFixedCell@CGridCtrl@@MAEHPAVCDC@@HHVCRect@@H@Z 005378b3 f   GridCtrl.obj
 0001:00136d55       ?DrawCell@CGridCtrl@@MAEHPAVCDC@@HHVCRect@@H@Z 00537d55 f   GridCtrl.obj
 0001:001371df       ?OnEditCell@CGridCtrl@@MAEXHHI@Z 005381df f   GridCtrl.obj
 0001:00137391       ?CreateInPlaceEditControl@CGridCtrl@@MAEXAAVCRect@@KIHHPBDH@Z 00538391 f   GridCtrl.obj
 0001:0013742b       ?OnEndEditCell@CGridCtrl@@MAEXPAU_GV_ITEM@@@Z 0053842b f   GridCtrl.obj
 0001:0013746a       ?OnEndEditCell@CGridCtrl@@MAEXHHVCString@@@Z 0053846a f   GridCtrl.obj
 0001:00137519       ?GetItemText@CGridCtrl@@UAE?AVCString@@HH@Z 00538519 f   GridCtrl.obj
 0001:0013aac0       ?SetBkColor@CGridCtrl@@QAEXK@Z 0053bac0 f i GridCtrl.obj
 0001:0013aae0       ??_GCGridCtrl@@UAEPAXI@Z   0053bae0 f i GridCtrl.obj
 0001:0013aae0       ??_ECGridCtrl@@UAEPAXI@Z   0053bae0 f i GridCtrl.obj
 0001:0013ab20       ??0?$CTypedPtrArray@VCObArray@@PAV?$CTypedPtrArray@VCObArray@@PAVCGridCell@@@@@@QAE@XZ 0053bb20 f i GridCtrl.obj
 0001:0013ab50       ??1?$CTypedPtrArray@VCObArray@@PAV?$CTypedPtrArray@VCObArray@@PAVCGridCell@@@@@@UAE@XZ 0053bb50 f i GridCtrl.obj
 0001:0013ab70       ??_E?$CTypedPtrArray@VCObArray@@PAV?$CTypedPtrArray@VCObArray@@PAVCGridCell@@@@@@UAEPAXI@Z 0053bb70 f i GridCtrl.obj
 0001:0013ab70       ??_G?$CTypedPtrArray@VCObArray@@PAV?$CTypedPtrArray@VCObArray@@PAVCGridCell@@@@@@UAEPAXI@Z 0053bb70 f i GridCtrl.obj
 0001:0013abb0       ??ACUIntArray@@QAEAAIH@Z   0053bbb0 f i GridCtrl.obj
 0001:0013abd0       ?ElementAt@CUIntArray@@QAEAAIH@Z 0053bbd0 f i GridCtrl.obj
 0001:0013abf0       ??0CMemDC@@QAE@PAVCDC@@@Z  0053bbf0 f i GridCtrl.obj
 0001:0013ad70       ??1CMemDC@@UAE@XZ          0053bd70 f i GridCtrl.obj
 0001:0013ae80       ??_GCMemDC@@UAEPAXI@Z      0053be80 f i GridCtrl.obj
 0001:0013ae80       ??_ECMemDC@@UAEPAXI@Z      0053be80 f i GridCtrl.obj
 0001:0013aec0       ?GetBkColor@CGridCtrl@@QBEKXZ 0053bec0 f i GridCtrl.obj
 0001:0013aee0       ?GetFixedBkColor@CGridCtrl@@QBEKXZ 0053bee0 f i GridCtrl.obj
 0001:0013af00       ?GetFixedTextColor@CGridCtrl@@QBEKXZ 0053bf00 f i GridCtrl.obj
 0001:0013af20       ?EnsureVisible@CGridCtrl@@QAEXAAVCCellID@@@Z 0053bf20 f i GridCtrl.obj
 0001:0013af50       ?AfxGetInstanceHandle@@YGPAUHINSTANCE__@@XZ 0053bf50 f i GridCtrl.obj
 0001:0013af60       ?GetMaxCol@CCellRange@@QBEHXZ 0053bf60 f i GridCtrl.obj
 0001:0013af80       ?IntersectRect@CRect@@QAEHPBUtagRECT@@0@Z 0053bf80 f i GridCtrl.obj
 0001:0013afb0       ?GetSingleRowSelection@CGridCtrl@@QAEHXZ 0053bfb0 f i GridCtrl.obj
 0001:0013afd0       ?GetListMode@CGridCtrl@@QBEHXZ 0053bfd0 f i GridCtrl.obj
 0001:0013aff0       ?GetCell@CGridCtrl@@IBEPAVCGridCell@@HH@Z 0053bff0 f i GridCtrl.obj
 0001:0013b070       ?T2A@@YAPADPAD@Z           0053c070 f i GridCtrl.obj
 0001:0013b080       __tcstok                   0053c080 f i GridCtrl.obj
 0001:0013b0a0       ?GetTopLeft@CCellRange@@QBE?AVCCellID@@XZ 0053c0a0 f i GridCtrl.obj
 0001:0013b0f0       ?GetFocusCell@CGridCtrl@@QBE?AVCCellID@@XZ 0053c0f0 f i GridCtrl.obj
 0001:0013b120       ?Count@CCellRange@@QAEHXZ  0053c120 f i GridCtrl.obj
 0001:0013b160       ??0CCellRange@@QAE@HHHH@Z  0053c160 f i GridCtrl.obj
 0001:0013b1a0       ?Set@CCellRange@@QAEXHHHH@Z 0053c1a0 f i GridCtrl.obj
 0001:0013b1e0       ?SetMinRow@CCellRange@@QAEXH@Z 0053c1e0 f i GridCtrl.obj
 0001:0013b200       ?SetMinCol@CCellRange@@QAEXH@Z 0053c200 f i GridCtrl.obj
 0001:0013b220       ?SetMaxRow@CCellRange@@QAEXH@Z 0053c220 f i GridCtrl.obj
 0001:0013b240       ?SetMaxCol@CCellRange@@QAEXH@Z 0053c240 f i GridCtrl.obj
 0001:0013b260       ??BCFont@@QBEPAUHFONT__@@XZ 0053c260 f i GridCtrl.obj
 0001:0013b2a0       ??0?$CTypedPtrArray@VCObArray@@PAVCGridCell@@@@QAE@XZ 0053c2a0 f i GridCtrl.obj
 0001:0013b2d0       ??_E?$CTypedPtrArray@VCObArray@@PAVCGridCell@@@@UAEPAXI@Z 0053c2d0 f i GridCtrl.obj
 0001:0013b2d0       ??_G?$CTypedPtrArray@VCObArray@@PAVCGridCell@@@@UAEPAXI@Z 0053c2d0 f i GridCtrl.obj
 0001:0013b310       ??1?$CTypedPtrArray@VCObArray@@PAVCGridCell@@@@UAE@XZ 0053c310 f i GridCtrl.obj
 0001:0013b330       ?GetTextExtent@CDC@@QBE?AVCSize@@PBDH@Z 0053c330 f i GridCtrl.obj
 0001:0013b380       ??0CSize@@QAE@UtagSIZE@@@Z 0053c380 f i GridCtrl.obj
 0001:0013b3b0       ??0CGridCell@@QAE@XZ       0053c3b0 f i GridCtrl.obj
 0001:0013b490       ??_GCGridCell@@UAEPAXI@Z   0053c490 f i GridCtrl.obj
 0001:0013b490       ??_ECGridCell@@UAEPAXI@Z   0053c490 f i GridCtrl.obj
 0001:0013b4d0       ??1CGridCell@@UAE@XZ       0053c4d0 f i GridCtrl.obj
 0001:0013b530       ?RemoveAll@CObArray@@QAEXXZ 0053c530 f i GridCtrl.obj
 0001:0013b550       ?SetCell@CGridCtrl@@IAEHHHPAVCGridCell@@@Z 0053c550 f i GridCtrl.obj
 0001:0013b5e0       ??M@YG_NABVCString@@0@Z    0053c5e0 f i GridCtrl.obj
 0001:0013b610       ??O@YG_NABVCString@@0@Z    0053c610 f i GridCtrl.obj
 0001:0013b640       ?GetOwner@CWnd@@QBEPAV1@XZ 0053c640 f i GridCtrl.obj
 0001:0013b690       ??ACUIntArray@@QBEIH@Z     0053c690 f i GridCtrl.obj
 0001:0013b6b0       ?Intersect@CCellRange@@QBE?AV1@ABV1@@Z 0053c6b0 f i GridCtrl.obj
 0001:0013b7b0       ?OnMouseWheel@CWnd@@IAEHIFVCPoint@@@Z 0053c7b0 f i GridCtrl.obj
 0001:0013b7d0       ?InvertRect@CDC@@QAEXPBUtagRECT@@@Z 0053c7d0 f i GridCtrl.obj
 0001:0013b800       ??9CPoint@@QBEHUtagPOINT@@@Z 0053c800 f i GridCtrl.obj
 0001:0013b850       ?GetCapture@CWnd@@SGPAV1@XZ 0053c850 f i GridCtrl.obj
 0001:0013b870       ?GetDeviceCaps@CDC@@QBEHH@Z 0053c870 f i GridCtrl.obj
 0001:0013b8a0       ?StartDocA@CDC@@QAEHPAU_DOCINFOA@@@Z 0053c8a0 f i GridCtrl.obj
 0001:0013b8d0       ?StartPage@CDC@@QAEHXZ     0053c8d0 f i GridCtrl.obj
 0001:0013b8f0       ?EndPage@CDC@@QAEHXZ       0053c8f0 f i GridCtrl.obj
 0001:0013b910       ?AbortDoc@CDC@@QAEHXZ      0053c910 f i GridCtrl.obj
 0001:0013b930       ?EndDoc@CDC@@QAEHXZ        0053c930 f i GridCtrl.obj
 0001:0013b950       ?SetViewportExt@CDC@@QAE?AVCSize@@UtagSIZE@@@Z 0053c950 f i GridCtrl.obj
 0001:0013b9a0       ?SetWindowExt@CDC@@QAE?AVCSize@@UtagSIZE@@@Z 0053c9a0 f i GridCtrl.obj
 0001:0013b9f0       ?GetLogFont@CFont@@QAEHPAUtagLOGFONTA@@@Z 0053c9f0 f i GridCtrl.obj
 0001:0013ba20       ??0CFileException@@QAE@HJPBD@Z 0053ca20 f i GridCtrl.obj
 0001:0013bac0       ??1CException@@UAE@XZ      0053cac0 f i GridCtrl.obj
 0001:0013baf0       ??_GCException@@UAEPAXI@Z  0053caf0 f i GridCtrl.obj
 0001:0013baf0       ??_ECException@@UAEPAXI@Z  0053caf0 f i GridCtrl.obj
 0001:0013bb30       ??_GCFileException@@UAEPAXI@Z 0053cb30 f i GridCtrl.obj
 0001:0013bb30       ??_ECFileException@@UAEPAXI@Z 0053cb30 f i GridCtrl.obj
 0001:0013bb70       ??1CFileException@@UAE@XZ  0053cb70 f i GridCtrl.obj
 0001:0013bbe0       ??HCSize@@QBE?AV0@UtagSIZE@@@Z 0053cbe0 f i GridCtrl.obj
 0001:0013bc30       ?GetTextExtent@CDC@@QBE?AVCSize@@ABVCString@@@Z 0053cc30 f i GridCtrl.obj
 0001:0013bc90       ??YCSize@@QAEXUtagSIZE@@@Z 0053cc90 f i GridCtrl.obj
 0001:0013bcd0       ?GetCurrentPen@CDC@@QBEPAVCPen@@XZ 0053ccd0 f i GridCtrl.obj
 0001:0013bd00       ?FromHandle@CPen@@SGPAV1@PAUHPEN__@@@Z 0053cd00 f i GridCtrl.obj
 0001:0013bd20       ?LoadStandardCursor@CWinApp@@QBEPAUHICON__@@PBD@Z 0053cd20 f i GridCtrl.obj
 0001:0013bd40       ??0CWaitCursor@@QAE@XZ     0053cd40 f i GridCtrl.obj
 0001:0013bd60       ??1CWaitCursor@@QAE@XZ     0053cd60 f i GridCtrl.obj
 0001:0013bd80       ?GetPrinterDC@CPrintDialog@@QBEPAUHDC__@@XZ 0053cd80 f i GridCtrl.obj
 0001:0013bda0       ?Add@?$CTypedPtrArray@VCObArray@@PAV?$CTypedPtrArray@VCObArray@@PAVCGridCell@@@@@@QAEHPAV?$CTypedPtrArray@VCObArray@@PAVCGridCell@@@@@Z 0053cda0 f i GridCtrl.obj
 0001:0013bdc0       ?Add@CObArray@@QAEHPAVCObject@@@Z 0053cdc0 f i GridCtrl.obj
 0001:0013be00       ?InsertAt@?$CTypedPtrArray@VCObArray@@PAV?$CTypedPtrArray@VCObArray@@PAVCGridCell@@@@@@QAEXHPAV?$CTypedPtrArray@VCObArray@@PAVCGridCell@@@@H@Z 0053ce00 f i GridCtrl.obj
 0001:0013be30       ??A?$CTypedPtrArray@VCObArray@@PAV?$CTypedPtrArray@VCObArray@@PAVCGridCell@@@@@@QBEPAV?$CTypedPtrArray@VCObArray@@PAVCGridCell@@@@H@Z 0053ce30 f i GridCtrl.obj
 0001:0013be50       ??ACObArray@@QBEPAVCObject@@H@Z 0053ce50 f i GridCtrl.obj
 0001:0013be70       ?GetAt@CObArray@@QBEPAVCObject@@H@Z 0053ce70 f i GridCtrl.obj
 0001:0013be90       ??A?$CTypedPtrArray@VCObArray@@PAV?$CTypedPtrArray@VCObArray@@PAVCGridCell@@@@@@QAEAAPAV?$CTypedPtrArray@VCObArray@@PAVCGridCell@@@@H@Z 0053ce90 f i GridCtrl.obj
 0001:0013beb0       ??ACObArray@@QAEAAPAVCObject@@H@Z 0053ceb0 f i GridCtrl.obj
 0001:0013bed0       ?ElementAt@CObArray@@QAEAAPAVCObject@@H@Z 0053ced0 f i GridCtrl.obj
 0001:0013bef0       ?GetAt@?$CTypedPtrArray@VCObArray@@PAVCGridCell@@@@QBEPAVCGridCell@@H@Z 0053cef0 f i GridCtrl.obj
 0001:0013bf10       ?SetAt@?$CTypedPtrArray@VCObArray@@PAVCGridCell@@@@QAEXHPAVCGridCell@@@Z 0053cf10 f i GridCtrl.obj
 0001:0013bf40       ?SetAt@CObArray@@QAEXHPAVCObject@@@Z 0053cf40 f i GridCtrl.obj
 0001:0013bf70       ?Add@?$CTypedPtrArray@VCObArray@@PAVCGridCell@@@@QAEHPAVCGridCell@@@Z 0053cf70 f i GridCtrl.obj
 0001:0013bf90       ?InsertAt@?$CTypedPtrArray@VCObArray@@PAVCGridCell@@@@QAEXHPAVCGridCell@@H@Z 0053cf90 f i GridCtrl.obj
 0001:0013bfc0       ?SetMaxPage@CPrintInfo@@QAEXI@Z 0053cfc0 f i GridCtrl.obj
 0001:0013bff0       ?GetMinPage@CPrintInfo@@QBEIXZ 0053cff0 f i GridCtrl.obj
 0001:0013c010       ?GetMaxPage@CPrintInfo@@QBEIXZ 0053d010 f i GridCtrl.obj
 0001:0013c030       ??0?$CMap@KKVCCellID@@AAV1@@@QAE@H@Z 0053d030 f i GridCtrl.obj
 0001:0013c0b0       ?Lookup@?$CMap@KKVCCellID@@AAV1@@@QBEHKAAVCCellID@@@Z 0053d0b0 f i GridCtrl.obj
 0001:0013c110       ?SetAt@?$CMap@KKVCCellID@@AAV1@@@QAEXKAAVCCellID@@@Z 0053d110 f i GridCtrl.obj
 0001:0013c150       ?RemoveKey@?$CMap@KKVCCellID@@AAV1@@@QAEHK@Z 0053d150 f i GridCtrl.obj
 0001:0013c200       ?RemoveAll@?$CMap@KKVCCellID@@AAV1@@@QAEXXZ 0053d200 f i GridCtrl.obj
 0001:0013c2f0       ?GetStartPosition@?$CMap@KKVCCellID@@AAV1@@@QBEPAU__POSITION@@XZ 0053d2f0 f i GridCtrl.obj
 0001:0013c310       ?GetNextAssoc@?$CMap@KKVCCellID@@AAV1@@@QBEXAAPAU__POSITION@@AAKAAVCCellID@@@Z 0053d310 f i GridCtrl.obj
 0001:0013c400       ??1?$CMap@KKVCCellID@@AAV1@@@UAE@XZ 0053d400 f i GridCtrl.obj
 0001:0013c470       ?Serialize@?$CMap@KKVCCellID@@AAV1@@@UAEXAAVCArchive@@@Z 0053d470 f i GridCtrl.obj
 0001:0013c5c0       ??_E?$CMap@KKVCCellID@@AAV1@@@UAEPAXI@Z 0053d5c0 f i GridCtrl.obj
 0001:0013c5c0       ??_G?$CMap@KKVCCellID@@AAV1@@@UAEPAXI@Z 0053d5c0 f i GridCtrl.obj
 0001:0013c600       ??A?$CMap@KKVCCellID@@AAV1@@@QAEAAVCCellID@@K@Z 0053d600 f i GridCtrl.obj
 0001:0013c6b0       ?FreeAssoc@?$CMap@KKVCCellID@@AAV1@@@IAEXPAUCAssoc@1@@Z 0053d6b0 f i GridCtrl.obj
 0001:0013c730       ?GetAssocAt@?$CMap@KKVCCellID@@AAV1@@@IBEPAUCAssoc@1@KAAI@Z 0053d730 f i GridCtrl.obj
 0001:0013c7c0       ?HashKey@@YGIK@Z           0053d7c0 f i GridCtrl.obj
 0001:0013c7d0       ?CompareElements@@YGHPBK0@Z 0053d7d0 f i GridCtrl.obj
 0001:0013c7f0       ?DestructElements@@YGXPAVCCellID@@H@Z 0053d7f0 f i GridCtrl.obj
 0001:0013c820       ?DestructElements@@YGXPAKH@Z 0053d820 f i GridCtrl.obj
 0001:0013c850       ?SerializeElements@@YGXAAVCArchive@@PAKH@Z 0053d850 f i GridCtrl.obj
 0001:0013c8a0       ?SerializeElements@@YGXAAVCArchive@@PAVCCellID@@H@Z 0053d8a0 f i GridCtrl.obj
 0001:0013c8f0       ?InitHashTable@?$CMap@KKVCCellID@@AAV1@@@QAEXIH@Z 0053d8f0 f i GridCtrl.obj
 0001:0013c990       ?NewAssoc@?$CMap@KKVCCellID@@AAV1@@@IAEPAUCAssoc@1@XZ 0053d990 f i GridCtrl.obj
 0001:0013caa0       ?ConstructElements@@YGXPAKH@Z 0053daa0 f i GridCtrl.obj
 0001:0013cb00       ?ConstructElements@@YGXPAVCCellID@@H@Z 0053db00 f i GridCtrl.obj
 0001:0013cbd0       ??3@YAXPAX0@Z              0053dbd0 f i GridCtrl.obj
 0001:0013cbe0       ??_9@$BOE@AE               0053dbe0 f i GridCtrl.obj
 0001:0013cbf0       ??_9@$BOI@AE               0053dbf0 f i GridCtrl.obj
 0001:0013cc00       ??_9@$BOM@AE               0053dc00 f i GridCtrl.obj
 0001:0013cc10       ??_9@$BPA@AE               0053dc10 f i GridCtrl.obj
 0001:0013cc20       ?Add@CImageList@@QAEHPAVCBitmap@@K@Z 0053dc20 f i GridCtrl.obj
 0001:0013cc50       ??0CGridDropTarget@@QAE@XZ 0053dc50 f   GridDropTarget.obj
 0001:0013cc83       ??1CGridDropTarget@@UAE@XZ 0053dc83 f   GridDropTarget.obj
 0001:0013cc9f       ?Register@CGridDropTarget@@QAEHPAVCGridCtrl@@@Z 0053dc9f f   GridDropTarget.obj
 0001:0013ccf5       ?Revoke@CGridDropTarget@@UAEXXZ 0053dcf5 f   GridDropTarget.obj
 0001:0013cd12       ?_GetBaseMessageMap@CGridDropTarget@@KGPBUAFX_MSGMAP@@XZ 0053dd12 f   GridDropTarget.obj
 0001:0013cd1c       ?GetMessageMap@CGridDropTarget@@MBEPBUAFX_MSGMAP@@XZ 0053dd1c f   GridDropTarget.obj
 0001:0013cd2c       ?OnDragScroll@CGridDropTarget@@UAEKPAVCWnd@@KVCPoint@@@Z 0053dd2c f   GridDropTarget.obj
 0001:0013cd6e       ?OnDragEnter@CGridDropTarget@@UAEKPAVCWnd@@PAVCOleDataObject@@KVCPoint@@@Z 0053dd6e f   GridDropTarget.obj
 0001:0013cde2       ?OnDragLeave@CGridDropTarget@@UAEXPAVCWnd@@@Z 0053dde2 f   GridDropTarget.obj
 0001:0013ce42       ?OnDragOver@CGridDropTarget@@UAEKPAVCWnd@@PAVCOleDataObject@@KVCPoint@@@Z 0053de42 f   GridDropTarget.obj
 0001:0013ce92       ?OnDrop@CGridDropTarget@@UAEHPAVCWnd@@PAVCOleDataObject@@KVCPoint@@@Z 0053de92 f   GridDropTarget.obj
 0001:0013cfc0       ??_GCGridDropTarget@@UAEPAXI@Z 0053dfc0 f i GridDropTarget.obj
 0001:0013cfc0       ??_ECGridDropTarget@@UAEPAXI@Z 0053dfc0 f i GridDropTarget.obj
 0001:0013d000       ??0CInPlaceEdit@@QAE@PAVCWnd@@AAVCRect@@KIHHVCString@@I@Z 0053e000 f   InPlaceEdit.obj
 0001:0013d1fe       ??1CInPlaceEdit@@UAE@XZ    0053e1fe f   InPlaceEdit.obj
 0001:0013d252       ?_GetBaseMessageMap@CInPlaceEdit@@KGPBUAFX_MSGMAP@@XZ 0053e252 f   InPlaceEdit.obj
 0001:0013d25c       ?GetMessageMap@CInPlaceEdit@@MBEPBUAFX_MSGMAP@@XZ 0053e25c f   InPlaceEdit.obj
 0001:0013d26c       ?OnKeyDown@CInPlaceEdit@@IAEXIII@Z 0053e26c f   InPlaceEdit.obj
 0001:0013d2e3       ?OnKillFocus@CInPlaceEdit@@IAEXPAVCWnd@@@Z 0053e2e3 f   InPlaceEdit.obj
 0001:0013d304       ?OnChar@CInPlaceEdit@@IAEXIII@Z 0053e304 f   InPlaceEdit.obj
 0001:0013d498       ?OnGetDlgCode@CInPlaceEdit@@IAEIXZ 0053e498 f   InPlaceEdit.obj
 0001:0013d4a8       ?PreTranslateMessage@CInPlaceEdit@@UAEHPAUtagMSG@@@Z 0053e4a8 f   InPlaceEdit.obj
 0001:0013d4d4       ?PostNcDestroy@CInPlaceEdit@@MAEXXZ 0053e4d4 f   InPlaceEdit.obj
 0001:0013d514       ?EndEdit@CInPlaceEdit@@QAEXXZ 0053e514 f   InPlaceEdit.obj
 0001:0013d7d0       ??_ECInPlaceEdit@@UAEPAXI@Z 0053e7d0 f i InPlaceEdit.obj
 0001:0013d7d0       ??_GCInPlaceEdit@@UAEPAXI@Z 0053e7d0 f i InPlaceEdit.obj
 0001:0013d810       ??0tagGV_DISPINFO@@QAE@XZ  0053e810 f i InPlaceEdit.obj
 0001:0013d830       ??1tagGV_DISPINFO@@QAE@XZ  0053e830 f i InPlaceEdit.obj
 0001:0013d850       ??0CComboEdit@@QAE@XZ      0053e850 f   InPlaceList.obj
 0001:0013d86f       ??1CComboEdit@@UAE@XZ      0053e86f f   InPlaceList.obj
 0001:0013d88b       ?PreTranslateMessage@CComboEdit@@UAEHPAUtagMSG@@@Z 0053e88b f   InPlaceList.obj
 0001:0013d8ea       ?_GetBaseMessageMap@CComboEdit@@KGPBUAFX_MSGMAP@@XZ 0053e8ea f   InPlaceList.obj
 0001:0013d8f4       ?GetMessageMap@CComboEdit@@MBEPBUAFX_MSGMAP@@XZ 0053e8f4 f   InPlaceList.obj
 0001:0013d904       ?OnKillFocus@CComboEdit@@IAEXPAVCWnd@@@Z 0053e904 f   InPlaceList.obj
 0001:0013d938       ?OnKeyDown@CComboEdit@@IAEXIII@Z 0053e938 f   InPlaceList.obj
 0001:0013d9cd       ?OnKeyUp@CComboEdit@@IAEXIII@Z 0053e9cd f   InPlaceList.obj
 0001:0013da68       ??0CInPlaceList@@QAE@PAVCWnd@@AAVCRect@@KIHHAAVCStringArray@@HI@Z 0053ea68 f   InPlaceList.obj
 0001:0013dec8       ??0CInPlaceList@@QAE@PAVCWnd@@AAVCRect@@KIHHAAVCStringArray@@VCString@@I@Z 0053eec8 f   InPlaceList.obj
 0001:0013e305       ??1CInPlaceList@@UAE@XZ    0053f305 f   InPlaceList.obj
 0001:0013e36b       ?EndEdit@CInPlaceList@@IAEXXZ 0053f36b f   InPlaceList.obj
 0001:0013e4b4       ?PostNcDestroy@CInPlaceList@@MAEXXZ 0053f4b4 f   InPlaceList.obj
 0001:0013e4f4       ?_GetBaseMessageMap@CInPlaceList@@KGPBUAFX_MSGMAP@@XZ 0053f4f4 f   InPlaceList.obj
 0001:0013e4fe       ?GetMessageMap@CInPlaceList@@MBEPBUAFX_MSGMAP@@XZ 0053f4fe f   InPlaceList.obj
 0001:0013e50e       ?OnKillFocus@CInPlaceList@@IAEXPAVCWnd@@@Z 0053f50e f   InPlaceList.obj
 0001:0013e559       ?OnKeyDown@CInPlaceList@@IAEXIII@Z 0053f559 f   InPlaceList.obj
 0001:0013e5d6       ?OnKeyUp@CInPlaceList@@IAEXIII@Z 0053f5d6 f   InPlaceList.obj
 0001:0013e643       ?OnSelchange@CInPlaceList@@IAEXXZ 0053f643 f   InPlaceList.obj
 0001:0013e9e0       ??_ECComboEdit@@UAEPAXI@Z  0053f9e0 f i InPlaceList.obj
 0001:0013e9e0       ??_GCComboEdit@@UAEPAXI@Z  0053f9e0 f i InPlaceList.obj
 0001:0013ea20       ??_ECInPlaceList@@UAEPAXI@Z 0053fa20 f i InPlaceList.obj
 0001:0013ea20       ??_GCInPlaceList@@UAEPAXI@Z 0053fa20 f i InPlaceList.obj
 0001:0013ea60       ??ACStringArray@@QAEAAVCString@@H@Z 0053fa60 f i InPlaceList.obj
 0001:0013ea80       ?ElementAt@CStringArray@@QAEAAVCString@@H@Z 0053fa80 f i InPlaceList.obj
 0001:0013eaa0       ?OnKeyUp@CWnd@@IAEXIII@Z   0053faa0 f i InPlaceList.obj
 0001:0013eac0       ?SetItemHeight@CComboBox@@QAEHHI@Z 0053fac0 f i InPlaceList.obj
 0001:0013eb00       ?SetHorizontalExtent@CComboBox@@QAEXI@Z 0053fb00 f i InPlaceList.obj
 0001:0013eb30       ?SetDroppedWidth@CComboBox@@QAEHI@Z 0053fb30 f i InPlaceList.obj
 0001:0013eb60       ??0CListTouFoncAction@@QAE@XZ 0053fb60 f   ListTouFoncAction.obj
 0001:0013eb87       ??1CListTouFoncAction@@UAE@XZ 0053fb87 f   ListTouFoncAction.obj
 0001:0013eba3       ?Initialisation@CListTouFoncAction@@QAEHXZ 0053fba3 f   ListTouFoncAction.obj
 0001:0013ed19       ?OnEndEditCell@CListTouFoncAction@@UAEXHHVCString@@@Z 0053fd19 f   ListTouFoncAction.obj
 0001:0013ed7f       ?OnEditCell@CListTouFoncAction@@UAEXHHI@Z 0053fd7f f   ListTouFoncAction.obj
 0001:0013f041       ?MenagePrintemps@CListTouFoncAction@@QAEXXZ 00540041 f   ListTouFoncAction.obj
 0001:0013f0a8       ?MiseAJour@CListTouFoncAction@@QAEHPAVCListActTf@@@Z 005400a8 f   ListTouFoncAction.obj
 0001:0013f490       ??_ECListTouFoncAction@@UAEPAXI@Z 00540490 f i ListTouFoncAction.obj
 0001:0013f490       ??_GCListTouFoncAction@@UAEPAXI@Z 00540490 f i ListTouFoncAction.obj
 0001:0013f4d0       ?LitAction@CDActionBouton@@QAE?AVCString@@XZ 005404d0 f i ListTouFoncAction.obj
 0001:0013f510       ?EcritTitre@CDActionBouton@@QAEXPBD@Z 00540510 f i ListTouFoncAction.obj
 0001:0013f540       ??0CPropOsysBar@@QAE@XZ    00540540 f   proposysbar.obj
 0001:0013f610       ??1CPropOsysBar@@UAE@XZ    00540610 f   proposysbar.obj
 0001:0013f697       ?_GetBaseMessageMap@CPropOsysBar@@KGPBUAFX_MSGMAP@@XZ 00540697 f   proposysbar.obj
 0001:0013f6a1       ?GetMessageMap@CPropOsysBar@@MBEPBUAFX_MSGMAP@@XZ 005406a1 f   proposysbar.obj
 0001:0013f6b1       ?OnCreate@CPropOsysBar@@IAEHPAUtagCREATESTRUCTA@@@Z 005406b1 f   proposysbar.obj
 0001:0013f7f5       ?CalcFixedLayout@CPropOsysBar@@UAE?AVCSize@@HH@Z 005407f5 f   proposysbar.obj
 0001:0013f9bc       ?CalcDynamicLayout@CPropOsysBar@@UAE?AVCSize@@HK@Z 005409bc f   proposysbar.obj
 0001:0013fb6c       ?InitialiseTableau@CPropOsysBar@@QAEXXZ 00540b6c f   proposysbar.obj
 0001:0013fca5       ?AjouteLigneTableau@CPropOsysBar@@QAEXHPBD00H@Z 00540ca5 f   proposysbar.obj
 0001:0014013f       ?RazTableau@CPropOsysBar@@QAEXXZ 0054113f f   proposysbar.obj
 0001:00140197       ?ModifieLigneTableau@CPropOsysBar@@QAEXPBD0H@Z 00541197 f   proposysbar.obj
 0001:001402be       ?AjouteMemoireUtilisateur@CPropOsysBar@@QAEXPBDHH@Z 005412be f   proposysbar.obj
 0001:001404c0       ?SupprimeTout@CPropOsysBar@@QAEXXZ 005414c0 f   proposysbar.obj
 0001:0014054d       ?Init@CPropOsysBar@@QAEXPAVCOsysObjet@@@Z 0054154d f   proposysbar.obj
 0001:00140583       ?Init@CPropOsysBar@@QAEXPAVCOsysFrame@@@Z 00541583 f   proposysbar.obj
 0001:001405b9       ?AjouteChamp@CPropOsysBar@@QAEPAVCDefChampProp@@AAVCStringList@@HPBD1H1@Z 005415b9 f   proposysbar.obj
 0001:00140661       ?RechercheDefChamp@CPropOsysBar@@QAEPAVCDefChampProp@@PBD@Z 00541661 f   proposysbar.obj
 0001:001406c4       ?AjouteChampTableau@CPropOsysBar@@QAEXPAVCDefChampProp@@@Z 005416c4 f   proposysbar.obj
 0001:0014081e       ?ValeurDesignationArchive@CPropOsysBar@@QAE?AVCString@@PBDHH@Z 0054181e f   proposysbar.obj
 0001:00141027       ?RechercheValeurChaine@CPropOsysBar@@QAE?AVCString@@PBD@Z 00542027 f   proposysbar.obj
 0001:00141175       ?RechercheCouleur@CPropOsysBar@@QAEKPBD@Z 00542175 f   proposysbar.obj
 0001:00141264       ?RechercheValeurInt@CPropOsysBar@@QAEHPBD@Z 00542264 f   proposysbar.obj
 0001:001412eb       ?OnModifChampTypeRect@CPropOsysBar@@QAEXAAVCOutputArchive@@PAVCDefChampProp@@@Z 005422eb f   proposysbar.obj
 0001:001414cd       ?OnModifChampTypeEntier@CPropOsysBar@@QAEXAAVCOutputArchive@@PAVCDefChampProp@@@Z 005424cd f   proposysbar.obj
 0001:0014155f       ?OnModifChampTypeCouleur@CPropOsysBar@@QAEXAAVCOutputArchive@@PAVCDefChampProp@@@Z 0054255f f   proposysbar.obj
 0001:00141617       ?OnModifChampTypeStyleTrait@CPropOsysBar@@QAEXAAVCOutputArchive@@PAVCDefChampProp@@@Z 00542617 f   proposysbar.obj
 0001:0014172f       ?OnModifChampTypeChaine@CPropOsysBar@@QAEXAAVCOutputArchive@@PAVCDefChampProp@@@Z 0054272f f   proposysbar.obj
 0001:001417e0       ?OnModifChampTypeAlignement@CPropOsysBar@@QAEXAAVCOutputArchive@@PAVCDefChampProp@@@Z 005427e0 f   proposysbar.obj
 0001:0014190f       ?OnModifChampTypePolice@CPropOsysBar@@QAEXAAVCOutputArchive@@PAVCDefChampProp@@@Z 0054290f f   proposysbar.obj
 0001:00141a53       ?OnModifChampTypeBool@CPropOsysBar@@QAEXAAVCOutputArchive@@PAVCDefChampProp@@@Z 00542a53 f   proposysbar.obj
 0001:00141b3a       ?OnModifChampTypeOuverture@CPropOsysBar@@QAEXAAVCOutputArchive@@PAVCDefChampProp@@@Z 00542b3a f   proposysbar.obj
 0001:00141c6d       ?OnModifChampTypeChaineLangue@CPropOsysBar@@QAEXAAVCOutputArchive@@PAVCDefChampProp@@@Z 00542c6d f   proposysbar.obj
 0001:00141d5a       ?OnModifChampTypeActionScenario@CPropOsysBar@@QAEXAAVCOutputArchive@@PAVCDefChampProp@@@Z 00542d5a f   proposysbar.obj
 0001:00141d86       ?OnModifChampTypeSelectTableau@CPropOsysBar@@QAEXAAVCOutputArchive@@PAVCDefChampProp@@@Z 00542d86 f   proposysbar.obj
 0001:00141e6d       ?OnModifChampTypeActionClavier@CPropOsysBar@@QAEXAAVCOutputArchive@@PAVCDefChampProp@@@Z 00542e6d f   proposysbar.obj
 0001:00141e99       ?ModifieChamp@CPropOsysBar@@QAEPAVCDefChampProp@@PBD0@Z 00542e99 f   proposysbar.obj
 0001:00141f25       ?ModifieChampTableau@CPropOsysBar@@QAEXPAVCDefChampProp@@@Z 00542f25 f   proposysbar.obj
 0001:0014205b       ?InitPropMemoire@CPropOsysBar@@QAEXXZ 0054305b f   proposysbar.obj
 0001:00142171       ?RechercheDefChampValPropArch@CPropOsysBar@@QAEPAVCDefChampProp@@PBD@Z 00543171 f   proposysbar.obj
 0001:001421dc       ?RenseigneColonneMemoireUtilisateur@CPropOsysBar@@QAEXPBDHH@Z 005431dc f   proposysbar.obj
 0001:0014229c       ?RechercheStyleTrait@CPropOsysBar@@QAE?AVCString@@H@Z 0054329c f   proposysbar.obj
 0001:0014237c       ?RechercheAlignement@CPropOsysBar@@QAE?AVCString@@H@Z 0054337c f   proposysbar.obj
 0001:00142456       ?InitListeObjetFrame@CPropOsysBar@@QAEXXZ 00543456 f   proposysbar.obj
 0001:00142643       ?NouvellePositionObjetTracke@CPropOsysBar@@QAEXVCRect@@@Z 00543643 f   proposysbar.obj
 0001:00142786       ??0CDefChampProp@@QAE@XZ   00543786 f   proposysbar.obj
 0001:00142800       ??0CDefChampProp@@QAE@AAVCStringList@@HPBD1H1@Z 00543800 f   proposysbar.obj
 0001:001428e2       ??1CDefChampProp@@UAE@XZ   005438e2 f   proposysbar.obj
 0001:00142957       ?RechercheDesignation@CDefChampProp@@QAEHPBD@Z 00543957 f   proposysbar.obj
 0001:00142a09       ?OnSize@CPropOsysBar@@IAEXIHH@Z 00543a09 f   proposysbar.obj
 0001:00143800       ??_GCPropOsysBar@@UAEPAXI@Z 00544800 f i proposysbar.obj
 0001:00143800       ??_ECPropOsysBar@@UAEPAXI@Z 00544800 f i proposysbar.obj
 0001:00143840       ?GetHeadPosition@CStringList@@QBEPAU__POSITION@@XZ 00544840 f i proposysbar.obj
 0001:00143860       ?GetNext@CStringList@@QAEAAVCString@@AAPAU__POSITION@@@Z 00544860 f i proposysbar.obj
 0001:00143890       ??_ECDefChampProp@@UAEPAXI@Z 00544890 f i proposysbar.obj
 0001:00143890       ??_GCDefChampProp@@UAEPAXI@Z 00544890 f i proposysbar.obj
 0001:001438d0       ?CollateNoCase@CString@@QBEHPBD@Z 005448d0 f i proposysbar.obj
 0001:00143900       __tcsicoll                 00544900 f i proposysbar.obj
 0001:00143920       ??0CPoint@@QAE@UtagSIZE@@@Z 00544920 f i proposysbar.obj
 0001:00143950       ??GCPoint@@QBE?AVCSize@@UtagPOINT@@@Z 00544950 f i proposysbar.obj
 0001:001439a0       ?Size@CRect@@QBE?AVCSize@@XZ 005449a0 f i proposysbar.obj
 0001:001439f0       ?SetItemDataPtr@CComboBox@@QAEHHPAX@Z 005449f0 f i proposysbar.obj
 0001:00143a20       ?SetItemData@CComboBox@@QAEHHK@Z 00544a20 f i proposysbar.obj
 0001:00143a50       ?EcritIdMem@CDefChampProp@@QAEXH@Z 00544a50 f i proposysbar.obj
 0001:00143a70       ?EcritIdUser@CDefChampProp@@QAEXH@Z 00544a70 f i proposysbar.obj
 0001:00143a90       ?_GetBaseMessageMap@CTableauProp@@KGPBUAFX_MSGMAP@@XZ 00544a90 f   tableauprop.obj
 0001:00143a9a       ?GetMessageMap@CTableauProp@@MBEPBUAFX_MSGMAP@@XZ 00544a9a f   tableauprop.obj
 0001:00143aaa       ??0CTableauProp@@QAE@XZ    00544aaa f   tableauprop.obj
 0001:00143b1e       ??1CTableauProp@@UAE@XZ    00544b1e f   tableauprop.obj
 0001:00143b87       ?OnEndEditCell@CTableauProp@@UAEXHHVCString@@@Z 00544b87 f   tableauprop.obj
 0001:001444fd       ?TestValiditeDonnee@CTableauProp@@QAEHHPBDPAVCOsysObjet@@@Z 005454fd f   tableauprop.obj
 0001:00144863       ?EstChaineNumerique@CTableauProp@@QAEHPBD@Z 00545863 f   tableauprop.obj
 0001:001448cf       ?EstNombre100@CTableauProp@@QAEHPBD@Z 005458cf f   tableauprop.obj
 0001:0014490b       ?EstNombrePositif@CTableauProp@@QAEHPBD@Z 0054590b f   tableauprop.obj
 0001:00144941       ?EstNumRadio@CTableauProp@@QAEHPBDPAVCOsysObjet@@@Z 00545941 f   tableauprop.obj
 0001:0014498e       ?EstValeurRadio@CTableauProp@@QAEHPBDPAVCOsysObjet@@@Z 0054598e f   tableauprop.obj
 0001:001449ca       ?EstStyleTrait@CTableauProp@@QAEHPBD@Z 005459ca f   tableauprop.obj
 0001:00144ab6       ?EstCouleur@CTableauProp@@QAEHPBD@Z 00545ab6 f   tableauprop.obj
 0001:00144acf       ?EstNumElementLB@CTableauProp@@QAEHPBDPAVCOsysObjet@@@Z 00545acf f   tableauprop.obj
 0001:00144b21       ?EstElementLB@CTableauProp@@QAEHPBDPAVCOsysObjet@@@Z 00545b21 f   tableauprop.obj
 0001:00144ba9       ?EstNumElementCB@CTableauProp@@QAEHPBDPAVCOsysObjet@@@Z 00545ba9 f   tableauprop.obj
 0001:00144bfb       ?EstElementCB@CTableauProp@@QAEHPBDPAVCOsysObjet@@@Z 00545bfb f   tableauprop.obj
 0001:00144c83       ?OnDragOver@CTableauProp@@UAEKPAVCOleDataObject@@KVCPoint@@@Z 00545c83 f   tableauprop.obj
 0001:00144ebc       ?OnDragEnter@CTableauProp@@UAEKPAVCOleDataObject@@KVCPoint@@@Z 00545ebc f   tableauprop.obj
 0001:00145053       ?OnDragLeave@CTableauProp@@UAEXXZ 00546053 f   tableauprop.obj
 0001:001450cb       ?OnDrop@CTableauProp@@UAEHPAVCOleDataObject@@KVCPoint@@@Z 005460cb f   tableauprop.obj
 0001:00145139       ?PasteTextToGrid@CTableauProp@@UAEHVCCellID@@PAVCOleDataObject@@@Z 00546139 f   tableauprop.obj
 0001:0014549f       ?TestIdDroppe@CTableauProp@@QAEHAAVCString@@AAH@Z 0054649f f   tableauprop.obj
 0001:00145822       ?IsCellDropable@CTableauProp@@QAEHVCCellID@@PAVCOleDataObject@@@Z 00546822 f   tableauprop.obj
 0001:001458e0       ?MajListePropMemUserObjet@CTableauProp@@QAEHHVCCellID@@H@Z 005468e0 f   tableauprop.obj
 0001:00145b04       ?MajAssocMemUser@CTableauProp@@QAEXPAVCDefChampProp@@@Z 00546b04 f   tableauprop.obj
 0001:00145caa       ?OnEditCell@CTableauProp@@UAEXHHI@Z 00546caa f   tableauprop.obj
 0001:00146cd0       ?PlaceListeTombante@CTableauProp@@QAEXHHIAAVCStringArray@@H@Z 00547cd0 f   tableauprop.obj
 0001:00146f01       ?FillFontList@CTableauProp@@QAEXXZ 00547f01 f   tableauprop.obj
 0001:00147069       ?EnumFontFamProc@@YGHPAUtagENUMLOGFONTA@@PAUtagNEWTEXTMETRICA@@KJ@Z 00548069 f   tableauprop.obj
 0001:00147093       ?FillTailleFontList@CTableauProp@@QAEXXZ 00548093 f   tableauprop.obj
 0001:001471dc       ?FillStyleFontList@CTableauProp@@QAEXXZ 005481dc f   tableauprop.obj
 0001:0014728d       ?OnKeyDown@CTableauProp@@IAEXIII@Z 0054828d f   tableauprop.obj
 0001:0014730d       ?EncodeChaineArchiveIdDroppe@CTableauProp@@QAEHH@Z 0054830d f   tableauprop.obj
 0001:001482e0       ??_ECTableauProp@@UAEPAXI@Z 005492e0 f i tableauprop.obj
 0001:001482e0       ??_GCTableauProp@@UAEPAXI@Z 005492e0 f i tableauprop.obj
 0001:00148320       ??1CColorDialog@@UAE@XZ    00549320 f i tableauprop.obj
 0001:00148340       ??BCDC@@QBEPAUHDC__@@XZ    00549340 f i tableauprop.obj
 0001:00148380       ?FindString@CComboBox@@QBEHHPBD@Z 00549380 f i tableauprop.obj
 0001:001483b0       ?GetColor@CColorDialog@@QBEKXZ 005493b0 f i tableauprop.obj
 0001:001483d0       ?LitIdMem@CDefChampProp@@QAEHXZ 005493d0 f i tableauprop.obj
 0001:001483f0       ?LitIdUser@CDefChampProp@@QAEHXZ 005493f0 f i tableauprop.obj
 0001:00148410       ?LitAction@CDactionScenario@@QAE?AVCString@@XZ 00549410 f i tableauprop.obj
 0001:00148450       ??0CTitleTip@@QAE@XZ       00549450 f   TitleTip.obj
 0001:00148535       ??1CTitleTip@@UAE@XZ       00549535 f   TitleTip.obj
 0001:00148551       ?_GetBaseMessageMap@CTitleTip@@KGPBUAFX_MSGMAP@@XZ 00549551 f   TitleTip.obj
 0001:0014855b       ?GetMessageMap@CTitleTip@@MBEPBUAFX_MSGMAP@@XZ 0054955b f   TitleTip.obj
 0001:0014856b       ?Create@CTitleTip@@UAEHPAVCWnd@@@Z 0054956b f   TitleTip.obj
 0001:001485c2       ?Show@CTitleTip@@QAEXVCRect@@PBDHPAUtagRECT@@PAUtagLOGFONTA@@@Z 005495c2 f   TitleTip.obj
 0001:001488a7       ?Hide@CTitleTip@@QAEXXZ    005498a7 f   TitleTip.obj
 0001:001488f3       ?OnMouseMove@CTitleTip@@IAEXIVCPoint@@@Z 005498f3 f   TitleTip.obj
 0001:001489f7       ?PreTranslateMessage@CTitleTip@@UAEHPAUtagMSG@@@Z 005499f7 f   TitleTip.obj
 0001:00148dd0       ??_ECTitleTip@@UAEPAXI@Z   00549dd0 f i TitleTip.obj
 0001:00148dd0       ??_GCTitleTip@@UAEPAXI@Z   00549dd0 f i TitleTip.obj
 0001:00148e10       ?IsRectEmpty@CRect@@QBEHXZ 00549e10 f i TitleTip.obj
 0001:00148e30       ?IsWindowVisible@CWnd@@QBEHXZ 00549e30 f i TitleTip.obj
 0001:00148e50       ??0CCircTrackerOsys@@QAE@XZ 00549e50 f   CircTrackerOsys.obj
 0001:00148eb9       ??0CCircTrackerOsys@@QAE@ABUtagPOINT@@0@Z 00549eb9 f   CircTrackerOsys.obj
 0001:00148f32       ?SetDefaults@CCircTrackerOsys@@AAEXXZ 00549f32 f   CircTrackerOsys.obj
 0001:00148fad       ?GetPos@CCircTrackerOsys@@QBEXPAUtagPOINT@@0@Z 00549fad f   CircTrackerOsys.obj
 0001:00148fdb       ?SetPos@CCircTrackerOsys@@QAEXABUtagPOINT@@0@Z 00549fdb f   CircTrackerOsys.obj
 0001:0014902b       ?SetValidRect@CCircTrackerOsys@@QAEXABVCRect@@@Z 0054a02b f   CircTrackerOsys.obj
 0001:00149062       ?IsValidPos@CCircTrackerOsys@@AAEHABUKLinePos@1@@Z 0054a062 f   CircTrackerOsys.obj
 0001:001490e5       ?GetHandleRect@CCircTrackerOsys@@ABE?AVCRect@@W4KHandleType@1@@Z 0054a0e5 f   CircTrackerOsys.obj
 0001:001492fa       ?Draw@CCircTrackerOsys@@QBEXPAVCDC@@@Z 0054a2fa f   CircTrackerOsys.obj
 0001:001494db       ?HitTest@CCircTrackerOsys@@QBEHVCPoint@@@Z 0054a4db f   CircTrackerOsys.obj
 0001:001498dc       ?SetCursor@CCircTrackerOsys@@QBEHPAVCWnd@@I@Z 0054a8dc f   CircTrackerOsys.obj
 0001:00149a60       ?Track@CCircTrackerOsys@@QAEHPAVCWnd@@VCPoint@@@Z 0054aa60 f   CircTrackerOsys.obj
 0001:00149a92       ?TrackRubberBand@CCircTrackerOsys@@QAEHPAVCWnd@@VCPoint@@@Z 0054aa92 f   CircTrackerOsys.obj
 0001:00149ad2       ?TrackHandle@CCircTrackerOsys@@AAEHPAVCWnd@@VCPoint@@H@Z 0054aad2 f   CircTrackerOsys.obj
 0001:0014a3f9       ?DessineEllipse@CCircTrackerOsys@@QBEXPAVCDC@@VCPoint@@1@Z 0054b3f9 f   CircTrackerOsys.obj
 0001:0014aa50       ??0KLinePos@CCircTrackerOsys@@QAE@XZ 0054ba50 f i CircTrackerOsys.obj
 0001:0014aa80       ??0CPoint@@QAE@UtagPOINT@@@Z 0054ba80 f i CircTrackerOsys.obj
 0001:0014aab0       ??HCPoint@@QBE?AV0@UtagSIZE@@@Z 0054bab0 f i CircTrackerOsys.obj
 0001:0014ab00       ??_4CRect@@QAEXABUtagRECT@@@Z 0054bb00 f i CircTrackerOsys.obj
 0001:0014ab30       ??HCRect@@QBE?AV0@UtagPOINT@@@Z 0054bb30 f i CircTrackerOsys.obj
 0001:0014aba0       ??GCRect@@QBE?AV0@UtagPOINT@@@Z 0054bba0 f i CircTrackerOsys.obj
 0001:0014ac20       ?CreateEllipticRgnIndirect@CRgn@@QAEHPBUtagRECT@@@Z 0054bc20 f i CircTrackerOsys.obj
 0001:0014ac50       ?PtInRegion@CRgn@@QBEHUtagPOINT@@@Z 0054bc50 f i CircTrackerOsys.obj
 0001:0014ac80       ?IsValidPos@CCircTrackerOsys@@QAEHXZ 0054bc80 f i CircTrackerOsys.obj
 0001:0014aca0       ?CreateObject@CFenetreDoc@@SGPAVCObject@@XZ 0054bca0 f   fenetredoc.obj
 0001:0014ad04       ?_GetBaseClass@CFenetreDoc@@KGPAUCRuntimeClass@@XZ 0054bd04 f   fenetredoc.obj
 0001:0014ad0e       ?GetRuntimeClass@CFenetreDoc@@UBEPAUCRuntimeClass@@XZ 0054bd0e f   fenetredoc.obj
 0001:0014ad1e       ??0CFenetreDoc@@IAE@XZ     0054bd1e f   fenetredoc.obj
 0001:0014ad3d       ??1CFenetreDoc@@UAE@XZ     0054bd3d f   fenetredoc.obj
 0001:0014ad59       ?_GetBaseMessageMap@CFenetreDoc@@KGPBUAFX_MSGMAP@@XZ 0054bd59 f   fenetredoc.obj
 0001:0014ad63       ?GetMessageMap@CFenetreDoc@@MBEPBUAFX_MSGMAP@@XZ 0054bd63 f   fenetredoc.obj
 0001:0014ad73       ?Serialize@CFenetreDoc@@UAEXAAVCArchive@@@Z 0054bd73 f   fenetredoc.obj
 0001:0014ad88       ?OnNewDocument@CFenetreDoc@@MAEHXZ 0054bd88 f   fenetredoc.obj
 0001:0014b0ff       ?DoFileSave@CFenetreDoc@@UAEHXZ 0054c0ff f   fenetredoc.obj
 0001:0014b11a       ?OnSaveDocument@CFenetreDoc@@UAEHPBD@Z 0054c11a f   fenetredoc.obj
 0001:0014b6c0       ??_ECFenetreDoc@@UAEPAXI@Z 0054c6c0 f i fenetredoc.obj
 0001:0014b6c0       ??_GCFenetreDoc@@UAEPAXI@Z 0054c6c0 f i fenetredoc.obj
 0001:0014b700       ?CreateObject@CFenetreFrm@@SGPAVCObject@@XZ 0054c700 f   fenetrefrm.obj
 0001:0014b767       ?_GetBaseClass@CFenetreFrm@@KGPAUCRuntimeClass@@XZ 0054c767 f   fenetrefrm.obj
 0001:0014b771       ?GetRuntimeClass@CFenetreFrm@@UBEPAUCRuntimeClass@@XZ 0054c771 f   fenetrefrm.obj
 0001:0014b781       ??0CFenetreFrm@@IAE@XZ     0054c781 f   fenetrefrm.obj
 0001:0014b7f1       ??1CFenetreFrm@@MAE@XZ     0054c7f1 f   fenetrefrm.obj
 0001:0014b85a       ?_GetBaseMessageMap@CFenetreFrm@@KGPBUAFX_MSGMAP@@XZ 0054c85a f   fenetrefrm.obj
 0001:0014b864       ?GetMessageMap@CFenetreFrm@@MBEPBUAFX_MSGMAP@@XZ 0054c864 f   fenetrefrm.obj
 0001:0014b874       ?OnCreate@CFenetreFrm@@IAEHPAUtagCREATESTRUCTA@@@Z 0054c874 f   fenetrefrm.obj
 0001:0014b8f1       ?OnAffichageRegles@CFenetreFrm@@IAEXXZ 0054c8f1 f   fenetrefrm.obj
 0001:0014b989       ?OnUpdateAffichageRegles@CFenetreFrm@@IAEXPAVCCmdUI@@@Z 0054c989 f   fenetrefrm.obj
 0001:0014b9cb       ?OnZoom@CFenetreFrm@@QAEXH@Z 0054c9cb f   fenetrefrm.obj
 0001:0014ba40       ?OnZoom100@CFenetreFrm@@IAEXXZ 0054ca40 f   fenetrefrm.obj
 0001:0014ba55       ?OnUpdateZoom100@CFenetreFrm@@IAEXPAVCCmdUI@@@Z 0054ca55 f   fenetrefrm.obj
 0001:0014ba98       ?OnZoom150@CFenetreFrm@@IAEXXZ 0054ca98 f   fenetrefrm.obj
 0001:0014bab0       ?OnUpdateZoom150@CFenetreFrm@@IAEXPAVCCmdUI@@@Z 0054cab0 f   fenetrefrm.obj
 0001:0014baf5       ?OnZoom200@CFenetreFrm@@IAEXXZ 0054caf5 f   fenetrefrm.obj
 0001:0014bb0d       ?OnUpdateZoom200@CFenetreFrm@@IAEXPAVCCmdUI@@@Z 0054cb0d f   fenetrefrm.obj
 0001:0014bb52       ?OnZoom25@CFenetreFrm@@IAEXXZ 0054cb52 f   fenetrefrm.obj
 0001:0014bb67       ?OnUpdateZoom25@CFenetreFrm@@IAEXPAVCCmdUI@@@Z 0054cb67 f   fenetrefrm.obj
 0001:0014bbaa       ?OnZoom50@CFenetreFrm@@IAEXXZ 0054cbaa f   fenetrefrm.obj
 0001:0014bbbf       ?OnUpdateZoom50@CFenetreFrm@@IAEXPAVCCmdUI@@@Z 0054cbbf f   fenetrefrm.obj
 0001:0014bc02       ?OnZoom500@CFenetreFrm@@IAEXXZ 0054cc02 f   fenetrefrm.obj
 0001:0014bc1a       ?OnUpdateZoom500@CFenetreFrm@@IAEXPAVCCmdUI@@@Z 0054cc1a f   fenetrefrm.obj
 0001:0014bc5f       ?OnZoom75@CFenetreFrm@@IAEXXZ 0054cc5f f   fenetrefrm.obj
 0001:0014bc74       ?OnUpdateZoom75@CFenetreFrm@@IAEXPAVCCmdUI@@@Z 0054cc74 f   fenetrefrm.obj
 0001:0014bcb7       ?OnUnite@CFenetreFrm@@QAEXH@Z 0054ccb7 f   fenetrefrm.obj
 0001:0014bd3a       ?OnOptionsUniteMm@CFenetreFrm@@IAEXXZ 0054cd3a f   fenetrefrm.obj
 0001:0014bd4f       ?OnUpdateOptionsUniteMm@CFenetreFrm@@IAEXPAVCCmdUI@@@Z 0054cd4f f   fenetrefrm.obj
 0001:0014bd92       ?OnOptionsUnitePixel@CFenetreFrm@@IAEXXZ 0054cd92 f   fenetrefrm.obj
 0001:0014bda7       ?OnUpdateOptionsUnitePixel@CFenetreFrm@@IAEXPAVCCmdUI@@@Z 0054cda7 f   fenetrefrm.obj
 0001:0014bde9       ?OnUpdateFilePrint@CFenetreFrm@@IAEXPAVCCmdUI@@@Z 0054cde9 f   fenetrefrm.obj
 0001:0014bdf6       ?OnFilePrint@CFenetreFrm@@IAEXXZ 0054cdf6 f   fenetrefrm.obj
 0001:0014be01       ?OnFilePrintPreview@CFenetreFrm@@IAEXXZ 0054ce01 f   fenetrefrm.obj
 0001:0014be0c       ?OnUpdateFilePrintPreview@CFenetreFrm@@IAEXPAVCCmdUI@@@Z 0054ce0c f   fenetrefrm.obj
 0001:0014be19       ?OnOptionsProprietes@CFenetreFrm@@IAEXXZ 0054ce19 f   fenetrefrm.obj
 0001:0014be8d       ?OnUpdateOptionsProprietes@CFenetreFrm@@IAEXPAVCCmdUI@@@Z 0054ce8d f   fenetrefrm.obj
 0001:0014bed2       ?OnSupprimer@CFenetreFrm@@IAEXXZ 0054ced2 f   fenetrefrm.obj
 0001:0014bef2       ?OnUpdateSupprimer@CFenetreFrm@@IAEXPAVCCmdUI@@@Z 0054cef2 f   fenetrefrm.obj
 0001:0014bf38       ?OnCopier@CFenetreFrm@@IAEXXZ 0054cf38 f   fenetrefrm.obj
 0001:0014bf58       ?OnUpdateCopier@CFenetreFrm@@IAEXPAVCCmdUI@@@Z 0054cf58 f   fenetrefrm.obj
 0001:0014bf9e       ?OnColler@CFenetreFrm@@IAEXXZ 0054cf9e f   fenetrefrm.obj
 0001:0014bfbe       ?OnUpdateColler@CFenetreFrm@@IAEXPAVCCmdUI@@@Z 0054cfbe f   fenetrefrm.obj
 0001:0014c004       ?OnUpdateAffichageOrdre@CFenetreFrm@@IAEXPAVCCmdUI@@@Z 0054d004 f   fenetrefrm.obj
 0001:0014c064       ?OnUpdateAffichageOrdreAvancerReculer@CFenetreFrm@@IAEXPAVCCmdUI@@@Z 0054d064 f   fenetrefrm.obj
 0001:0014c0c5       ?OnAffichageOrdreArrierePlan@CFenetreFrm@@IAEXXZ 0054d0c5 f   fenetrefrm.obj
 0001:0014c0e5       ?OnAffichageOrdreAvancer@CFenetreFrm@@IAEXXZ 0054d0e5 f   fenetrefrm.obj
 0001:0014c105       ?OnAffichageOrdrePremierPlan@CFenetreFrm@@IAEXXZ 0054d105 f   fenetrefrm.obj
 0001:0014c125       ?OnAffichageOrdreReculer@CFenetreFrm@@IAEXXZ 0054d125 f   fenetrefrm.obj
 0001:0014c145       ?OnOptionsGrille@CFenetreFrm@@IAEXXZ 0054d145 f   fenetrefrm.obj
 0001:0014c1ba       ?OnOrdreTab@CFenetreFrm@@IAEXXZ 0054d1ba f   fenetrefrm.obj
 0001:0014c247       ?OnUpdateOrdreTab@CFenetreFrm@@IAEXPAVCCmdUI@@@Z 0054d247 f   fenetrefrm.obj
 0001:0014c530       ??_GCFenetreFrm@@MAEPAXI@Z 0054d530 f i fenetrefrm.obj
 0001:0014c530       ??_ECFenetreFrm@@MAEPAXI@Z 0054d530 f i fenetrefrm.obj
 0001:0014c570       ??1CGestOrdObj@@UAE@XZ     0054d570 f i fenetrefrm.obj
